ARM GAS  /var/folders/9j/_txx49hn253_s3mnzkyxlj8m0000gp/T//ccIqLn15.s 			page 1


   1              		.cpu cortex-m0
   2              		.fpu softvfp
   3              		.eabi_attribute 20, 1	@ Tag_ABI_FP_denormal
   4              		.eabi_attribute 21, 1	@ Tag_ABI_FP_exceptions
   5              		.eabi_attribute 23, 3	@ Tag_ABI_FP_number_model
   6              		.eabi_attribute 24, 1	@ Tag_ABI_align8_needed
   7              		.eabi_attribute 25, 1	@ Tag_ABI_align8_preserved
   8              		.eabi_attribute 26, 1	@ Tag_ABI_enum_size
   9              		.eabi_attribute 30, 2	@ Tag_ABI_optimization_goals
  10              		.eabi_attribute 34, 0	@ Tag_CPU_unaligned_access
  11              		.eabi_attribute 18, 4	@ Tag_ABI_PCS_wchar_t
  12              		.file	"clock_11xx.c"
  13              	@ GNU C (GNU Tools for ARM Embedded Processors) version 4.9.3 20150529 (release) [ARM/embedded-4_9-
  14              	@	compiled by GNU C version 4.2.1 (Based on Apple Inc. build 5658) (LLVM build 2336.9.00), GMP vers
  15              	@ GGC heuristics: --param ggc-min-expand=100 --param ggc-min-heapsize=131072
  16              	@ options passed:  -I . -I inc/
  17              	@ -I ../lpc11cx4-library/lpc_chip_11cxx_lib/inc
  18              	@ -I ../lpc11cx4-library/evt_lib/inc/ -I ../MY17/lib/MY17_Can_Library
  19              	@ -imultilib armv6-m
  20              	@ -iprefix /usr/local/Cellar/gcc-arm-none-eabi/20150925/bin/../lib/gcc/arm-none-eabi/4.9.3/
  21              	@ -isysroot /usr/local/Cellar/gcc-arm-none-eabi/20150925/bin/../arm-none-eabi
  22              	@ -MD bin/clock_11xx.d -MF bin/clock_11xx.d -MP -MQ bin/clock_11xx.o
  23              	@ -D__USES_INITFINI__ -D UART_BAUD=115200 -D CORE_M0 -D DEBUG_ENABLE
  24              	@ -D CAN_ARCHITECTURE_ARM
  25              	@ ../lpc11cx4-library/lpc_chip_11cxx_lib/src/clock_11xx.c -mcpu=cortex-m0
  26              	@ -mthumb -auxbase-strip bin/clock_11xx.o -g -ggdb3 -O2 -Wall
  27              	@ -Wstrict-prototypes -Wextra -std=gnu90 -ffunction-sections
  28              	@ -fdata-sections -fdiagnostics-color=always -fverbose-asm
  29              	@ options enabled:  -faggressive-loop-optimizations -fauto-inc-dec
  30              	@ -fbranch-count-reg -fcaller-saves -fcombine-stack-adjustments -fcommon
  31              	@ -fcompare-elim -fcprop-registers -fcrossjumping -fcse-follow-jumps
  32              	@ -fdata-sections -fdefer-pop -fdelete-null-pointer-checks -fdevirtualize
  33              	@ -fdevirtualize-speculatively -fdwarf2-cfi-asm -fearly-inlining
  34              	@ -feliminate-unused-debug-types -fexpensive-optimizations
  35              	@ -fforward-propagate -ffunction-cse -ffunction-sections -fgcse -fgcse-lm
  36              	@ -fgnu-runtime -fgnu-unique -fguess-branch-probability
  37              	@ -fhoist-adjacent-loads -fident -fif-conversion -fif-conversion2
  38              	@ -findirect-inlining -finline -finline-atomics
  39              	@ -finline-functions-called-once -finline-small-functions -fipa-cp
  40              	@ -fipa-profile -fipa-pure-const -fipa-reference -fipa-sra
  41              	@ -fira-hoist-pressure -fira-share-save-slots -fira-share-spill-slots
  42              	@ -fisolate-erroneous-paths-dereference -fivopts -fkeep-static-consts
  43              	@ -fleading-underscore -flifetime-dse -fmath-errno -fmerge-constants
  44              	@ -fmerge-debug-strings -fmove-loop-invariants -fomit-frame-pointer
  45              	@ -foptimize-sibling-calls -foptimize-strlen -fpartial-inlining -fpeephole
  46              	@ -fpeephole2 -fprefetch-loop-arrays -freg-struct-return -freorder-blocks
  47              	@ -freorder-functions -frerun-cse-after-loop
  48              	@ -fsched-critical-path-heuristic -fsched-dep-count-heuristic
  49              	@ -fsched-group-heuristic -fsched-interblock -fsched-last-insn-heuristic
  50              	@ -fsched-pressure -fsched-rank-heuristic -fsched-spec
  51              	@ -fsched-spec-insn-heuristic -fsched-stalled-insns-dep -fschedule-insns2
  52              	@ -fsection-anchors -fshow-column -fshrink-wrap -fsigned-zeros
  53              	@ -fsplit-ivs-in-unroller -fsplit-wide-types -fstrict-aliasing
  54              	@ -fstrict-overflow -fstrict-volatile-bitfields -fsync-libcalls
  55              	@ -fthread-jumps -ftoplevel-reorder -ftrapping-math -ftree-bit-ccp
  56              	@ -ftree-builtin-call-dce -ftree-ccp -ftree-ch -ftree-coalesce-vars
  57              	@ -ftree-copy-prop -ftree-copyrename -ftree-cselim -ftree-dce
ARM GAS  /var/folders/9j/_txx49hn253_s3mnzkyxlj8m0000gp/T//ccIqLn15.s 			page 2


  58              	@ -ftree-dominator-opts -ftree-dse -ftree-forwprop -ftree-fre
  59              	@ -ftree-loop-if-convert -ftree-loop-im -ftree-loop-ivcanon
  60              	@ -ftree-loop-optimize -ftree-parallelize-loops= -ftree-phiprop -ftree-pre
  61              	@ -ftree-pta -ftree-reassoc -ftree-scev-cprop -ftree-sink -ftree-slsr
  62              	@ -ftree-sra -ftree-switch-conversion -ftree-tail-merge -ftree-ter
  63              	@ -ftree-vrp -funit-at-a-time -fvar-tracking -fvar-tracking-assignments
  64              	@ -fverbose-asm -fzero-initialized-in-bss -mlittle-endian -mlra
  65              	@ -mpic-data-is-text-relative -msched-prolog -mthumb
  66              	@ -mvectorize-with-neon-quad
  67              	
  68              		.text
  69              	.Ltext0:
  70              		.cfi_sections	.debug_frame
  71              		.section	.text.Chip_Clock_SetSystemPLLSource,"ax",%progbits
  72              		.align	2
  73              		.global	Chip_Clock_SetSystemPLLSource
  74              		.code	16
  75              		.thumb_func
  76              		.type	Chip_Clock_SetSystemPLLSource, %function
  77              	Chip_Clock_SetSystemPLLSource:
  78              	.LFB200:
  79              		.file 1 "../lpc11cx4-library/lpc_chip_11cxx_lib/src/clock_11xx.c"
   1:../lpc11cx4-library/lpc_chip_11cxx_lib/src/clock_11xx.c **** /*
   2:../lpc11cx4-library/lpc_chip_11cxx_lib/src/clock_11xx.c ****  * @brief LPC11XX System clock control functions
   3:../lpc11cx4-library/lpc_chip_11cxx_lib/src/clock_11xx.c ****  *
   4:../lpc11cx4-library/lpc_chip_11cxx_lib/src/clock_11xx.c ****  * Copyright(C) NXP Semiconductors, 2012
   5:../lpc11cx4-library/lpc_chip_11cxx_lib/src/clock_11xx.c ****  * All rights reserved.
   6:../lpc11cx4-library/lpc_chip_11cxx_lib/src/clock_11xx.c ****  *
   7:../lpc11cx4-library/lpc_chip_11cxx_lib/src/clock_11xx.c ****  * Software that is described herein is for illustrative purposes only
   8:../lpc11cx4-library/lpc_chip_11cxx_lib/src/clock_11xx.c ****  * which provides customers with programming information regarding the
   9:../lpc11cx4-library/lpc_chip_11cxx_lib/src/clock_11xx.c ****  * LPC products.  This software is supplied "AS IS" without any warranties of
  10:../lpc11cx4-library/lpc_chip_11cxx_lib/src/clock_11xx.c ****  * any kind, and NXP Semiconductors and its licensor disclaim any and
  11:../lpc11cx4-library/lpc_chip_11cxx_lib/src/clock_11xx.c ****  * all warranties, express or implied, including all implied warranties of
  12:../lpc11cx4-library/lpc_chip_11cxx_lib/src/clock_11xx.c ****  * merchantability, fitness for a particular purpose and non-infringement of
  13:../lpc11cx4-library/lpc_chip_11cxx_lib/src/clock_11xx.c ****  * intellectual property rights.  NXP Semiconductors assumes no responsibility
  14:../lpc11cx4-library/lpc_chip_11cxx_lib/src/clock_11xx.c ****  * or liability for the use of the software, conveys no license or rights under any
  15:../lpc11cx4-library/lpc_chip_11cxx_lib/src/clock_11xx.c ****  * patent, copyright, mask work right, or any other intellectual property rights in
  16:../lpc11cx4-library/lpc_chip_11cxx_lib/src/clock_11xx.c ****  * or to any products. NXP Semiconductors reserves the right to make changes
  17:../lpc11cx4-library/lpc_chip_11cxx_lib/src/clock_11xx.c ****  * in the software without notification. NXP Semiconductors also makes no
  18:../lpc11cx4-library/lpc_chip_11cxx_lib/src/clock_11xx.c ****  * representation or warranty that such application will be suitable for the
  19:../lpc11cx4-library/lpc_chip_11cxx_lib/src/clock_11xx.c ****  * specified use without further testing or modification.
  20:../lpc11cx4-library/lpc_chip_11cxx_lib/src/clock_11xx.c ****  *
  21:../lpc11cx4-library/lpc_chip_11cxx_lib/src/clock_11xx.c ****  * Permission to use, copy, modify, and distribute this software and its
  22:../lpc11cx4-library/lpc_chip_11cxx_lib/src/clock_11xx.c ****  * documentation is hereby granted, under NXP Semiconductors' and its
  23:../lpc11cx4-library/lpc_chip_11cxx_lib/src/clock_11xx.c ****  * licensor's relevant copyrights in the software, without fee, provided that it
  24:../lpc11cx4-library/lpc_chip_11cxx_lib/src/clock_11xx.c ****  * is used in conjunction with NXP Semiconductors microcontrollers.  This
  25:../lpc11cx4-library/lpc_chip_11cxx_lib/src/clock_11xx.c ****  * copyright, permission, and disclaimer notice must appear in all copies of
  26:../lpc11cx4-library/lpc_chip_11cxx_lib/src/clock_11xx.c ****  * this code.
  27:../lpc11cx4-library/lpc_chip_11cxx_lib/src/clock_11xx.c ****  */
  28:../lpc11cx4-library/lpc_chip_11cxx_lib/src/clock_11xx.c **** 
  29:../lpc11cx4-library/lpc_chip_11cxx_lib/src/clock_11xx.c **** #include "chip.h"
  30:../lpc11cx4-library/lpc_chip_11cxx_lib/src/clock_11xx.c **** 
  31:../lpc11cx4-library/lpc_chip_11cxx_lib/src/clock_11xx.c **** /*****************************************************************************
  32:../lpc11cx4-library/lpc_chip_11cxx_lib/src/clock_11xx.c ****  * Private types/enumerations/variables
  33:../lpc11cx4-library/lpc_chip_11cxx_lib/src/clock_11xx.c ****  ****************************************************************************/
  34:../lpc11cx4-library/lpc_chip_11cxx_lib/src/clock_11xx.c **** 
  35:../lpc11cx4-library/lpc_chip_11cxx_lib/src/clock_11xx.c **** /* Inprecise clock rates for the watchdog oscillator */
ARM GAS  /var/folders/9j/_txx49hn253_s3mnzkyxlj8m0000gp/T//ccIqLn15.s 			page 3


  36:../lpc11cx4-library/lpc_chip_11cxx_lib/src/clock_11xx.c **** STATIC const uint32_t wdtOSCRate[WDTLFO_OSC_4_60 + 1] = {
  37:../lpc11cx4-library/lpc_chip_11cxx_lib/src/clock_11xx.c **** 	0,					/* WDT_OSC_ILLEGAL */
  38:../lpc11cx4-library/lpc_chip_11cxx_lib/src/clock_11xx.c **** 	600000,				/* WDT_OSC_0_60 */
  39:../lpc11cx4-library/lpc_chip_11cxx_lib/src/clock_11xx.c **** 	1050000,			/* WDT_OSC_1_05 */
  40:../lpc11cx4-library/lpc_chip_11cxx_lib/src/clock_11xx.c **** 	1400000,			/* WDT_OSC_1_40 */
  41:../lpc11cx4-library/lpc_chip_11cxx_lib/src/clock_11xx.c **** 	1750000,			/* WDT_OSC_1_75 */
  42:../lpc11cx4-library/lpc_chip_11cxx_lib/src/clock_11xx.c **** 	2100000,			/* WDT_OSC_2_10 */
  43:../lpc11cx4-library/lpc_chip_11cxx_lib/src/clock_11xx.c **** 	2400000,			/* WDT_OSC_2_40 */
  44:../lpc11cx4-library/lpc_chip_11cxx_lib/src/clock_11xx.c **** 	2700000,			/* WDT_OSC_2_70 */
  45:../lpc11cx4-library/lpc_chip_11cxx_lib/src/clock_11xx.c **** 	3000000,			/* WDT_OSC_3_00 */
  46:../lpc11cx4-library/lpc_chip_11cxx_lib/src/clock_11xx.c **** 	3250000,			/* WDT_OSC_3_25 */
  47:../lpc11cx4-library/lpc_chip_11cxx_lib/src/clock_11xx.c **** 	3500000,			/* WDT_OSC_3_50 */
  48:../lpc11cx4-library/lpc_chip_11cxx_lib/src/clock_11xx.c **** 	3750000,			/* WDT_OSC_3_75 */
  49:../lpc11cx4-library/lpc_chip_11cxx_lib/src/clock_11xx.c **** 	4000000,			/* WDT_OSC_4_00 */
  50:../lpc11cx4-library/lpc_chip_11cxx_lib/src/clock_11xx.c **** 	4200000,			/* WDT_OSC_4_20 */
  51:../lpc11cx4-library/lpc_chip_11cxx_lib/src/clock_11xx.c **** 	4400000,			/* WDT_OSC_4_40 */
  52:../lpc11cx4-library/lpc_chip_11cxx_lib/src/clock_11xx.c **** 	4600000				/* WDT_OSC_4_60 */
  53:../lpc11cx4-library/lpc_chip_11cxx_lib/src/clock_11xx.c **** };
  54:../lpc11cx4-library/lpc_chip_11cxx_lib/src/clock_11xx.c **** 
  55:../lpc11cx4-library/lpc_chip_11cxx_lib/src/clock_11xx.c **** /*****************************************************************************
  56:../lpc11cx4-library/lpc_chip_11cxx_lib/src/clock_11xx.c ****  * Public types/enumerations/variables
  57:../lpc11cx4-library/lpc_chip_11cxx_lib/src/clock_11xx.c ****  ****************************************************************************/
  58:../lpc11cx4-library/lpc_chip_11cxx_lib/src/clock_11xx.c **** 
  59:../lpc11cx4-library/lpc_chip_11cxx_lib/src/clock_11xx.c **** /*****************************************************************************
  60:../lpc11cx4-library/lpc_chip_11cxx_lib/src/clock_11xx.c ****  * Private functions
  61:../lpc11cx4-library/lpc_chip_11cxx_lib/src/clock_11xx.c ****  ****************************************************************************/
  62:../lpc11cx4-library/lpc_chip_11cxx_lib/src/clock_11xx.c **** 
  63:../lpc11cx4-library/lpc_chip_11cxx_lib/src/clock_11xx.c **** /* Compute a WDT or LFO rate */
  64:../lpc11cx4-library/lpc_chip_11cxx_lib/src/clock_11xx.c **** STATIC uint32_t Chip_Clock_GetWDTLFORate(uint32_t reg)
  65:../lpc11cx4-library/lpc_chip_11cxx_lib/src/clock_11xx.c **** {
  66:../lpc11cx4-library/lpc_chip_11cxx_lib/src/clock_11xx.c **** 	uint32_t div;
  67:../lpc11cx4-library/lpc_chip_11cxx_lib/src/clock_11xx.c **** 	CHIP_WDTLFO_OSC_T clk;
  68:../lpc11cx4-library/lpc_chip_11cxx_lib/src/clock_11xx.c **** 
  69:../lpc11cx4-library/lpc_chip_11cxx_lib/src/clock_11xx.c **** 	/* Get WDT oscillator settings */
  70:../lpc11cx4-library/lpc_chip_11cxx_lib/src/clock_11xx.c **** 	clk = (CHIP_WDTLFO_OSC_T) ((reg >> 5) & 0xF);
  71:../lpc11cx4-library/lpc_chip_11cxx_lib/src/clock_11xx.c **** 	div = reg & 0x1F;
  72:../lpc11cx4-library/lpc_chip_11cxx_lib/src/clock_11xx.c **** 
  73:../lpc11cx4-library/lpc_chip_11cxx_lib/src/clock_11xx.c **** 	/* Compute clock rate and divided by divde value */
  74:../lpc11cx4-library/lpc_chip_11cxx_lib/src/clock_11xx.c **** 	return wdtOSCRate[clk] / ((div + 1) << 1);
  75:../lpc11cx4-library/lpc_chip_11cxx_lib/src/clock_11xx.c **** }
  76:../lpc11cx4-library/lpc_chip_11cxx_lib/src/clock_11xx.c **** 
  77:../lpc11cx4-library/lpc_chip_11cxx_lib/src/clock_11xx.c **** /* Compute a PLL frequency */
  78:../lpc11cx4-library/lpc_chip_11cxx_lib/src/clock_11xx.c **** STATIC uint32_t Chip_Clock_GetPLLFreq(uint32_t PLLReg, uint32_t inputRate)
  79:../lpc11cx4-library/lpc_chip_11cxx_lib/src/clock_11xx.c **** {
  80:../lpc11cx4-library/lpc_chip_11cxx_lib/src/clock_11xx.c **** 	uint32_t msel = ((PLLReg & 0x1F) + 1);
  81:../lpc11cx4-library/lpc_chip_11cxx_lib/src/clock_11xx.c **** 
  82:../lpc11cx4-library/lpc_chip_11cxx_lib/src/clock_11xx.c **** 	return inputRate * msel;
  83:../lpc11cx4-library/lpc_chip_11cxx_lib/src/clock_11xx.c **** }
  84:../lpc11cx4-library/lpc_chip_11cxx_lib/src/clock_11xx.c **** 
  85:../lpc11cx4-library/lpc_chip_11cxx_lib/src/clock_11xx.c **** /*****************************************************************************
  86:../lpc11cx4-library/lpc_chip_11cxx_lib/src/clock_11xx.c ****  * Public functions
  87:../lpc11cx4-library/lpc_chip_11cxx_lib/src/clock_11xx.c ****  ****************************************************************************/
  88:../lpc11cx4-library/lpc_chip_11cxx_lib/src/clock_11xx.c **** 
  89:../lpc11cx4-library/lpc_chip_11cxx_lib/src/clock_11xx.c **** /* Set System PLL clock source */
  90:../lpc11cx4-library/lpc_chip_11cxx_lib/src/clock_11xx.c **** void Chip_Clock_SetSystemPLLSource(CHIP_SYSCTL_PLLCLKSRC_T src)
  91:../lpc11cx4-library/lpc_chip_11cxx_lib/src/clock_11xx.c **** {
  80              		.loc 1 91 0
ARM GAS  /var/folders/9j/_txx49hn253_s3mnzkyxlj8m0000gp/T//ccIqLn15.s 			page 4


  81              		.cfi_startproc
  82              	.LVL0:
  92:../lpc11cx4-library/lpc_chip_11cxx_lib/src/clock_11xx.c **** 	LPC_SYSCTL->SYSPLLCLKSEL  = (uint32_t) src;
  93:../lpc11cx4-library/lpc_chip_11cxx_lib/src/clock_11xx.c **** 	LPC_SYSCTL->SYSPLLCLKUEN  = 0;
  83              		.loc 1 93 0
  84 0000 0022     		mov	r2, #0	@ tmp114,
  92:../lpc11cx4-library/lpc_chip_11cxx_lib/src/clock_11xx.c **** 	LPC_SYSCTL->SYSPLLCLKSEL  = (uint32_t) src;
  85              		.loc 1 92 0
  86 0002 034B     		ldr	r3, .L2	@ tmp112,
  94:../lpc11cx4-library/lpc_chip_11cxx_lib/src/clock_11xx.c **** 	LPC_SYSCTL->SYSPLLCLKUEN  = 1;
  95:../lpc11cx4-library/lpc_chip_11cxx_lib/src/clock_11xx.c **** }
  87              		.loc 1 95 0
  88              		@ sp needed	@
  92:../lpc11cx4-library/lpc_chip_11cxx_lib/src/clock_11xx.c **** 	LPC_SYSCTL->SYSPLLCLKSEL  = (uint32_t) src;
  89              		.loc 1 92 0
  90 0004 1864     		str	r0, [r3, #64]	@ src, MEM[(struct LPC_SYSCTL_T *)1074036736B].SYSPLLCLKSEL
  93:../lpc11cx4-library/lpc_chip_11cxx_lib/src/clock_11xx.c **** 	LPC_SYSCTL->SYSPLLCLKUEN  = 1;
  91              		.loc 1 93 0
  92 0006 5A64     		str	r2, [r3, #68]	@ tmp114, MEM[(struct LPC_SYSCTL_T *)1074036736B].SYSPLLCLKUEN
  94:../lpc11cx4-library/lpc_chip_11cxx_lib/src/clock_11xx.c **** 	LPC_SYSCTL->SYSPLLCLKUEN  = 1;
  93              		.loc 1 94 0
  94 0008 0132     		add	r2, r2, #1	@ tmp116,
  95 000a 5A64     		str	r2, [r3, #68]	@ tmp116, MEM[(struct LPC_SYSCTL_T *)1074036736B].SYSPLLCLKUEN
  96              		.loc 1 95 0
  97 000c 7047     		bx	lr
  98              	.L3:
  99 000e C046     		.align	2
 100              	.L2:
 101 0010 00800440 		.word	1074036736
 102              		.cfi_endproc
 103              	.LFE200:
 104              		.size	Chip_Clock_SetSystemPLLSource, .-Chip_Clock_SetSystemPLLSource
 105              		.section	.text.Chip_Clock_SetPLLBypass,"ax",%progbits
 106              		.align	2
 107              		.global	Chip_Clock_SetPLLBypass
 108              		.code	16
 109              		.thumb_func
 110              		.type	Chip_Clock_SetPLLBypass, %function
 111              	Chip_Clock_SetPLLBypass:
 112              	.LFB201:
  96:../lpc11cx4-library/lpc_chip_11cxx_lib/src/clock_11xx.c **** 
  97:../lpc11cx4-library/lpc_chip_11cxx_lib/src/clock_11xx.c **** /* Bypass System Oscillator and set oscillator frequency range */
  98:../lpc11cx4-library/lpc_chip_11cxx_lib/src/clock_11xx.c **** void Chip_Clock_SetPLLBypass(bool bypass, bool highfr)
  99:../lpc11cx4-library/lpc_chip_11cxx_lib/src/clock_11xx.c **** {
 113              		.loc 1 99 0
 114              		.cfi_startproc
 115              	.LVL1:
 100:../lpc11cx4-library/lpc_chip_11cxx_lib/src/clock_11xx.c **** 	uint32_t ctrl = 0;
 101:../lpc11cx4-library/lpc_chip_11cxx_lib/src/clock_11xx.c **** 
 102:../lpc11cx4-library/lpc_chip_11cxx_lib/src/clock_11xx.c **** 	if (bypass) {
 103:../lpc11cx4-library/lpc_chip_11cxx_lib/src/clock_11xx.c **** 		ctrl |= (1 << 0);
 104:../lpc11cx4-library/lpc_chip_11cxx_lib/src/clock_11xx.c **** 	}
 105:../lpc11cx4-library/lpc_chip_11cxx_lib/src/clock_11xx.c **** 	if (highfr) {
 116              		.loc 1 105 0
 117 0000 0029     		cmp	r1, #0	@ highfr,
 118 0002 01D0     		beq	.L5	@,
 106:../lpc11cx4-library/lpc_chip_11cxx_lib/src/clock_11xx.c **** 		ctrl |= (1 << 1);
ARM GAS  /var/folders/9j/_txx49hn253_s3mnzkyxlj8m0000gp/T//ccIqLn15.s 			page 5


 119              		.loc 1 106 0
 120 0004 0223     		mov	r3, #2	@ tmp113,
 121 0006 1843     		orr	r0, r3	@ ctrl, tmp113
 122              	.LVL2:
 123              	.L5:
 107:../lpc11cx4-library/lpc_chip_11cxx_lib/src/clock_11xx.c **** 	}
 108:../lpc11cx4-library/lpc_chip_11cxx_lib/src/clock_11xx.c **** 
 109:../lpc11cx4-library/lpc_chip_11cxx_lib/src/clock_11xx.c **** 	LPC_SYSCTL->SYSOSCCTRL = ctrl;
 124              		.loc 1 109 0
 125 0008 014B     		ldr	r3, .L10	@ tmp114,
 110:../lpc11cx4-library/lpc_chip_11cxx_lib/src/clock_11xx.c **** }
 126              		.loc 1 110 0
 127              		@ sp needed	@
 109:../lpc11cx4-library/lpc_chip_11cxx_lib/src/clock_11xx.c **** }
 128              		.loc 1 109 0
 129 000a 1862     		str	r0, [r3, #32]	@ ctrl, MEM[(struct LPC_SYSCTL_T *)1074036736B].SYSOSCCTRL
 130              		.loc 1 110 0
 131 000c 7047     		bx	lr
 132              	.L11:
 133 000e C046     		.align	2
 134              	.L10:
 135 0010 00800440 		.word	1074036736
 136              		.cfi_endproc
 137              	.LFE201:
 138              		.size	Chip_Clock_SetPLLBypass, .-Chip_Clock_SetPLLBypass
 139              		.section	.text.Chip_Clock_SetMainClockSource,"ax",%progbits
 140              		.align	2
 141              		.global	Chip_Clock_SetMainClockSource
 142              		.code	16
 143              		.thumb_func
 144              		.type	Chip_Clock_SetMainClockSource, %function
 145              	Chip_Clock_SetMainClockSource:
 146              	.LFB202:
 111:../lpc11cx4-library/lpc_chip_11cxx_lib/src/clock_11xx.c **** 
 112:../lpc11cx4-library/lpc_chip_11cxx_lib/src/clock_11xx.c **** #if defined(CHIP_LPC11UXX)
 113:../lpc11cx4-library/lpc_chip_11cxx_lib/src/clock_11xx.c **** /* Set USB PLL clock source */
 114:../lpc11cx4-library/lpc_chip_11cxx_lib/src/clock_11xx.c **** void Chip_Clock_SetUSBPLLSource(CHIP_SYSCTL_PLLCLKSRC_T src)
 115:../lpc11cx4-library/lpc_chip_11cxx_lib/src/clock_11xx.c **** {
 116:../lpc11cx4-library/lpc_chip_11cxx_lib/src/clock_11xx.c **** 	LPC_SYSCTL->USBPLLCLKSEL  = (uint32_t) src;
 117:../lpc11cx4-library/lpc_chip_11cxx_lib/src/clock_11xx.c **** 	LPC_SYSCTL->USBPLLCLKUEN  = 0;
 118:../lpc11cx4-library/lpc_chip_11cxx_lib/src/clock_11xx.c **** 	LPC_SYSCTL->USBPLLCLKUEN  = 1;
 119:../lpc11cx4-library/lpc_chip_11cxx_lib/src/clock_11xx.c **** }
 120:../lpc11cx4-library/lpc_chip_11cxx_lib/src/clock_11xx.c **** 
 121:../lpc11cx4-library/lpc_chip_11cxx_lib/src/clock_11xx.c **** #endif
 122:../lpc11cx4-library/lpc_chip_11cxx_lib/src/clock_11xx.c **** 
 123:../lpc11cx4-library/lpc_chip_11cxx_lib/src/clock_11xx.c **** /* Set main system clock source */
 124:../lpc11cx4-library/lpc_chip_11cxx_lib/src/clock_11xx.c **** void Chip_Clock_SetMainClockSource(CHIP_SYSCTL_MAINCLKSRC_T src)
 125:../lpc11cx4-library/lpc_chip_11cxx_lib/src/clock_11xx.c **** {
 147              		.loc 1 125 0
 148              		.cfi_startproc
 149              	.LVL3:
 126:../lpc11cx4-library/lpc_chip_11cxx_lib/src/clock_11xx.c **** 	LPC_SYSCTL->MAINCLKSEL  = (uint32_t) src;
 127:../lpc11cx4-library/lpc_chip_11cxx_lib/src/clock_11xx.c **** 	LPC_SYSCTL->MAINCLKUEN  = 0;
 150              		.loc 1 127 0
 151 0000 0022     		mov	r2, #0	@ tmp114,
 126:../lpc11cx4-library/lpc_chip_11cxx_lib/src/clock_11xx.c **** 	LPC_SYSCTL->MAINCLKSEL  = (uint32_t) src;
 152              		.loc 1 126 0
ARM GAS  /var/folders/9j/_txx49hn253_s3mnzkyxlj8m0000gp/T//ccIqLn15.s 			page 6


 153 0002 034B     		ldr	r3, .L13	@ tmp112,
 128:../lpc11cx4-library/lpc_chip_11cxx_lib/src/clock_11xx.c **** 	LPC_SYSCTL->MAINCLKUEN  = 1;
 129:../lpc11cx4-library/lpc_chip_11cxx_lib/src/clock_11xx.c **** }
 154              		.loc 1 129 0
 155              		@ sp needed	@
 126:../lpc11cx4-library/lpc_chip_11cxx_lib/src/clock_11xx.c **** 	LPC_SYSCTL->MAINCLKSEL  = (uint32_t) src;
 156              		.loc 1 126 0
 157 0004 1867     		str	r0, [r3, #112]	@ src, MEM[(struct LPC_SYSCTL_T *)1074036736B].MAINCLKSEL
 127:../lpc11cx4-library/lpc_chip_11cxx_lib/src/clock_11xx.c **** 	LPC_SYSCTL->MAINCLKUEN  = 1;
 158              		.loc 1 127 0
 159 0006 5A67     		str	r2, [r3, #116]	@ tmp114, MEM[(struct LPC_SYSCTL_T *)1074036736B].MAINCLKUEN
 128:../lpc11cx4-library/lpc_chip_11cxx_lib/src/clock_11xx.c **** 	LPC_SYSCTL->MAINCLKUEN  = 1;
 160              		.loc 1 128 0
 161 0008 0132     		add	r2, r2, #1	@ tmp116,
 162 000a 5A67     		str	r2, [r3, #116]	@ tmp116, MEM[(struct LPC_SYSCTL_T *)1074036736B].MAINCLKUEN
 163              		.loc 1 129 0
 164 000c 7047     		bx	lr
 165              	.L14:
 166 000e C046     		.align	2
 167              	.L13:
 168 0010 00800440 		.word	1074036736
 169              		.cfi_endproc
 170              	.LFE202:
 171              		.size	Chip_Clock_SetMainClockSource, .-Chip_Clock_SetMainClockSource
 172              		.section	.text.Chip_Clock_SetWDTClockSource,"ax",%progbits
 173              		.align	2
 174              		.global	Chip_Clock_SetWDTClockSource
 175              		.code	16
 176              		.thumb_func
 177              		.type	Chip_Clock_SetWDTClockSource, %function
 178              	Chip_Clock_SetWDTClockSource:
 179              	.LFB203:
 130:../lpc11cx4-library/lpc_chip_11cxx_lib/src/clock_11xx.c **** 
 131:../lpc11cx4-library/lpc_chip_11cxx_lib/src/clock_11xx.c **** #if defined(CHIP_LPC11UXX)
 132:../lpc11cx4-library/lpc_chip_11cxx_lib/src/clock_11xx.c **** /* Set USB clock source and divider */
 133:../lpc11cx4-library/lpc_chip_11cxx_lib/src/clock_11xx.c **** void Chip_Clock_SetUSBClockSource(CHIP_SYSCTL_USBCLKSRC_T src, uint32_t div)
 134:../lpc11cx4-library/lpc_chip_11cxx_lib/src/clock_11xx.c **** {
 135:../lpc11cx4-library/lpc_chip_11cxx_lib/src/clock_11xx.c **** 	LPC_SYSCTL->USBCLKSEL = (uint32_t) src;
 136:../lpc11cx4-library/lpc_chip_11cxx_lib/src/clock_11xx.c **** 	LPC_SYSCTL->USBCLKUEN = 0;
 137:../lpc11cx4-library/lpc_chip_11cxx_lib/src/clock_11xx.c **** 	LPC_SYSCTL->USBCLKUEN = 1;
 138:../lpc11cx4-library/lpc_chip_11cxx_lib/src/clock_11xx.c **** 	LPC_SYSCTL->USBCLKDIV = div;
 139:../lpc11cx4-library/lpc_chip_11cxx_lib/src/clock_11xx.c **** }
 140:../lpc11cx4-library/lpc_chip_11cxx_lib/src/clock_11xx.c **** 
 141:../lpc11cx4-library/lpc_chip_11cxx_lib/src/clock_11xx.c **** #endif /*CHIP_LPC11UXX*/
 142:../lpc11cx4-library/lpc_chip_11cxx_lib/src/clock_11xx.c **** 
 143:../lpc11cx4-library/lpc_chip_11cxx_lib/src/clock_11xx.c **** #if defined(CHIP_LPC110X) || defined(CHIP_LPC11XXLV) || defined(CHIP_LPC11CXX) || defined(CHIP_LPC1
 144:../lpc11cx4-library/lpc_chip_11cxx_lib/src/clock_11xx.c **** /* Set WDT clock source and divider */
 145:../lpc11cx4-library/lpc_chip_11cxx_lib/src/clock_11xx.c **** void Chip_Clock_SetWDTClockSource(CHIP_SYSCTL_WDTCLKSRC_T src, uint32_t div)
 146:../lpc11cx4-library/lpc_chip_11cxx_lib/src/clock_11xx.c **** {
 180              		.loc 1 146 0
 181              		.cfi_startproc
 182              	.LVL4:
 147:../lpc11cx4-library/lpc_chip_11cxx_lib/src/clock_11xx.c **** 	LPC_SYSCTL->WDTCLKSEL = (uint32_t) src;
 183              		.loc 1 147 0
 184 0000 D022     		mov	r2, #208	@ tmp114,
 185 0002 054B     		ldr	r3, .L16	@ tmp113,
 148:../lpc11cx4-library/lpc_chip_11cxx_lib/src/clock_11xx.c **** 	LPC_SYSCTL->WDTCLKUEN = 0;
ARM GAS  /var/folders/9j/_txx49hn253_s3mnzkyxlj8m0000gp/T//ccIqLn15.s 			page 7


 149:../lpc11cx4-library/lpc_chip_11cxx_lib/src/clock_11xx.c **** 	LPC_SYSCTL->WDTCLKUEN = 1;
 150:../lpc11cx4-library/lpc_chip_11cxx_lib/src/clock_11xx.c **** 	LPC_SYSCTL->WDTCLKDIV = div;
 151:../lpc11cx4-library/lpc_chip_11cxx_lib/src/clock_11xx.c **** }
 186              		.loc 1 151 0
 187              		@ sp needed	@
 147:../lpc11cx4-library/lpc_chip_11cxx_lib/src/clock_11xx.c **** 	LPC_SYSCTL->WDTCLKSEL = (uint32_t) src;
 188              		.loc 1 147 0
 189 0004 9850     		str	r0, [r3, r2]	@ src, MEM[(struct LPC_SYSCTL_T *)1074036736B].WDTCLKSEL
 148:../lpc11cx4-library/lpc_chip_11cxx_lib/src/clock_11xx.c **** 	LPC_SYSCTL->WDTCLKUEN = 0;
 190              		.loc 1 148 0
 191 0006 0020     		mov	r0, #0	@ tmp117,
 192              	.LVL5:
 193 0008 0432     		add	r2, r2, #4	@ tmp116,
 194 000a 9850     		str	r0, [r3, r2]	@ tmp117, MEM[(struct LPC_SYSCTL_T *)1074036736B].WDTCLKUEN
 149:../lpc11cx4-library/lpc_chip_11cxx_lib/src/clock_11xx.c **** 	LPC_SYSCTL->WDTCLKDIV = div;
 195              		.loc 1 149 0
 196 000c 0130     		add	r0, r0, #1	@ tmp120,
 197 000e 9850     		str	r0, [r3, r2]	@ tmp120, MEM[(struct LPC_SYSCTL_T *)1074036736B].WDTCLKUEN
 150:../lpc11cx4-library/lpc_chip_11cxx_lib/src/clock_11xx.c **** }
 198              		.loc 1 150 0
 199 0010 0432     		add	r2, r2, #4	@ tmp122,
 200 0012 9950     		str	r1, [r3, r2]	@ div, MEM[(struct LPC_SYSCTL_T *)1074036736B].WDTCLKDIV
 201              		.loc 1 151 0
 202 0014 7047     		bx	lr
 203              	.L17:
 204 0016 C046     		.align	2
 205              	.L16:
 206 0018 00800440 		.word	1074036736
 207              		.cfi_endproc
 208              	.LFE203:
 209              		.size	Chip_Clock_SetWDTClockSource, .-Chip_Clock_SetWDTClockSource
 210              		.section	.text.Chip_Clock_SetCLKOUTSource,"ax",%progbits
 211              		.align	2
 212              		.global	Chip_Clock_SetCLKOUTSource
 213              		.code	16
 214              		.thumb_func
 215              		.type	Chip_Clock_SetCLKOUTSource, %function
 216              	Chip_Clock_SetCLKOUTSource:
 217              	.LFB204:
 152:../lpc11cx4-library/lpc_chip_11cxx_lib/src/clock_11xx.c **** 
 153:../lpc11cx4-library/lpc_chip_11cxx_lib/src/clock_11xx.c **** #endif
 154:../lpc11cx4-library/lpc_chip_11cxx_lib/src/clock_11xx.c **** 
 155:../lpc11cx4-library/lpc_chip_11cxx_lib/src/clock_11xx.c **** #if !defined(CHIP_LPC110X)
 156:../lpc11cx4-library/lpc_chip_11cxx_lib/src/clock_11xx.c **** /* Set CLKOUT clock source and divider */
 157:../lpc11cx4-library/lpc_chip_11cxx_lib/src/clock_11xx.c **** void Chip_Clock_SetCLKOUTSource(CHIP_SYSCTL_CLKOUTSRC_T src, uint32_t div)
 158:../lpc11cx4-library/lpc_chip_11cxx_lib/src/clock_11xx.c **** {
 218              		.loc 1 158 0
 219              		.cfi_startproc
 220              	.LVL6:
 159:../lpc11cx4-library/lpc_chip_11cxx_lib/src/clock_11xx.c **** 	LPC_SYSCTL->CLKOUTSEL = (uint32_t) src;
 221              		.loc 1 159 0
 222 0000 E022     		mov	r2, #224	@ tmp114,
 223 0002 054B     		ldr	r3, .L19	@ tmp113,
 160:../lpc11cx4-library/lpc_chip_11cxx_lib/src/clock_11xx.c **** 	LPC_SYSCTL->CLKOUTUEN = 0;
 161:../lpc11cx4-library/lpc_chip_11cxx_lib/src/clock_11xx.c **** 	LPC_SYSCTL->CLKOUTUEN = 1;
 162:../lpc11cx4-library/lpc_chip_11cxx_lib/src/clock_11xx.c **** 	LPC_SYSCTL->CLKOUTDIV = div;
 163:../lpc11cx4-library/lpc_chip_11cxx_lib/src/clock_11xx.c **** }
ARM GAS  /var/folders/9j/_txx49hn253_s3mnzkyxlj8m0000gp/T//ccIqLn15.s 			page 8


 224              		.loc 1 163 0
 225              		@ sp needed	@
 159:../lpc11cx4-library/lpc_chip_11cxx_lib/src/clock_11xx.c **** 	LPC_SYSCTL->CLKOUTSEL = (uint32_t) src;
 226              		.loc 1 159 0
 227 0004 9850     		str	r0, [r3, r2]	@ src, MEM[(struct LPC_SYSCTL_T *)1074036736B].CLKOUTSEL
 160:../lpc11cx4-library/lpc_chip_11cxx_lib/src/clock_11xx.c **** 	LPC_SYSCTL->CLKOUTUEN = 0;
 228              		.loc 1 160 0
 229 0006 0020     		mov	r0, #0	@ tmp117,
 230              	.LVL7:
 231 0008 0432     		add	r2, r2, #4	@ tmp116,
 232 000a 9850     		str	r0, [r3, r2]	@ tmp117, MEM[(struct LPC_SYSCTL_T *)1074036736B].CLKOUTUEN
 161:../lpc11cx4-library/lpc_chip_11cxx_lib/src/clock_11xx.c **** 	LPC_SYSCTL->CLKOUTDIV = div;
 233              		.loc 1 161 0
 234 000c 0130     		add	r0, r0, #1	@ tmp120,
 235 000e 9850     		str	r0, [r3, r2]	@ tmp120, MEM[(struct LPC_SYSCTL_T *)1074036736B].CLKOUTUEN
 162:../lpc11cx4-library/lpc_chip_11cxx_lib/src/clock_11xx.c **** }
 236              		.loc 1 162 0
 237 0010 0432     		add	r2, r2, #4	@ tmp122,
 238 0012 9950     		str	r1, [r3, r2]	@ div, MEM[(struct LPC_SYSCTL_T *)1074036736B].CLKOUTDIV
 239              		.loc 1 163 0
 240 0014 7047     		bx	lr
 241              	.L20:
 242 0016 C046     		.align	2
 243              	.L19:
 244 0018 00800440 		.word	1074036736
 245              		.cfi_endproc
 246              	.LFE204:
 247              		.size	Chip_Clock_SetCLKOUTSource, .-Chip_Clock_SetCLKOUTSource
 248              		.global	__aeabi_uidiv
 249              		.section	.text.Chip_Clock_GetWDTOSCRate,"ax",%progbits
 250              		.align	2
 251              		.global	Chip_Clock_GetWDTOSCRate
 252              		.code	16
 253              		.thumb_func
 254              		.type	Chip_Clock_GetWDTOSCRate, %function
 255              	Chip_Clock_GetWDTOSCRate:
 256              	.LFB205:
 164:../lpc11cx4-library/lpc_chip_11cxx_lib/src/clock_11xx.c **** 
 165:../lpc11cx4-library/lpc_chip_11cxx_lib/src/clock_11xx.c **** #endif
 166:../lpc11cx4-library/lpc_chip_11cxx_lib/src/clock_11xx.c **** 
 167:../lpc11cx4-library/lpc_chip_11cxx_lib/src/clock_11xx.c **** /* Return estimated watchdog oscillator rate */
 168:../lpc11cx4-library/lpc_chip_11cxx_lib/src/clock_11xx.c **** uint32_t Chip_Clock_GetWDTOSCRate(void)
 169:../lpc11cx4-library/lpc_chip_11cxx_lib/src/clock_11xx.c **** {
 257              		.loc 1 169 0
 258              		.cfi_startproc
 259              	.LBB32:
 260              	.LBB33:
  71:../lpc11cx4-library/lpc_chip_11cxx_lib/src/clock_11xx.c **** 
 261              		.loc 1 71 0
 262 0000 1F21     		mov	r1, #31	@ tmp132,
 263              	.LBE33:
 264              	.LBE32:
 265              		.loc 1 169 0
 266 0002 08B5     		push	{r3, lr}	@
 267              		.cfi_def_cfa_offset 8
 268              		.cfi_offset 3, -8
 269              		.cfi_offset 14, -4
ARM GAS  /var/folders/9j/_txx49hn253_s3mnzkyxlj8m0000gp/T//ccIqLn15.s 			page 9


 170:../lpc11cx4-library/lpc_chip_11cxx_lib/src/clock_11xx.c **** 	return Chip_Clock_GetWDTLFORate(LPC_SYSCTL->WDTOSCCTRL);
 270              		.loc 1 170 0
 271 0004 064B     		ldr	r3, .L22	@ tmp121,
 171:../lpc11cx4-library/lpc_chip_11cxx_lib/src/clock_11xx.c **** }
 272              		.loc 1 171 0
 273              		@ sp needed	@
 170:../lpc11cx4-library/lpc_chip_11cxx_lib/src/clock_11xx.c **** 	return Chip_Clock_GetWDTLFORate(LPC_SYSCTL->WDTOSCCTRL);
 274              		.loc 1 170 0
 275 0006 5B6A     		ldr	r3, [r3, #36]	@ D.6264, MEM[(struct LPC_SYSCTL_T *)1074036736B].WDTOSCCTRL
 276              	.LVL8:
 277              	.LBB35:
 278              	.LBB34:
  70:../lpc11cx4-library/lpc_chip_11cxx_lib/src/clock_11xx.c **** 	div = reg & 0x1F;
 279              		.loc 1 70 0
 280 0008 DA05     		lsl	r2, r3, #23	@ tmp129, D.6264,
  71:../lpc11cx4-library/lpc_chip_11cxx_lib/src/clock_11xx.c **** 
 281              		.loc 1 71 0
 282 000a 1940     		and	r1, r3	@ div, D.6264
 283              	.LVL9:
  74:../lpc11cx4-library/lpc_chip_11cxx_lib/src/clock_11xx.c **** }
 284              		.loc 1 74 0
 285 000c 120F     		lsr	r2, r2, #28	@ D.6266, tmp129,
 286 000e 054B     		ldr	r3, .L22+4	@ tmp123,
 287              	.LVL10:
 288 0010 9200     		lsl	r2, r2, #2	@ tmp131, D.6266,
 289 0012 0131     		add	r1, r1, #1	@ D.6264,
 290              	.LVL11:
 291 0014 4900     		lsl	r1, r1, #1	@ D.6264, D.6264,
 292              	.LVL12:
 293 0016 D058     		ldr	r0, [r2, r3]	@, wdtOSCRate
 294 0018 FFF7FEFF 		bl	__aeabi_uidiv	@
 295              	.LVL13:
 296              	.LBE34:
 297              	.LBE35:
 298              		.loc 1 171 0
 299 001c 08BD     		pop	{r3, pc}
 300              	.L23:
 301 001e C046     		.align	2
 302              	.L22:
 303 0020 00800440 		.word	1074036736
 304 0024 00000000 		.word	.LANCHOR0
 305              		.cfi_endproc
 306              	.LFE205:
 307              		.size	Chip_Clock_GetWDTOSCRate, .-Chip_Clock_GetWDTOSCRate
 308              		.section	.text.Chip_Clock_GetSystemPLLInClockRate,"ax",%progbits
 309              		.align	2
 310              		.global	Chip_Clock_GetSystemPLLInClockRate
 311              		.code	16
 312              		.thumb_func
 313              		.type	Chip_Clock_GetSystemPLLInClockRate, %function
 314              	Chip_Clock_GetSystemPLLInClockRate:
 315              	.LFB206:
 172:../lpc11cx4-library/lpc_chip_11cxx_lib/src/clock_11xx.c **** 
 173:../lpc11cx4-library/lpc_chip_11cxx_lib/src/clock_11xx.c **** #if defined(CHIP_LPC11AXX)
 174:../lpc11cx4-library/lpc_chip_11cxx_lib/src/clock_11xx.c **** /* Return estimated low frequency oscillator rate */
 175:../lpc11cx4-library/lpc_chip_11cxx_lib/src/clock_11xx.c **** uint32_t Chip_Clock_GetLFOOSCRate(void)
 176:../lpc11cx4-library/lpc_chip_11cxx_lib/src/clock_11xx.c **** {
ARM GAS  /var/folders/9j/_txx49hn253_s3mnzkyxlj8m0000gp/T//ccIqLn15.s 			page 10


 177:../lpc11cx4-library/lpc_chip_11cxx_lib/src/clock_11xx.c **** 	return Chip_Clock_GetWDTLFORate(LPC_SYSCTL->LFOSCCTRL);
 178:../lpc11cx4-library/lpc_chip_11cxx_lib/src/clock_11xx.c **** }
 179:../lpc11cx4-library/lpc_chip_11cxx_lib/src/clock_11xx.c **** 
 180:../lpc11cx4-library/lpc_chip_11cxx_lib/src/clock_11xx.c **** #endif
 181:../lpc11cx4-library/lpc_chip_11cxx_lib/src/clock_11xx.c **** 
 182:../lpc11cx4-library/lpc_chip_11cxx_lib/src/clock_11xx.c **** /* Return System PLL input clock rate */
 183:../lpc11cx4-library/lpc_chip_11cxx_lib/src/clock_11xx.c **** uint32_t Chip_Clock_GetSystemPLLInClockRate(void)
 184:../lpc11cx4-library/lpc_chip_11cxx_lib/src/clock_11xx.c **** {
 316              		.loc 1 184 0
 317              		.cfi_startproc
 185:../lpc11cx4-library/lpc_chip_11cxx_lib/src/clock_11xx.c **** 	uint32_t clkRate;
 186:../lpc11cx4-library/lpc_chip_11cxx_lib/src/clock_11xx.c **** 
 187:../lpc11cx4-library/lpc_chip_11cxx_lib/src/clock_11xx.c **** 	switch ((CHIP_SYSCTL_PLLCLKSRC_T) (LPC_SYSCTL->SYSPLLCLKSEL & 0x3)) {
 318              		.loc 1 187 0
 319 0000 064B     		ldr	r3, .L30	@ tmp116,
 320 0002 1A6C     		ldr	r2, [r3, #64]	@ D.6273, MEM[(struct LPC_SYSCTL_T *)1074036736B].SYSPLLCLKSEL
 321 0004 0323     		mov	r3, #3	@ tmp119,
 322 0006 1340     		and	r3, r2	@ D.6274, D.6273
 323 0008 06D0     		beq	.L28	@,
 188:../lpc11cx4-library/lpc_chip_11cxx_lib/src/clock_11xx.c **** 	case SYSCTL_PLLCLKSRC_IRC:
 189:../lpc11cx4-library/lpc_chip_11cxx_lib/src/clock_11xx.c **** 		clkRate = Chip_Clock_GetIntOscRate();
 190:../lpc11cx4-library/lpc_chip_11cxx_lib/src/clock_11xx.c **** 		break;
 191:../lpc11cx4-library/lpc_chip_11cxx_lib/src/clock_11xx.c **** 
 192:../lpc11cx4-library/lpc_chip_11cxx_lib/src/clock_11xx.c **** 	case SYSCTL_PLLCLKSRC_MAINOSC:
 193:../lpc11cx4-library/lpc_chip_11cxx_lib/src/clock_11xx.c **** 		clkRate = Chip_Clock_GetMainOscRate();
 194:../lpc11cx4-library/lpc_chip_11cxx_lib/src/clock_11xx.c **** 		break;
 195:../lpc11cx4-library/lpc_chip_11cxx_lib/src/clock_11xx.c **** 
 196:../lpc11cx4-library/lpc_chip_11cxx_lib/src/clock_11xx.c **** #if defined(CHIP_LPC11AXX)
 197:../lpc11cx4-library/lpc_chip_11cxx_lib/src/clock_11xx.c **** 	case SYSCTL_PLLCLKSRC_EXT_CLKIN:
 198:../lpc11cx4-library/lpc_chip_11cxx_lib/src/clock_11xx.c **** 		clkRate = Chip_Clock_GetExtClockInRate();
 199:../lpc11cx4-library/lpc_chip_11cxx_lib/src/clock_11xx.c **** 		break;
 200:../lpc11cx4-library/lpc_chip_11cxx_lib/src/clock_11xx.c **** #endif
 201:../lpc11cx4-library/lpc_chip_11cxx_lib/src/clock_11xx.c **** 
 202:../lpc11cx4-library/lpc_chip_11cxx_lib/src/clock_11xx.c **** 	default:
 203:../lpc11cx4-library/lpc_chip_11cxx_lib/src/clock_11xx.c **** 		clkRate = 0;
 324              		.loc 1 203 0
 325 000a 0020     		mov	r0, #0	@ clkRate,
 187:../lpc11cx4-library/lpc_chip_11cxx_lib/src/clock_11xx.c **** 	case SYSCTL_PLLCLKSRC_IRC:
 326              		.loc 1 187 0
 327 000c 012B     		cmp	r3, #1	@ D.6274,
 328 000e 00D0     		beq	.L29	@,
 329              	.L26:
 330              	.LVL14:
 204:../lpc11cx4-library/lpc_chip_11cxx_lib/src/clock_11xx.c **** 	}
 205:../lpc11cx4-library/lpc_chip_11cxx_lib/src/clock_11xx.c **** 
 206:../lpc11cx4-library/lpc_chip_11cxx_lib/src/clock_11xx.c **** 	return clkRate;
 207:../lpc11cx4-library/lpc_chip_11cxx_lib/src/clock_11xx.c **** }
 331              		.loc 1 207 0
 332              		@ sp needed	@
 333 0010 7047     		bx	lr
 334              	.LVL15:
 335              	.L29:
 336              	.LBB36:
 337              	.LBB37:
 338              		.file 2 "../lpc11cx4-library/lpc_chip_11cxx_lib/inc/clock_11xx.h"
   1:../lpc11cx4-library/lpc_chip_11cxx_lib/inc/clock_11xx.h **** /*
   2:../lpc11cx4-library/lpc_chip_11cxx_lib/inc/clock_11xx.h ****  * @brief LPC11XX Clock control functions
ARM GAS  /var/folders/9j/_txx49hn253_s3mnzkyxlj8m0000gp/T//ccIqLn15.s 			page 11


   3:../lpc11cx4-library/lpc_chip_11cxx_lib/inc/clock_11xx.h ****  *
   4:../lpc11cx4-library/lpc_chip_11cxx_lib/inc/clock_11xx.h ****  * @note
   5:../lpc11cx4-library/lpc_chip_11cxx_lib/inc/clock_11xx.h ****  * Copyright(C) NXP Semiconductors, 2012
   6:../lpc11cx4-library/lpc_chip_11cxx_lib/inc/clock_11xx.h ****  * All rights reserved.
   7:../lpc11cx4-library/lpc_chip_11cxx_lib/inc/clock_11xx.h ****  *
   8:../lpc11cx4-library/lpc_chip_11cxx_lib/inc/clock_11xx.h ****  * @par
   9:../lpc11cx4-library/lpc_chip_11cxx_lib/inc/clock_11xx.h ****  * Software that is described herein is for illustrative purposes only
  10:../lpc11cx4-library/lpc_chip_11cxx_lib/inc/clock_11xx.h ****  * which provides customers with programming information regarding the
  11:../lpc11cx4-library/lpc_chip_11cxx_lib/inc/clock_11xx.h ****  * LPC products.  This software is supplied "AS IS" without any warranties of
  12:../lpc11cx4-library/lpc_chip_11cxx_lib/inc/clock_11xx.h ****  * any kind, and NXP Semiconductors and its licensor disclaim any and
  13:../lpc11cx4-library/lpc_chip_11cxx_lib/inc/clock_11xx.h ****  * all warranties, express or implied, including all implied warranties of
  14:../lpc11cx4-library/lpc_chip_11cxx_lib/inc/clock_11xx.h ****  * merchantability, fitness for a particular purpose and non-infringement of
  15:../lpc11cx4-library/lpc_chip_11cxx_lib/inc/clock_11xx.h ****  * intellectual property rights.  NXP Semiconductors assumes no responsibility
  16:../lpc11cx4-library/lpc_chip_11cxx_lib/inc/clock_11xx.h ****  * or liability for the use of the software, conveys no license or rights under any
  17:../lpc11cx4-library/lpc_chip_11cxx_lib/inc/clock_11xx.h ****  * patent, copyright, mask work right, or any other intellectual property rights in
  18:../lpc11cx4-library/lpc_chip_11cxx_lib/inc/clock_11xx.h ****  * or to any products. NXP Semiconductors reserves the right to make changes
  19:../lpc11cx4-library/lpc_chip_11cxx_lib/inc/clock_11xx.h ****  * in the software without notification. NXP Semiconductors also makes no
  20:../lpc11cx4-library/lpc_chip_11cxx_lib/inc/clock_11xx.h ****  * representation or warranty that such application will be suitable for the
  21:../lpc11cx4-library/lpc_chip_11cxx_lib/inc/clock_11xx.h ****  * specified use without further testing or modification.
  22:../lpc11cx4-library/lpc_chip_11cxx_lib/inc/clock_11xx.h ****  *
  23:../lpc11cx4-library/lpc_chip_11cxx_lib/inc/clock_11xx.h ****  * @par
  24:../lpc11cx4-library/lpc_chip_11cxx_lib/inc/clock_11xx.h ****  * Permission to use, copy, modify, and distribute this software and its
  25:../lpc11cx4-library/lpc_chip_11cxx_lib/inc/clock_11xx.h ****  * documentation is hereby granted, under NXP Semiconductors' and its
  26:../lpc11cx4-library/lpc_chip_11cxx_lib/inc/clock_11xx.h ****  * licensor's relevant copyrights in the software, without fee, provided that it
  27:../lpc11cx4-library/lpc_chip_11cxx_lib/inc/clock_11xx.h ****  * is used in conjunction with NXP Semiconductors microcontrollers.  This
  28:../lpc11cx4-library/lpc_chip_11cxx_lib/inc/clock_11xx.h ****  * copyright, permission, and disclaimer notice must appear in all copies of
  29:../lpc11cx4-library/lpc_chip_11cxx_lib/inc/clock_11xx.h ****  * this code.
  30:../lpc11cx4-library/lpc_chip_11cxx_lib/inc/clock_11xx.h ****  */
  31:../lpc11cx4-library/lpc_chip_11cxx_lib/inc/clock_11xx.h **** 
  32:../lpc11cx4-library/lpc_chip_11cxx_lib/inc/clock_11xx.h **** #ifndef __CLOCK_11XX_H_
  33:../lpc11cx4-library/lpc_chip_11cxx_lib/inc/clock_11xx.h **** #define __CLOCK_11XX_H_
  34:../lpc11cx4-library/lpc_chip_11cxx_lib/inc/clock_11xx.h **** 
  35:../lpc11cx4-library/lpc_chip_11cxx_lib/inc/clock_11xx.h **** #ifdef __cplusplus
  36:../lpc11cx4-library/lpc_chip_11cxx_lib/inc/clock_11xx.h **** extern "C" {
  37:../lpc11cx4-library/lpc_chip_11cxx_lib/inc/clock_11xx.h **** #endif
  38:../lpc11cx4-library/lpc_chip_11cxx_lib/inc/clock_11xx.h **** 
  39:../lpc11cx4-library/lpc_chip_11cxx_lib/inc/clock_11xx.h **** /** @defgroup CLOCK_11XX CHIP: LPC11xx Clock Control block driver
  40:../lpc11cx4-library/lpc_chip_11cxx_lib/inc/clock_11xx.h ****  * @ingroup CHIP_11XX_Drivers
  41:../lpc11cx4-library/lpc_chip_11cxx_lib/inc/clock_11xx.h ****  * @{
  42:../lpc11cx4-library/lpc_chip_11cxx_lib/inc/clock_11xx.h ****  */
  43:../lpc11cx4-library/lpc_chip_11cxx_lib/inc/clock_11xx.h **** 
  44:../lpc11cx4-library/lpc_chip_11cxx_lib/inc/clock_11xx.h **** /** Internal oscillator frequency */
  45:../lpc11cx4-library/lpc_chip_11cxx_lib/inc/clock_11xx.h **** #define SYSCTL_IRC_FREQ (12000000)
  46:../lpc11cx4-library/lpc_chip_11cxx_lib/inc/clock_11xx.h **** 
  47:../lpc11cx4-library/lpc_chip_11cxx_lib/inc/clock_11xx.h **** /**
  48:../lpc11cx4-library/lpc_chip_11cxx_lib/inc/clock_11xx.h ****  * @brief	Set System PLL divider values
  49:../lpc11cx4-library/lpc_chip_11cxx_lib/inc/clock_11xx.h ****  * @param	msel    : PLL feedback divider value. M = msel + 1.
  50:../lpc11cx4-library/lpc_chip_11cxx_lib/inc/clock_11xx.h ****  * @param	psel    : PLL post divider value. P =  (1<<psel).
  51:../lpc11cx4-library/lpc_chip_11cxx_lib/inc/clock_11xx.h ****  * @return	Nothing
  52:../lpc11cx4-library/lpc_chip_11cxx_lib/inc/clock_11xx.h ****  * @note	See the user manual for how to setup the PLL.
  53:../lpc11cx4-library/lpc_chip_11cxx_lib/inc/clock_11xx.h ****  */
  54:../lpc11cx4-library/lpc_chip_11cxx_lib/inc/clock_11xx.h **** STATIC INLINE void Chip_Clock_SetupSystemPLL(uint8_t msel, uint8_t psel)
  55:../lpc11cx4-library/lpc_chip_11cxx_lib/inc/clock_11xx.h **** {
  56:../lpc11cx4-library/lpc_chip_11cxx_lib/inc/clock_11xx.h **** 	LPC_SYSCTL->SYSPLLCTRL = (msel & 0x1F) | ((psel & 0x3) << 5);
  57:../lpc11cx4-library/lpc_chip_11cxx_lib/inc/clock_11xx.h **** }
  58:../lpc11cx4-library/lpc_chip_11cxx_lib/inc/clock_11xx.h **** 
  59:../lpc11cx4-library/lpc_chip_11cxx_lib/inc/clock_11xx.h **** /**
ARM GAS  /var/folders/9j/_txx49hn253_s3mnzkyxlj8m0000gp/T//ccIqLn15.s 			page 12


  60:../lpc11cx4-library/lpc_chip_11cxx_lib/inc/clock_11xx.h ****  * @brief	Read System PLL lock status
  61:../lpc11cx4-library/lpc_chip_11cxx_lib/inc/clock_11xx.h ****  * @return	true of the PLL is locked. false if not locked
  62:../lpc11cx4-library/lpc_chip_11cxx_lib/inc/clock_11xx.h ****  */
  63:../lpc11cx4-library/lpc_chip_11cxx_lib/inc/clock_11xx.h **** STATIC INLINE bool Chip_Clock_IsSystemPLLLocked(void)
  64:../lpc11cx4-library/lpc_chip_11cxx_lib/inc/clock_11xx.h **** {
  65:../lpc11cx4-library/lpc_chip_11cxx_lib/inc/clock_11xx.h **** 	return (bool) ((LPC_SYSCTL->SYSPLLSTAT & 1) != 0);
  66:../lpc11cx4-library/lpc_chip_11cxx_lib/inc/clock_11xx.h **** }
  67:../lpc11cx4-library/lpc_chip_11cxx_lib/inc/clock_11xx.h **** 
  68:../lpc11cx4-library/lpc_chip_11cxx_lib/inc/clock_11xx.h **** /**
  69:../lpc11cx4-library/lpc_chip_11cxx_lib/inc/clock_11xx.h ****  * Clock sources for system and USB PLLs
  70:../lpc11cx4-library/lpc_chip_11cxx_lib/inc/clock_11xx.h ****  */
  71:../lpc11cx4-library/lpc_chip_11cxx_lib/inc/clock_11xx.h **** typedef enum CHIP_SYSCTL_PLLCLKSRC {
  72:../lpc11cx4-library/lpc_chip_11cxx_lib/inc/clock_11xx.h **** 	SYSCTL_PLLCLKSRC_IRC = 0,		/*!< Internal oscillator in */
  73:../lpc11cx4-library/lpc_chip_11cxx_lib/inc/clock_11xx.h **** 	SYSCTL_PLLCLKSRC_MAINOSC,		/*!< Crystal (main) oscillator in */
  74:../lpc11cx4-library/lpc_chip_11cxx_lib/inc/clock_11xx.h **** #if defined(CHIP_LPC11AXX)
  75:../lpc11cx4-library/lpc_chip_11cxx_lib/inc/clock_11xx.h **** 	SYSCTL_PLLCLKSRC_EXT_CLKIN,	/*!< External clock in (11Axx only) */
  76:../lpc11cx4-library/lpc_chip_11cxx_lib/inc/clock_11xx.h **** #else
  77:../lpc11cx4-library/lpc_chip_11cxx_lib/inc/clock_11xx.h **** 	SYSCTL_PLLCLKSRC_RESERVED1,	/*!< Reserved */
  78:../lpc11cx4-library/lpc_chip_11cxx_lib/inc/clock_11xx.h **** #endif
  79:../lpc11cx4-library/lpc_chip_11cxx_lib/inc/clock_11xx.h **** 	SYSCTL_PLLCLKSRC_RESERVED2,	/*!< Reserved */
  80:../lpc11cx4-library/lpc_chip_11cxx_lib/inc/clock_11xx.h **** } CHIP_SYSCTL_PLLCLKSRC_T;
  81:../lpc11cx4-library/lpc_chip_11cxx_lib/inc/clock_11xx.h **** 
  82:../lpc11cx4-library/lpc_chip_11cxx_lib/inc/clock_11xx.h **** /**
  83:../lpc11cx4-library/lpc_chip_11cxx_lib/inc/clock_11xx.h ****  * @brief	Set System PLL clock source
  84:../lpc11cx4-library/lpc_chip_11cxx_lib/inc/clock_11xx.h ****  * @param	src	: Clock source for system PLL
  85:../lpc11cx4-library/lpc_chip_11cxx_lib/inc/clock_11xx.h ****  * @return	Nothing
  86:../lpc11cx4-library/lpc_chip_11cxx_lib/inc/clock_11xx.h ****  * @note	This function will also toggle the clock source update register
  87:../lpc11cx4-library/lpc_chip_11cxx_lib/inc/clock_11xx.h ****  * to update the clock source.
  88:../lpc11cx4-library/lpc_chip_11cxx_lib/inc/clock_11xx.h ****  */
  89:../lpc11cx4-library/lpc_chip_11cxx_lib/inc/clock_11xx.h **** void Chip_Clock_SetSystemPLLSource(CHIP_SYSCTL_PLLCLKSRC_T src);
  90:../lpc11cx4-library/lpc_chip_11cxx_lib/inc/clock_11xx.h **** 
  91:../lpc11cx4-library/lpc_chip_11cxx_lib/inc/clock_11xx.h **** #if defined(CHIP_LPC11UXX)
  92:../lpc11cx4-library/lpc_chip_11cxx_lib/inc/clock_11xx.h **** /**
  93:../lpc11cx4-library/lpc_chip_11cxx_lib/inc/clock_11xx.h ****  * @brief	Set USB PLL divider values
  94:../lpc11cx4-library/lpc_chip_11cxx_lib/inc/clock_11xx.h ****  * @param	msel    : PLL feedback divider value. M = msel + 1.
  95:../lpc11cx4-library/lpc_chip_11cxx_lib/inc/clock_11xx.h ****  * @param	psel    : PLL post divider value. P = (1<<psel).
  96:../lpc11cx4-library/lpc_chip_11cxx_lib/inc/clock_11xx.h ****  * @return	Nothing
  97:../lpc11cx4-library/lpc_chip_11cxx_lib/inc/clock_11xx.h ****  * @note	See the user manual for how to setup the PLL.
  98:../lpc11cx4-library/lpc_chip_11cxx_lib/inc/clock_11xx.h ****  */
  99:../lpc11cx4-library/lpc_chip_11cxx_lib/inc/clock_11xx.h **** STATIC INLINE void Chip_Clock_SetupUSBPLL(uint8_t msel, uint8_t psel)
 100:../lpc11cx4-library/lpc_chip_11cxx_lib/inc/clock_11xx.h **** {
 101:../lpc11cx4-library/lpc_chip_11cxx_lib/inc/clock_11xx.h **** 	LPC_SYSCTL->USBPLLCTRL = (msel & 0x1F) | ((psel & 0x3) << 5);
 102:../lpc11cx4-library/lpc_chip_11cxx_lib/inc/clock_11xx.h **** }
 103:../lpc11cx4-library/lpc_chip_11cxx_lib/inc/clock_11xx.h **** 
 104:../lpc11cx4-library/lpc_chip_11cxx_lib/inc/clock_11xx.h **** /**
 105:../lpc11cx4-library/lpc_chip_11cxx_lib/inc/clock_11xx.h ****  * @brief	Read USB PLL lock status
 106:../lpc11cx4-library/lpc_chip_11cxx_lib/inc/clock_11xx.h ****  * @return	true of the PLL is locked. false if not locked
 107:../lpc11cx4-library/lpc_chip_11cxx_lib/inc/clock_11xx.h ****  */
 108:../lpc11cx4-library/lpc_chip_11cxx_lib/inc/clock_11xx.h **** STATIC INLINE bool Chip_Clock_IsUSBPLLLocked(void)
 109:../lpc11cx4-library/lpc_chip_11cxx_lib/inc/clock_11xx.h **** {
 110:../lpc11cx4-library/lpc_chip_11cxx_lib/inc/clock_11xx.h **** 	return (bool) ((LPC_SYSCTL->USBPLLSTAT & 1) != 0);
 111:../lpc11cx4-library/lpc_chip_11cxx_lib/inc/clock_11xx.h **** }
 112:../lpc11cx4-library/lpc_chip_11cxx_lib/inc/clock_11xx.h **** 
 113:../lpc11cx4-library/lpc_chip_11cxx_lib/inc/clock_11xx.h **** /**
 114:../lpc11cx4-library/lpc_chip_11cxx_lib/inc/clock_11xx.h ****  * @brief	Set USB PLL clock source
 115:../lpc11cx4-library/lpc_chip_11cxx_lib/inc/clock_11xx.h ****  * @param	src	: Clock source for USB PLL
 116:../lpc11cx4-library/lpc_chip_11cxx_lib/inc/clock_11xx.h ****  * @return	Nothing
ARM GAS  /var/folders/9j/_txx49hn253_s3mnzkyxlj8m0000gp/T//ccIqLn15.s 			page 13


 117:../lpc11cx4-library/lpc_chip_11cxx_lib/inc/clock_11xx.h ****  * @note	This function will also toggle the clock source update register
 118:../lpc11cx4-library/lpc_chip_11cxx_lib/inc/clock_11xx.h ****  * to update the clock source.
 119:../lpc11cx4-library/lpc_chip_11cxx_lib/inc/clock_11xx.h ****  */
 120:../lpc11cx4-library/lpc_chip_11cxx_lib/inc/clock_11xx.h **** void Chip_Clock_SetUSBPLLSource(CHIP_SYSCTL_PLLCLKSRC_T src);
 121:../lpc11cx4-library/lpc_chip_11cxx_lib/inc/clock_11xx.h **** 
 122:../lpc11cx4-library/lpc_chip_11cxx_lib/inc/clock_11xx.h **** #endif /*defined(CHIP_LPC11UXX)*/
 123:../lpc11cx4-library/lpc_chip_11cxx_lib/inc/clock_11xx.h **** 
 124:../lpc11cx4-library/lpc_chip_11cxx_lib/inc/clock_11xx.h **** /**
 125:../lpc11cx4-library/lpc_chip_11cxx_lib/inc/clock_11xx.h ****  * @brief	Bypass System Oscillator and set oscillator frequency range
 126:../lpc11cx4-library/lpc_chip_11cxx_lib/inc/clock_11xx.h ****  * @param	bypass	: Flag to bypass oscillator
 127:../lpc11cx4-library/lpc_chip_11cxx_lib/inc/clock_11xx.h ****  * @param	highfr	: Flag to set oscillator range from 15-25 MHz
 128:../lpc11cx4-library/lpc_chip_11cxx_lib/inc/clock_11xx.h ****  * @return	Nothing
 129:../lpc11cx4-library/lpc_chip_11cxx_lib/inc/clock_11xx.h ****  * @note	Sets the PLL input to bypass the oscillator. This would be
 130:../lpc11cx4-library/lpc_chip_11cxx_lib/inc/clock_11xx.h ****  * used if an external clock that is not an oscillator is attached
 131:../lpc11cx4-library/lpc_chip_11cxx_lib/inc/clock_11xx.h ****  * to the XTALIN pin.
 132:../lpc11cx4-library/lpc_chip_11cxx_lib/inc/clock_11xx.h ****  */
 133:../lpc11cx4-library/lpc_chip_11cxx_lib/inc/clock_11xx.h **** void Chip_Clock_SetPLLBypass(bool bypass, bool highfr);
 134:../lpc11cx4-library/lpc_chip_11cxx_lib/inc/clock_11xx.h **** 
 135:../lpc11cx4-library/lpc_chip_11cxx_lib/inc/clock_11xx.h **** /**
 136:../lpc11cx4-library/lpc_chip_11cxx_lib/inc/clock_11xx.h ****  * Watchdog and low frequency oscillator frequencies plus or minus 40%
 137:../lpc11cx4-library/lpc_chip_11cxx_lib/inc/clock_11xx.h ****  */
 138:../lpc11cx4-library/lpc_chip_11cxx_lib/inc/clock_11xx.h **** typedef enum CHIP_WDTLFO_OSC {
 139:../lpc11cx4-library/lpc_chip_11cxx_lib/inc/clock_11xx.h **** 	WDTLFO_OSC_ILLEGAL,
 140:../lpc11cx4-library/lpc_chip_11cxx_lib/inc/clock_11xx.h **** 	WDTLFO_OSC_0_60,	/*!< 0.6 MHz watchdog/LFO rate */
 141:../lpc11cx4-library/lpc_chip_11cxx_lib/inc/clock_11xx.h **** 	WDTLFO_OSC_1_05,	/*!< 1.05 MHz watchdog/LFO rate */
 142:../lpc11cx4-library/lpc_chip_11cxx_lib/inc/clock_11xx.h **** 	WDTLFO_OSC_1_40,	/*!< 1.4 MHz watchdog/LFO rate */
 143:../lpc11cx4-library/lpc_chip_11cxx_lib/inc/clock_11xx.h **** 	WDTLFO_OSC_1_75,	/*!< 1.75 MHz watchdog/LFO rate */
 144:../lpc11cx4-library/lpc_chip_11cxx_lib/inc/clock_11xx.h **** 	WDTLFO_OSC_2_10,	/*!< 2.1 MHz watchdog/LFO rate */
 145:../lpc11cx4-library/lpc_chip_11cxx_lib/inc/clock_11xx.h **** 	WDTLFO_OSC_2_40,	/*!< 2.4 MHz watchdog/LFO rate */
 146:../lpc11cx4-library/lpc_chip_11cxx_lib/inc/clock_11xx.h **** 	WDTLFO_OSC_2_70,	/*!< 2.7 MHz watchdog/LFO rate */
 147:../lpc11cx4-library/lpc_chip_11cxx_lib/inc/clock_11xx.h **** 	WDTLFO_OSC_3_00,	/*!< 3.0 MHz watchdog/LFO rate */
 148:../lpc11cx4-library/lpc_chip_11cxx_lib/inc/clock_11xx.h **** 	WDTLFO_OSC_3_25,	/*!< 3.25 MHz watchdog/LFO rate */
 149:../lpc11cx4-library/lpc_chip_11cxx_lib/inc/clock_11xx.h **** 	WDTLFO_OSC_3_50,	/*!< 3.5 MHz watchdog/LFO rate */
 150:../lpc11cx4-library/lpc_chip_11cxx_lib/inc/clock_11xx.h **** 	WDTLFO_OSC_3_75,	/*!< 3.75 MHz watchdog/LFO rate */
 151:../lpc11cx4-library/lpc_chip_11cxx_lib/inc/clock_11xx.h **** 	WDTLFO_OSC_4_00,	/*!< 4.0 MHz watchdog/LFO rate */
 152:../lpc11cx4-library/lpc_chip_11cxx_lib/inc/clock_11xx.h **** 	WDTLFO_OSC_4_20,	/*!< 4.2 MHz watchdog/LFO rate */
 153:../lpc11cx4-library/lpc_chip_11cxx_lib/inc/clock_11xx.h **** 	WDTLFO_OSC_4_40,	/*!< 4.4 MHz watchdog/LFO rate */
 154:../lpc11cx4-library/lpc_chip_11cxx_lib/inc/clock_11xx.h **** 	WDTLFO_OSC_4_60		/*!< 4.6 MHz watchdog/LFO rate */
 155:../lpc11cx4-library/lpc_chip_11cxx_lib/inc/clock_11xx.h **** } CHIP_WDTLFO_OSC_T;
 156:../lpc11cx4-library/lpc_chip_11cxx_lib/inc/clock_11xx.h **** 
 157:../lpc11cx4-library/lpc_chip_11cxx_lib/inc/clock_11xx.h **** /**
 158:../lpc11cx4-library/lpc_chip_11cxx_lib/inc/clock_11xx.h ****  * @brief	Setup Watchdog oscillator rate and divider
 159:../lpc11cx4-library/lpc_chip_11cxx_lib/inc/clock_11xx.h ****  * @param	wdtclk	: Selected watchdog clock rate
 160:../lpc11cx4-library/lpc_chip_11cxx_lib/inc/clock_11xx.h ****  * @param	div		: Watchdog divider value, even value between 2 and 64
 161:../lpc11cx4-library/lpc_chip_11cxx_lib/inc/clock_11xx.h ****  * @return	Nothing
 162:../lpc11cx4-library/lpc_chip_11cxx_lib/inc/clock_11xx.h ****  * @note	Watchdog rate = selected rate divided by divider rate
 163:../lpc11cx4-library/lpc_chip_11cxx_lib/inc/clock_11xx.h ****  */
 164:../lpc11cx4-library/lpc_chip_11cxx_lib/inc/clock_11xx.h **** STATIC INLINE void Chip_Clock_SetWDTOSC(CHIP_WDTLFO_OSC_T wdtclk, uint8_t div)
 165:../lpc11cx4-library/lpc_chip_11cxx_lib/inc/clock_11xx.h **** {
 166:../lpc11cx4-library/lpc_chip_11cxx_lib/inc/clock_11xx.h **** 	LPC_SYSCTL->WDTOSCCTRL  = (((uint32_t) wdtclk) << 5) | ((div >> 1) - 1);
 167:../lpc11cx4-library/lpc_chip_11cxx_lib/inc/clock_11xx.h **** }
 168:../lpc11cx4-library/lpc_chip_11cxx_lib/inc/clock_11xx.h **** 
 169:../lpc11cx4-library/lpc_chip_11cxx_lib/inc/clock_11xx.h **** #if defined(CHIP_LPC11AXX)
 170:../lpc11cx4-library/lpc_chip_11cxx_lib/inc/clock_11xx.h **** /**
 171:../lpc11cx4-library/lpc_chip_11cxx_lib/inc/clock_11xx.h ****  * @brief	Setup low frequency oscillator rate and divider
 172:../lpc11cx4-library/lpc_chip_11cxx_lib/inc/clock_11xx.h ****  * @param	lfoclk	: Selected low frequency clock rate
 173:../lpc11cx4-library/lpc_chip_11cxx_lib/inc/clock_11xx.h ****  * @param	div		: Low frequency divider value, even value between 2 and 64
ARM GAS  /var/folders/9j/_txx49hn253_s3mnzkyxlj8m0000gp/T//ccIqLn15.s 			page 14


 174:../lpc11cx4-library/lpc_chip_11cxx_lib/inc/clock_11xx.h ****  * @return	Nothing
 175:../lpc11cx4-library/lpc_chip_11cxx_lib/inc/clock_11xx.h ****  * @note	Low frequency oscillator rate = selected rate divided by divider rate
 176:../lpc11cx4-library/lpc_chip_11cxx_lib/inc/clock_11xx.h ****  */
 177:../lpc11cx4-library/lpc_chip_11cxx_lib/inc/clock_11xx.h **** STATIC INLINE void Chip_Clock_SetLFOSC(CHIP_WDTLFO_OSC_T lfoclk, uint8_t div)
 178:../lpc11cx4-library/lpc_chip_11cxx_lib/inc/clock_11xx.h **** {
 179:../lpc11cx4-library/lpc_chip_11cxx_lib/inc/clock_11xx.h **** 	LPC_SYSCTL->LFOSCCTRL  = (((uint32_t) lfoclk) << 5) | ((div >> 1) - 1);
 180:../lpc11cx4-library/lpc_chip_11cxx_lib/inc/clock_11xx.h **** }
 181:../lpc11cx4-library/lpc_chip_11cxx_lib/inc/clock_11xx.h **** 
 182:../lpc11cx4-library/lpc_chip_11cxx_lib/inc/clock_11xx.h **** #endif /*CHIP_LPC11AXX*/
 183:../lpc11cx4-library/lpc_chip_11cxx_lib/inc/clock_11xx.h **** 
 184:../lpc11cx4-library/lpc_chip_11cxx_lib/inc/clock_11xx.h **** /**
 185:../lpc11cx4-library/lpc_chip_11cxx_lib/inc/clock_11xx.h ****  * Clock sources for main system clock
 186:../lpc11cx4-library/lpc_chip_11cxx_lib/inc/clock_11xx.h ****  */
 187:../lpc11cx4-library/lpc_chip_11cxx_lib/inc/clock_11xx.h **** typedef enum CHIP_SYSCTL_MAINCLKSRC {
 188:../lpc11cx4-library/lpc_chip_11cxx_lib/inc/clock_11xx.h **** 	SYSCTL_MAINCLKSRC_IRC = 0,		/*!< Internal oscillator */
 189:../lpc11cx4-library/lpc_chip_11cxx_lib/inc/clock_11xx.h **** 	SYSCTL_MAINCLKSRC_PLLIN,		/*!< System PLL input */
 190:../lpc11cx4-library/lpc_chip_11cxx_lib/inc/clock_11xx.h **** 	SYSCTL_MAINCLKSRC_LFOSC,		/*!< LF oscillator rate (11Axx only) */
 191:../lpc11cx4-library/lpc_chip_11cxx_lib/inc/clock_11xx.h **** 	SYSCTL_MAINCLKSRC_WDTOSC = SYSCTL_MAINCLKSRC_LFOSC,	/*!< Watchdog oscillator rate */
 192:../lpc11cx4-library/lpc_chip_11cxx_lib/inc/clock_11xx.h **** 	SYSCTL_MAINCLKSRC_PLLOUT,		/*!< System PLL output */
 193:../lpc11cx4-library/lpc_chip_11cxx_lib/inc/clock_11xx.h **** } CHIP_SYSCTL_MAINCLKSRC_T;
 194:../lpc11cx4-library/lpc_chip_11cxx_lib/inc/clock_11xx.h **** 
 195:../lpc11cx4-library/lpc_chip_11cxx_lib/inc/clock_11xx.h **** /**
 196:../lpc11cx4-library/lpc_chip_11cxx_lib/inc/clock_11xx.h ****  * @brief	Set main system clock source
 197:../lpc11cx4-library/lpc_chip_11cxx_lib/inc/clock_11xx.h ****  * @param	src	: Clock source for main system
 198:../lpc11cx4-library/lpc_chip_11cxx_lib/inc/clock_11xx.h ****  * @return	Nothing
 199:../lpc11cx4-library/lpc_chip_11cxx_lib/inc/clock_11xx.h ****  * @note	This function will also toggle the clock source update register
 200:../lpc11cx4-library/lpc_chip_11cxx_lib/inc/clock_11xx.h ****  * to update the clock source.
 201:../lpc11cx4-library/lpc_chip_11cxx_lib/inc/clock_11xx.h ****  */
 202:../lpc11cx4-library/lpc_chip_11cxx_lib/inc/clock_11xx.h **** void Chip_Clock_SetMainClockSource(CHIP_SYSCTL_MAINCLKSRC_T src);
 203:../lpc11cx4-library/lpc_chip_11cxx_lib/inc/clock_11xx.h **** 
 204:../lpc11cx4-library/lpc_chip_11cxx_lib/inc/clock_11xx.h **** /**
 205:../lpc11cx4-library/lpc_chip_11cxx_lib/inc/clock_11xx.h ****  * @brief   Returns the main clock source
 206:../lpc11cx4-library/lpc_chip_11cxx_lib/inc/clock_11xx.h ****  * @return	Which clock is used for the core clock source?
 207:../lpc11cx4-library/lpc_chip_11cxx_lib/inc/clock_11xx.h ****  */
 208:../lpc11cx4-library/lpc_chip_11cxx_lib/inc/clock_11xx.h **** STATIC INLINE CHIP_SYSCTL_MAINCLKSRC_T Chip_Clock_GetMainClockSource(void)
 209:../lpc11cx4-library/lpc_chip_11cxx_lib/inc/clock_11xx.h **** {
 210:../lpc11cx4-library/lpc_chip_11cxx_lib/inc/clock_11xx.h **** 	return (CHIP_SYSCTL_MAINCLKSRC_T) (LPC_SYSCTL->MAINCLKSEL);
 211:../lpc11cx4-library/lpc_chip_11cxx_lib/inc/clock_11xx.h **** }
 212:../lpc11cx4-library/lpc_chip_11cxx_lib/inc/clock_11xx.h **** 
 213:../lpc11cx4-library/lpc_chip_11cxx_lib/inc/clock_11xx.h **** /**
 214:../lpc11cx4-library/lpc_chip_11cxx_lib/inc/clock_11xx.h ****  * @brief	Set system clock divider
 215:../lpc11cx4-library/lpc_chip_11cxx_lib/inc/clock_11xx.h ****  * @param	div	: divider for system clock
 216:../lpc11cx4-library/lpc_chip_11cxx_lib/inc/clock_11xx.h ****  * @return	Nothing
 217:../lpc11cx4-library/lpc_chip_11cxx_lib/inc/clock_11xx.h ****  * @note	Use 0 to disable, or a divider value of 1 to 255. The system clock
 218:../lpc11cx4-library/lpc_chip_11cxx_lib/inc/clock_11xx.h ****  * rate is the main system clock divided by this value.
 219:../lpc11cx4-library/lpc_chip_11cxx_lib/inc/clock_11xx.h ****  */
 220:../lpc11cx4-library/lpc_chip_11cxx_lib/inc/clock_11xx.h **** STATIC INLINE void Chip_Clock_SetSysClockDiv(uint32_t div)
 221:../lpc11cx4-library/lpc_chip_11cxx_lib/inc/clock_11xx.h **** {
 222:../lpc11cx4-library/lpc_chip_11cxx_lib/inc/clock_11xx.h **** 	LPC_SYSCTL->SYSAHBCLKDIV  = div;
 223:../lpc11cx4-library/lpc_chip_11cxx_lib/inc/clock_11xx.h **** }
 224:../lpc11cx4-library/lpc_chip_11cxx_lib/inc/clock_11xx.h **** 
 225:../lpc11cx4-library/lpc_chip_11cxx_lib/inc/clock_11xx.h **** /**
 226:../lpc11cx4-library/lpc_chip_11cxx_lib/inc/clock_11xx.h ****  * System and peripheral clocks
 227:../lpc11cx4-library/lpc_chip_11cxx_lib/inc/clock_11xx.h ****  */
 228:../lpc11cx4-library/lpc_chip_11cxx_lib/inc/clock_11xx.h **** typedef enum CHIP_SYSCTL_CLOCK {
 229:../lpc11cx4-library/lpc_chip_11cxx_lib/inc/clock_11xx.h **** 	SYSCTL_CLOCK_SYS = 0,				/*!< 0: System clock */
 230:../lpc11cx4-library/lpc_chip_11cxx_lib/inc/clock_11xx.h **** 	SYSCTL_CLOCK_ROM,					/*!<1:  ROM clock */
ARM GAS  /var/folders/9j/_txx49hn253_s3mnzkyxlj8m0000gp/T//ccIqLn15.s 			page 15


 231:../lpc11cx4-library/lpc_chip_11cxx_lib/inc/clock_11xx.h **** 	SYSCTL_CLOCK_RAM,					/*!< 2: RAM clock */
 232:../lpc11cx4-library/lpc_chip_11cxx_lib/inc/clock_11xx.h **** 	SYSCTL_CLOCK_FLASHREG,				/*!< 3: FLASH register interface clock */
 233:../lpc11cx4-library/lpc_chip_11cxx_lib/inc/clock_11xx.h **** 	SYSCTL_CLOCK_FLASHARRAY,			/*!< 4: FLASH array access clock */
 234:../lpc11cx4-library/lpc_chip_11cxx_lib/inc/clock_11xx.h **** #if defined(CHIP_LPC110X)
 235:../lpc11cx4-library/lpc_chip_11cxx_lib/inc/clock_11xx.h **** 	SYSCTL_CLOCK_RESERVED5,				/*!< 5: Reserved */
 236:../lpc11cx4-library/lpc_chip_11cxx_lib/inc/clock_11xx.h **** #else
 237:../lpc11cx4-library/lpc_chip_11cxx_lib/inc/clock_11xx.h **** 	SYSCTL_CLOCK_I2C,					/*!< 5: I2C clock, not on LPC110x */
 238:../lpc11cx4-library/lpc_chip_11cxx_lib/inc/clock_11xx.h **** #endif
 239:../lpc11cx4-library/lpc_chip_11cxx_lib/inc/clock_11xx.h **** 	SYSCTL_CLOCK_GPIO,					/*!< 6: GPIO clock */
 240:../lpc11cx4-library/lpc_chip_11cxx_lib/inc/clock_11xx.h **** 	SYSCTL_CLOCK_CT16B0,				/*!< 7: 16-bit Counter/timer 0 clock */
 241:../lpc11cx4-library/lpc_chip_11cxx_lib/inc/clock_11xx.h **** 	SYSCTL_CLOCK_CT16B1,				/*!< 8: 16-bit Counter/timer 1 clock */
 242:../lpc11cx4-library/lpc_chip_11cxx_lib/inc/clock_11xx.h **** 	SYSCTL_CLOCK_CT32B0,				/*!< 9: 32-bit Counter/timer 0 clock */
 243:../lpc11cx4-library/lpc_chip_11cxx_lib/inc/clock_11xx.h **** 	SYSCTL_CLOCK_CT32B1,				/*!< 10: 32-bit Counter/timer 1 clock */
 244:../lpc11cx4-library/lpc_chip_11cxx_lib/inc/clock_11xx.h **** 	SYSCTL_CLOCK_SSP0,					/*!< 11: SSP0 clock */
 245:../lpc11cx4-library/lpc_chip_11cxx_lib/inc/clock_11xx.h **** 	SYSCTL_CLOCK_UART0,					/*!< 12: UART0 clock */
 246:../lpc11cx4-library/lpc_chip_11cxx_lib/inc/clock_11xx.h **** 	SYSCTL_CLOCK_ADC,					/*!< 13: ADC clock */
 247:../lpc11cx4-library/lpc_chip_11cxx_lib/inc/clock_11xx.h **** #if defined(CHIP_LPC11UXX)
 248:../lpc11cx4-library/lpc_chip_11cxx_lib/inc/clock_11xx.h **** 	SYSCTL_CLOCK_USB,					/*!< 14: USB clock, LPC11Uxx only */
 249:../lpc11cx4-library/lpc_chip_11cxx_lib/inc/clock_11xx.h **** #else
 250:../lpc11cx4-library/lpc_chip_11cxx_lib/inc/clock_11xx.h **** 	SYSCTL_CLOCK_RESERVED14,			/*!< 14: Reserved */
 251:../lpc11cx4-library/lpc_chip_11cxx_lib/inc/clock_11xx.h **** #endif
 252:../lpc11cx4-library/lpc_chip_11cxx_lib/inc/clock_11xx.h **** 	SYSCTL_CLOCK_WDT,					/*!< 15: Watchdog timer clock */
 253:../lpc11cx4-library/lpc_chip_11cxx_lib/inc/clock_11xx.h **** 	SYSCTL_CLOCK_IOCON,					/*!< 16: IOCON block clock */
 254:../lpc11cx4-library/lpc_chip_11cxx_lib/inc/clock_11xx.h **** #if defined(CHIP_LPC11CXX)
 255:../lpc11cx4-library/lpc_chip_11cxx_lib/inc/clock_11xx.h **** 	SYSCTL_CLOCK_CAN,					/*!< 17: CAN clock, LPC11Cxx only */
 256:../lpc11cx4-library/lpc_chip_11cxx_lib/inc/clock_11xx.h **** #else
 257:../lpc11cx4-library/lpc_chip_11cxx_lib/inc/clock_11xx.h **** 	SYSCTL_CLOCK_RESERVED17,			/*!< 17: Reserved */
 258:../lpc11cx4-library/lpc_chip_11cxx_lib/inc/clock_11xx.h **** #endif
 259:../lpc11cx4-library/lpc_chip_11cxx_lib/inc/clock_11xx.h **** #if !(defined(CHIP_LPC110X) || defined(CHIP_LPC11XXLV))  
 260:../lpc11cx4-library/lpc_chip_11cxx_lib/inc/clock_11xx.h **** 	SYSCTL_CLOCK_SSP1,					/*!< 18: SSP1 clock, LPC11A/C/E/Uxx//1125 only */
 261:../lpc11cx4-library/lpc_chip_11cxx_lib/inc/clock_11xx.h **** #if !defined(CHIP_LPC11CXX)
 262:../lpc11cx4-library/lpc_chip_11cxx_lib/inc/clock_11xx.h **** 	SYSCTL_CLOCK_PINT,					/*!< 19: GPIO Pin int register interface clock, LPC11A/E/Uxx only */
 263:../lpc11cx4-library/lpc_chip_11cxx_lib/inc/clock_11xx.h **** #if defined(CHIP_LPC11AXX)
 264:../lpc11cx4-library/lpc_chip_11cxx_lib/inc/clock_11xx.h **** 	SYSCTL_CLOCK_ACOMP,					/*!< 20: Analog comparator clock, LPC11Axx only */
 265:../lpc11cx4-library/lpc_chip_11cxx_lib/inc/clock_11xx.h **** 	SYSCTL_CLOCK_DAC,					/*!< 21: DAC clock, LPC11Axx only */
 266:../lpc11cx4-library/lpc_chip_11cxx_lib/inc/clock_11xx.h **** #else
 267:../lpc11cx4-library/lpc_chip_11cxx_lib/inc/clock_11xx.h **** 	SYSCTL_CLOCK_RESERVED20,			/*!< 20: Reserved */
 268:../lpc11cx4-library/lpc_chip_11cxx_lib/inc/clock_11xx.h **** 	SYSCTL_CLOCK_RESERVED21,			/*!< 21: Reserved */
 269:../lpc11cx4-library/lpc_chip_11cxx_lib/inc/clock_11xx.h **** #endif
 270:../lpc11cx4-library/lpc_chip_11cxx_lib/inc/clock_11xx.h **** 	SYSCTL_CLOCK_RESERVED22,			/*!< 22: Reserved */
 271:../lpc11cx4-library/lpc_chip_11cxx_lib/inc/clock_11xx.h **** 	SYSCTL_CLOCK_P0INT,					/*!< 23: GPIO GROUP1 interrupt register clock, LPC11Axx only */
 272:../lpc11cx4-library/lpc_chip_11cxx_lib/inc/clock_11xx.h **** 	SYSCTL_CLOCK_GROUP0INT = SYSCTL_CLOCK_P0INT,/*!< 23: GPIO GROUP0 interrupt register interface cloc
 273:../lpc11cx4-library/lpc_chip_11cxx_lib/inc/clock_11xx.h **** 	SYSCTL_CLOCK_P1INT,					/*!< 24: GPIO GROUP1 interrupt register clock, LPC11Axx only */
 274:../lpc11cx4-library/lpc_chip_11cxx_lib/inc/clock_11xx.h **** 	SYSCTL_CLOCK_GROUP1INT = SYSCTL_CLOCK_P1INT,/*!< 24: GPIO GROUP1 interrupt register interface cloc
 275:../lpc11cx4-library/lpc_chip_11cxx_lib/inc/clock_11xx.h **** 	SYSCTL_CLOCK_RESERVED25,			/*!< 25: Reserved */
 276:../lpc11cx4-library/lpc_chip_11cxx_lib/inc/clock_11xx.h **** #if defined(CHIP_LPC11EXX)  || defined(CHIP_LPC11UXX)
 277:../lpc11cx4-library/lpc_chip_11cxx_lib/inc/clock_11xx.h **** 	SYSCTL_CLOCK_RAM1,					/*!< 26: SRAM block (0x20000000) clock, LPC11E/Uxx only */
 278:../lpc11cx4-library/lpc_chip_11cxx_lib/inc/clock_11xx.h **** #else
 279:../lpc11cx4-library/lpc_chip_11cxx_lib/inc/clock_11xx.h **** 	SYSCTL_CLOCK_RESERVED26,			/*!< 26: Reserved */
 280:../lpc11cx4-library/lpc_chip_11cxx_lib/inc/clock_11xx.h **** #endif
 281:../lpc11cx4-library/lpc_chip_11cxx_lib/inc/clock_11xx.h **** #if defined(CHIP_LPC11UXX)
 282:../lpc11cx4-library/lpc_chip_11cxx_lib/inc/clock_11xx.h **** 	SYSCTL_CLOCK_USBRAM,				/*!< 27: USB SRAM block clock, LPC11Uxx only */
 283:../lpc11cx4-library/lpc_chip_11cxx_lib/inc/clock_11xx.h **** #else
 284:../lpc11cx4-library/lpc_chip_11cxx_lib/inc/clock_11xx.h **** 	SYSCTL_CLOCK_RESERVED27,			/*!< 27: Reserved */
 285:../lpc11cx4-library/lpc_chip_11cxx_lib/inc/clock_11xx.h **** #endif
 286:../lpc11cx4-library/lpc_chip_11cxx_lib/inc/clock_11xx.h **** #endif /* !defined(CHIP_LPC11CXX) */
 287:../lpc11cx4-library/lpc_chip_11cxx_lib/inc/clock_11xx.h **** #endif /* !(defined(CHIP_LPC110X) || defined(CHIP_LPC11XXLV)) */
ARM GAS  /var/folders/9j/_txx49hn253_s3mnzkyxlj8m0000gp/T//ccIqLn15.s 			page 16


 288:../lpc11cx4-library/lpc_chip_11cxx_lib/inc/clock_11xx.h **** } CHIP_SYSCTL_CLOCK_T;
 289:../lpc11cx4-library/lpc_chip_11cxx_lib/inc/clock_11xx.h **** 
 290:../lpc11cx4-library/lpc_chip_11cxx_lib/inc/clock_11xx.h **** /**
 291:../lpc11cx4-library/lpc_chip_11cxx_lib/inc/clock_11xx.h ****  * @brief	Enable a system or peripheral clock
 292:../lpc11cx4-library/lpc_chip_11cxx_lib/inc/clock_11xx.h ****  * @param	clk	: Clock to enable
 293:../lpc11cx4-library/lpc_chip_11cxx_lib/inc/clock_11xx.h ****  * @return	Nothing
 294:../lpc11cx4-library/lpc_chip_11cxx_lib/inc/clock_11xx.h ****  */
 295:../lpc11cx4-library/lpc_chip_11cxx_lib/inc/clock_11xx.h **** STATIC INLINE void Chip_Clock_EnablePeriphClock(CHIP_SYSCTL_CLOCK_T clk)
 296:../lpc11cx4-library/lpc_chip_11cxx_lib/inc/clock_11xx.h **** {
 297:../lpc11cx4-library/lpc_chip_11cxx_lib/inc/clock_11xx.h **** 	LPC_SYSCTL->SYSAHBCLKCTRL |= (1 << clk);
 298:../lpc11cx4-library/lpc_chip_11cxx_lib/inc/clock_11xx.h **** }
 299:../lpc11cx4-library/lpc_chip_11cxx_lib/inc/clock_11xx.h **** 
 300:../lpc11cx4-library/lpc_chip_11cxx_lib/inc/clock_11xx.h **** /**
 301:../lpc11cx4-library/lpc_chip_11cxx_lib/inc/clock_11xx.h ****  * @brief	Disable a system or peripheral clock
 302:../lpc11cx4-library/lpc_chip_11cxx_lib/inc/clock_11xx.h ****  * @param	clk	: Clock to disable
 303:../lpc11cx4-library/lpc_chip_11cxx_lib/inc/clock_11xx.h ****  * @return	Nothing
 304:../lpc11cx4-library/lpc_chip_11cxx_lib/inc/clock_11xx.h ****  */
 305:../lpc11cx4-library/lpc_chip_11cxx_lib/inc/clock_11xx.h **** STATIC INLINE void Chip_Clock_DisablePeriphClock(CHIP_SYSCTL_CLOCK_T clk)
 306:../lpc11cx4-library/lpc_chip_11cxx_lib/inc/clock_11xx.h **** {
 307:../lpc11cx4-library/lpc_chip_11cxx_lib/inc/clock_11xx.h **** 	LPC_SYSCTL->SYSAHBCLKCTRL &= ~(1 << clk);
 308:../lpc11cx4-library/lpc_chip_11cxx_lib/inc/clock_11xx.h **** }
 309:../lpc11cx4-library/lpc_chip_11cxx_lib/inc/clock_11xx.h **** 
 310:../lpc11cx4-library/lpc_chip_11cxx_lib/inc/clock_11xx.h **** /**
 311:../lpc11cx4-library/lpc_chip_11cxx_lib/inc/clock_11xx.h ****  * @brief	Set SSP0 divider
 312:../lpc11cx4-library/lpc_chip_11cxx_lib/inc/clock_11xx.h ****  * @param	div	: divider for SSP0 clock
 313:../lpc11cx4-library/lpc_chip_11cxx_lib/inc/clock_11xx.h ****  * @return	Nothing
 314:../lpc11cx4-library/lpc_chip_11cxx_lib/inc/clock_11xx.h ****  * @note	Use 0 to disable, or a divider value of 1 to 255. The SSP0 clock
 315:../lpc11cx4-library/lpc_chip_11cxx_lib/inc/clock_11xx.h ****  * rate is the main system clock divided by this value.
 316:../lpc11cx4-library/lpc_chip_11cxx_lib/inc/clock_11xx.h ****  */
 317:../lpc11cx4-library/lpc_chip_11cxx_lib/inc/clock_11xx.h **** STATIC INLINE void Chip_Clock_SetSSP0ClockDiv(uint32_t div)
 318:../lpc11cx4-library/lpc_chip_11cxx_lib/inc/clock_11xx.h **** {
 319:../lpc11cx4-library/lpc_chip_11cxx_lib/inc/clock_11xx.h **** 	LPC_SYSCTL->SSP0CLKDIV  = div;
 320:../lpc11cx4-library/lpc_chip_11cxx_lib/inc/clock_11xx.h **** }
 321:../lpc11cx4-library/lpc_chip_11cxx_lib/inc/clock_11xx.h **** 
 322:../lpc11cx4-library/lpc_chip_11cxx_lib/inc/clock_11xx.h **** /**
 323:../lpc11cx4-library/lpc_chip_11cxx_lib/inc/clock_11xx.h ****  * @brief	Return SSP0 divider
 324:../lpc11cx4-library/lpc_chip_11cxx_lib/inc/clock_11xx.h ****  * @return	divider for SSP0 clock
 325:../lpc11cx4-library/lpc_chip_11cxx_lib/inc/clock_11xx.h ****  * @note	A value of 0 means the clock is disabled.
 326:../lpc11cx4-library/lpc_chip_11cxx_lib/inc/clock_11xx.h ****  */
 327:../lpc11cx4-library/lpc_chip_11cxx_lib/inc/clock_11xx.h **** STATIC INLINE uint32_t Chip_Clock_GetSSP0ClockDiv(void)
 328:../lpc11cx4-library/lpc_chip_11cxx_lib/inc/clock_11xx.h **** {
 329:../lpc11cx4-library/lpc_chip_11cxx_lib/inc/clock_11xx.h **** 	return LPC_SYSCTL->SSP0CLKDIV;
 330:../lpc11cx4-library/lpc_chip_11cxx_lib/inc/clock_11xx.h **** }
 331:../lpc11cx4-library/lpc_chip_11cxx_lib/inc/clock_11xx.h **** 
 332:../lpc11cx4-library/lpc_chip_11cxx_lib/inc/clock_11xx.h **** /**
 333:../lpc11cx4-library/lpc_chip_11cxx_lib/inc/clock_11xx.h ****  * @brief	Set UART divider clock
 334:../lpc11cx4-library/lpc_chip_11cxx_lib/inc/clock_11xx.h ****  * @param	div	: divider for UART clock
 335:../lpc11cx4-library/lpc_chip_11cxx_lib/inc/clock_11xx.h ****  * @return	Nothing
 336:../lpc11cx4-library/lpc_chip_11cxx_lib/inc/clock_11xx.h ****  * @note	Use 0 to disable, or a divider value of 1 to 255. The UART clock
 337:../lpc11cx4-library/lpc_chip_11cxx_lib/inc/clock_11xx.h ****  * rate is the main system clock divided by this value.
 338:../lpc11cx4-library/lpc_chip_11cxx_lib/inc/clock_11xx.h ****  */
 339:../lpc11cx4-library/lpc_chip_11cxx_lib/inc/clock_11xx.h **** STATIC INLINE void Chip_Clock_SetUARTClockDiv(uint32_t div)
 340:../lpc11cx4-library/lpc_chip_11cxx_lib/inc/clock_11xx.h **** {
 341:../lpc11cx4-library/lpc_chip_11cxx_lib/inc/clock_11xx.h **** 	LPC_SYSCTL->USARTCLKDIV  = div;
 342:../lpc11cx4-library/lpc_chip_11cxx_lib/inc/clock_11xx.h **** }
 343:../lpc11cx4-library/lpc_chip_11cxx_lib/inc/clock_11xx.h **** 
 344:../lpc11cx4-library/lpc_chip_11cxx_lib/inc/clock_11xx.h **** /**
ARM GAS  /var/folders/9j/_txx49hn253_s3mnzkyxlj8m0000gp/T//ccIqLn15.s 			page 17


 345:../lpc11cx4-library/lpc_chip_11cxx_lib/inc/clock_11xx.h ****  * @brief	Return UART divider
 346:../lpc11cx4-library/lpc_chip_11cxx_lib/inc/clock_11xx.h ****  * @return	divider for UART clock
 347:../lpc11cx4-library/lpc_chip_11cxx_lib/inc/clock_11xx.h ****  * @note	A value of 0 means the clock is disabled.
 348:../lpc11cx4-library/lpc_chip_11cxx_lib/inc/clock_11xx.h ****  */
 349:../lpc11cx4-library/lpc_chip_11cxx_lib/inc/clock_11xx.h **** STATIC INLINE uint32_t Chip_Clock_GetUARTClockDiv(void)
 350:../lpc11cx4-library/lpc_chip_11cxx_lib/inc/clock_11xx.h **** {
 351:../lpc11cx4-library/lpc_chip_11cxx_lib/inc/clock_11xx.h **** 	return LPC_SYSCTL->USARTCLKDIV;
 352:../lpc11cx4-library/lpc_chip_11cxx_lib/inc/clock_11xx.h **** }
 353:../lpc11cx4-library/lpc_chip_11cxx_lib/inc/clock_11xx.h **** 
 354:../lpc11cx4-library/lpc_chip_11cxx_lib/inc/clock_11xx.h **** #if defined(CHIP_LPC11CXX) || defined(CHIP_LPC11EXX) || defined(CHIP_LPC11AXX) || defined(CHIP_LPC1
 355:../lpc11cx4-library/lpc_chip_11cxx_lib/inc/clock_11xx.h **** /**
 356:../lpc11cx4-library/lpc_chip_11cxx_lib/inc/clock_11xx.h ****  * @brief	Set SSP1 divider clock
 357:../lpc11cx4-library/lpc_chip_11cxx_lib/inc/clock_11xx.h ****  * @param	div	: divider for SSP1 clock
 358:../lpc11cx4-library/lpc_chip_11cxx_lib/inc/clock_11xx.h ****  * @return	Nothing
 359:../lpc11cx4-library/lpc_chip_11cxx_lib/inc/clock_11xx.h ****  * @note	Use 0 to disable, or a divider value of 1 to 255. The SSP1 clock
 360:../lpc11cx4-library/lpc_chip_11cxx_lib/inc/clock_11xx.h ****  * rate is the main system clock divided by this value.
 361:../lpc11cx4-library/lpc_chip_11cxx_lib/inc/clock_11xx.h ****  */
 362:../lpc11cx4-library/lpc_chip_11cxx_lib/inc/clock_11xx.h **** STATIC INLINE void Chip_Clock_SetSSP1ClockDiv(uint32_t div)
 363:../lpc11cx4-library/lpc_chip_11cxx_lib/inc/clock_11xx.h **** {
 364:../lpc11cx4-library/lpc_chip_11cxx_lib/inc/clock_11xx.h **** 	LPC_SYSCTL->SSP1CLKDIV  = div;
 365:../lpc11cx4-library/lpc_chip_11cxx_lib/inc/clock_11xx.h **** }
 366:../lpc11cx4-library/lpc_chip_11cxx_lib/inc/clock_11xx.h **** 
 367:../lpc11cx4-library/lpc_chip_11cxx_lib/inc/clock_11xx.h **** /**
 368:../lpc11cx4-library/lpc_chip_11cxx_lib/inc/clock_11xx.h ****  * @brief	Return SSP1 divider
 369:../lpc11cx4-library/lpc_chip_11cxx_lib/inc/clock_11xx.h ****  * @return	divider for SSP1 clock
 370:../lpc11cx4-library/lpc_chip_11cxx_lib/inc/clock_11xx.h ****  * @note	A value of 0 means the clock is disabled.
 371:../lpc11cx4-library/lpc_chip_11cxx_lib/inc/clock_11xx.h ****  */
 372:../lpc11cx4-library/lpc_chip_11cxx_lib/inc/clock_11xx.h **** STATIC INLINE uint32_t Chip_Clock_GetSSP1ClockDiv(void)
 373:../lpc11cx4-library/lpc_chip_11cxx_lib/inc/clock_11xx.h **** {
 374:../lpc11cx4-library/lpc_chip_11cxx_lib/inc/clock_11xx.h **** 	return LPC_SYSCTL->SSP1CLKDIV;
 375:../lpc11cx4-library/lpc_chip_11cxx_lib/inc/clock_11xx.h **** }
 376:../lpc11cx4-library/lpc_chip_11cxx_lib/inc/clock_11xx.h **** 
 377:../lpc11cx4-library/lpc_chip_11cxx_lib/inc/clock_11xx.h **** #endif /*defined(CHIP_LPC11CXX) || defined(CHIP_LPC11EXX) || defined(CHIP_LPC11AXX) || defined(CHIP
 378:../lpc11cx4-library/lpc_chip_11cxx_lib/inc/clock_11xx.h **** 
 379:../lpc11cx4-library/lpc_chip_11cxx_lib/inc/clock_11xx.h **** #if defined(CHIP_LPC11UXX)
 380:../lpc11cx4-library/lpc_chip_11cxx_lib/inc/clock_11xx.h **** /**
 381:../lpc11cx4-library/lpc_chip_11cxx_lib/inc/clock_11xx.h ****  * Clock sources for USB
 382:../lpc11cx4-library/lpc_chip_11cxx_lib/inc/clock_11xx.h ****  */
 383:../lpc11cx4-library/lpc_chip_11cxx_lib/inc/clock_11xx.h **** typedef enum CHIP_SYSCTL_USBCLKSRC {
 384:../lpc11cx4-library/lpc_chip_11cxx_lib/inc/clock_11xx.h **** 	SYSCTL_USBCLKSRC_PLLOUT = 0,	/*!< USB PLL out */
 385:../lpc11cx4-library/lpc_chip_11cxx_lib/inc/clock_11xx.h **** 	SYSCTL_USBCLKSRC_MAINSYSCLK,	/*!< Main system clock */
 386:../lpc11cx4-library/lpc_chip_11cxx_lib/inc/clock_11xx.h **** } CHIP_SYSCTL_USBCLKSRC_T;
 387:../lpc11cx4-library/lpc_chip_11cxx_lib/inc/clock_11xx.h **** 
 388:../lpc11cx4-library/lpc_chip_11cxx_lib/inc/clock_11xx.h **** /**
 389:../lpc11cx4-library/lpc_chip_11cxx_lib/inc/clock_11xx.h ****  * @brief	Set USB clock source and divider
 390:../lpc11cx4-library/lpc_chip_11cxx_lib/inc/clock_11xx.h ****  * @param	src	: Clock source for USB
 391:../lpc11cx4-library/lpc_chip_11cxx_lib/inc/clock_11xx.h ****  * @param	div	: divider for USB clock
 392:../lpc11cx4-library/lpc_chip_11cxx_lib/inc/clock_11xx.h ****  * @return	Nothing
 393:../lpc11cx4-library/lpc_chip_11cxx_lib/inc/clock_11xx.h ****  * @note	Use 0 to disable, or a divider value of 1 to 255. The USB clock
 394:../lpc11cx4-library/lpc_chip_11cxx_lib/inc/clock_11xx.h ****  * rate is either the main system clock or USB PLL output clock divided
 395:../lpc11cx4-library/lpc_chip_11cxx_lib/inc/clock_11xx.h ****  * by this value. This function will also toggle the clock source
 396:../lpc11cx4-library/lpc_chip_11cxx_lib/inc/clock_11xx.h ****  * update register to update the clock source.
 397:../lpc11cx4-library/lpc_chip_11cxx_lib/inc/clock_11xx.h ****  */
 398:../lpc11cx4-library/lpc_chip_11cxx_lib/inc/clock_11xx.h **** void Chip_Clock_SetUSBClockSource(CHIP_SYSCTL_USBCLKSRC_T src, uint32_t div);
 399:../lpc11cx4-library/lpc_chip_11cxx_lib/inc/clock_11xx.h **** 
 400:../lpc11cx4-library/lpc_chip_11cxx_lib/inc/clock_11xx.h **** #endif /*CHIP_LPC11UXX*/
 401:../lpc11cx4-library/lpc_chip_11cxx_lib/inc/clock_11xx.h **** 
ARM GAS  /var/folders/9j/_txx49hn253_s3mnzkyxlj8m0000gp/T//ccIqLn15.s 			page 18


 402:../lpc11cx4-library/lpc_chip_11cxx_lib/inc/clock_11xx.h **** #if defined(CHIP_LPC110X) || defined(CHIP_LPC11XXLV) || defined(CHIP_LPC11CXX) || defined(CHIP_LPC1
 403:../lpc11cx4-library/lpc_chip_11cxx_lib/inc/clock_11xx.h **** /**
 404:../lpc11cx4-library/lpc_chip_11cxx_lib/inc/clock_11xx.h ****  * Clock sources for WDT
 405:../lpc11cx4-library/lpc_chip_11cxx_lib/inc/clock_11xx.h ****  */
 406:../lpc11cx4-library/lpc_chip_11cxx_lib/inc/clock_11xx.h **** typedef enum CHIP_SYSCTL_WDTCLKSRC {
 407:../lpc11cx4-library/lpc_chip_11cxx_lib/inc/clock_11xx.h **** 	SYSCTL_WDTCLKSRC_IRC = 0,		/*!< Internal oscillator for watchdog clock */
 408:../lpc11cx4-library/lpc_chip_11cxx_lib/inc/clock_11xx.h **** 	SYSCTL_WDTCLKSRC_MAINSYSCLK,	/*!< Main system clock for watchdog clock */
 409:../lpc11cx4-library/lpc_chip_11cxx_lib/inc/clock_11xx.h **** 	SYSCTL_WDTCLKSRC_WDTOSC,		/*!< Watchdog oscillator for watchdog clock */
 410:../lpc11cx4-library/lpc_chip_11cxx_lib/inc/clock_11xx.h **** } CHIP_SYSCTL_WDTCLKSRC_T;
 411:../lpc11cx4-library/lpc_chip_11cxx_lib/inc/clock_11xx.h **** 
 412:../lpc11cx4-library/lpc_chip_11cxx_lib/inc/clock_11xx.h **** /**
 413:../lpc11cx4-library/lpc_chip_11cxx_lib/inc/clock_11xx.h ****  * @brief	Set WDT clock source and divider
 414:../lpc11cx4-library/lpc_chip_11cxx_lib/inc/clock_11xx.h ****  * @param	src	: Clock source for WDT
 415:../lpc11cx4-library/lpc_chip_11cxx_lib/inc/clock_11xx.h ****  * @param	div	: divider for WDT clock
 416:../lpc11cx4-library/lpc_chip_11cxx_lib/inc/clock_11xx.h ****  * @return	Nothing
 417:../lpc11cx4-library/lpc_chip_11cxx_lib/inc/clock_11xx.h ****  * @note	Use 0 to disable, or a divider value of 1 to 255. The WDT clock
 418:../lpc11cx4-library/lpc_chip_11cxx_lib/inc/clock_11xx.h ****  * rate is the clock source divided by the divider. This function will
 419:../lpc11cx4-library/lpc_chip_11cxx_lib/inc/clock_11xx.h ****  * also toggle the clock source update register to update the clock
 420:../lpc11cx4-library/lpc_chip_11cxx_lib/inc/clock_11xx.h ****  * source.
 421:../lpc11cx4-library/lpc_chip_11cxx_lib/inc/clock_11xx.h ****  */
 422:../lpc11cx4-library/lpc_chip_11cxx_lib/inc/clock_11xx.h **** void Chip_Clock_SetWDTClockSource(CHIP_SYSCTL_WDTCLKSRC_T src, uint32_t div);
 423:../lpc11cx4-library/lpc_chip_11cxx_lib/inc/clock_11xx.h **** 
 424:../lpc11cx4-library/lpc_chip_11cxx_lib/inc/clock_11xx.h **** #endif
 425:../lpc11cx4-library/lpc_chip_11cxx_lib/inc/clock_11xx.h **** 
 426:../lpc11cx4-library/lpc_chip_11cxx_lib/inc/clock_11xx.h **** #if !defined(CHIP_LPC110X)
 427:../lpc11cx4-library/lpc_chip_11cxx_lib/inc/clock_11xx.h **** /**
 428:../lpc11cx4-library/lpc_chip_11cxx_lib/inc/clock_11xx.h ****  * Clock sources for CLKOUT
 429:../lpc11cx4-library/lpc_chip_11cxx_lib/inc/clock_11xx.h ****  */
 430:../lpc11cx4-library/lpc_chip_11cxx_lib/inc/clock_11xx.h **** typedef enum CHIP_SYSCTL_CLKOUTSRC {
 431:../lpc11cx4-library/lpc_chip_11cxx_lib/inc/clock_11xx.h **** 	SYSCTL_CLKOUTSRC_IRC = 0,		/*!< Internal oscillator for CLKOUT */
 432:../lpc11cx4-library/lpc_chip_11cxx_lib/inc/clock_11xx.h **** 	SYSCTL_CLKOUTSRC_MAINOSC,		/*!< Main oscillator for CLKOUT */
 433:../lpc11cx4-library/lpc_chip_11cxx_lib/inc/clock_11xx.h **** 	SYSCTL_CLKOUTSRC_WDTOSC,		/*!< Watchdog oscillator for CLKOUT */
 434:../lpc11cx4-library/lpc_chip_11cxx_lib/inc/clock_11xx.h **** 	SYSCTL_CLKOUTSRC_LFOSC = SYSCTL_CLKOUTSRC_WDTOSC,	/*!< LF oscillator rate (LPC11A/Exx only) for CL
 435:../lpc11cx4-library/lpc_chip_11cxx_lib/inc/clock_11xx.h **** 	SYSCTL_CLKOUTSRC_MAINSYSCLK,	/*!< Main system clock for CLKOUT */
 436:../lpc11cx4-library/lpc_chip_11cxx_lib/inc/clock_11xx.h **** } CHIP_SYSCTL_CLKOUTSRC_T;
 437:../lpc11cx4-library/lpc_chip_11cxx_lib/inc/clock_11xx.h **** 
 438:../lpc11cx4-library/lpc_chip_11cxx_lib/inc/clock_11xx.h **** /**
 439:../lpc11cx4-library/lpc_chip_11cxx_lib/inc/clock_11xx.h ****  * @brief	Set CLKOUT clock source and divider
 440:../lpc11cx4-library/lpc_chip_11cxx_lib/inc/clock_11xx.h ****  * @param	src	: Clock source for CLKOUT
 441:../lpc11cx4-library/lpc_chip_11cxx_lib/inc/clock_11xx.h ****  * @param	div	: divider for CLKOUT clock
 442:../lpc11cx4-library/lpc_chip_11cxx_lib/inc/clock_11xx.h ****  * @return	Nothing
 443:../lpc11cx4-library/lpc_chip_11cxx_lib/inc/clock_11xx.h ****  * @note	Use 0 to disable, or a divider value of 1 to 255. The CLKOUT clock
 444:../lpc11cx4-library/lpc_chip_11cxx_lib/inc/clock_11xx.h ****  * rate is the clock source divided by the divider. This function will
 445:../lpc11cx4-library/lpc_chip_11cxx_lib/inc/clock_11xx.h ****  * also toggle the clock source update register to update the clock
 446:../lpc11cx4-library/lpc_chip_11cxx_lib/inc/clock_11xx.h ****  * source.
 447:../lpc11cx4-library/lpc_chip_11cxx_lib/inc/clock_11xx.h ****  */
 448:../lpc11cx4-library/lpc_chip_11cxx_lib/inc/clock_11xx.h **** void Chip_Clock_SetCLKOUTSource(CHIP_SYSCTL_CLKOUTSRC_T src, uint32_t div);
 449:../lpc11cx4-library/lpc_chip_11cxx_lib/inc/clock_11xx.h **** 
 450:../lpc11cx4-library/lpc_chip_11cxx_lib/inc/clock_11xx.h **** #endif
 451:../lpc11cx4-library/lpc_chip_11cxx_lib/inc/clock_11xx.h **** 
 452:../lpc11cx4-library/lpc_chip_11cxx_lib/inc/clock_11xx.h **** /**
 453:../lpc11cx4-library/lpc_chip_11cxx_lib/inc/clock_11xx.h ****  * @brief	Returns the main oscillator clock rate
 454:../lpc11cx4-library/lpc_chip_11cxx_lib/inc/clock_11xx.h ****  * @return	main oscillator clock rate
 455:../lpc11cx4-library/lpc_chip_11cxx_lib/inc/clock_11xx.h ****  */
 456:../lpc11cx4-library/lpc_chip_11cxx_lib/inc/clock_11xx.h **** STATIC INLINE uint32_t Chip_Clock_GetMainOscRate(void)
 457:../lpc11cx4-library/lpc_chip_11cxx_lib/inc/clock_11xx.h **** {
 458:../lpc11cx4-library/lpc_chip_11cxx_lib/inc/clock_11xx.h **** 	return OscRateIn;
ARM GAS  /var/folders/9j/_txx49hn253_s3mnzkyxlj8m0000gp/T//ccIqLn15.s 			page 19


 339              		.loc 2 458 0
 340 0012 034B     		ldr	r3, .L30+4	@ tmp121,
 341 0014 1868     		ldr	r0, [r3]	@ clkRate, OscRateIn
 342              	.LBE37:
 343              	.LBE36:
 194:../lpc11cx4-library/lpc_chip_11cxx_lib/src/clock_11xx.c **** 
 344              		.loc 1 194 0
 345 0016 FBE7     		b	.L26	@
 346              	.L28:
 189:../lpc11cx4-library/lpc_chip_11cxx_lib/src/clock_11xx.c **** 		break;
 347              		.loc 1 189 0
 348 0018 0248     		ldr	r0, .L30+8	@ clkRate,
 349 001a F9E7     		b	.L26	@
 350              	.L31:
 351              		.align	2
 352              	.L30:
 353 001c 00800440 		.word	1074036736
 354 0020 00000000 		.word	OscRateIn
 355 0024 001BB700 		.word	12000000
 356              		.cfi_endproc
 357              	.LFE206:
 358              		.size	Chip_Clock_GetSystemPLLInClockRate, .-Chip_Clock_GetSystemPLLInClockRate
 359              		.section	.text.Chip_Clock_GetSystemPLLOutClockRate,"ax",%progbits
 360              		.align	2
 361              		.global	Chip_Clock_GetSystemPLLOutClockRate
 362              		.code	16
 363              		.thumb_func
 364              		.type	Chip_Clock_GetSystemPLLOutClockRate, %function
 365              	Chip_Clock_GetSystemPLLOutClockRate:
 366              	.LFB207:
 208:../lpc11cx4-library/lpc_chip_11cxx_lib/src/clock_11xx.c **** 
 209:../lpc11cx4-library/lpc_chip_11cxx_lib/src/clock_11xx.c **** /* Return System PLL output clock rate */
 210:../lpc11cx4-library/lpc_chip_11cxx_lib/src/clock_11xx.c **** uint32_t Chip_Clock_GetSystemPLLOutClockRate(void)
 211:../lpc11cx4-library/lpc_chip_11cxx_lib/src/clock_11xx.c **** {
 367              		.loc 1 211 0
 368              		.cfi_startproc
 212:../lpc11cx4-library/lpc_chip_11cxx_lib/src/clock_11xx.c **** 	return Chip_Clock_GetPLLFreq(LPC_SYSCTL->SYSPLLCTRL,
 369              		.loc 1 212 0
 370 0000 0C4B     		ldr	r3, .L39	@ tmp122,
 211:../lpc11cx4-library/lpc_chip_11cxx_lib/src/clock_11xx.c **** 	return Chip_Clock_GetPLLFreq(LPC_SYSCTL->SYSPLLCTRL,
 371              		.loc 1 211 0
 372 0002 82B0     		sub	sp, sp, #8	@,,
 373              		.cfi_def_cfa_offset 8
 374              		.loc 1 212 0
 375 0004 9A68     		ldr	r2, [r3, #8]	@ D.6279, MEM[(struct LPC_SYSCTL_T *)1074036736B].SYSPLLCTRL
 376              	.LBB38:
 377              	.LBB39:
 187:../lpc11cx4-library/lpc_chip_11cxx_lib/src/clock_11xx.c **** 	case SYSCTL_PLLCLKSRC_IRC:
 378              		.loc 1 187 0
 379 0006 196C     		ldr	r1, [r3, #64]	@ D.6279, MEM[(struct LPC_SYSCTL_T *)1074036736B].SYSPLLCLKSEL
 380 0008 0323     		mov	r3, #3	@ tmp126,
 381 000a 0B40     		and	r3, r1	@ D.6280, D.6279
 382 000c 0CD0     		beq	.L34	@,
 383 000e 012B     		cmp	r3, #1	@ D.6280,
 384 0010 02D0     		beq	.L35	@,
 385 0012 0020     		mov	r0, #0	@ D.6281,
 386              	.L33:
ARM GAS  /var/folders/9j/_txx49hn253_s3mnzkyxlj8m0000gp/T//ccIqLn15.s 			page 20


 387              	.LVL16:
 388              	.LBE39:
 389              	.LBE38:
 213:../lpc11cx4-library/lpc_chip_11cxx_lib/src/clock_11xx.c **** 								 Chip_Clock_GetSystemPLLInClockRate());
 214:../lpc11cx4-library/lpc_chip_11cxx_lib/src/clock_11xx.c **** }
 390              		.loc 1 214 0
 391 0014 02B0     		add	sp, sp, #8	@,,
 392              		@ sp needed	@
 393 0016 7047     		bx	lr
 394              	.L35:
 395 0018 1F20     		mov	r0, #31	@ tmp132,
 396              	.LBB43:
 397              	.LBB42:
 398              	.LBB40:
 399              	.LBB41:
 400              		.loc 2 458 0
 401 001a 074B     		ldr	r3, .L39+4	@ tmp135,
 402 001c 1040     		and	r0, r2	@ D.6279, D.6279
 403 001e 1B68     		ldr	r3, [r3]	@ OscRateIn, OscRateIn
 404 0020 0130     		add	r0, r0, #1	@ D.6281,
 405 0022 0193     		str	r3, [sp, #4]	@ OscRateIn, %sfp
 406 0024 5843     		mul	r0, r3	@ D.6281, OscRateIn
 407 0026 F5E7     		b	.L33	@
 408              	.L34:
 409 0028 1F20     		mov	r0, #31	@ tmp128,
 410 002a 0240     		and	r2, r0	@ D.6279, tmp128
 411 002c 0348     		ldr	r0, .L39+8	@ tmp131,
 412 002e 0132     		add	r2, r2, #1	@ D.6281,
 413 0030 5043     		mul	r0, r2	@ D.6281, D.6281
 414 0032 EFE7     		b	.L33	@
 415              	.L40:
 416              		.align	2
 417              	.L39:
 418 0034 00800440 		.word	1074036736
 419 0038 00000000 		.word	OscRateIn
 420 003c 001BB700 		.word	12000000
 421              	.LBE41:
 422              	.LBE40:
 423              	.LBE42:
 424              	.LBE43:
 425              		.cfi_endproc
 426              	.LFE207:
 427              		.size	Chip_Clock_GetSystemPLLOutClockRate, .-Chip_Clock_GetSystemPLLOutClockRate
 428              		.section	.text.Chip_Clock_GetMainClockRate,"ax",%progbits
 429              		.align	2
 430              		.global	Chip_Clock_GetMainClockRate
 431              		.code	16
 432              		.thumb_func
 433              		.type	Chip_Clock_GetMainClockRate, %function
 434              	Chip_Clock_GetMainClockRate:
 435              	.LFB208:
 215:../lpc11cx4-library/lpc_chip_11cxx_lib/src/clock_11xx.c **** 
 216:../lpc11cx4-library/lpc_chip_11cxx_lib/src/clock_11xx.c **** #if defined(CHIP_LPC11UXX)
 217:../lpc11cx4-library/lpc_chip_11cxx_lib/src/clock_11xx.c **** /* Return USB PLL input clock rate */
 218:../lpc11cx4-library/lpc_chip_11cxx_lib/src/clock_11xx.c **** uint32_t Chip_Clock_GetUSBPLLInClockRate(void)
 219:../lpc11cx4-library/lpc_chip_11cxx_lib/src/clock_11xx.c **** {
 220:../lpc11cx4-library/lpc_chip_11cxx_lib/src/clock_11xx.c **** 	uint32_t clkRate;
ARM GAS  /var/folders/9j/_txx49hn253_s3mnzkyxlj8m0000gp/T//ccIqLn15.s 			page 21


 221:../lpc11cx4-library/lpc_chip_11cxx_lib/src/clock_11xx.c **** 
 222:../lpc11cx4-library/lpc_chip_11cxx_lib/src/clock_11xx.c **** 	switch ((CHIP_SYSCTL_PLLCLKSRC_T) (LPC_SYSCTL->USBPLLCLKSEL & 0x3)) {
 223:../lpc11cx4-library/lpc_chip_11cxx_lib/src/clock_11xx.c **** 	case SYSCTL_PLLCLKSRC_IRC:
 224:../lpc11cx4-library/lpc_chip_11cxx_lib/src/clock_11xx.c **** 		clkRate = Chip_Clock_GetIntOscRate();
 225:../lpc11cx4-library/lpc_chip_11cxx_lib/src/clock_11xx.c **** 		break;
 226:../lpc11cx4-library/lpc_chip_11cxx_lib/src/clock_11xx.c **** 
 227:../lpc11cx4-library/lpc_chip_11cxx_lib/src/clock_11xx.c **** 	case SYSCTL_PLLCLKSRC_MAINOSC:
 228:../lpc11cx4-library/lpc_chip_11cxx_lib/src/clock_11xx.c **** 		clkRate = Chip_Clock_GetMainOscRate();
 229:../lpc11cx4-library/lpc_chip_11cxx_lib/src/clock_11xx.c **** 		break;
 230:../lpc11cx4-library/lpc_chip_11cxx_lib/src/clock_11xx.c **** 
 231:../lpc11cx4-library/lpc_chip_11cxx_lib/src/clock_11xx.c **** 	default:
 232:../lpc11cx4-library/lpc_chip_11cxx_lib/src/clock_11xx.c **** 		clkRate = 0;
 233:../lpc11cx4-library/lpc_chip_11cxx_lib/src/clock_11xx.c **** 	}
 234:../lpc11cx4-library/lpc_chip_11cxx_lib/src/clock_11xx.c **** 
 235:../lpc11cx4-library/lpc_chip_11cxx_lib/src/clock_11xx.c **** 	return clkRate;
 236:../lpc11cx4-library/lpc_chip_11cxx_lib/src/clock_11xx.c **** }
 237:../lpc11cx4-library/lpc_chip_11cxx_lib/src/clock_11xx.c **** 
 238:../lpc11cx4-library/lpc_chip_11cxx_lib/src/clock_11xx.c **** /* Return USB PLL output clock rate */
 239:../lpc11cx4-library/lpc_chip_11cxx_lib/src/clock_11xx.c **** uint32_t Chip_Clock_GetUSBPLLOutClockRate(void)
 240:../lpc11cx4-library/lpc_chip_11cxx_lib/src/clock_11xx.c **** {
 241:../lpc11cx4-library/lpc_chip_11cxx_lib/src/clock_11xx.c **** 	return Chip_Clock_GetPLLFreq(LPC_SYSCTL->USBPLLCTRL,
 242:../lpc11cx4-library/lpc_chip_11cxx_lib/src/clock_11xx.c **** 								 Chip_Clock_GetUSBPLLInClockRate());
 243:../lpc11cx4-library/lpc_chip_11cxx_lib/src/clock_11xx.c **** }
 244:../lpc11cx4-library/lpc_chip_11cxx_lib/src/clock_11xx.c **** 
 245:../lpc11cx4-library/lpc_chip_11cxx_lib/src/clock_11xx.c **** #endif
 246:../lpc11cx4-library/lpc_chip_11cxx_lib/src/clock_11xx.c **** 
 247:../lpc11cx4-library/lpc_chip_11cxx_lib/src/clock_11xx.c **** /* Return main clock rate */
 248:../lpc11cx4-library/lpc_chip_11cxx_lib/src/clock_11xx.c **** uint32_t Chip_Clock_GetMainClockRate(void)
 249:../lpc11cx4-library/lpc_chip_11cxx_lib/src/clock_11xx.c **** {
 436              		.loc 1 249 0
 437              		.cfi_startproc
 438              	.LVL17:
 250:../lpc11cx4-library/lpc_chip_11cxx_lib/src/clock_11xx.c **** 	uint32_t clkRate = 0;
 251:../lpc11cx4-library/lpc_chip_11cxx_lib/src/clock_11xx.c **** 
 252:../lpc11cx4-library/lpc_chip_11cxx_lib/src/clock_11xx.c **** 	switch ((CHIP_SYSCTL_MAINCLKSRC_T) (LPC_SYSCTL->MAINCLKSEL & 0x3)) {
 439              		.loc 1 252 0
 440 0000 0322     		mov	r2, #3	@ tmp132,
 441 0002 1249     		ldr	r1, .L52	@ tmp129,
 249:../lpc11cx4-library/lpc_chip_11cxx_lib/src/clock_11xx.c **** 	uint32_t clkRate = 0;
 442              		.loc 1 249 0
 443 0004 08B5     		push	{r3, lr}	@
 444              		.cfi_def_cfa_offset 8
 445              		.cfi_offset 3, -8
 446              		.cfi_offset 14, -4
 447              		.loc 1 252 0
 448 0006 0B6F     		ldr	r3, [r1, #112]	@ D.6304, MEM[(struct LPC_SYSCTL_T *)1074036736B].MAINCLKSEL
 449 0008 1340     		and	r3, r2	@ D.6305, tmp132
 450 000a 022B     		cmp	r3, #2	@ D.6305,
 451 000c 11D0     		beq	.L43	@,
 452 000e 032B     		cmp	r3, #3	@ D.6305,
 453 0010 0CD0     		beq	.L44	@,
 454 0012 012B     		cmp	r3, #1	@ D.6305,
 455 0014 01D0     		beq	.L51	@,
 456              	.L49:
 457              	.LBB58:
 458              	.LBB59:
 459              	.LBB60:
ARM GAS  /var/folders/9j/_txx49hn253_s3mnzkyxlj8m0000gp/T//ccIqLn15.s 			page 22


 189:../lpc11cx4-library/lpc_chip_11cxx_lib/src/clock_11xx.c **** 		break;
 460              		.loc 1 189 0
 461 0016 0E48     		ldr	r0, .L52+4	@ clkRate,
 462              	.LVL18:
 463              	.L42:
 464              	.LBE60:
 465              	.LBE59:
 466              	.LBE58:
 253:../lpc11cx4-library/lpc_chip_11cxx_lib/src/clock_11xx.c **** 	case SYSCTL_MAINCLKSRC_IRC:
 254:../lpc11cx4-library/lpc_chip_11cxx_lib/src/clock_11xx.c **** 		clkRate = Chip_Clock_GetIntOscRate();
 255:../lpc11cx4-library/lpc_chip_11cxx_lib/src/clock_11xx.c **** 		break;
 256:../lpc11cx4-library/lpc_chip_11cxx_lib/src/clock_11xx.c **** 
 257:../lpc11cx4-library/lpc_chip_11cxx_lib/src/clock_11xx.c **** 	case SYSCTL_MAINCLKSRC_PLLIN:
 258:../lpc11cx4-library/lpc_chip_11cxx_lib/src/clock_11xx.c **** 		clkRate = Chip_Clock_GetSystemPLLInClockRate();
 259:../lpc11cx4-library/lpc_chip_11cxx_lib/src/clock_11xx.c **** 		break;
 260:../lpc11cx4-library/lpc_chip_11cxx_lib/src/clock_11xx.c **** 
 261:../lpc11cx4-library/lpc_chip_11cxx_lib/src/clock_11xx.c **** #if defined(CHIP_LPC11AXX)
 262:../lpc11cx4-library/lpc_chip_11cxx_lib/src/clock_11xx.c **** 	case SYSCTL_MAINCLKSRC_LFOSC:
 263:../lpc11cx4-library/lpc_chip_11cxx_lib/src/clock_11xx.c **** 		clkRate = Chip_Clock_GetLFOOSCRate();
 264:../lpc11cx4-library/lpc_chip_11cxx_lib/src/clock_11xx.c **** 		break;
 265:../lpc11cx4-library/lpc_chip_11cxx_lib/src/clock_11xx.c **** 
 266:../lpc11cx4-library/lpc_chip_11cxx_lib/src/clock_11xx.c **** #else
 267:../lpc11cx4-library/lpc_chip_11cxx_lib/src/clock_11xx.c **** 	case SYSCTL_MAINCLKSRC_WDTOSC:
 268:../lpc11cx4-library/lpc_chip_11cxx_lib/src/clock_11xx.c **** 		clkRate = Chip_Clock_GetWDTOSCRate();
 269:../lpc11cx4-library/lpc_chip_11cxx_lib/src/clock_11xx.c **** 		break;
 270:../lpc11cx4-library/lpc_chip_11cxx_lib/src/clock_11xx.c **** #endif
 271:../lpc11cx4-library/lpc_chip_11cxx_lib/src/clock_11xx.c **** 
 272:../lpc11cx4-library/lpc_chip_11cxx_lib/src/clock_11xx.c **** 	case SYSCTL_MAINCLKSRC_PLLOUT:
 273:../lpc11cx4-library/lpc_chip_11cxx_lib/src/clock_11xx.c **** 		clkRate = Chip_Clock_GetSystemPLLOutClockRate();
 274:../lpc11cx4-library/lpc_chip_11cxx_lib/src/clock_11xx.c **** 		break;
 275:../lpc11cx4-library/lpc_chip_11cxx_lib/src/clock_11xx.c **** 	}
 276:../lpc11cx4-library/lpc_chip_11cxx_lib/src/clock_11xx.c **** 
 277:../lpc11cx4-library/lpc_chip_11cxx_lib/src/clock_11xx.c **** 	return clkRate;
 278:../lpc11cx4-library/lpc_chip_11cxx_lib/src/clock_11xx.c **** }
 467              		.loc 1 278 0
 468              		@ sp needed	@
 469 0018 08BD     		pop	{r3, pc}
 470              	.LVL19:
 471              	.L51:
 472              	.LBB65:
 473              	.LBB64:
 474              	.LBB63:
 187:../lpc11cx4-library/lpc_chip_11cxx_lib/src/clock_11xx.c **** 	case SYSCTL_PLLCLKSRC_IRC:
 475              		.loc 1 187 0
 476 001a 0B6C     		ldr	r3, [r1, #64]	@ D.6304, MEM[(struct LPC_SYSCTL_T *)1074036736B].SYSPLLCLKSEL
 477 001c 1A40     		and	r2, r3	@ D.6305, D.6304
 478 001e FAD0     		beq	.L49	@,
 203:../lpc11cx4-library/lpc_chip_11cxx_lib/src/clock_11xx.c **** 	}
 479              		.loc 1 203 0
 480 0020 0020     		mov	r0, #0	@ clkRate,
 187:../lpc11cx4-library/lpc_chip_11cxx_lib/src/clock_11xx.c **** 	case SYSCTL_PLLCLKSRC_IRC:
 481              		.loc 1 187 0
 482 0022 012A     		cmp	r2, #1	@ D.6305,
 483 0024 F8D1     		bne	.L42	@,
 484              	.LBB61:
 485              	.LBB62:
 486              		.loc 2 458 0
ARM GAS  /var/folders/9j/_txx49hn253_s3mnzkyxlj8m0000gp/T//ccIqLn15.s 			page 23


 487 0026 0B4B     		ldr	r3, .L52+8	@ tmp139,
 488 0028 1868     		ldr	r0, [r3]	@ clkRate, OscRateIn
 489 002a F5E7     		b	.L42	@
 490              	.L44:
 491              	.LBE62:
 492              	.LBE61:
 493              	.LBE63:
 494              	.LBE64:
 495              	.LBE65:
 273:../lpc11cx4-library/lpc_chip_11cxx_lib/src/clock_11xx.c **** 		break;
 496              		.loc 1 273 0
 497 002c FFF7FEFF 		bl	Chip_Clock_GetSystemPLLOutClockRate	@
 498              	.LVL20:
 274:../lpc11cx4-library/lpc_chip_11cxx_lib/src/clock_11xx.c **** 	}
 499              		.loc 1 274 0
 500 0030 F2E7     		b	.L42	@
 501              	.LVL21:
 502              	.L43:
 503              	.LBB66:
 504              	.LBB67:
 170:../lpc11cx4-library/lpc_chip_11cxx_lib/src/clock_11xx.c **** }
 505              		.loc 1 170 0
 506 0032 4B6A     		ldr	r3, [r1, #36]	@ D.6304, MEM[(struct LPC_SYSCTL_T *)1074036736B].WDTOSCCTRL
 507              	.LVL22:
 508              	.LBB68:
 509              	.LBB69:
  71:../lpc11cx4-library/lpc_chip_11cxx_lib/src/clock_11xx.c **** 
 510              		.loc 1 71 0
 511 0034 1F21     		mov	r1, #31	@ tmp150,
  70:../lpc11cx4-library/lpc_chip_11cxx_lib/src/clock_11xx.c **** 	div = reg & 0x1F;
 512              		.loc 1 70 0
 513 0036 DA05     		lsl	r2, r3, #23	@ tmp147, D.6304,
  71:../lpc11cx4-library/lpc_chip_11cxx_lib/src/clock_11xx.c **** 
 514              		.loc 1 71 0
 515 0038 1940     		and	r1, r3	@ div, D.6304
 516              	.LVL23:
  74:../lpc11cx4-library/lpc_chip_11cxx_lib/src/clock_11xx.c **** }
 517              		.loc 1 74 0
 518 003a 120F     		lsr	r2, r2, #28	@ D.6305, tmp147,
 519 003c 064B     		ldr	r3, .L52+12	@ tmp141,
 520              	.LVL24:
 521 003e 9200     		lsl	r2, r2, #2	@ tmp149, D.6305,
 522 0040 0131     		add	r1, r1, #1	@ D.6304,
 523              	.LVL25:
 524 0042 4900     		lsl	r1, r1, #1	@ D.6304, D.6304,
 525              	.LVL26:
 526 0044 D058     		ldr	r0, [r2, r3]	@, wdtOSCRate
 527 0046 FFF7FEFF 		bl	__aeabi_uidiv	@
 528              	.LVL27:
 529              	.LBE69:
 530              	.LBE68:
 531              	.LBE67:
 532              	.LBE66:
 269:../lpc11cx4-library/lpc_chip_11cxx_lib/src/clock_11xx.c **** #endif
 533              		.loc 1 269 0
 534 004a E5E7     		b	.L42	@
 535              	.L53:
ARM GAS  /var/folders/9j/_txx49hn253_s3mnzkyxlj8m0000gp/T//ccIqLn15.s 			page 24


 536              		.align	2
 537              	.L52:
 538 004c 00800440 		.word	1074036736
 539 0050 001BB700 		.word	12000000
 540 0054 00000000 		.word	OscRateIn
 541 0058 00000000 		.word	.LANCHOR0
 542              		.cfi_endproc
 543              	.LFE208:
 544              		.size	Chip_Clock_GetMainClockRate, .-Chip_Clock_GetMainClockRate
 545              		.section	.text.Chip_Clock_GetSystemClockRate,"ax",%progbits
 546              		.align	2
 547              		.global	Chip_Clock_GetSystemClockRate
 548              		.code	16
 549              		.thumb_func
 550              		.type	Chip_Clock_GetSystemClockRate, %function
 551              	Chip_Clock_GetSystemClockRate:
 552              	.LFB209:
 279:../lpc11cx4-library/lpc_chip_11cxx_lib/src/clock_11xx.c **** 
 280:../lpc11cx4-library/lpc_chip_11cxx_lib/src/clock_11xx.c **** /* Return system clock rate */
 281:../lpc11cx4-library/lpc_chip_11cxx_lib/src/clock_11xx.c **** uint32_t Chip_Clock_GetSystemClockRate(void)
 282:../lpc11cx4-library/lpc_chip_11cxx_lib/src/clock_11xx.c **** {
 553              		.loc 1 282 0
 554              		.cfi_startproc
 555 0000 08B5     		push	{r3, lr}	@
 556              		.cfi_def_cfa_offset 8
 557              		.cfi_offset 3, -8
 558              		.cfi_offset 14, -4
 283:../lpc11cx4-library/lpc_chip_11cxx_lib/src/clock_11xx.c **** 	/* No point in checking for divide by 0 */
 284:../lpc11cx4-library/lpc_chip_11cxx_lib/src/clock_11xx.c **** 	return Chip_Clock_GetMainClockRate() / LPC_SYSCTL->SYSAHBCLKDIV;
 559              		.loc 1 284 0
 560 0002 FFF7FEFF 		bl	Chip_Clock_GetMainClockRate	@
 561              	.LVL28:
 562 0006 024B     		ldr	r3, .L55	@ tmp114,
 285:../lpc11cx4-library/lpc_chip_11cxx_lib/src/clock_11xx.c **** }
 563              		.loc 1 285 0
 564              		@ sp needed	@
 284:../lpc11cx4-library/lpc_chip_11cxx_lib/src/clock_11xx.c **** }
 565              		.loc 1 284 0
 566 0008 996F     		ldr	r1, [r3, #120]	@ D.6310, MEM[(struct LPC_SYSCTL_T *)1074036736B].SYSAHBCLKDIV
 567 000a FFF7FEFF 		bl	__aeabi_uidiv	@
 568              	.LVL29:
 569              		.loc 1 285 0
 570 000e 08BD     		pop	{r3, pc}
 571              	.L56:
 572              		.align	2
 573              	.L55:
 574 0010 00800440 		.word	1074036736
 575              		.cfi_endproc
 576              	.LFE209:
 577              		.size	Chip_Clock_GetSystemClockRate, .-Chip_Clock_GetSystemClockRate
 578              		.section	.rodata.wdtOSCRate,"a",%progbits
 579              		.align	2
 580              		.set	.LANCHOR0,. + 0
 581              		.type	wdtOSCRate, %object
 582              		.size	wdtOSCRate, 64
 583              	wdtOSCRate:
 584 0000 00000000 		.word	0
ARM GAS  /var/folders/9j/_txx49hn253_s3mnzkyxlj8m0000gp/T//ccIqLn15.s 			page 25


 585 0004 C0270900 		.word	600000
 586 0008 90051000 		.word	1050000
 587 000c C05C1500 		.word	1400000
 588 0010 F0B31A00 		.word	1750000
 589 0014 200B2000 		.word	2100000
 590 0018 009F2400 		.word	2400000
 591 001c E0322900 		.word	2700000
 592 0020 C0C62D00 		.word	3000000
 593 0024 50973100 		.word	3250000
 594 0028 E0673500 		.word	3500000
 595 002c 70383900 		.word	3750000
 596 0030 00093D00 		.word	4000000
 597 0034 40164000 		.word	4200000
 598 0038 80234300 		.word	4400000
 599 003c C0304600 		.word	4600000
 600              		.text
 601              	.Letext0:
 602              		.file 3 "/usr/local/Cellar/gcc-arm-none-eabi/20150925/arm-none-eabi/include/machine/_default_types
 603              		.file 4 "/usr/local/Cellar/gcc-arm-none-eabi/20150925/arm-none-eabi/include/sys/_stdint.h"
 604              		.file 5 "../lpc11cx4-library/lpc_chip_11cxx_lib/inc/sysctl_11xx.h"
 605              		.file 6 "../lpc11cx4-library/lpc_chip_11cxx_lib/inc/chip.h"