ARM GAS  /var/folders/9j/_txx49hn253_s3mnzkyxlj8m0000gp/T//cczwRa0h.s 			page 1


   1              		.cpu cortex-m0
   2              		.fpu softvfp
   3              		.eabi_attribute 20, 1	@ Tag_ABI_FP_denormal
   4              		.eabi_attribute 21, 1	@ Tag_ABI_FP_exceptions
   5              		.eabi_attribute 23, 3	@ Tag_ABI_FP_number_model
   6              		.eabi_attribute 24, 1	@ Tag_ABI_align8_needed
   7              		.eabi_attribute 25, 1	@ Tag_ABI_align8_preserved
   8              		.eabi_attribute 26, 1	@ Tag_ABI_enum_size
   9              		.eabi_attribute 30, 2	@ Tag_ABI_optimization_goals
  10              		.eabi_attribute 34, 0	@ Tag_CPU_unaligned_access
  11              		.eabi_attribute 18, 4	@ Tag_ABI_PCS_wchar_t
  12              		.file	"ltc6804.c"
  13              	@ GNU C (GNU Tools for ARM Embedded Processors) version 4.9.3 20150529 (release) [ARM/embedded-4_9-
  14              	@	compiled by GNU C version 4.2.1 (Based on Apple Inc. build 5658) (LLVM build 2336.9.00), GMP vers
  15              	@ GGC heuristics: --param ggc-min-expand=100 --param ggc-min-heapsize=131072
  16              	@ options passed:  -I . -I inc/
  17              	@ -I ../lpc11cx4-library/lpc_chip_11cxx_lib/inc
  18              	@ -I ../lpc11cx4-library/evt_lib/inc/ -I ../MY17/lib/MY17_Can_Library
  19              	@ -imultilib armv6-m
  20              	@ -iprefix /usr/local/Cellar/gcc-arm-none-eabi/20150925/bin/../lib/gcc/arm-none-eabi/4.9.3/
  21              	@ -isysroot /usr/local/Cellar/gcc-arm-none-eabi/20150925/bin/../arm-none-eabi
  22              	@ -MD bin/ltc6804.d -MF bin/ltc6804.d -MP -MQ bin/ltc6804.o
  23              	@ -D__USES_INITFINI__ -D UART_BAUD=115200 -D CORE_M0 -D DEBUG_ENABLE
  24              	@ -D CAN_ARCHITECTURE_ARM ../lpc11cx4-library/evt_lib/src/ltc6804.c
  25              	@ -mcpu=cortex-m0 -mthumb -auxbase-strip bin/ltc6804.o -g -ggdb3 -O2 -Wall
  26              	@ -Wstrict-prototypes -Wextra -std=gnu90 -ffunction-sections
  27              	@ -fdata-sections -fdiagnostics-color=always -fverbose-asm
  28              	@ options enabled:  -faggressive-loop-optimizations -fauto-inc-dec
  29              	@ -fbranch-count-reg -fcaller-saves -fcombine-stack-adjustments -fcommon
  30              	@ -fcompare-elim -fcprop-registers -fcrossjumping -fcse-follow-jumps
  31              	@ -fdata-sections -fdefer-pop -fdelete-null-pointer-checks -fdevirtualize
  32              	@ -fdevirtualize-speculatively -fdwarf2-cfi-asm -fearly-inlining
  33              	@ -feliminate-unused-debug-types -fexpensive-optimizations
  34              	@ -fforward-propagate -ffunction-cse -ffunction-sections -fgcse -fgcse-lm
  35              	@ -fgnu-runtime -fgnu-unique -fguess-branch-probability
  36              	@ -fhoist-adjacent-loads -fident -fif-conversion -fif-conversion2
  37              	@ -findirect-inlining -finline -finline-atomics
  38              	@ -finline-functions-called-once -finline-small-functions -fipa-cp
  39              	@ -fipa-profile -fipa-pure-const -fipa-reference -fipa-sra
  40              	@ -fira-hoist-pressure -fira-share-save-slots -fira-share-spill-slots
  41              	@ -fisolate-erroneous-paths-dereference -fivopts -fkeep-static-consts
  42              	@ -fleading-underscore -flifetime-dse -fmath-errno -fmerge-constants
  43              	@ -fmerge-debug-strings -fmove-loop-invariants -fomit-frame-pointer
  44              	@ -foptimize-sibling-calls -foptimize-strlen -fpartial-inlining -fpeephole
  45              	@ -fpeephole2 -fprefetch-loop-arrays -freg-struct-return -freorder-blocks
  46              	@ -freorder-functions -frerun-cse-after-loop
  47              	@ -fsched-critical-path-heuristic -fsched-dep-count-heuristic
  48              	@ -fsched-group-heuristic -fsched-interblock -fsched-last-insn-heuristic
  49              	@ -fsched-pressure -fsched-rank-heuristic -fsched-spec
  50              	@ -fsched-spec-insn-heuristic -fsched-stalled-insns-dep -fschedule-insns2
  51              	@ -fsection-anchors -fshow-column -fshrink-wrap -fsigned-zeros
  52              	@ -fsplit-ivs-in-unroller -fsplit-wide-types -fstrict-aliasing
  53              	@ -fstrict-overflow -fstrict-volatile-bitfields -fsync-libcalls
  54              	@ -fthread-jumps -ftoplevel-reorder -ftrapping-math -ftree-bit-ccp
  55              	@ -ftree-builtin-call-dce -ftree-ccp -ftree-ch -ftree-coalesce-vars
  56              	@ -ftree-copy-prop -ftree-copyrename -ftree-cselim -ftree-dce
  57              	@ -ftree-dominator-opts -ftree-dse -ftree-forwprop -ftree-fre
ARM GAS  /var/folders/9j/_txx49hn253_s3mnzkyxlj8m0000gp/T//cczwRa0h.s 			page 2


  58              	@ -ftree-loop-if-convert -ftree-loop-im -ftree-loop-ivcanon
  59              	@ -ftree-loop-optimize -ftree-parallelize-loops= -ftree-phiprop -ftree-pre
  60              	@ -ftree-pta -ftree-reassoc -ftree-scev-cprop -ftree-sink -ftree-slsr
  61              	@ -ftree-sra -ftree-switch-conversion -ftree-tail-merge -ftree-ter
  62              	@ -ftree-vrp -funit-at-a-time -fvar-tracking -fvar-tracking-assignments
  63              	@ -fverbose-asm -fzero-initialized-in-bss -mlittle-endian -mlra
  64              	@ -mpic-data-is-text-relative -msched-prolog -mthumb
  65              	@ -mvectorize-with-neon-quad
  66              	
  67              		.text
  68              	.Ltext0:
  69              		.cfi_sections	.debug_frame
  70              		.section	.text.divu10,"ax",%progbits
  71              		.align	2
  72              		.global	divu10
  73              		.code	16
  74              		.thumb_func
  75              		.type	divu10, %function
  76              	divu10:
  77              	.LFB198:
  78              		.file 1 "../lpc11cx4-library/evt_lib/src/ltc6804.c"
   1:../lpc11cx4-library/evt_lib/src/ltc6804.c **** #include "ltc6804.h"
   2:../lpc11cx4-library/evt_lib/src/ltc6804.c **** #include "config.h"
   3:../lpc11cx4-library/evt_lib/src/ltc6804.c **** 
   4:../lpc11cx4-library/evt_lib/src/ltc6804.c **** /***************************************
   5:../lpc11cx4-library/evt_lib/src/ltc6804.c **** 		Private Variables
   6:../lpc11cx4-library/evt_lib/src/ltc6804.c **** ****************************************/
   7:../lpc11cx4-library/evt_lib/src/ltc6804.c **** 
   8:../lpc11cx4-library/evt_lib/src/ltc6804.c **** #define WAKE_BUF_LEN 40
   9:../lpc11cx4-library/evt_lib/src/ltc6804.c **** static uint8_t wake_buf[WAKE_BUF_LEN];
  10:../lpc11cx4-library/evt_lib/src/ltc6804.c **** static uint16_t owt_state;
  11:../lpc11cx4-library/evt_lib/src/ltc6804.c **** static uint32_t owt_time;
  12:../lpc11cx4-library/evt_lib/src/ltc6804.c **** static uint8_t owt_up_rx_buf[4][LTC6804_CALC_BUFFER_LEN(15)]; // [TODO] Move into ltc6804_state
  13:../lpc11cx4-library/evt_lib/src/ltc6804.c **** static bool zero_vector[MAX_NUM_MODULES * MAX_CELLS_PER_MODULE];
  14:../lpc11cx4-library/evt_lib/src/ltc6804.c **** static bool should_zero_balance;
  15:../lpc11cx4-library/evt_lib/src/ltc6804.c **** 
  16:../lpc11cx4-library/evt_lib/src/ltc6804.c **** #define _IS_ASLEEP(state, msTicks) (msTicks - state->last_message > T_SLEEP)
  17:../lpc11cx4-library/evt_lib/src/ltc6804.c **** #define _IS_IDLE(state, msTicks) (msTicks - state->last_message > T_IDLE)
  18:../lpc11cx4-library/evt_lib/src/ltc6804.c **** #define _IS_REFUP(state, msTicks) (msTicks - state->last_sleep_wake > T_REFUP)
  19:../lpc11cx4-library/evt_lib/src/ltc6804.c **** 
  20:../lpc11cx4-library/evt_lib/src/ltc6804.c **** /***************************************
  21:../lpc11cx4-library/evt_lib/src/ltc6804.c **** 		Private Function Prototypes
  22:../lpc11cx4-library/evt_lib/src/ltc6804.c **** ****************************************/
  23:../lpc11cx4-library/evt_lib/src/ltc6804.c **** 
  24:../lpc11cx4-library/evt_lib/src/ltc6804.c **** LTC6804_STATUS_T _command(LTC6804_CONFIG_T *config, LTC6804_STATE_T *state, uint16_t cmd, uint32_t 
  25:../lpc11cx4-library/evt_lib/src/ltc6804.c **** LTC6804_STATUS_T _write(LTC6804_CONFIG_T *config, LTC6804_STATE_T *state, uint16_t cmd, uint32_t ms
  26:../lpc11cx4-library/evt_lib/src/ltc6804.c **** LTC6804_STATUS_T _read(LTC6804_CONFIG_T *config, LTC6804_STATE_T *state, uint16_t cmd, uint32_t msT
  27:../lpc11cx4-library/evt_lib/src/ltc6804.c **** LTC6804_STATUS_T _wake(LTC6804_CONFIG_T *config, LTC6804_STATE_T *state, uint32_t msTicks, bool for
  28:../lpc11cx4-library/evt_lib/src/ltc6804.c **** LTC6804_STATUS_T _set_balance_states(LTC6804_CONFIG_T *config, LTC6804_STATE_T *state, uint32_t msT
  29:../lpc11cx4-library/evt_lib/src/ltc6804.c **** uint16_t _calculate_pec(uint8_t *data, uint8_t len);
  30:../lpc11cx4-library/evt_lib/src/ltc6804.c **** bool _check_st_results(LTC6804_CONFIG_T *config, LTC6804_STATE_T *state);
  31:../lpc11cx4-library/evt_lib/src/ltc6804.c **** bool _check_owt(LTC6804_CONFIG_T *config, LTC6804_OWT_RES_T *res, uint8_t *c_up, uint8_t *c_down);
  32:../lpc11cx4-library/evt_lib/src/ltc6804.c **** 
  33:../lpc11cx4-library/evt_lib/src/ltc6804.c **** uint32_t divu10(uint32_t n) {
  79              		.loc 1 33 0
  80              		.cfi_startproc
  81              	.LVL0:
ARM GAS  /var/folders/9j/_txx49hn253_s3mnzkyxlj8m0000gp/T//cczwRa0h.s 			page 3


  34:../lpc11cx4-library/evt_lib/src/ltc6804.c ****  uint32_t q, r;
  35:../lpc11cx4-library/evt_lib/src/ltc6804.c ****  q = (n >> 1) + (n >> 2);
  82              		.loc 1 35 0
  83 0000 8308     		lsr	r3, r0, #2	@ D.7674, n,
  84 0002 4208     		lsr	r2, r0, #1	@ D.7674, n,
  85 0004 9A18     		add	r2, r3, r2	@ q, D.7674, D.7674
  86              	.LVL1:
  36:../lpc11cx4-library/evt_lib/src/ltc6804.c ****  q = q + (q >> 4);
  87              		.loc 1 36 0
  88 0006 1309     		lsr	r3, r2, #4	@ D.7674, q,
  89 0008 9A18     		add	r2, r3, r2	@ q, D.7674, q
  90              	.LVL2:
  37:../lpc11cx4-library/evt_lib/src/ltc6804.c ****  q = q + (q >> 8);
  91              		.loc 1 37 0
  92 000a 130A     		lsr	r3, r2, #8	@ D.7674, q,
  93 000c 9A18     		add	r2, r3, r2	@ q, D.7674, q
  94              	.LVL3:
  38:../lpc11cx4-library/evt_lib/src/ltc6804.c ****  q = q + (q >> 16);
  95              		.loc 1 38 0
  96 000e 130C     		lsr	r3, r2, #16	@ D.7674, q,
  97 0010 9B18     		add	r3, r3, r2	@ q, D.7674, q
  98              	.LVL4:
  39:../lpc11cx4-library/evt_lib/src/ltc6804.c ****  q = q >> 3;
  99              		.loc 1 39 0
 100 0012 DB08     		lsr	r3, r3, #3	@ q, q,
 101              	.LVL5:
  40:../lpc11cx4-library/evt_lib/src/ltc6804.c ****  r = n - q*10;
 102              		.loc 1 40 0
 103 0014 9A00     		lsl	r2, r3, #2	@ tmp132, q,
 104 0016 D218     		add	r2, r2, r3	@ D.7674, tmp132, q
 105 0018 5200     		lsl	r2, r2, #1	@ tmp134, D.7674,
 106 001a 0630     		add	r0, r0, #6	@ D.7675,
 107              	.LVL6:
  41:../lpc11cx4-library/evt_lib/src/ltc6804.c ****  return q + ((r + 6) >> 4);
 108              		.loc 1 41 0
 109 001c 801A     		sub	r0, r0, r2	@ D.7674, D.7675, tmp134
 110              	.LVL7:
 111 001e 0009     		lsr	r0, r0, #4	@ D.7674, D.7674,
 112 0020 C018     		add	r0, r0, r3	@ D.7675, D.7674, q
  42:../lpc11cx4-library/evt_lib/src/ltc6804.c **** }
 113              		.loc 1 42 0
 114              		@ sp needed	@
 115 0022 7047     		bx	lr
 116              		.cfi_endproc
 117              	.LFE198:
 118              		.size	divu10, .-divu10
 119              		.section	.text._set_balance_states,"ax",%progbits
 120              		.align	2
 121              		.global	_set_balance_states
 122              		.code	16
 123              		.thumb_func
 124              		.type	_set_balance_states, %function
 125              	_set_balance_states:
 126              	.LFB213:
  43:../lpc11cx4-library/evt_lib/src/ltc6804.c **** 
  44:../lpc11cx4-library/evt_lib/src/ltc6804.c **** /***************************************
  45:../lpc11cx4-library/evt_lib/src/ltc6804.c **** 		Public Functions
ARM GAS  /var/folders/9j/_txx49hn253_s3mnzkyxlj8m0000gp/T//cczwRa0h.s 			page 4


  46:../lpc11cx4-library/evt_lib/src/ltc6804.c **** ****************************************/
  47:../lpc11cx4-library/evt_lib/src/ltc6804.c **** 
  48:../lpc11cx4-library/evt_lib/src/ltc6804.c **** LTC6804_STATUS_T LTC6804_Init(LTC6804_CONFIG_T *config, LTC6804_STATE_T *state, uint32_t msTicks) {
  49:../lpc11cx4-library/evt_lib/src/ltc6804.c **** 	Chip_GPIO_WriteDirBit(LPC_GPIO, config->cs_gpio, config->cs_pin, true);
  50:../lpc11cx4-library/evt_lib/src/ltc6804.c **** 	Chip_GPIO_SetPinState(LPC_GPIO, config->cs_gpio, config->cs_pin, true);
  51:../lpc11cx4-library/evt_lib/src/ltc6804.c **** 
  52:../lpc11cx4-library/evt_lib/src/ltc6804.c **** 	Chip_SSP_Init(config->pSSP);
  53:../lpc11cx4-library/evt_lib/src/ltc6804.c **** 	Chip_SSP_SetBitRate(config->pSSP, config->baud);
  54:../lpc11cx4-library/evt_lib/src/ltc6804.c **** 	Chip_SSP_SetFormat(config->pSSP, SSP_BITS_8, SSP_FRAMEFORMAT_SPI, SSP_CLOCK_MODE3);
  55:../lpc11cx4-library/evt_lib/src/ltc6804.c **** 	Chip_SSP_SetMaster(config->pSSP, true);
  56:../lpc11cx4-library/evt_lib/src/ltc6804.c **** 	Chip_SSP_Enable(config->pSSP);
  57:../lpc11cx4-library/evt_lib/src/ltc6804.c **** 
  58:../lpc11cx4-library/evt_lib/src/ltc6804.c **** 	uint16_t VUV = config->min_cell_mV * 10 / 16 - 1;
  59:../lpc11cx4-library/evt_lib/src/ltc6804.c **** 	uint16_t VOV = config->max_cell_mV * 10 / 16;
  60:../lpc11cx4-library/evt_lib/src/ltc6804.c **** 
  61:../lpc11cx4-library/evt_lib/src/ltc6804.c **** 	state->xf->rx_data = state->rx_buf;
  62:../lpc11cx4-library/evt_lib/src/ltc6804.c **** 	state->cfg[0] = 0xBC; 
  63:../lpc11cx4-library/evt_lib/src/ltc6804.c **** 	state->cfg[1] = VUV & 0xFF;
  64:../lpc11cx4-library/evt_lib/src/ltc6804.c **** 	state->cfg[2] = (VUV & 0xF00) >> 8 | (VOV & 0xF) << 4; 
  65:../lpc11cx4-library/evt_lib/src/ltc6804.c **** 	state->cfg[3] = (VOV & 0xFF0) >> 4;
  66:../lpc11cx4-library/evt_lib/src/ltc6804.c **** 	state->cfg[4] = 0x00; 
  67:../lpc11cx4-library/evt_lib/src/ltc6804.c **** 	state->cfg[5] = 0x00; // [TODO] Consider using DCTO
  68:../lpc11cx4-library/evt_lib/src/ltc6804.c **** 
  69:../lpc11cx4-library/evt_lib/src/ltc6804.c **** 	state->last_message = msTicks;
  70:../lpc11cx4-library/evt_lib/src/ltc6804.c **** 	state->wake_length = 3*config->baud/80000 + 1; // [TODO] Remember how this was calculated
  71:../lpc11cx4-library/evt_lib/src/ltc6804.c **** 	state->waiting = false;
  72:../lpc11cx4-library/evt_lib/src/ltc6804.c **** 	state->wait_time = LTC6804_ADCV_MODE_WAIT_TIMES[config->adc_mode];
  73:../lpc11cx4-library/evt_lib/src/ltc6804.c **** 	// state->wait_time = 7; // [TODO] Remove
  74:../lpc11cx4-library/evt_lib/src/ltc6804.c **** 	state->last_sleep_wake = msTicks;
  75:../lpc11cx4-library/evt_lib/src/ltc6804.c **** 	state->balancing = false;
  76:../lpc11cx4-library/evt_lib/src/ltc6804.c **** 
  77:../lpc11cx4-library/evt_lib/src/ltc6804.c **** 	state->adc_status = LTC6804_ADC_NONE;
  78:../lpc11cx4-library/evt_lib/src/ltc6804.c **** 
  79:../lpc11cx4-library/evt_lib/src/ltc6804.c **** 	owt_state = 0;
  80:../lpc11cx4-library/evt_lib/src/ltc6804.c **** 
  81:../lpc11cx4-library/evt_lib/src/ltc6804.c **** 	memset(wake_buf, 0, WAKE_BUF_LEN);
  82:../lpc11cx4-library/evt_lib/src/ltc6804.c ****   memset(zero_vector, 0, sizeof(bool) * MAX_NUM_MODULES * MAX_CELLS_PER_MODULE);
  83:../lpc11cx4-library/evt_lib/src/ltc6804.c **** 	memset(state->bal_list, 0, sizeof(state->bal_list[0])*MAX_NUM_MODULES);
  84:../lpc11cx4-library/evt_lib/src/ltc6804.c **** 
  85:../lpc11cx4-library/evt_lib/src/ltc6804.c ****   should_zero_balance = false;
  86:../lpc11cx4-library/evt_lib/src/ltc6804.c **** 
  87:../lpc11cx4-library/evt_lib/src/ltc6804.c **** 	_wake(config, state, msTicks, true);
  88:../lpc11cx4-library/evt_lib/src/ltc6804.c **** 
  89:../lpc11cx4-library/evt_lib/src/ltc6804.c **** 	return LTC6804_WriteCFG(config, state, msTicks);
  90:../lpc11cx4-library/evt_lib/src/ltc6804.c **** }
  91:../lpc11cx4-library/evt_lib/src/ltc6804.c **** 
  92:../lpc11cx4-library/evt_lib/src/ltc6804.c **** /* Clears Balance Bytes */
  93:../lpc11cx4-library/evt_lib/src/ltc6804.c **** LTC6804_STATUS_T LTC6804_WriteCFG(LTC6804_CONFIG_T *config, LTC6804_STATE_T *state, uint32_t msTick
  94:../lpc11cx4-library/evt_lib/src/ltc6804.c **** 	memcpy(state->tx_buf+4, state->cfg, 6);
  95:../lpc11cx4-library/evt_lib/src/ltc6804.c **** 	uint16_t pec = _calculate_pec(state->tx_buf+4, 6);
  96:../lpc11cx4-library/evt_lib/src/ltc6804.c **** 	state->tx_buf[10] = pec >> 8;
  97:../lpc11cx4-library/evt_lib/src/ltc6804.c **** 	state->tx_buf[11] = pec & 0xFF;
  98:../lpc11cx4-library/evt_lib/src/ltc6804.c **** 
  99:../lpc11cx4-library/evt_lib/src/ltc6804.c **** 	int i;
 100:../lpc11cx4-library/evt_lib/src/ltc6804.c **** 	for (i = 0; i < config->num_modules; i++) {
 101:../lpc11cx4-library/evt_lib/src/ltc6804.c **** 		memcpy(state->tx_buf+4+8*i, state->tx_buf+4, 8);
 102:../lpc11cx4-library/evt_lib/src/ltc6804.c **** 	}
ARM GAS  /var/folders/9j/_txx49hn253_s3mnzkyxlj8m0000gp/T//cczwRa0h.s 			page 5


 103:../lpc11cx4-library/evt_lib/src/ltc6804.c **** 
 104:../lpc11cx4-library/evt_lib/src/ltc6804.c **** 	return _write(config, state, WRCFG, msTicks);
 105:../lpc11cx4-library/evt_lib/src/ltc6804.c **** }
 106:../lpc11cx4-library/evt_lib/src/ltc6804.c **** 
 107:../lpc11cx4-library/evt_lib/src/ltc6804.c **** bool LTC6804_VerifyCFG(LTC6804_CONFIG_T *config, LTC6804_STATE_T *state, uint32_t msTicks) {
 108:../lpc11cx4-library/evt_lib/src/ltc6804.c **** 	LTC6804_STATUS_T res = _read(config, state, RDCFG, msTicks);
 109:../lpc11cx4-library/evt_lib/src/ltc6804.c **** 	if (res != LTC6804_PASS) return false;
 110:../lpc11cx4-library/evt_lib/src/ltc6804.c **** 
 111:../lpc11cx4-library/evt_lib/src/ltc6804.c **** 	int i;
 112:../lpc11cx4-library/evt_lib/src/ltc6804.c **** 	for (i = 0; i < config->num_modules; i++) {
 113:../lpc11cx4-library/evt_lib/src/ltc6804.c **** 		uint8_t *rx_ptr = state->rx_buf+4+8*i;
 114:../lpc11cx4-library/evt_lib/src/ltc6804.c **** 		if (rx_ptr[1] != state->cfg[1]) return false;
 115:../lpc11cx4-library/evt_lib/src/ltc6804.c **** 		if (rx_ptr[2] != state->cfg[2]) return false;
 116:../lpc11cx4-library/evt_lib/src/ltc6804.c **** 		if (rx_ptr[3] != state->cfg[3]) return false;
 117:../lpc11cx4-library/evt_lib/src/ltc6804.c **** 		if ((rx_ptr[5] & 0xF0) != (state->cfg[5] & 0xF0)) return false;
 118:../lpc11cx4-library/evt_lib/src/ltc6804.c **** 	}
 119:../lpc11cx4-library/evt_lib/src/ltc6804.c **** 
 120:../lpc11cx4-library/evt_lib/src/ltc6804.c **** 	return true;
 121:../lpc11cx4-library/evt_lib/src/ltc6804.c **** }
 122:../lpc11cx4-library/evt_lib/src/ltc6804.c **** 
 123:../lpc11cx4-library/evt_lib/src/ltc6804.c **** LTC6804_STATUS_T LTC6804_CVST(LTC6804_CONFIG_T *config, LTC6804_STATE_T *state, uint32_t msTicks) {
 124:../lpc11cx4-library/evt_lib/src/ltc6804.c **** 	if (state->adc_status == LTC6804_ADC_NONE) {
 125:../lpc11cx4-library/evt_lib/src/ltc6804.c **** 		state->adc_status = LTC6804_ADC_CVST;
 126:../lpc11cx4-library/evt_lib/src/ltc6804.c **** 	} else if (state->adc_status != LTC6804_ADC_CVST) {
 127:../lpc11cx4-library/evt_lib/src/ltc6804.c **** 		return LTC6804_WAITING;
 128:../lpc11cx4-library/evt_lib/src/ltc6804.c **** 	}
 129:../lpc11cx4-library/evt_lib/src/ltc6804.c **** 
 130:../lpc11cx4-library/evt_lib/src/ltc6804.c **** 	if (_IS_ASLEEP(state, msTicks)) {
 131:../lpc11cx4-library/evt_lib/src/ltc6804.c **** 		_wake(config, state, msTicks, false);
 132:../lpc11cx4-library/evt_lib/src/ltc6804.c **** 		return LTC6804_WAITING;
 133:../lpc11cx4-library/evt_lib/src/ltc6804.c **** 	} else if (!_IS_REFUP(state, msTicks)) {
 134:../lpc11cx4-library/evt_lib/src/ltc6804.c **** 		return LTC6804_WAITING_REFUP;
 135:../lpc11cx4-library/evt_lib/src/ltc6804.c **** 	}
 136:../lpc11cx4-library/evt_lib/src/ltc6804.c **** 
 137:../lpc11cx4-library/evt_lib/src/ltc6804.c **** 	if (!state->waiting) { // Need to send out self test command
 138:../lpc11cx4-library/evt_lib/src/ltc6804.c **** 		state->waiting = true;
 139:../lpc11cx4-library/evt_lib/src/ltc6804.c **** 		state->flight_time = msTicks;
 140:../lpc11cx4-library/evt_lib/src/ltc6804.c **** 		_command(config, state, (config->adc_mode << 7) | 0x227, msTicks);
 141:../lpc11cx4-library/evt_lib/src/ltc6804.c **** 		return LTC6804_WAITING;
 142:../lpc11cx4-library/evt_lib/src/ltc6804.c **** 	} else {
 143:../lpc11cx4-library/evt_lib/src/ltc6804.c **** 		if (msTicks - state->flight_time > state->wait_time) { // We've waited long enough
 144:../lpc11cx4-library/evt_lib/src/ltc6804.c **** 			state->waiting = false;
 145:../lpc11cx4-library/evt_lib/src/ltc6804.c **** 			state->adc_status = LTC6804_ADC_NONE;
 146:../lpc11cx4-library/evt_lib/src/ltc6804.c **** 			LTC6804_STATUS_T res;
 147:../lpc11cx4-library/evt_lib/src/ltc6804.c **** 			if ((res = _read(config, state, RDCVA, msTicks)) != LTC6804_PASS) return res;
 148:../lpc11cx4-library/evt_lib/src/ltc6804.c **** 			if (!_check_st_results(config, state)) return LTC6804_FAIL;
 149:../lpc11cx4-library/evt_lib/src/ltc6804.c **** 			if ((res = _read(config, state, RDCVB, msTicks)) != LTC6804_PASS) return res;
 150:../lpc11cx4-library/evt_lib/src/ltc6804.c **** 			if (!_check_st_results(config, state)) return LTC6804_FAIL;
 151:../lpc11cx4-library/evt_lib/src/ltc6804.c **** 			if ((res = _read(config, state, RDCVC, msTicks)) != LTC6804_PASS) return res;
 152:../lpc11cx4-library/evt_lib/src/ltc6804.c **** 			if (!_check_st_results(config, state)) return LTC6804_FAIL;
 153:../lpc11cx4-library/evt_lib/src/ltc6804.c **** 			if ((res = _read(config, state, RDCVD, msTicks)) != LTC6804_PASS) return res;
 154:../lpc11cx4-library/evt_lib/src/ltc6804.c **** 			if (!_check_st_results(config, state)) return LTC6804_FAIL;
 155:../lpc11cx4-library/evt_lib/src/ltc6804.c **** 			return LTC6804_PASS;
 156:../lpc11cx4-library/evt_lib/src/ltc6804.c **** 		} else { // Keep Waiting
 157:../lpc11cx4-library/evt_lib/src/ltc6804.c **** 			return LTC6804_WAITING;
 158:../lpc11cx4-library/evt_lib/src/ltc6804.c **** 		}
 159:../lpc11cx4-library/evt_lib/src/ltc6804.c **** 	}
ARM GAS  /var/folders/9j/_txx49hn253_s3mnzkyxlj8m0000gp/T//cczwRa0h.s 			page 6


 160:../lpc11cx4-library/evt_lib/src/ltc6804.c **** }
 161:../lpc11cx4-library/evt_lib/src/ltc6804.c **** 
 162:../lpc11cx4-library/evt_lib/src/ltc6804.c **** #define LENGTH 35 // [TODO] Put in config
 163:../lpc11cx4-library/evt_lib/src/ltc6804.c **** 
 164:../lpc11cx4-library/evt_lib/src/ltc6804.c **** // [TODO] Don't break at module fail (cycle through all modules)
 165:../lpc11cx4-library/evt_lib/src/ltc6804.c **** LTC6804_STATUS_T LTC6804_OpenWireTest(LTC6804_CONFIG_T *config, LTC6804_STATE_T *state, LTC6804_OWT
 166:../lpc11cx4-library/evt_lib/src/ltc6804.c **** 
 167:../lpc11cx4-library/evt_lib/src/ltc6804.c **** 	if (state->adc_status == LTC6804_ADC_NONE) {
 168:../lpc11cx4-library/evt_lib/src/ltc6804.c **** 		state->adc_status = LTC6804_ADC_OWT;
 169:../lpc11cx4-library/evt_lib/src/ltc6804.c **** 	} else if (state->adc_status != LTC6804_ADC_OWT) {
 170:../lpc11cx4-library/evt_lib/src/ltc6804.c **** 		return LTC6804_WAITING;
 171:../lpc11cx4-library/evt_lib/src/ltc6804.c **** 	}
 172:../lpc11cx4-library/evt_lib/src/ltc6804.c **** 
 173:../lpc11cx4-library/evt_lib/src/ltc6804.c **** 	int i;
 174:../lpc11cx4-library/evt_lib/src/ltc6804.c **** 
 175:../lpc11cx4-library/evt_lib/src/ltc6804.c **** 	if (msTicks - owt_time < state->wait_time) {
 176:../lpc11cx4-library/evt_lib/src/ltc6804.c **** 		return LTC6804_WAITING;
 177:../lpc11cx4-library/evt_lib/src/ltc6804.c **** 	}
 178:../lpc11cx4-library/evt_lib/src/ltc6804.c **** 
 179:../lpc11cx4-library/evt_lib/src/ltc6804.c **** 	if (owt_state <= LENGTH) {
 180:../lpc11cx4-library/evt_lib/src/ltc6804.c **** 		owt_state++;
 181:../lpc11cx4-library/evt_lib/src/ltc6804.c **** 		owt_time = msTicks;
 182:../lpc11cx4-library/evt_lib/src/ltc6804.c **** 		_command(config, state, (config->adc_mode << 7) | 0x268, msTicks);
 183:../lpc11cx4-library/evt_lib/src/ltc6804.c **** 		return LTC6804_WAITING; 
 184:../lpc11cx4-library/evt_lib/src/ltc6804.c **** 	} else if (owt_state == LENGTH + 1) {
 185:../lpc11cx4-library/evt_lib/src/ltc6804.c **** 		uint8_t *normal_rx_ptr = state->rx_buf;
 186:../lpc11cx4-library/evt_lib/src/ltc6804.c **** 		state->rx_buf = owt_up_rx_buf[0];
 187:../lpc11cx4-library/evt_lib/src/ltc6804.c **** 		LTC6804_STATUS_T r;
 188:../lpc11cx4-library/evt_lib/src/ltc6804.c **** 		r = _read(config, state, RDCVA, msTicks);
 189:../lpc11cx4-library/evt_lib/src/ltc6804.c **** 		if (r != LTC6804_PASS) {state->rx_buf = normal_rx_ptr; return r;}
 190:../lpc11cx4-library/evt_lib/src/ltc6804.c **** 		for (i = 0; i < config->num_modules; i++) {
 191:../lpc11cx4-library/evt_lib/src/ltc6804.c **** 			uint8_t *rx_ptr = owt_up_rx_buf[0] + 4 + 8 * i;
 192:../lpc11cx4-library/evt_lib/src/ltc6804.c **** 			if (rx_ptr[0] == 0 && rx_ptr[1] == 0) {
 193:../lpc11cx4-library/evt_lib/src/ltc6804.c **** 				state->rx_buf = normal_rx_ptr;
 194:../lpc11cx4-library/evt_lib/src/ltc6804.c **** 				owt_state = 0;
 195:../lpc11cx4-library/evt_lib/src/ltc6804.c **** 				res->failed_module = i;
 196:../lpc11cx4-library/evt_lib/src/ltc6804.c **** 				res->failed_wire = 0;
 197:../lpc11cx4-library/evt_lib/src/ltc6804.c **** 				return LTC6804_FAIL;
 198:../lpc11cx4-library/evt_lib/src/ltc6804.c **** 			}
 199:../lpc11cx4-library/evt_lib/src/ltc6804.c **** 		}
 200:../lpc11cx4-library/evt_lib/src/ltc6804.c **** 		state->rx_buf = owt_up_rx_buf[1];
 201:../lpc11cx4-library/evt_lib/src/ltc6804.c **** 		r = _read(config, state, RDCVB, msTicks);
 202:../lpc11cx4-library/evt_lib/src/ltc6804.c **** 		if (r != LTC6804_PASS) {state->rx_buf = normal_rx_ptr; return r;}
 203:../lpc11cx4-library/evt_lib/src/ltc6804.c **** 		state->rx_buf = owt_up_rx_buf[2];
 204:../lpc11cx4-library/evt_lib/src/ltc6804.c **** 		r = _read(config, state, RDCVC, msTicks);
 205:../lpc11cx4-library/evt_lib/src/ltc6804.c **** 		if (r != LTC6804_PASS) {state->rx_buf = normal_rx_ptr; return r;}
 206:../lpc11cx4-library/evt_lib/src/ltc6804.c **** 		state->rx_buf = owt_up_rx_buf[3];
 207:../lpc11cx4-library/evt_lib/src/ltc6804.c **** 		r = _read(config, state, RDCVD, msTicks);
 208:../lpc11cx4-library/evt_lib/src/ltc6804.c **** 		if (r != LTC6804_PASS) {state->rx_buf = normal_rx_ptr; return r;}
 209:../lpc11cx4-library/evt_lib/src/ltc6804.c **** 		state->rx_buf = normal_rx_ptr;
 210:../lpc11cx4-library/evt_lib/src/ltc6804.c **** 		owt_state++;
 211:../lpc11cx4-library/evt_lib/src/ltc6804.c **** 		owt_time = msTicks;
 212:../lpc11cx4-library/evt_lib/src/ltc6804.c **** 		_command(config, state, (config->adc_mode << 7) | 0x228, msTicks);
 213:../lpc11cx4-library/evt_lib/src/ltc6804.c **** 		return LTC6804_WAITING;
 214:../lpc11cx4-library/evt_lib/src/ltc6804.c **** 	} else if (owt_state <= LENGTH*2) {
 215:../lpc11cx4-library/evt_lib/src/ltc6804.c **** 		owt_state++;
 216:../lpc11cx4-library/evt_lib/src/ltc6804.c **** 		owt_time = msTicks;
ARM GAS  /var/folders/9j/_txx49hn253_s3mnzkyxlj8m0000gp/T//cczwRa0h.s 			page 7


 217:../lpc11cx4-library/evt_lib/src/ltc6804.c **** 		_command(config, state, (config->adc_mode << 7) | 0x228, msTicks);
 218:../lpc11cx4-library/evt_lib/src/ltc6804.c **** 		return LTC6804_WAITING;
 219:../lpc11cx4-library/evt_lib/src/ltc6804.c **** 	} else if (owt_state == LENGTH*2 + 1) {
 220:../lpc11cx4-library/evt_lib/src/ltc6804.c **** 		state->adc_status = LTC6804_ADC_NONE;
 221:../lpc11cx4-library/evt_lib/src/ltc6804.c **** 		LTC6804_STATUS_T r;
 222:../lpc11cx4-library/evt_lib/src/ltc6804.c **** 		for (i = 0; i < 4; i++) {
 223:../lpc11cx4-library/evt_lib/src/ltc6804.c **** 			r = _read(config, state, RDCVA+2*i, msTicks);
 224:../lpc11cx4-library/evt_lib/src/ltc6804.c **** 			if (r != LTC6804_PASS) {return r;}
 225:../lpc11cx4-library/evt_lib/src/ltc6804.c **** 			if (!_check_owt(config, res, owt_up_rx_buf[i], state->rx_buf)) {
 226:../lpc11cx4-library/evt_lib/src/ltc6804.c **** 				owt_state = 0;
 227:../lpc11cx4-library/evt_lib/src/ltc6804.c **** 				res->failed_wire += 3*i;
 228:../lpc11cx4-library/evt_lib/src/ltc6804.c **** 				return LTC6804_FAIL;
 229:../lpc11cx4-library/evt_lib/src/ltc6804.c **** 			}
 230:../lpc11cx4-library/evt_lib/src/ltc6804.c **** 		}
 231:../lpc11cx4-library/evt_lib/src/ltc6804.c **** 		for (i = 0; i < config->num_modules; i++) {
 232:../lpc11cx4-library/evt_lib/src/ltc6804.c **** 			uint8_t *rx_ptr = state->rx_buf + 4 + 8 * i;
 233:../lpc11cx4-library/evt_lib/src/ltc6804.c **** 			if (rx_ptr[5] == 0 && rx_ptr[4] == 0) {
 234:../lpc11cx4-library/evt_lib/src/ltc6804.c **** 				owt_state = 0;
 235:../lpc11cx4-library/evt_lib/src/ltc6804.c **** 				res->failed_module = i;
 236:../lpc11cx4-library/evt_lib/src/ltc6804.c **** 				res->failed_wire = 12;
 237:../lpc11cx4-library/evt_lib/src/ltc6804.c **** 				return LTC6804_FAIL;
 238:../lpc11cx4-library/evt_lib/src/ltc6804.c **** 			}
 239:../lpc11cx4-library/evt_lib/src/ltc6804.c **** 
 240:../lpc11cx4-library/evt_lib/src/ltc6804.c **** 		}
 241:../lpc11cx4-library/evt_lib/src/ltc6804.c **** 		owt_state = 0;
 242:../lpc11cx4-library/evt_lib/src/ltc6804.c **** 		owt_time = msTicks;
 243:../lpc11cx4-library/evt_lib/src/ltc6804.c **** 		return LTC6804_PASS;
 244:../lpc11cx4-library/evt_lib/src/ltc6804.c **** 	} else {
 245:../lpc11cx4-library/evt_lib/src/ltc6804.c **** 		return LTC6804_FAIL;
 246:../lpc11cx4-library/evt_lib/src/ltc6804.c **** 	}
 247:../lpc11cx4-library/evt_lib/src/ltc6804.c **** }
 248:../lpc11cx4-library/evt_lib/src/ltc6804.c **** 
 249:../lpc11cx4-library/evt_lib/src/ltc6804.c **** // Once updates on change
 250:../lpc11cx4-library/evt_lib/src/ltc6804.c **** LTC6804_STATUS_T LTC6804_UpdateBalanceStates(LTC6804_CONFIG_T *config, LTC6804_STATE_T *state, bool
 251:../lpc11cx4-library/evt_lib/src/ltc6804.c ****   if (should_zero_balance) {
 252:../lpc11cx4-library/evt_lib/src/ltc6804.c ****     balance_req = zero_vector;
 253:../lpc11cx4-library/evt_lib/src/ltc6804.c ****   }
 254:../lpc11cx4-library/evt_lib/src/ltc6804.c **** 	bool *bal_ptr = balance_req;
 255:../lpc11cx4-library/evt_lib/src/ltc6804.c **** 	bool change = false;
 256:../lpc11cx4-library/evt_lib/src/ltc6804.c **** 	int i, j;
 257:../lpc11cx4-library/evt_lib/src/ltc6804.c **** 	state->balancing = false;
 258:../lpc11cx4-library/evt_lib/src/ltc6804.c **** 	for (i = 0; i < config->num_modules; i++) {
 259:../lpc11cx4-library/evt_lib/src/ltc6804.c **** 		uint16_t bal_temp = 0;
 260:../lpc11cx4-library/evt_lib/src/ltc6804.c **** 		for (j = 0; j < config->module_cell_count[i]; j++) {
 261:../lpc11cx4-library/evt_lib/src/ltc6804.c **** 			bal_temp |= bal_ptr[0] << j;
 262:../lpc11cx4-library/evt_lib/src/ltc6804.c **** 			bal_ptr++;
 263:../lpc11cx4-library/evt_lib/src/ltc6804.c **** 		}
 264:../lpc11cx4-library/evt_lib/src/ltc6804.c **** 		if (bal_temp != state->bal_list[i]) {
 265:../lpc11cx4-library/evt_lib/src/ltc6804.c **** 			change = true;
 266:../lpc11cx4-library/evt_lib/src/ltc6804.c **** 			state->bal_list[i] = bal_temp;
 267:../lpc11cx4-library/evt_lib/src/ltc6804.c **** 		}
 268:../lpc11cx4-library/evt_lib/src/ltc6804.c **** 		if (state->bal_list[i]) state->balancing = true;
 269:../lpc11cx4-library/evt_lib/src/ltc6804.c **** 	}
 270:../lpc11cx4-library/evt_lib/src/ltc6804.c **** 
 271:../lpc11cx4-library/evt_lib/src/ltc6804.c **** 	if (change) {
 272:../lpc11cx4-library/evt_lib/src/ltc6804.c **** 		return _set_balance_states(config, state, msTicks);
 273:../lpc11cx4-library/evt_lib/src/ltc6804.c **** 	} else {
ARM GAS  /var/folders/9j/_txx49hn253_s3mnzkyxlj8m0000gp/T//cczwRa0h.s 			page 8


 274:../lpc11cx4-library/evt_lib/src/ltc6804.c **** 		return LTC6804_PASS;
 275:../lpc11cx4-library/evt_lib/src/ltc6804.c **** 	}
 276:../lpc11cx4-library/evt_lib/src/ltc6804.c **** }
 277:../lpc11cx4-library/evt_lib/src/ltc6804.c **** 
 278:../lpc11cx4-library/evt_lib/src/ltc6804.c **** LTC6804_STATUS_T LTC6804_SetGPIOState(LTC6804_CONFIG_T *config, LTC6804_STATE_T *state, uint8_t gpi
 279:../lpc11cx4-library/evt_lib/src/ltc6804.c **** 	// valid gpio range: 1 <= gpio <= 5
 280:../lpc11cx4-library/evt_lib/src/ltc6804.c **** 	if (gpio > 5 || gpio < 1) {
 281:../lpc11cx4-library/evt_lib/src/ltc6804.c **** 		return LTC6804_FAIL;
 282:../lpc11cx4-library/evt_lib/src/ltc6804.c **** 	}
 283:../lpc11cx4-library/evt_lib/src/ltc6804.c **** 
 284:../lpc11cx4-library/evt_lib/src/ltc6804.c **** 	if ((val & 1) == ((state->cfg[0] >> (2 + gpio)) & 1)) {
 285:../lpc11cx4-library/evt_lib/src/ltc6804.c **** 		// No Change
 286:../lpc11cx4-library/evt_lib/src/ltc6804.c **** 		return LTC6804_PASS;
 287:../lpc11cx4-library/evt_lib/src/ltc6804.c **** 	} else {
 288:../lpc11cx4-library/evt_lib/src/ltc6804.c **** 		if (val)
 289:../lpc11cx4-library/evt_lib/src/ltc6804.c **** 			state->cfg[0] |= 1 << (gpio + 2);
 290:../lpc11cx4-library/evt_lib/src/ltc6804.c **** 		else
 291:../lpc11cx4-library/evt_lib/src/ltc6804.c **** 			state->cfg[0] &= ~(1 << (gpio + 2));
 292:../lpc11cx4-library/evt_lib/src/ltc6804.c **** 
 293:../lpc11cx4-library/evt_lib/src/ltc6804.c **** 		return _set_balance_states(config, state, msTicks);
 294:../lpc11cx4-library/evt_lib/src/ltc6804.c **** 	}
 295:../lpc11cx4-library/evt_lib/src/ltc6804.c **** }
 296:../lpc11cx4-library/evt_lib/src/ltc6804.c **** 
 297:../lpc11cx4-library/evt_lib/src/ltc6804.c **** // [TODO] Clear cell votlages and only return pass when recieving not all FF
 298:../lpc11cx4-library/evt_lib/src/ltc6804.c **** LTC6804_STATUS_T LTC6804_GetCellVoltages(LTC6804_CONFIG_T *config, LTC6804_STATE_T *state, LTC6804_
 299:../lpc11cx4-library/evt_lib/src/ltc6804.c **** 	if (state->adc_status == LTC6804_ADC_NONE) {
 300:../lpc11cx4-library/evt_lib/src/ltc6804.c **** 		state->adc_status = LTC6804_ADC_GCV;
 301:../lpc11cx4-library/evt_lib/src/ltc6804.c **** 	} else if (state->adc_status != LTC6804_ADC_GCV) {
 302:../lpc11cx4-library/evt_lib/src/ltc6804.c **** 		return LTC6804_WAITING;
 303:../lpc11cx4-library/evt_lib/src/ltc6804.c **** 	}
 304:../lpc11cx4-library/evt_lib/src/ltc6804.c **** 
 305:../lpc11cx4-library/evt_lib/src/ltc6804.c **** 	if (_IS_ASLEEP(state, msTicks)) {
 306:../lpc11cx4-library/evt_lib/src/ltc6804.c **** 		_wake(config, state, msTicks, false);
 307:../lpc11cx4-library/evt_lib/src/ltc6804.c **** 		return LTC6804_WAITING;
 308:../lpc11cx4-library/evt_lib/src/ltc6804.c **** 	} else if (!_IS_REFUP(state, msTicks)) {
 309:../lpc11cx4-library/evt_lib/src/ltc6804.c **** 		return LTC6804_WAITING_REFUP;
 310:../lpc11cx4-library/evt_lib/src/ltc6804.c **** 	}
 311:../lpc11cx4-library/evt_lib/src/ltc6804.c **** 
 312:../lpc11cx4-library/evt_lib/src/ltc6804.c ****   if (!state->waiting && !should_zero_balance) { // Need to pause balancing to read
 313:../lpc11cx4-library/evt_lib/src/ltc6804.c ****     should_zero_balance = true;
 314:../lpc11cx4-library/evt_lib/src/ltc6804.c ****     LTC6804_UpdateBalanceStates(config, state, zero_vector, msTicks);
 315:../lpc11cx4-library/evt_lib/src/ltc6804.c ****     return LTC6804_WAITING;
 316:../lpc11cx4-library/evt_lib/src/ltc6804.c ****   }
 317:../lpc11cx4-library/evt_lib/src/ltc6804.c **** 
 318:../lpc11cx4-library/evt_lib/src/ltc6804.c ****   else if (!state->waiting) { // Actually get voltages
 319:../lpc11cx4-library/evt_lib/src/ltc6804.c **** 		state->waiting = true;
 320:../lpc11cx4-library/evt_lib/src/ltc6804.c **** 		state->flight_time = msTicks;
 321:../lpc11cx4-library/evt_lib/src/ltc6804.c **** 		_command(config, state, (config->adc_mode << 7) | 0x270, msTicks); // ADCV, All Channels, DCP=1
 322:../lpc11cx4-library/evt_lib/src/ltc6804.c **** 		return LTC6804_WAITING;
 323:../lpc11cx4-library/evt_lib/src/ltc6804.c **** 	} else {
 324:../lpc11cx4-library/evt_lib/src/ltc6804.c ****     should_zero_balance = false;
 325:../lpc11cx4-library/evt_lib/src/ltc6804.c **** 		// [TODO] make >=
 326:../lpc11cx4-library/evt_lib/src/ltc6804.c **** 		if (msTicks - state->flight_time > state->wait_time) { // We've waited long enough
 327:../lpc11cx4-library/evt_lib/src/ltc6804.c **** 			state->waiting = false;
 328:../lpc11cx4-library/evt_lib/src/ltc6804.c **** 			int i, j;
 329:../lpc11cx4-library/evt_lib/src/ltc6804.c **** 			uint32_t *vol_ptr = res->cell_voltages_mV;
 330:../lpc11cx4-library/evt_lib/src/ltc6804.c **** 			uint32_t min = UINT32_MAX;
ARM GAS  /var/folders/9j/_txx49hn253_s3mnzkyxlj8m0000gp/T//cczwRa0h.s 			page 9


 331:../lpc11cx4-library/evt_lib/src/ltc6804.c **** 			uint32_t max = 0;
 332:../lpc11cx4-library/evt_lib/src/ltc6804.c **** 			uint16_t failed_read = 0xFFFF;
 333:../lpc11cx4-library/evt_lib/src/ltc6804.c **** 			// Read a cell voltage group
 334:../lpc11cx4-library/evt_lib/src/ltc6804.c **** 				// For each module, calculate head of module voltage group
 335:../lpc11cx4-library/evt_lib/src/ltc6804.c **** 				// vol_ptr is pointer to head of module cell group voltages
 336:../lpc11cx4-library/evt_lib/src/ltc6804.c **** 			LTC6804_STATUS_T r;
 337:../lpc11cx4-library/evt_lib/src/ltc6804.c **** 			r = _read(config, state, RDCVA, msTicks);
 338:../lpc11cx4-library/evt_lib/src/ltc6804.c **** 			if (r == LTC6804_PEC_ERROR) return r;
 339:../lpc11cx4-library/evt_lib/src/ltc6804.c **** 			for (i = 0; i < config->num_modules; i++) {
 340:../lpc11cx4-library/evt_lib/src/ltc6804.c **** 				uint8_t *rx_ptr = state->rx_buf + 4 + 8 * i;
 341:../lpc11cx4-library/evt_lib/src/ltc6804.c **** 				for (j = 0; j < config->module_cell_count[i] && j < 3; j++) {
 342:../lpc11cx4-library/evt_lib/src/ltc6804.c **** 					uint16_t vol = (rx_ptr[2 * j + 1] << 8 | rx_ptr[2 * j]);
 343:../lpc11cx4-library/evt_lib/src/ltc6804.c **** 					failed_read &= vol;
 344:../lpc11cx4-library/evt_lib/src/ltc6804.c **** 					vol_ptr[j] = divu10(vol);
 345:../lpc11cx4-library/evt_lib/src/ltc6804.c **** 					max = (vol_ptr[j] > max) ? vol_ptr[j] : max;
 346:../lpc11cx4-library/evt_lib/src/ltc6804.c **** 					min = (vol_ptr[j] < min) ? vol_ptr[j] : min;
 347:../lpc11cx4-library/evt_lib/src/ltc6804.c **** 				}
 348:../lpc11cx4-library/evt_lib/src/ltc6804.c **** 				vol_ptr = vol_ptr + config->module_cell_count[i];
 349:../lpc11cx4-library/evt_lib/src/ltc6804.c **** 			}
 350:../lpc11cx4-library/evt_lib/src/ltc6804.c **** 
 351:../lpc11cx4-library/evt_lib/src/ltc6804.c **** 			r = _read(config, state, RDCVB, msTicks);
 352:../lpc11cx4-library/evt_lib/src/ltc6804.c **** 			if (r == LTC6804_PEC_ERROR) return r;
 353:../lpc11cx4-library/evt_lib/src/ltc6804.c **** 			vol_ptr = res->cell_voltages_mV;
 354:../lpc11cx4-library/evt_lib/src/ltc6804.c **** 			for (i = 0; i < config->num_modules; i++) {
 355:../lpc11cx4-library/evt_lib/src/ltc6804.c **** 				uint8_t *rx_ptr = state->rx_buf + 4 + 8 * i;
 356:../lpc11cx4-library/evt_lib/src/ltc6804.c **** 				for (j = 0; j + 3 < config->module_cell_count[i] && j < 3; j++) {
 357:../lpc11cx4-library/evt_lib/src/ltc6804.c **** 					uint16_t vol = (rx_ptr[2 * j + 1] << 8 | rx_ptr[2 * j]);
 358:../lpc11cx4-library/evt_lib/src/ltc6804.c **** 					failed_read &= vol;
 359:../lpc11cx4-library/evt_lib/src/ltc6804.c **** 					vol_ptr[j + 3] = divu10(vol);
 360:../lpc11cx4-library/evt_lib/src/ltc6804.c **** 					max = (vol_ptr[j + 3] > max) ? vol_ptr[j + 3] : max;
 361:../lpc11cx4-library/evt_lib/src/ltc6804.c **** 					min = (vol_ptr[j + 3] < min) ? vol_ptr[j + 3] : min;
 362:../lpc11cx4-library/evt_lib/src/ltc6804.c **** 				} 
 363:../lpc11cx4-library/evt_lib/src/ltc6804.c **** 				vol_ptr = vol_ptr + config->module_cell_count[i];
 364:../lpc11cx4-library/evt_lib/src/ltc6804.c **** 			}
 365:../lpc11cx4-library/evt_lib/src/ltc6804.c **** 
 366:../lpc11cx4-library/evt_lib/src/ltc6804.c **** 			r = _read(config, state, RDCVC, msTicks);
 367:../lpc11cx4-library/evt_lib/src/ltc6804.c **** 			if (r == LTC6804_PEC_ERROR) return r;
 368:../lpc11cx4-library/evt_lib/src/ltc6804.c **** 			vol_ptr = res->cell_voltages_mV;
 369:../lpc11cx4-library/evt_lib/src/ltc6804.c **** 			for (i = 0; i < config->num_modules; i++) {
 370:../lpc11cx4-library/evt_lib/src/ltc6804.c **** 				uint8_t *rx_ptr = state->rx_buf + 4 + 8 * i;
 371:../lpc11cx4-library/evt_lib/src/ltc6804.c **** 				for (j = 0; j + 6 < config->module_cell_count[i] && j < 3; j++) {
 372:../lpc11cx4-library/evt_lib/src/ltc6804.c **** 					uint16_t vol = (rx_ptr[2 * j + 1] << 8 | rx_ptr[2 * j]);
 373:../lpc11cx4-library/evt_lib/src/ltc6804.c **** 					failed_read &= vol;
 374:../lpc11cx4-library/evt_lib/src/ltc6804.c **** 					vol_ptr[j + 6] = divu10(vol);
 375:../lpc11cx4-library/evt_lib/src/ltc6804.c **** 					max = (vol_ptr[j + 6] > max) ? vol_ptr[j + 6] : max;
 376:../lpc11cx4-library/evt_lib/src/ltc6804.c **** 					min = (vol_ptr[j + 6] < min) ? vol_ptr[j + 6] : min;
 377:../lpc11cx4-library/evt_lib/src/ltc6804.c **** 				} 
 378:../lpc11cx4-library/evt_lib/src/ltc6804.c **** 				vol_ptr = vol_ptr + config->module_cell_count[i];
 379:../lpc11cx4-library/evt_lib/src/ltc6804.c **** 			}
 380:../lpc11cx4-library/evt_lib/src/ltc6804.c **** 			
 381:../lpc11cx4-library/evt_lib/src/ltc6804.c **** 			r = _read(config, state, RDCVD, msTicks);
 382:../lpc11cx4-library/evt_lib/src/ltc6804.c **** 			if (r == LTC6804_PEC_ERROR) return r;
 383:../lpc11cx4-library/evt_lib/src/ltc6804.c **** 			vol_ptr = res->cell_voltages_mV;
 384:../lpc11cx4-library/evt_lib/src/ltc6804.c **** 			for (i = 0; i < config->num_modules; i++) {
 385:../lpc11cx4-library/evt_lib/src/ltc6804.c **** 				uint8_t *rx_ptr = state->rx_buf + 4 + 8 * i;
 386:../lpc11cx4-library/evt_lib/src/ltc6804.c **** 				for (j = 0; j + 9 < config->module_cell_count[i] && j < 3; j++) {
 387:../lpc11cx4-library/evt_lib/src/ltc6804.c **** 					uint16_t vol = (rx_ptr[2 * j + 1] << 8 | rx_ptr[2 * j]);
ARM GAS  /var/folders/9j/_txx49hn253_s3mnzkyxlj8m0000gp/T//cczwRa0h.s 			page 10


 388:../lpc11cx4-library/evt_lib/src/ltc6804.c **** 					failed_read &= vol;
 389:../lpc11cx4-library/evt_lib/src/ltc6804.c **** 					vol_ptr[j + 9] = divu10(vol);
 390:../lpc11cx4-library/evt_lib/src/ltc6804.c **** 					max = (vol_ptr[j + 9] > max) ? vol_ptr[j + 9] : max;
 391:../lpc11cx4-library/evt_lib/src/ltc6804.c **** 					min = (vol_ptr[j + 9] < min) ? vol_ptr[j + 9] : min;
 392:../lpc11cx4-library/evt_lib/src/ltc6804.c **** 				} 
 393:../lpc11cx4-library/evt_lib/src/ltc6804.c **** 				vol_ptr = vol_ptr + config->module_cell_count[i];
 394:../lpc11cx4-library/evt_lib/src/ltc6804.c **** 			}
 395:../lpc11cx4-library/evt_lib/src/ltc6804.c **** 
 396:../lpc11cx4-library/evt_lib/src/ltc6804.c **** 			state->adc_status = LTC6804_ADC_NONE;
 397:../lpc11cx4-library/evt_lib/src/ltc6804.c **** 
 398:../lpc11cx4-library/evt_lib/src/ltc6804.c **** 			if (failed_read == 0xFFFF) {
 399:../lpc11cx4-library/evt_lib/src/ltc6804.c **** 				return LTC6804_FAIL;
 400:../lpc11cx4-library/evt_lib/src/ltc6804.c **** 			}
 401:../lpc11cx4-library/evt_lib/src/ltc6804.c **** 
 402:../lpc11cx4-library/evt_lib/src/ltc6804.c **** 			res->pack_cell_max_mV = max;
 403:../lpc11cx4-library/evt_lib/src/ltc6804.c **** 			res->pack_cell_min_mV = min;
 404:../lpc11cx4-library/evt_lib/src/ltc6804.c **** 			return LTC6804_PASS;
 405:../lpc11cx4-library/evt_lib/src/ltc6804.c **** 		} else { // Keep Waiting
 406:../lpc11cx4-library/evt_lib/src/ltc6804.c **** 			return LTC6804_WAITING;
 407:../lpc11cx4-library/evt_lib/src/ltc6804.c **** 		}
 408:../lpc11cx4-library/evt_lib/src/ltc6804.c **** 	}
 409:../lpc11cx4-library/evt_lib/src/ltc6804.c **** }
 410:../lpc11cx4-library/evt_lib/src/ltc6804.c **** 
 411:../lpc11cx4-library/evt_lib/src/ltc6804.c **** LTC6804_STATUS_T LTC6804_ClearCellVoltages(LTC6804_CONFIG_T *config, LTC6804_STATE_T *state, uint32
 412:../lpc11cx4-library/evt_lib/src/ltc6804.c **** 	return _command(config, state, CLRCELL, msTicks);
 413:../lpc11cx4-library/evt_lib/src/ltc6804.c **** }
 414:../lpc11cx4-library/evt_lib/src/ltc6804.c **** 
 415:../lpc11cx4-library/evt_lib/src/ltc6804.c **** LTC6804_STATUS_T LTC6804_GetGPIOVoltages(LTC6804_CONFIG_T *config, LTC6804_STATE_T *state, uint32_t
 416:../lpc11cx4-library/evt_lib/src/ltc6804.c **** 	if (state->adc_status == LTC6804_ADC_NONE) {
 417:../lpc11cx4-library/evt_lib/src/ltc6804.c **** 		state->adc_status = LTC6804_ADC_GPIO;
 418:../lpc11cx4-library/evt_lib/src/ltc6804.c **** 	} else if (state->adc_status != LTC6804_ADC_GPIO) {
 419:../lpc11cx4-library/evt_lib/src/ltc6804.c **** 		return LTC6804_WAITING;
 420:../lpc11cx4-library/evt_lib/src/ltc6804.c **** 	}
 421:../lpc11cx4-library/evt_lib/src/ltc6804.c **** 
 422:../lpc11cx4-library/evt_lib/src/ltc6804.c **** 	if (_IS_ASLEEP(state, msTicks)) {
 423:../lpc11cx4-library/evt_lib/src/ltc6804.c **** 		_wake(config, state, msTicks, false);
 424:../lpc11cx4-library/evt_lib/src/ltc6804.c **** 		return LTC6804_WAITING;
 425:../lpc11cx4-library/evt_lib/src/ltc6804.c **** 	} else if (!_IS_REFUP(state, msTicks)) {
 426:../lpc11cx4-library/evt_lib/src/ltc6804.c **** 		return LTC6804_WAITING_REFUP;
 427:../lpc11cx4-library/evt_lib/src/ltc6804.c **** 	}
 428:../lpc11cx4-library/evt_lib/src/ltc6804.c **** 
 429:../lpc11cx4-library/evt_lib/src/ltc6804.c **** 	if (!state->waiting) { // Need to send out self test command
 430:../lpc11cx4-library/evt_lib/src/ltc6804.c **** 		state->waiting = true;
 431:../lpc11cx4-library/evt_lib/src/ltc6804.c **** 		state->flight_time = msTicks;
 432:../lpc11cx4-library/evt_lib/src/ltc6804.c **** 		_command(config, state, (config->adc_mode << 7) | 0x460, msTicks); // ADAX, All Channels
 433:../lpc11cx4-library/evt_lib/src/ltc6804.c **** 		return LTC6804_WAITING;
 434:../lpc11cx4-library/evt_lib/src/ltc6804.c **** 	} else {
 435:../lpc11cx4-library/evt_lib/src/ltc6804.c **** 		if (msTicks - state->flight_time >= state->wait_time) { // We've waited long enough
 436:../lpc11cx4-library/evt_lib/src/ltc6804.c **** 			state->waiting = false;
 437:../lpc11cx4-library/evt_lib/src/ltc6804.c **** 			int i;
 438:../lpc11cx4-library/evt_lib/src/ltc6804.c **** 			uint32_t *vol_ptr = res;
 439:../lpc11cx4-library/evt_lib/src/ltc6804.c **** 			uint16_t failed_read = 0xFFFF;
 440:../lpc11cx4-library/evt_lib/src/ltc6804.c **** 			// Read a cell voltage group
 441:../lpc11cx4-library/evt_lib/src/ltc6804.c **** 				// For each module, calculate head of module voltage group
 442:../lpc11cx4-library/evt_lib/src/ltc6804.c **** 				// vol_ptr is pointer to head of module cell group voltages
 443:../lpc11cx4-library/evt_lib/src/ltc6804.c **** 			LTC6804_STATUS_T r;
 444:../lpc11cx4-library/evt_lib/src/ltc6804.c **** 			r = _read(config, state, RDAUXA, msTicks);
ARM GAS  /var/folders/9j/_txx49hn253_s3mnzkyxlj8m0000gp/T//cczwRa0h.s 			page 11


 445:../lpc11cx4-library/evt_lib/src/ltc6804.c **** 			if (r == LTC6804_PEC_ERROR) return r;
 446:../lpc11cx4-library/evt_lib/src/ltc6804.c **** 			for (i = 0; i < config->num_modules; i++) {
 447:../lpc11cx4-library/evt_lib/src/ltc6804.c **** 				uint8_t *rx_ptr = state->rx_buf + 4 + 8 * i;
 448:../lpc11cx4-library/evt_lib/src/ltc6804.c **** 				vol_ptr[0] = rx_ptr[0] | (rx_ptr[1] << 8); failed_read &= vol_ptr[0]; vol_ptr[0] = divu10(vol_p
 449:../lpc11cx4-library/evt_lib/src/ltc6804.c **** 				vol_ptr[1] = rx_ptr[2] | (rx_ptr[3] << 8); failed_read &= vol_ptr[0]; vol_ptr[1] = divu10(vol_p
 450:../lpc11cx4-library/evt_lib/src/ltc6804.c **** 				vol_ptr[2] = rx_ptr[4] | (rx_ptr[5] << 8); failed_read &= vol_ptr[0]; vol_ptr[2] = divu10(vol_p
 451:../lpc11cx4-library/evt_lib/src/ltc6804.c **** 				vol_ptr = vol_ptr + 5; // Num GPIOs
 452:../lpc11cx4-library/evt_lib/src/ltc6804.c **** 			}
 453:../lpc11cx4-library/evt_lib/src/ltc6804.c **** 
 454:../lpc11cx4-library/evt_lib/src/ltc6804.c **** 			vol_ptr = res;
 455:../lpc11cx4-library/evt_lib/src/ltc6804.c **** 			r = _read(config, state, RDAUXB, msTicks);
 456:../lpc11cx4-library/evt_lib/src/ltc6804.c **** 			if (r == LTC6804_PEC_ERROR) return r;
 457:../lpc11cx4-library/evt_lib/src/ltc6804.c **** 			for (i = 0; i < config->num_modules; i++) {
 458:../lpc11cx4-library/evt_lib/src/ltc6804.c **** 				uint8_t *rx_ptr = state->rx_buf + 4 + 8 * i;
 459:../lpc11cx4-library/evt_lib/src/ltc6804.c **** 				vol_ptr[3] = rx_ptr[0] | (rx_ptr[1] << 8); failed_read &= vol_ptr[0]; vol_ptr[3] = divu10(vol_p
 460:../lpc11cx4-library/evt_lib/src/ltc6804.c **** 				vol_ptr[4] = rx_ptr[2] | (rx_ptr[3] << 8); failed_read &= vol_ptr[0]; vol_ptr[4] = divu10(vol_p
 461:../lpc11cx4-library/evt_lib/src/ltc6804.c **** 				vol_ptr = vol_ptr + 5; // Num GPIOs
 462:../lpc11cx4-library/evt_lib/src/ltc6804.c **** 			}
 463:../lpc11cx4-library/evt_lib/src/ltc6804.c **** 
 464:../lpc11cx4-library/evt_lib/src/ltc6804.c **** 			state->adc_status = LTC6804_ADC_NONE;
 465:../lpc11cx4-library/evt_lib/src/ltc6804.c **** 
 466:../lpc11cx4-library/evt_lib/src/ltc6804.c **** 			if (failed_read == 0xFFFF) {
 467:../lpc11cx4-library/evt_lib/src/ltc6804.c **** 				return LTC6804_FAIL;
 468:../lpc11cx4-library/evt_lib/src/ltc6804.c **** 			}
 469:../lpc11cx4-library/evt_lib/src/ltc6804.c **** 
 470:../lpc11cx4-library/evt_lib/src/ltc6804.c **** 			return LTC6804_PASS;
 471:../lpc11cx4-library/evt_lib/src/ltc6804.c **** 		} else { // Keep Waiting
 472:../lpc11cx4-library/evt_lib/src/ltc6804.c **** 			return LTC6804_WAITING;
 473:../lpc11cx4-library/evt_lib/src/ltc6804.c **** 		}
 474:../lpc11cx4-library/evt_lib/src/ltc6804.c **** 	}
 475:../lpc11cx4-library/evt_lib/src/ltc6804.c **** }
 476:../lpc11cx4-library/evt_lib/src/ltc6804.c **** /***************************************
 477:../lpc11cx4-library/evt_lib/src/ltc6804.c **** 		Private Functions
 478:../lpc11cx4-library/evt_lib/src/ltc6804.c **** ****************************************/
 479:../lpc11cx4-library/evt_lib/src/ltc6804.c **** 
 480:../lpc11cx4-library/evt_lib/src/ltc6804.c **** LTC6804_STATUS_T _command(LTC6804_CONFIG_T *config, LTC6804_STATE_T *state, uint16_t cmd, uint32_t 
 481:../lpc11cx4-library/evt_lib/src/ltc6804.c **** 	_wake(config, state, msTicks, false);
 482:../lpc11cx4-library/evt_lib/src/ltc6804.c **** 
 483:../lpc11cx4-library/evt_lib/src/ltc6804.c **** 	state->tx_buf[0] = cmd >> 8;
 484:../lpc11cx4-library/evt_lib/src/ltc6804.c **** 	state->tx_buf[1] = cmd & 0xFF;
 485:../lpc11cx4-library/evt_lib/src/ltc6804.c **** 	uint16_t pec = _calculate_pec(state->tx_buf, 2);
 486:../lpc11cx4-library/evt_lib/src/ltc6804.c **** 	state->tx_buf[2] = pec >> 8;
 487:../lpc11cx4-library/evt_lib/src/ltc6804.c **** 	state->tx_buf[3] = pec & 0xFF;
 488:../lpc11cx4-library/evt_lib/src/ltc6804.c **** 
 489:../lpc11cx4-library/evt_lib/src/ltc6804.c **** 	state->last_message = msTicks;
 490:../lpc11cx4-library/evt_lib/src/ltc6804.c **** 	Chip_GPIO_SetPinState(LPC_GPIO, config->cs_gpio, config->cs_pin, false);
 491:../lpc11cx4-library/evt_lib/src/ltc6804.c **** 	Chip_SSP_WriteFrames_Blocking(config->pSSP, state->tx_buf, 4);
 492:../lpc11cx4-library/evt_lib/src/ltc6804.c **** 	Chip_GPIO_SetPinState(LPC_GPIO, config->cs_gpio, config->cs_pin, true);
 493:../lpc11cx4-library/evt_lib/src/ltc6804.c **** 
 494:../lpc11cx4-library/evt_lib/src/ltc6804.c **** 	return LTC6804_PASS;
 495:../lpc11cx4-library/evt_lib/src/ltc6804.c **** }
 496:../lpc11cx4-library/evt_lib/src/ltc6804.c **** 
 497:../lpc11cx4-library/evt_lib/src/ltc6804.c **** LTC6804_STATUS_T _write(LTC6804_CONFIG_T *config, LTC6804_STATE_T *state, uint16_t cmd, uint32_t ms
 498:../lpc11cx4-library/evt_lib/src/ltc6804.c **** 	_wake(config, state, msTicks, false);
 499:../lpc11cx4-library/evt_lib/src/ltc6804.c **** 
 500:../lpc11cx4-library/evt_lib/src/ltc6804.c **** 	state->tx_buf[0] = cmd >> 8;
 501:../lpc11cx4-library/evt_lib/src/ltc6804.c **** 	state->tx_buf[1] = cmd & 0xFF;
ARM GAS  /var/folders/9j/_txx49hn253_s3mnzkyxlj8m0000gp/T//cczwRa0h.s 			page 12


 502:../lpc11cx4-library/evt_lib/src/ltc6804.c **** 	uint16_t pec = _calculate_pec(state->tx_buf, 2);
 503:../lpc11cx4-library/evt_lib/src/ltc6804.c **** 	state->tx_buf[2] = pec >> 8;
 504:../lpc11cx4-library/evt_lib/src/ltc6804.c **** 	state->tx_buf[3] = pec & 0xFF;
 505:../lpc11cx4-library/evt_lib/src/ltc6804.c **** 
 506:../lpc11cx4-library/evt_lib/src/ltc6804.c **** 	state->last_message = msTicks;
 507:../lpc11cx4-library/evt_lib/src/ltc6804.c **** 	Chip_GPIO_SetPinState(LPC_GPIO, config->cs_gpio, config->cs_pin, false);
 508:../lpc11cx4-library/evt_lib/src/ltc6804.c **** 	Chip_SSP_WriteFrames_Blocking(config->pSSP, state->tx_buf, 4+8*config->num_modules);
 509:../lpc11cx4-library/evt_lib/src/ltc6804.c **** 	Chip_GPIO_SetPinState(LPC_GPIO, config->cs_gpio, config->cs_pin, true);
 510:../lpc11cx4-library/evt_lib/src/ltc6804.c **** 
 511:../lpc11cx4-library/evt_lib/src/ltc6804.c **** 	return LTC6804_PASS;
 512:../lpc11cx4-library/evt_lib/src/ltc6804.c **** }
 513:../lpc11cx4-library/evt_lib/src/ltc6804.c **** 
 514:../lpc11cx4-library/evt_lib/src/ltc6804.c **** LTC6804_STATUS_T _read(LTC6804_CONFIG_T *config, LTC6804_STATE_T *state, uint16_t cmd, uint32_t msT
 515:../lpc11cx4-library/evt_lib/src/ltc6804.c **** 	_wake(config, state, msTicks, false);
 516:../lpc11cx4-library/evt_lib/src/ltc6804.c **** 
 517:../lpc11cx4-library/evt_lib/src/ltc6804.c **** 	state->tx_buf[0] = cmd >> 8;
 518:../lpc11cx4-library/evt_lib/src/ltc6804.c **** 	state->tx_buf[1] = cmd & 0xFF;
 519:../lpc11cx4-library/evt_lib/src/ltc6804.c **** 	uint16_t pec = _calculate_pec(state->tx_buf, 2);
 520:../lpc11cx4-library/evt_lib/src/ltc6804.c **** 	state->tx_buf[2] = pec >> 8;
 521:../lpc11cx4-library/evt_lib/src/ltc6804.c **** 	state->tx_buf[3] = pec & 0xFF;
 522:../lpc11cx4-library/evt_lib/src/ltc6804.c **** 
 523:../lpc11cx4-library/evt_lib/src/ltc6804.c **** 	memset(state->tx_buf+4, 0, 8*config->num_modules);
 524:../lpc11cx4-library/evt_lib/src/ltc6804.c **** 
 525:../lpc11cx4-library/evt_lib/src/ltc6804.c **** 	state->xf->length = 4 + 8 * config->num_modules; state->xf->rx_cnt = 0; state->xf->tx_cnt = 0;
 526:../lpc11cx4-library/evt_lib/src/ltc6804.c **** 	state->xf->rx_data = state->rx_buf;
 527:../lpc11cx4-library/evt_lib/src/ltc6804.c **** 	state->xf->tx_data = state->tx_buf;
 528:../lpc11cx4-library/evt_lib/src/ltc6804.c **** 
 529:../lpc11cx4-library/evt_lib/src/ltc6804.c **** 	state->last_message = msTicks;
 530:../lpc11cx4-library/evt_lib/src/ltc6804.c **** 	Chip_GPIO_SetPinState(LPC_GPIO, config->cs_gpio, config->cs_pin, false);
 531:../lpc11cx4-library/evt_lib/src/ltc6804.c **** 	Chip_SSP_RWFrames_Blocking(config->pSSP, state->xf);
 532:../lpc11cx4-library/evt_lib/src/ltc6804.c **** 	Chip_GPIO_SetPinState(LPC_GPIO, config->cs_gpio, config->cs_pin, true);
 533:../lpc11cx4-library/evt_lib/src/ltc6804.c **** 
 534:../lpc11cx4-library/evt_lib/src/ltc6804.c **** 
 535:../lpc11cx4-library/evt_lib/src/ltc6804.c **** 	// Check PECs
 536:../lpc11cx4-library/evt_lib/src/ltc6804.c **** 	int i;
 537:../lpc11cx4-library/evt_lib/src/ltc6804.c **** 	for (i = 0; i < config->num_modules; i++) {
 538:../lpc11cx4-library/evt_lib/src/ltc6804.c **** 		uint8_t *rx_ptr = state->rx_buf + 4 + 8 * i;
 539:../lpc11cx4-library/evt_lib/src/ltc6804.c **** 		pec = _calculate_pec(rx_ptr, 6);
 540:../lpc11cx4-library/evt_lib/src/ltc6804.c **** 		if (pec != (rx_ptr[6] << 8 | rx_ptr[7])) return LTC6804_PEC_ERROR;
 541:../lpc11cx4-library/evt_lib/src/ltc6804.c **** 	}
 542:../lpc11cx4-library/evt_lib/src/ltc6804.c **** 
 543:../lpc11cx4-library/evt_lib/src/ltc6804.c **** 	return LTC6804_PASS;
 544:../lpc11cx4-library/evt_lib/src/ltc6804.c **** }
 545:../lpc11cx4-library/evt_lib/src/ltc6804.c **** 
 546:../lpc11cx4-library/evt_lib/src/ltc6804.c **** // [NOTE] If timing is fucked look here
 547:../lpc11cx4-library/evt_lib/src/ltc6804.c **** LTC6804_STATUS_T _wake(LTC6804_CONFIG_T *config, LTC6804_STATE_T *state, uint32_t msTicks, bool for
 548:../lpc11cx4-library/evt_lib/src/ltc6804.c **** 	if (msTicks - state->last_message < T_IDLE && !force) return LTC6804_PASS;
 549:../lpc11cx4-library/evt_lib/src/ltc6804.c **** 
 550:../lpc11cx4-library/evt_lib/src/ltc6804.c **** 
 551:../lpc11cx4-library/evt_lib/src/ltc6804.c **** 	uint32_t wake;
 552:../lpc11cx4-library/evt_lib/src/ltc6804.c **** 	bool waking = msTicks - state->last_message >= T_SLEEP;
 553:../lpc11cx4-library/evt_lib/src/ltc6804.c **** 
 554:../lpc11cx4-library/evt_lib/src/ltc6804.c **** 	wake = (waking || force) ? state->wake_length : 2;
 555:../lpc11cx4-library/evt_lib/src/ltc6804.c **** 	state->last_sleep_wake = (waking) ? msTicks : state->last_sleep_wake;
 556:../lpc11cx4-library/evt_lib/src/ltc6804.c **** 
 557:../lpc11cx4-library/evt_lib/src/ltc6804.c **** 
 558:../lpc11cx4-library/evt_lib/src/ltc6804.c **** 	// [TODO] Consider moving to _write or _command or _generic_write
ARM GAS  /var/folders/9j/_txx49hn253_s3mnzkyxlj8m0000gp/T//cczwRa0h.s 			page 13


 559:../lpc11cx4-library/evt_lib/src/ltc6804.c **** 	state->last_message = msTicks;
 560:../lpc11cx4-library/evt_lib/src/ltc6804.c **** 	Chip_GPIO_SetPinState(LPC_GPIO, config->cs_gpio, config->cs_pin, false);
 561:../lpc11cx4-library/evt_lib/src/ltc6804.c **** 	Chip_SSP_WriteFrames_Blocking(config->pSSP, wake_buf, wake);
 562:../lpc11cx4-library/evt_lib/src/ltc6804.c **** 	Chip_GPIO_SetPinState(LPC_GPIO, config->cs_gpio, config->cs_pin, true);
 563:../lpc11cx4-library/evt_lib/src/ltc6804.c **** 
 564:../lpc11cx4-library/evt_lib/src/ltc6804.c **** 	// If you fall asleep, write configuration again pls
 565:../lpc11cx4-library/evt_lib/src/ltc6804.c **** 	if (waking) LTC6804_WriteCFG(config, state, msTicks); // Wake will be skipped bc last_message upda
 566:../lpc11cx4-library/evt_lib/src/ltc6804.c **** 	if (waking && state->balancing) _set_balance_states(config, state, msTicks);
 567:../lpc11cx4-library/evt_lib/src/ltc6804.c **** 
 568:../lpc11cx4-library/evt_lib/src/ltc6804.c **** 	return LTC6804_PASS;
 569:../lpc11cx4-library/evt_lib/src/ltc6804.c **** }
 570:../lpc11cx4-library/evt_lib/src/ltc6804.c **** 
 571:../lpc11cx4-library/evt_lib/src/ltc6804.c **** LTC6804_STATUS_T _set_balance_states(LTC6804_CONFIG_T *config, LTC6804_STATE_T *state, uint32_t msT
 127              		.loc 1 571 0
 128              		.cfi_startproc
 129              	.LVL8:
 130 0000 F0B5     		push	{r4, r5, r6, r7, lr}	@
 131              		.cfi_def_cfa_offset 20
 132              		.cfi_offset 4, -20
 133              		.cfi_offset 5, -16
 134              		.cfi_offset 6, -12
 135              		.cfi_offset 7, -8
 136              		.cfi_offset 14, -4
 137 0002 4D46     		mov	r5, r9	@,
 138 0004 5F46     		mov	r7, fp	@,
 139 0006 5646     		mov	r6, r10	@,
 140 0008 4446     		mov	r4, r8	@,
 141 000a F0B4     		push	{r4, r5, r6, r7}	@
 142              		.cfi_def_cfa_offset 36
 143              		.cfi_offset 8, -36
 144              		.cfi_offset 9, -32
 145              		.cfi_offset 10, -28
 146              		.cfi_offset 11, -24
 147 000c 83B0     		sub	sp, sp, #12	@,,
 148              		.cfi_def_cfa_offset 48
 149              		.loc 1 571 0
 150 000e 0192     		str	r2, [sp, #4]	@ msTicks, %sfp
 572:../lpc11cx4-library/evt_lib/src/ltc6804.c **** 	int i;
 573:../lpc11cx4-library/evt_lib/src/ltc6804.c **** 	// [TODO] ensure that when sending out you have correct order
 574:../lpc11cx4-library/evt_lib/src/ltc6804.c **** 	for (i = 0; i < config->num_modules; i++) {
 151              		.loc 1 574 0
 152 0010 837A     		ldrb	r3, [r0, #10]	@ tmp208,
 571:../lpc11cx4-library/evt_lib/src/ltc6804.c **** 	int i;
 153              		.loc 1 571 0
 154 0012 8146     		mov	r9, r0	@ config, config
 155              		.loc 1 574 0
 156 0014 002B     		cmp	r3, #0	@ tmp208,
 157 0016 50D0     		beq	.L5	@,
 158 0018 0423     		mov	r3, #4	@ ivtmp.55,
 159 001a 9A46     		mov	r10, r3	@ ivtmp.55, ivtmp.55
 160 001c 0023     		mov	r3, #0	@ i,
 161 001e 9846     		mov	r8, r3	@ i, i
 162 0020 2C4B     		ldr	r3, .L11	@ tmp268,
 163              	.LBB38:
 164              	.LBB39:
 165              	.LBB40:
 575:../lpc11cx4-library/evt_lib/src/ltc6804.c **** 		uint8_t *tx_ptr = state->tx_buf + 4 + 8 * i;
ARM GAS  /var/folders/9j/_txx49hn253_s3mnzkyxlj8m0000gp/T//cczwRa0h.s 			page 14


 576:../lpc11cx4-library/evt_lib/src/ltc6804.c **** 		tx_ptr[0] = state->cfg[0]; tx_ptr[1] = state->cfg[1];
 577:../lpc11cx4-library/evt_lib/src/ltc6804.c **** 		tx_ptr[2] = state->cfg[2]; tx_ptr[3] = state->cfg[3];
 578:../lpc11cx4-library/evt_lib/src/ltc6804.c **** 		tx_ptr[4] = state->bal_list[config->num_modules - i - 1] & 0xFF;
 579:../lpc11cx4-library/evt_lib/src/ltc6804.c **** 		tx_ptr[5] = (state->cfg[5] & 0xF0) | (state->bal_list[config->num_modules - i - 1] >> 8);
 580:../lpc11cx4-library/evt_lib/src/ltc6804.c **** 		uint16_t pec = _calculate_pec(tx_ptr, 6);
 581:../lpc11cx4-library/evt_lib/src/ltc6804.c **** 		tx_ptr[6] = pec >> 8;
 582:../lpc11cx4-library/evt_lib/src/ltc6804.c **** 		tx_ptr[7] = pec & 0xFF;
 583:../lpc11cx4-library/evt_lib/src/ltc6804.c **** 	}
 584:../lpc11cx4-library/evt_lib/src/ltc6804.c **** 	return _write(config, state, WRCFG, msTicks);
 585:../lpc11cx4-library/evt_lib/src/ltc6804.c **** }
 586:../lpc11cx4-library/evt_lib/src/ltc6804.c **** 
 587:../lpc11cx4-library/evt_lib/src/ltc6804.c **** static const unsigned int crc15Table[256] = {
 588:../lpc11cx4-library/evt_lib/src/ltc6804.c **** 	0x0000, 0xc599, 0xceab, 0xb32, 0xd8cf, 0x1d56, 0x1664, 0xd3fd, 0xf407, 0x319e, 0x3aac,  //!<precom
 589:../lpc11cx4-library/evt_lib/src/ltc6804.c **** 	0xff35, 0x2cc8, 0xe951, 0xe263, 0x27fa, 0xad97, 0x680e, 0x633c, 0xa6a5, 0x7558, 0xb0c1, 
 590:../lpc11cx4-library/evt_lib/src/ltc6804.c **** 	0xbbf3, 0x7e6a, 0x5990, 0x9c09, 0x973b, 0x52a2, 0x815f, 0x44c6, 0x4ff4, 0x8a6d, 0x5b2e,
 591:../lpc11cx4-library/evt_lib/src/ltc6804.c **** 	0x9eb7, 0x9585, 0x501c, 0x83e1, 0x4678, 0x4d4a, 0x88d3, 0xaf29, 0x6ab0, 0x6182, 0xa41b,
 592:../lpc11cx4-library/evt_lib/src/ltc6804.c **** 	0x77e6, 0xb27f, 0xb94d, 0x7cd4, 0xf6b9, 0x3320, 0x3812, 0xfd8b, 0x2e76, 0xebef, 0xe0dd, 
 593:../lpc11cx4-library/evt_lib/src/ltc6804.c **** 	0x2544, 0x2be, 0xc727, 0xcc15, 0x98c, 0xda71, 0x1fe8, 0x14da, 0xd143, 0xf3c5, 0x365c, 
 594:../lpc11cx4-library/evt_lib/src/ltc6804.c **** 	0x3d6e, 0xf8f7,0x2b0a, 0xee93, 0xe5a1, 0x2038, 0x7c2, 0xc25b, 0xc969, 0xcf0, 0xdf0d, 
 595:../lpc11cx4-library/evt_lib/src/ltc6804.c **** 	0x1a94, 0x11a6, 0xd43f, 0x5e52, 0x9bcb, 0x90f9, 0x5560, 0x869d, 0x4304, 0x4836, 0x8daf,
 596:../lpc11cx4-library/evt_lib/src/ltc6804.c **** 	0xaa55, 0x6fcc, 0x64fe, 0xa167, 0x729a, 0xb703, 0xbc31, 0x79a8, 0xa8eb, 0x6d72, 0x6640,
 597:../lpc11cx4-library/evt_lib/src/ltc6804.c **** 	0xa3d9, 0x7024, 0xb5bd, 0xbe8f, 0x7b16, 0x5cec, 0x9975, 0x9247, 0x57de, 0x8423, 0x41ba,
 598:../lpc11cx4-library/evt_lib/src/ltc6804.c **** 	0x4a88, 0x8f11, 0x57c, 0xc0e5, 0xcbd7, 0xe4e, 0xddb3, 0x182a, 0x1318, 0xd681, 0xf17b, 
 599:../lpc11cx4-library/evt_lib/src/ltc6804.c **** 	0x34e2, 0x3fd0, 0xfa49, 0x29b4, 0xec2d, 0xe71f, 0x2286, 0xa213, 0x678a, 0x6cb8, 0xa921, 
 600:../lpc11cx4-library/evt_lib/src/ltc6804.c **** 	0x7adc, 0xbf45, 0xb477, 0x71ee, 0x5614, 0x938d, 0x98bf, 0x5d26, 0x8edb, 0x4b42, 0x4070, 
 601:../lpc11cx4-library/evt_lib/src/ltc6804.c **** 	0x85e9, 0xf84, 0xca1d, 0xc12f, 0x4b6, 0xd74b, 0x12d2, 0x19e0, 0xdc79, 0xfb83, 0x3e1a, 0x3528, 
 602:../lpc11cx4-library/evt_lib/src/ltc6804.c **** 	0xf0b1, 0x234c, 0xe6d5, 0xede7, 0x287e, 0xf93d, 0x3ca4, 0x3796, 0xf20f, 0x21f2, 0xe46b, 0xef59, 
 603:../lpc11cx4-library/evt_lib/src/ltc6804.c **** 	0x2ac0, 0xd3a, 0xc8a3, 0xc391, 0x608, 0xd5f5, 0x106c, 0x1b5e, 0xdec7, 0x54aa, 0x9133, 0x9a01, 
 604:../lpc11cx4-library/evt_lib/src/ltc6804.c **** 	0x5f98, 0x8c65, 0x49fc, 0x42ce, 0x8757, 0xa0ad, 0x6534, 0x6e06, 0xab9f, 0x7862, 0xbdfb, 0xb6c9, 
 605:../lpc11cx4-library/evt_lib/src/ltc6804.c **** 	0x7350, 0x51d6, 0x944f, 0x9f7d, 0x5ae4, 0x8919, 0x4c80, 0x47b2, 0x822b, 0xa5d1, 0x6048, 0x6b7a, 
 606:../lpc11cx4-library/evt_lib/src/ltc6804.c **** 	0xaee3, 0x7d1e, 0xb887, 0xb3b5, 0x762c, 0xfc41, 0x39d8, 0x32ea, 0xf773, 0x248e, 0xe117, 0xea25, 
 607:../lpc11cx4-library/evt_lib/src/ltc6804.c **** 	0x2fbc, 0x846, 0xcddf, 0xc6ed, 0x374, 0xd089, 0x1510, 0x1e22, 0xdbbb, 0xaf8, 0xcf61, 0xc453, 
 608:../lpc11cx4-library/evt_lib/src/ltc6804.c **** 	0x1ca, 0xd237, 0x17ae, 0x1c9c, 0xd905, 0xfeff, 0x3b66, 0x3054, 0xf5cd, 0x2630, 0xe3a9, 0xe89b, 
 609:../lpc11cx4-library/evt_lib/src/ltc6804.c **** 	0x2d02, 0xa76f, 0x62f6, 0x69c4, 0xac5d, 0x7fa0, 0xba39, 0xb10b, 0x7492, 0x5368, 0x96f1, 0x9dc3, 
 610:../lpc11cx4-library/evt_lib/src/ltc6804.c **** 	0x585a, 0x8ba7, 0x4e3e, 0x450c, 0x8095
 611:../lpc11cx4-library/evt_lib/src/ltc6804.c **** }; 
 612:../lpc11cx4-library/evt_lib/src/ltc6804.c **** 
 613:../lpc11cx4-library/evt_lib/src/ltc6804.c **** uint16_t _calculate_pec(uint8_t *data, uint8_t len) {
 614:../lpc11cx4-library/evt_lib/src/ltc6804.c **** 	uint16_t remainder,addr;
 615:../lpc11cx4-library/evt_lib/src/ltc6804.c **** 	
 616:../lpc11cx4-library/evt_lib/src/ltc6804.c **** 	remainder = 16;//initialize the PEC
 617:../lpc11cx4-library/evt_lib/src/ltc6804.c **** 	uint8_t i;
 618:../lpc11cx4-library/evt_lib/src/ltc6804.c **** 	for(i = 0; i<len;i++) // loops for each byte in data array
 619:../lpc11cx4-library/evt_lib/src/ltc6804.c **** 	{
 620:../lpc11cx4-library/evt_lib/src/ltc6804.c **** 		addr = ((remainder>>7)^data[i])&0xff;//calculate PEC table address 
 166              		.loc 1 620 0
 167 0022 FF20     		mov	r0, #255	@ tmp272,
 168              	.LVL9:
 169 0024 9C46     		mov	ip, r3	@ tmp268, tmp268
 170              	.LBE40:
 171              	.LBE39:
 579:../lpc11cx4-library/evt_lib/src/ltc6804.c **** 		uint16_t pec = _calculate_pec(tx_ptr, 6);
 172              		.loc 1 579 0
 173 0026 0F23     		mov	r3, #15	@ tmp270,
 174 0028 0093     		str	r3, [sp]	@ tmp270, %sfp
 175              	.LVL10:
 176              	.L3:
ARM GAS  /var/folders/9j/_txx49hn253_s3mnzkyxlj8m0000gp/T//cczwRa0h.s 			page 15


 575:../lpc11cx4-library/evt_lib/src/ltc6804.c **** 		uint8_t *tx_ptr = state->tx_buf + 4 + 8 * i;
 177              		.loc 1 575 0 discriminator 3
 178 002a 4B68     		ldr	r3, [r1, #4]	@ tx_ptr, state_7(D)->tx_buf
 578:../lpc11cx4-library/evt_lib/src/ltc6804.c **** 		tx_ptr[5] = (state->cfg[5] & 0xF0) | (state->bal_list[config->num_modules - i - 1] >> 8);
 179              		.loc 1 578 0 discriminator 3
 180 002c 4246     		mov	r2, r8	@ i, i
 575:../lpc11cx4-library/evt_lib/src/ltc6804.c **** 		uint8_t *tx_ptr = state->tx_buf + 4 + 8 * i;
 181              		.loc 1 575 0 discriminator 3
 182 002e 5344     		add	r3, r3, r10	@ tx_ptr, ivtmp.55
 183 0030 1D1C     		mov	r5, r3	@ tx_ptr, tx_ptr
 184              	.LVL11:
 576:../lpc11cx4-library/evt_lib/src/ltc6804.c **** 		tx_ptr[2] = state->cfg[2]; tx_ptr[3] = state->cfg[3];
 185              		.loc 1 576 0 discriminator 3
 186 0032 4B69     		ldr	r3, [r1, #20]	@ tmp292, state_7(D)->cfg
 187              	.LVL12:
 579:../lpc11cx4-library/evt_lib/src/ltc6804.c **** 		uint16_t pec = _calculate_pec(tx_ptr, 6);
 188              		.loc 1 579 0 discriminator 3
 189 0034 009C     		ldr	r4, [sp]	@ tmp270, %sfp
 576:../lpc11cx4-library/evt_lib/src/ltc6804.c **** 		tx_ptr[2] = state->cfg[2]; tx_ptr[3] = state->cfg[3];
 190              		.loc 1 576 0 discriminator 3
 191 0036 1B78     		ldrb	r3, [r3]	@ D.7692, *_13
 192 0038 AE1D     		add	r6, r5, #6	@ D.7703, tx_ptr,
 193 003a 2B70     		strb	r3, [r5]	@ D.7692, *tx_ptr_12
 194 003c 4B69     		ldr	r3, [r1, #20]	@ tmp293, state_7(D)->cfg
 195 003e 5B78     		ldrb	r3, [r3, #1]	@ D.7692, MEM[(uint8_t *)_16 + 1B]
 196 0040 6B70     		strb	r3, [r5, #1]	@ D.7692, MEM[(uint8_t *)tx_ptr_12 + 1B]
 577:../lpc11cx4-library/evt_lib/src/ltc6804.c **** 		tx_ptr[4] = state->bal_list[config->num_modules - i - 1] & 0xFF;
 197              		.loc 1 577 0 discriminator 3
 198 0042 4B69     		ldr	r3, [r1, #20]	@ tmp294, state_7(D)->cfg
 199 0044 9B78     		ldrb	r3, [r3, #2]	@ D.7692, MEM[(uint8_t *)_19 + 2B]
 200 0046 AB70     		strb	r3, [r5, #2]	@ D.7692, MEM[(uint8_t *)tx_ptr_12 + 2B]
 201 0048 4B69     		ldr	r3, [r1, #20]	@ tmp295, state_7(D)->cfg
 202 004a DB78     		ldrb	r3, [r3, #3]	@ D.7692, MEM[(uint8_t *)_22 + 3B]
 203 004c EB70     		strb	r3, [r5, #3]	@ D.7692, MEM[(uint8_t *)tx_ptr_12 + 3B]
 578:../lpc11cx4-library/evt_lib/src/ltc6804.c **** 		tx_ptr[5] = (state->cfg[5] & 0xF0) | (state->bal_list[config->num_modules - i - 1] >> 8);
 204              		.loc 1 578 0 discriminator 3
 205 004e 4B46     		mov	r3, r9	@ config, config
 206 0050 9B7A     		ldrb	r3, [r3, #10]	@ D.7693,
 207 0052 9B1A     		sub	r3, r3, r2	@ D.7693, D.7693, i
 208 0054 204A     		ldr	r2, .L11+4	@ tmp298,
 209 0056 9346     		mov	fp, r2	@ tmp298, tmp298
 210 0058 CA6A     		ldr	r2, [r1, #44]	@ tmp300, state_7(D)->bal_list
 211 005a 5B44     		add	r3, r3, fp	@ tmp223, tmp298
 212 005c 5B00     		lsl	r3, r3, #1	@ tmp225, tmp223,
 213 005e 9B5A     		ldrh	r3, [r3, r2]	@ *_32, *_32
 579:../lpc11cx4-library/evt_lib/src/ltc6804.c **** 		uint16_t pec = _calculate_pec(tx_ptr, 6);
 214              		.loc 1 579 0 discriminator 3
 215 0060 4246     		mov	r2, r8	@ i, i
 578:../lpc11cx4-library/evt_lib/src/ltc6804.c **** 		tx_ptr[5] = (state->cfg[5] & 0xF0) | (state->bal_list[config->num_modules - i - 1] >> 8);
 216              		.loc 1 578 0 discriminator 3
 217 0062 2B71     		strb	r3, [r5, #4]	@ *_32, MEM[(uint8_t *)tx_ptr_12 + 4B]
 579:../lpc11cx4-library/evt_lib/src/ltc6804.c **** 		uint16_t pec = _calculate_pec(tx_ptr, 6);
 218              		.loc 1 579 0 discriminator 3
 219 0064 4B46     		mov	r3, r9	@ config, config
 220 0066 9B7A     		ldrb	r3, [r3, #10]	@ D.7693,
 221 0068 9B1A     		sub	r3, r3, r2	@ D.7693, D.7693, i
 222 006a 5B44     		add	r3, r3, fp	@ tmp231, tmp303
ARM GAS  /var/folders/9j/_txx49hn253_s3mnzkyxlj8m0000gp/T//cczwRa0h.s 			page 16


 223 006c CA6A     		ldr	r2, [r1, #44]	@ tmp305, state_7(D)->bal_list
 224 006e 5B00     		lsl	r3, r3, #1	@ tmp233, tmp231,
 225 0070 9B5A     		ldrh	r3, [r3, r2]	@ *_47, *_47
 226 0072 1A0A     		lsr	r2, r3, #8	@ tmp235, *_47,
 227 0074 4B69     		ldr	r3, [r1, #20]	@ tmp306, state_7(D)->cfg
 228 0076 5B79     		ldrb	r3, [r3, #5]	@ MEM[(uint8_t *)_36 + 5B], MEM[(uint8_t *)_36 + 5B]
 229 0078 A343     		bic	r3, r4	@ tmp240, tmp270
 230 007a 1343     		orr	r3, r2	@ tmp243, tmp235
 231 007c 6B71     		strb	r3, [r5, #5]	@ tmp243, MEM[(uint8_t *)tx_ptr_12 + 5B]
 232              	.LVL13:
 233 007e 2A1C     		mov	r2, r5	@ ivtmp.51, tx_ptr
 234              	.LBB42:
 235              	.LBB41:
 616:../lpc11cx4-library/evt_lib/src/ltc6804.c **** 	uint8_t i;
 236              		.loc 1 616 0 discriminator 3
 237 0080 1023     		mov	r3, #16	@ remainder,
 238              	.LVL14:
 239              	.L4:
 240              		.loc 1 620 0
 241 0082 1778     		ldrb	r7, [r2]	@ MEM[base: _111, offset: 0B], MEM[base: _111, offset: 0B]
 621:../lpc11cx4-library/evt_lib/src/ltc6804.c **** 		remainder = (remainder<<8)^crc15Table[addr];
 242              		.loc 1 621 0
 243 0084 1C02     		lsl	r4, r3, #8	@ tmp245, remainder,
 620:../lpc11cx4-library/evt_lib/src/ltc6804.c **** 		remainder = (remainder<<8)^crc15Table[addr];
 244              		.loc 1 620 0
 245 0086 DB09     		lsr	r3, r3, #7	@ tmp249, remainder,
 246              	.LVL15:
 247 0088 7B40     		eor	r3, r7	@ tmp251, MEM[base: _111, offset: 0B]
 248              		.loc 1 621 0
 249 008a 6746     		mov	r7, ip	@ tmp268, tmp268
 250 008c 0340     		and	r3, r0	@ D.7693, tmp272
 251 008e 9B00     		lsl	r3, r3, #2	@ tmp258, D.7693,
 252 0090 FB5A     		ldrh	r3, [r7, r3]	@ D.7697, crc15Table
 253 0092 A4B2     		uxth	r4, r4	@ D.7697, tmp245
 254 0094 0132     		add	r2, r2, #1	@ ivtmp.51,
 255              	.LVL16:
 256 0096 6340     		eor	r3, r4	@ remainder, D.7697
 257              	.LVL17:
 618:../lpc11cx4-library/evt_lib/src/ltc6804.c **** 	{
 258              		.loc 1 618 0
 259 0098 B242     		cmp	r2, r6	@ ivtmp.51, D.7703
 260 009a F2D1     		bne	.L4	@,
 622:../lpc11cx4-library/evt_lib/src/ltc6804.c **** 	}
 623:../lpc11cx4-library/evt_lib/src/ltc6804.c **** 	return(remainder*2);//The CRC15 has a 0 in the LSB so the remainder must be multiplied by 2
 261              		.loc 1 623 0
 262 009c 5B00     		lsl	r3, r3, #1	@ tmp263, remainder,
 263              	.LVL18:
 264 009e 9BB2     		uxth	r3, r3	@ D.7702, tmp263
 265              	.LBE41:
 266              	.LBE42:
 581:../lpc11cx4-library/evt_lib/src/ltc6804.c **** 		tx_ptr[7] = pec & 0xFF;
 267              		.loc 1 581 0
 268 00a0 1A0A     		lsr	r2, r3, #8	@ tmp264, D.7702,
 582:../lpc11cx4-library/evt_lib/src/ltc6804.c **** 	}
 269              		.loc 1 582 0
 270 00a2 EB71     		strb	r3, [r5, #7]	@ D.7702, MEM[(uint8_t *)tx_ptr_12 + 7B]
 271              	.LBE38:
ARM GAS  /var/folders/9j/_txx49hn253_s3mnzkyxlj8m0000gp/T//cczwRa0h.s 			page 17


 574:../lpc11cx4-library/evt_lib/src/ltc6804.c **** 		uint8_t *tx_ptr = state->tx_buf + 4 + 8 * i;
 272              		.loc 1 574 0
 273 00a4 0123     		mov	r3, #1	@ tmp309,
 274 00a6 9B46     		mov	fp, r3	@ tmp309, tmp309
 275 00a8 0733     		add	r3, r3, #7	@ tmp311,
 276 00aa D844     		add	r8, r8, fp	@ i, tmp309
 277              	.LVL19:
 278 00ac 9B46     		mov	fp, r3	@ tmp311, tmp311
 279 00ae 4B46     		mov	r3, r9	@ config, config
 280              	.LBB43:
 581:../lpc11cx4-library/evt_lib/src/ltc6804.c **** 		tx_ptr[7] = pec & 0xFF;
 281              		.loc 1 581 0
 282 00b0 AA71     		strb	r2, [r5, #6]	@ tmp264, MEM[(uint8_t *)tx_ptr_12 + 6B]
 283              	.LBE43:
 574:../lpc11cx4-library/evt_lib/src/ltc6804.c **** 		uint8_t *tx_ptr = state->tx_buf + 4 + 8 * i;
 284              		.loc 1 574 0
 285 00b2 9B7A     		ldrb	r3, [r3, #10]	@ D.7693,
 286 00b4 DA44     		add	r10, r10, fp	@ ivtmp.55, tmp311
 287 00b6 4345     		cmp	r3, r8	@ D.7693, i
 288 00b8 B7DC     		bgt	.L3	@,
 289              	.LVL20:
 290              	.L5:
 584:../lpc11cx4-library/evt_lib/src/ltc6804.c **** }
 291              		.loc 1 584 0
 292 00ba 4846     		mov	r0, r9	@, config
 293 00bc 0122     		mov	r2, #1	@,
 294 00be 019B     		ldr	r3, [sp, #4]	@, %sfp
 295 00c0 FFF7FEFF 		bl	_write	@
 296              	.LVL21:
 585:../lpc11cx4-library/evt_lib/src/ltc6804.c **** 
 297              		.loc 1 585 0
 298 00c4 03B0     		add	sp, sp, #12	@,,
 299              		@ sp needed	@
 300              	.LVL22:
 301 00c6 3CBC     		pop	{r2, r3, r4, r5}
 302 00c8 9046     		mov	r8, r2
 303 00ca 9946     		mov	r9, r3
 304 00cc A246     		mov	r10, r4
 305 00ce AB46     		mov	fp, r5
 306 00d0 F0BD     		pop	{r4, r5, r6, r7, pc}
 307              	.L12:
 308 00d2 C046     		.align	2
 309              	.L11:
 310 00d4 00000000 		.word	.LANCHOR0
 311 00d8 FFFFFF7F 		.word	2147483647
 312              		.cfi_endproc
 313              	.LFE213:
 314              		.size	_set_balance_states, .-_set_balance_states
 315              		.section	.text.LTC6804_UpdateBalanceStates,"ax",%progbits
 316              		.align	2
 317              		.global	LTC6804_UpdateBalanceStates
 318              		.code	16
 319              		.thumb_func
 320              		.type	LTC6804_UpdateBalanceStates, %function
 321              	LTC6804_UpdateBalanceStates:
 322              	.LFB204:
 250:../lpc11cx4-library/evt_lib/src/ltc6804.c ****   if (should_zero_balance) {
ARM GAS  /var/folders/9j/_txx49hn253_s3mnzkyxlj8m0000gp/T//cczwRa0h.s 			page 18


 323              		.loc 1 250 0
 324              		.cfi_startproc
 325              	.LVL23:
 326 0000 F0B5     		push	{r4, r5, r6, r7, lr}	@
 327              		.cfi_def_cfa_offset 20
 328              		.cfi_offset 4, -20
 329              		.cfi_offset 5, -16
 330              		.cfi_offset 6, -12
 331              		.cfi_offset 7, -8
 332              		.cfi_offset 14, -4
 333 0002 4446     		mov	r4, r8	@,
 334 0004 5F46     		mov	r7, fp	@,
 335 0006 5646     		mov	r6, r10	@,
 336 0008 4D46     		mov	r5, r9	@,
 337 000a F0B4     		push	{r4, r5, r6, r7}	@
 338              		.cfi_def_cfa_offset 36
 339              		.cfi_offset 8, -36
 340              		.cfi_offset 9, -32
 341              		.cfi_offset 10, -28
 342              		.cfi_offset 11, -24
 343 000c 83B0     		sub	sp, sp, #12	@,,
 344              		.cfi_def_cfa_offset 48
 250:../lpc11cx4-library/evt_lib/src/ltc6804.c ****   if (should_zero_balance) {
 345              		.loc 1 250 0
 346 000e 0193     		str	r3, [sp, #4]	@ msTicks, %sfp
 251:../lpc11cx4-library/evt_lib/src/ltc6804.c ****     balance_req = zero_vector;
 347              		.loc 1 251 0
 348 0010 274B     		ldr	r3, .L45	@ tmp166,
 349              	.LVL24:
 250:../lpc11cx4-library/evt_lib/src/ltc6804.c ****   if (should_zero_balance) {
 350              		.loc 1 250 0
 351 0012 8846     		mov	r8, r1	@ state, state
 251:../lpc11cx4-library/evt_lib/src/ltc6804.c ****     balance_req = zero_vector;
 352              		.loc 1 251 0
 353 0014 1B78     		ldrb	r3, [r3]	@ should_zero_balance, should_zero_balance
 354 0016 002B     		cmp	r3, #0	@ should_zero_balance,
 355 0018 00D0     		beq	.L14	@,
 252:../lpc11cx4-library/evt_lib/src/ltc6804.c ****   }
 356              		.loc 1 252 0
 357 001a 264A     		ldr	r2, .L45+4	@ balance_req,
 358              	.LVL25:
 359              	.L14:
 257:../lpc11cx4-library/evt_lib/src/ltc6804.c **** 	for (i = 0; i < config->num_modules; i++) {
 360              		.loc 1 257 0
 361 001c 4446     		mov	r4, r8	@ state, state
 362 001e 0021     		mov	r1, #0	@ tmp169,
 363              	.LVL26:
 364 0020 2823     		mov	r3, #40	@ tmp168,
 365 0022 E154     		strb	r1, [r4, r3]	@ tmp169, state_17(D)->balancing
 366              	.LVL27:
 258:../lpc11cx4-library/evt_lib/src/ltc6804.c **** 		uint16_t bal_temp = 0;
 367              		.loc 1 258 0
 368 0024 847A     		ldrb	r4, [r0, #10]	@ D.7724,
 369 0026 002C     		cmp	r4, #0	@ D.7724,
 370 0028 30D0     		beq	.L23	@,
 371 002a C368     		ldr	r3, [r0, #12]	@ D.7729, config_19(D)->module_cell_count
 372 002c 0027     		mov	r7, #0	@ i,
ARM GAS  /var/folders/9j/_txx49hn253_s3mnzkyxlj8m0000gp/T//cczwRa0h.s 			page 19


 373 002e 9C46     		mov	ip, r3	@ D.7729, D.7729
 374 0030 4346     		mov	r3, r8	@ state, state
 375 0032 D96A     		ldr	r1, [r3, #44]	@ ivtmp.66, state_17(D)->bal_list
 376 0034 0023     		mov	r3, #0	@ change,
 377 0036 9946     		mov	r9, r3	@ change, change
 378              	.LBB44:
 268:../lpc11cx4-library/evt_lib/src/ltc6804.c **** 	}
 379              		.loc 1 268 0
 380 0038 2833     		add	r3, r3, #40	@ tmp189,
 381 003a 9B46     		mov	fp, r3	@ tmp189, tmp189
 382 003c 273B     		sub	r3, r3, #39	@ tmp190,
 383 003e 9A46     		mov	r10, r3	@ tmp190, tmp190
 384 0040 6346     		mov	r3, ip	@ D.7729, D.7729
 385 0042 A446     		mov	ip, r4	@ D.7724, D.7724
 386 0044 0093     		str	r3, [sp]	@ D.7729, %sfp
 387              	.LVL28:
 388              	.L17:
 260:../lpc11cx4-library/evt_lib/src/ltc6804.c **** 			bal_temp |= bal_ptr[0] << j;
 389              		.loc 1 260 0 discriminator 1
 390 0046 009B     		ldr	r3, [sp]	@ D.7729, %sfp
 391 0048 0025     		mov	r5, #0	@ j,
 392 004a DE5D     		ldrb	r6, [r3, r7]	@ D.7723, MEM[base: _78, index: _52, offset: 0B]
 393 004c 0023     		mov	r3, #0	@ bal_temp,
 394 004e 002E     		cmp	r6, #0	@ D.7723,
 395 0050 24D0     		beq	.L43	@,
 396              	.LVL29:
 397              	.L33:
 261:../lpc11cx4-library/evt_lib/src/ltc6804.c **** 			bal_ptr++;
 398              		.loc 1 261 0 discriminator 3
 399 0052 545D     		ldrb	r4, [r2, r5]	@ D.7724, MEM[base: balance_req_50, index: _36, offset: 0B]
 400 0054 AC40     		lsl	r4, r4, r5	@ D.7724, D.7724, j
 260:../lpc11cx4-library/evt_lib/src/ltc6804.c **** 			bal_temp |= bal_ptr[0] << j;
 401              		.loc 1 260 0 discriminator 3
 402 0056 0135     		add	r5, r5, #1	@ j,
 403              	.LVL30:
 261:../lpc11cx4-library/evt_lib/src/ltc6804.c **** 			bal_ptr++;
 404              		.loc 1 261 0 discriminator 3
 405 0058 2343     		orr	r3, r4	@ tmp176, D.7724
 406              	.LVL31:
 407 005a 9BB2     		uxth	r3, r3	@ bal_temp, tmp176
 408              	.LVL32:
 260:../lpc11cx4-library/evt_lib/src/ltc6804.c **** 			bal_temp |= bal_ptr[0] << j;
 409              		.loc 1 260 0 discriminator 3
 410 005c B542     		cmp	r5, r6	@ j, D.7723
 411 005e F8DB     		blt	.L33	@,
 264:../lpc11cx4-library/evt_lib/src/ltc6804.c **** 			change = true;
 412              		.loc 1 264 0
 413 0060 0D88     		ldrh	r5, [r1]	@ MEM[base: _56, offset: 0B], MEM[base: _56, offset: 0B]
 414              	.LVL33:
 415 0062 9219     		add	r2, r2, r6	@ balance_req, balance_req, D.7723
 416 0064 9D42     		cmp	r5, r3	@ MEM[base: _56, offset: 0B], bal_temp
 417 0066 02D0     		beq	.L19	@,
 418              	.LVL34:
 419              	.L24:
 265:../lpc11cx4-library/evt_lib/src/ltc6804.c **** 			state->bal_list[i] = bal_temp;
 420              		.loc 1 265 0
 421 0068 0124     		mov	r4, #1	@ change,
ARM GAS  /var/folders/9j/_txx49hn253_s3mnzkyxlj8m0000gp/T//cczwRa0h.s 			page 20


 422 006a A146     		mov	r9, r4	@ change, change
 266:../lpc11cx4-library/evt_lib/src/ltc6804.c **** 		}
 423              		.loc 1 266 0
 424 006c 0B80     		strh	r3, [r1]	@ bal_temp, MEM[base: _6, offset: 0B]
 425              	.LVL35:
 426              	.L19:
 268:../lpc11cx4-library/evt_lib/src/ltc6804.c **** 	}
 427              		.loc 1 268 0
 428 006e 002B     		cmp	r3, #0	@ bal_temp,
 429 0070 03D0     		beq	.L41	@,
 268:../lpc11cx4-library/evt_lib/src/ltc6804.c **** 	}
 430              		.loc 1 268 0 is_stmt 0 discriminator 1
 431 0072 4346     		mov	r3, r8	@ state, state
 432 0074 5C46     		mov	r4, fp	@ tmp189, tmp189
 433 0076 5546     		mov	r5, r10	@ tmp219, tmp190
 434 0078 1D55     		strb	r5, [r3, r4]	@ tmp219, state_17(D)->balancing
 435              	.L41:
 436 007a 837A     		ldrb	r3, [r0, #10]	@ D.7724,
 437 007c 9C46     		mov	ip, r3	@ D.7724, D.7724
 438              	.L20:
 439              	.LBE44:
 258:../lpc11cx4-library/evt_lib/src/ltc6804.c **** 		uint16_t bal_temp = 0;
 440              		.loc 1 258 0 is_stmt 1 discriminator 2
 441 007e 0137     		add	r7, r7, #1	@ i,
 442              	.LVL36:
 443 0080 0231     		add	r1, r1, #2	@ ivtmp.66,
 444 0082 BC45     		cmp	ip, r7	@ D.7724, i
 445 0084 DFDC     		bgt	.L17	@,
 271:../lpc11cx4-library/evt_lib/src/ltc6804.c **** 		return _set_balance_states(config, state, msTicks);
 446              		.loc 1 271 0
 447 0086 4B46     		mov	r3, r9	@ change, change
 448 0088 002B     		cmp	r3, #0	@ change,
 449 008a 0BD1     		bne	.L44	@,
 450              	.LVL37:
 451              	.L23:
 274:../lpc11cx4-library/evt_lib/src/ltc6804.c **** 	}
 452              		.loc 1 274 0
 453 008c 0120     		mov	r0, #1	@ D.7721,
 454              	.LVL38:
 455              	.L37:
 276:../lpc11cx4-library/evt_lib/src/ltc6804.c **** 
 456              		.loc 1 276 0
 457 008e 03B0     		add	sp, sp, #12	@,,
 458              		@ sp needed	@
 459              	.LVL39:
 460 0090 3CBC     		pop	{r2, r3, r4, r5}
 461 0092 9046     		mov	r8, r2
 462 0094 9946     		mov	r9, r3
 463 0096 A246     		mov	r10, r4
 464 0098 AB46     		mov	fp, r5
 465 009a F0BD     		pop	{r4, r5, r6, r7, pc}
 466              	.LVL40:
 467              	.L43:
 468              	.LBB45:
 264:../lpc11cx4-library/evt_lib/src/ltc6804.c **** 			change = true;
 469              		.loc 1 264 0
 470 009c 0D88     		ldrh	r5, [r1]	@ MEM[base: _26, offset: 0B], MEM[base: _26, offset: 0B]
ARM GAS  /var/folders/9j/_txx49hn253_s3mnzkyxlj8m0000gp/T//cczwRa0h.s 			page 21


 471 009e 002D     		cmp	r5, #0	@ MEM[base: _26, offset: 0B],
 472 00a0 E2D1     		bne	.L24	@,
 473 00a2 ECE7     		b	.L20	@
 474              	.LVL41:
 475              	.L44:
 476              	.LBE45:
 272:../lpc11cx4-library/evt_lib/src/ltc6804.c **** 	} else {
 477              		.loc 1 272 0
 478 00a4 4146     		mov	r1, r8	@, state
 479 00a6 019A     		ldr	r2, [sp, #4]	@, %sfp
 480              	.LVL42:
 481 00a8 FFF7FEFF 		bl	_set_balance_states	@
 482              	.LVL43:
 483 00ac EFE7     		b	.L37	@
 484              	.L46:
 485 00ae C046     		.align	2
 486              	.L45:
 487 00b0 00000000 		.word	.LANCHOR2
 488 00b4 00000000 		.word	.LANCHOR1
 489              		.cfi_endproc
 490              	.LFE204:
 491              		.size	LTC6804_UpdateBalanceStates, .-LTC6804_UpdateBalanceStates
 492              		.section	.text.LTC6804_SetGPIOState,"ax",%progbits
 493              		.align	2
 494              		.global	LTC6804_SetGPIOState
 495              		.code	16
 496              		.thumb_func
 497              		.type	LTC6804_SetGPIOState, %function
 498              	LTC6804_SetGPIOState:
 499              	.LFB205:
 278:../lpc11cx4-library/evt_lib/src/ltc6804.c **** 	// valid gpio range: 1 <= gpio <= 5
 500              		.loc 1 278 0
 501              		.cfi_startproc
 502              	.LVL44:
 503 0000 F8B5     		push	{r3, r4, r5, r6, r7, lr}	@
 504              		.cfi_def_cfa_offset 24
 505              		.cfi_offset 3, -24
 506              		.cfi_offset 4, -20
 507              		.cfi_offset 5, -16
 508              		.cfi_offset 6, -12
 509              		.cfi_offset 7, -8
 510              		.cfi_offset 14, -4
 280:../lpc11cx4-library/evt_lib/src/ltc6804.c **** 		return LTC6804_FAIL;
 511              		.loc 1 280 0
 512 0002 541E     		sub	r4, r2, #1	@ tmp139, gpio,
 278:../lpc11cx4-library/evt_lib/src/ltc6804.c **** 	// valid gpio range: 1 <= gpio <= 5
 513              		.loc 1 278 0
 514 0004 051C     		mov	r5, r0	@ config, config
 281:../lpc11cx4-library/evt_lib/src/ltc6804.c **** 	}
 515              		.loc 1 281 0
 516 0006 0220     		mov	r0, #2	@ D.7734,
 517              	.LVL45:
 280:../lpc11cx4-library/evt_lib/src/ltc6804.c **** 		return LTC6804_FAIL;
 518              		.loc 1 280 0
 519 0008 042C     		cmp	r4, #4	@ tmp139,
 520 000a 00D9     		bls	.L54	@,
 521              	.LVL46:
ARM GAS  /var/folders/9j/_txx49hn253_s3mnzkyxlj8m0000gp/T//cczwRa0h.s 			page 22


 522              	.L48:
 295:../lpc11cx4-library/evt_lib/src/ltc6804.c **** 
 523              		.loc 1 295 0
 524              		@ sp needed	@
 525              	.LVL47:
 526 000c F8BD     		pop	{r3, r4, r5, r6, r7, pc}
 527              	.LVL48:
 528              	.L54:
 284:../lpc11cx4-library/evt_lib/src/ltc6804.c **** 		// No Change
 529              		.loc 1 284 0
 530 000e 4869     		ldr	r0, [r1, #20]	@ D.7737, state_9(D)->cfg
 531 0010 0232     		add	r2, r2, #2	@ D.7736,
 532              	.LVL49:
 533 0012 0678     		ldrb	r6, [r0]	@ D.7735, *_10
 534 0014 0127     		mov	r7, #1	@ tmp142,
 535 0016 341C     		mov	r4, r6	@ D.7736, D.7735
 536 0018 1441     		asr	r4, r4, r2	@ D.7736, D.7736, D.7736
 537 001a 5C40     		eor	r4, r3	@ D.7736, val
 538 001c 8446     		mov	ip, r0	@ D.7737, D.7737
 286:../lpc11cx4-library/evt_lib/src/ltc6804.c **** 	} else {
 539              		.loc 1 286 0
 540 001e 0120     		mov	r0, #1	@ D.7734,
 284:../lpc11cx4-library/evt_lib/src/ltc6804.c **** 		// No Change
 541              		.loc 1 284 0
 542 0020 2742     		tst	r7, r4	@ tmp142, D.7736
 543 0022 F3D0     		beq	.L48	@,
 289:../lpc11cx4-library/evt_lib/src/ltc6804.c **** 		else
 544              		.loc 1 289 0
 545 0024 9740     		lsl	r7, r7, r2	@ D.7736, D.7736, D.7736
 288:../lpc11cx4-library/evt_lib/src/ltc6804.c **** 			state->cfg[0] |= 1 << (gpio + 2);
 546              		.loc 1 288 0
 547 0026 002B     		cmp	r3, #0	@ val,
 548 0028 07D1     		bne	.L55	@,
 291:../lpc11cx4-library/evt_lib/src/ltc6804.c **** 
 549              		.loc 1 291 0
 550 002a 6346     		mov	r3, ip	@ D.7737, D.7737
 551              	.LVL50:
 552 002c BE43     		bic	r6, r7	@ tmp156, D.7736
 553 002e 1E70     		strb	r6, [r3]	@ tmp156, *_10
 554              	.L50:
 555 0030 281C     		mov	r0, r5	@ config, config
 293:../lpc11cx4-library/evt_lib/src/ltc6804.c **** 	}
 556              		.loc 1 293 0
 557 0032 069A     		ldr	r2, [sp, #24]	@, msTicks
 558 0034 FFF7FEFF 		bl	_set_balance_states	@
 559              	.LVL51:
 560 0038 E8E7     		b	.L48	@
 561              	.LVL52:
 562              	.L55:
 289:../lpc11cx4-library/evt_lib/src/ltc6804.c **** 		else
 563              		.loc 1 289 0
 564 003a 6346     		mov	r3, ip	@ D.7737, D.7737
 565              	.LVL53:
 566 003c 3E43     		orr	r6, r7	@ tmp148, D.7736
 567 003e 1E70     		strb	r6, [r3]	@ tmp148, *_10
 568 0040 F6E7     		b	.L50	@
 569              		.cfi_endproc
ARM GAS  /var/folders/9j/_txx49hn253_s3mnzkyxlj8m0000gp/T//cczwRa0h.s 			page 23


 570              	.LFE205:
 571              		.size	LTC6804_SetGPIOState, .-LTC6804_SetGPIOState
 572 0042 C046     		.section	.text._wake,"ax",%progbits
 573              		.align	2
 574              		.global	_wake
 575              		.code	16
 576              		.thumb_func
 577              		.type	_wake, %function
 578              	_wake:
 579              	.LFB212:
 547:../lpc11cx4-library/evt_lib/src/ltc6804.c **** 	if (msTicks - state->last_message < T_IDLE && !force) return LTC6804_PASS;
 580              		.loc 1 547 0
 581              		.cfi_startproc
 582              	.LVL54:
 583 0000 F0B5     		push	{r4, r5, r6, r7, lr}	@
 584              		.cfi_def_cfa_offset 20
 585              		.cfi_offset 4, -20
 586              		.cfi_offset 5, -16
 587              		.cfi_offset 6, -12
 588              		.cfi_offset 7, -8
 589              		.cfi_offset 14, -4
 590 0002 4746     		mov	r7, r8	@,
 548:../lpc11cx4-library/evt_lib/src/ltc6804.c **** 
 591              		.loc 1 548 0
 592 0004 CC68     		ldr	r4, [r1, #12]	@ tmp158, state_6(D)->last_message
 547:../lpc11cx4-library/evt_lib/src/ltc6804.c **** 	if (msTicks - state->last_message < T_IDLE && !force) return LTC6804_PASS;
 593              		.loc 1 547 0
 594 0006 80B4     		push	{r7}	@
 595              		.cfi_def_cfa_offset 24
 596              		.cfi_offset 8, -24
 548:../lpc11cx4-library/evt_lib/src/ltc6804.c **** 
 597              		.loc 1 548 0
 598 0008 151B     		sub	r5, r2, r4	@ D.7742, msTicks, tmp158
 599 000a 032D     		cmp	r5, #3	@ D.7742,
 600 000c 04D8     		bhi	.L57	@,
 548:../lpc11cx4-library/evt_lib/src/ltc6804.c **** 
 601              		.loc 1 548 0 is_stmt 0 discriminator 1
 602 000e 002B     		cmp	r3, #0	@ force,
 603 0010 3ED0     		beq	.L66	@,
 604              	.L58:
 554:../lpc11cx4-library/evt_lib/src/ltc6804.c **** 	state->last_sleep_wake = (waking) ? msTicks : state->last_sleep_wake;
 605              		.loc 1 554 0 is_stmt 1
 606 0012 0B69     		ldr	r3, [r1, #16]	@ wake, state_6(D)->wake_length
 607              	.LVL55:
 608 0014 9C46     		mov	ip, r3	@ wake, wake
 609              	.LVL56:
 610 0016 06E0     		b	.L62	@
 611              	.LVL57:
 612              	.L57:
 613 0018 224C     		ldr	r4, .L71	@ tmp138,
 614 001a A542     		cmp	r5, r4	@ D.7742, tmp138
 615 001c 3CD8     		bhi	.L60	@,
 554:../lpc11cx4-library/evt_lib/src/ltc6804.c **** 	state->last_sleep_wake = (waking) ? msTicks : state->last_sleep_wake;
 616              		.loc 1 554 0 is_stmt 0 discriminator 2
 617 001e 002B     		cmp	r3, #0	@ force,
 618 0020 F7D1     		bne	.L58	@,
 554:../lpc11cx4-library/evt_lib/src/ltc6804.c **** 	state->last_sleep_wake = (waking) ? msTicks : state->last_sleep_wake;
ARM GAS  /var/folders/9j/_txx49hn253_s3mnzkyxlj8m0000gp/T//cczwRa0h.s 			page 24


 619              		.loc 1 554 0
 620 0022 0233     		add	r3, r3, #2	@ wake,
 621              	.LVL58:
 622 0024 9C46     		mov	ip, r3	@ wake, wake
 623              	.LVL59:
 624              	.L62:
 555:../lpc11cx4-library/evt_lib/src/ltc6804.c **** 
 625              		.loc 1 555 0 is_stmt 1 discriminator 2
 626 0026 0027     		mov	r7, #0	@ waking,
 627 0028 4B6A     		ldr	r3, [r1, #36]	@ D.7741, state_6(D)->last_sleep_wake
 628              	.L63:
 629 002a 0D1C     		mov	r5, r1	@ state, state
 555:../lpc11cx4-library/evt_lib/src/ltc6804.c **** 
 630              		.loc 1 555 0 is_stmt 0 discriminator 4
 631 002c 4B62     		str	r3, [r1, #36]	@ D.7741, state_6(D)->last_sleep_wake
 632 002e 161C     		mov	r6, r2	@ msTicks, msTicks
 559:../lpc11cx4-library/evt_lib/src/ltc6804.c **** 	Chip_GPIO_SetPinState(LPC_GPIO, config->cs_gpio, config->cs_pin, false);
 633              		.loc 1 559 0 is_stmt 1 discriminator 4
 634 0030 EA60     		str	r2, [r5, #12]	@ msTicks, state_6(D)->last_message
 635              	.LVL60:
 636              	.LBB46:
 637              	.LBB47:
 638              		.file 2 "../lpc11cx4-library/lpc_chip_11cxx_lib/inc/gpio_11xx_2.h"
   1:../lpc11cx4-library/lpc_chip_11cxx_lib/inc/gpio_11xx_2.h **** /*
   2:../lpc11cx4-library/lpc_chip_11cxx_lib/inc/gpio_11xx_2.h ****  * @brief LPC11xx GPIO driver for CHIP_LPC11CXX, CHIP_LPC110X, CHIP_LPC11XXLV,
   3:../lpc11cx4-library/lpc_chip_11cxx_lib/inc/gpio_11xx_2.h ****  * and CHIP_LPC1125 families only.
   4:../lpc11cx4-library/lpc_chip_11cxx_lib/inc/gpio_11xx_2.h ****  *
   5:../lpc11cx4-library/lpc_chip_11cxx_lib/inc/gpio_11xx_2.h ****  * @note
   6:../lpc11cx4-library/lpc_chip_11cxx_lib/inc/gpio_11xx_2.h ****  * Copyright(C) NXP Semiconductors, 2013
   7:../lpc11cx4-library/lpc_chip_11cxx_lib/inc/gpio_11xx_2.h ****  * All rights reserved.
   8:../lpc11cx4-library/lpc_chip_11cxx_lib/inc/gpio_11xx_2.h ****  *
   9:../lpc11cx4-library/lpc_chip_11cxx_lib/inc/gpio_11xx_2.h ****  * @par
  10:../lpc11cx4-library/lpc_chip_11cxx_lib/inc/gpio_11xx_2.h ****  * Software that is described herein is for illustrative purposes only
  11:../lpc11cx4-library/lpc_chip_11cxx_lib/inc/gpio_11xx_2.h ****  * which provides customers with programming information regarding the
  12:../lpc11cx4-library/lpc_chip_11cxx_lib/inc/gpio_11xx_2.h ****  * LPC products.  This software is supplied "AS IS" without any warranties of
  13:../lpc11cx4-library/lpc_chip_11cxx_lib/inc/gpio_11xx_2.h ****  * any kind, and NXP Semiconductors and its licensor disclaim any and
  14:../lpc11cx4-library/lpc_chip_11cxx_lib/inc/gpio_11xx_2.h ****  * all warranties, express or implied, including all implied warranties of
  15:../lpc11cx4-library/lpc_chip_11cxx_lib/inc/gpio_11xx_2.h ****  * merchantability, fitness for a particular purpose and non-infringement of
  16:../lpc11cx4-library/lpc_chip_11cxx_lib/inc/gpio_11xx_2.h ****  * intellectual property rights.  NXP Semiconductors assumes no responsibility
  17:../lpc11cx4-library/lpc_chip_11cxx_lib/inc/gpio_11xx_2.h ****  * or liability for the use of the software, conveys no license or rights under any
  18:../lpc11cx4-library/lpc_chip_11cxx_lib/inc/gpio_11xx_2.h ****  * patent, copyright, mask work right, or any other intellectual property rights in
  19:../lpc11cx4-library/lpc_chip_11cxx_lib/inc/gpio_11xx_2.h ****  * or to any products. NXP Semiconductors reserves the right to make changes
  20:../lpc11cx4-library/lpc_chip_11cxx_lib/inc/gpio_11xx_2.h ****  * in the software without notification. NXP Semiconductors also makes no
  21:../lpc11cx4-library/lpc_chip_11cxx_lib/inc/gpio_11xx_2.h ****  * representation or warranty that such application will be suitable for the
  22:../lpc11cx4-library/lpc_chip_11cxx_lib/inc/gpio_11xx_2.h ****  * specified use without further testing or modification.
  23:../lpc11cx4-library/lpc_chip_11cxx_lib/inc/gpio_11xx_2.h ****  *
  24:../lpc11cx4-library/lpc_chip_11cxx_lib/inc/gpio_11xx_2.h ****  * @par
  25:../lpc11cx4-library/lpc_chip_11cxx_lib/inc/gpio_11xx_2.h ****  * Permission to use, copy, modify, and distribute this software and its
  26:../lpc11cx4-library/lpc_chip_11cxx_lib/inc/gpio_11xx_2.h ****  * documentation is hereby granted, under NXP Semiconductors' and its
  27:../lpc11cx4-library/lpc_chip_11cxx_lib/inc/gpio_11xx_2.h ****  * licensor's relevant copyrights in the software, without fee, provided that it
  28:../lpc11cx4-library/lpc_chip_11cxx_lib/inc/gpio_11xx_2.h ****  * is used in conjunction with NXP Semiconductors microcontrollers.  This
  29:../lpc11cx4-library/lpc_chip_11cxx_lib/inc/gpio_11xx_2.h ****  * copyright, permission, and disclaimer notice must appear in all copies of
  30:../lpc11cx4-library/lpc_chip_11cxx_lib/inc/gpio_11xx_2.h ****  * this code.
  31:../lpc11cx4-library/lpc_chip_11cxx_lib/inc/gpio_11xx_2.h ****  */
  32:../lpc11cx4-library/lpc_chip_11cxx_lib/inc/gpio_11xx_2.h **** 
  33:../lpc11cx4-library/lpc_chip_11cxx_lib/inc/gpio_11xx_2.h **** #ifndef __GPIO_11XX_2_H_
  34:../lpc11cx4-library/lpc_chip_11cxx_lib/inc/gpio_11xx_2.h **** #define __GPIO_11XX_2_H_
ARM GAS  /var/folders/9j/_txx49hn253_s3mnzkyxlj8m0000gp/T//cczwRa0h.s 			page 25


  35:../lpc11cx4-library/lpc_chip_11cxx_lib/inc/gpio_11xx_2.h **** 
  36:../lpc11cx4-library/lpc_chip_11cxx_lib/inc/gpio_11xx_2.h **** #ifdef __cplusplus
  37:../lpc11cx4-library/lpc_chip_11cxx_lib/inc/gpio_11xx_2.h **** extern "C" {
  38:../lpc11cx4-library/lpc_chip_11cxx_lib/inc/gpio_11xx_2.h **** #endif
  39:../lpc11cx4-library/lpc_chip_11cxx_lib/inc/gpio_11xx_2.h **** 
  40:../lpc11cx4-library/lpc_chip_11cxx_lib/inc/gpio_11xx_2.h **** /** @defgroup GPIO_11XX_2 CHIP: LPC11xx GPIO driver for CHIP_LPC11CXX, CHIP_LPC110X, and CHIP_LPC11
  41:../lpc11cx4-library/lpc_chip_11cxx_lib/inc/gpio_11xx_2.h ****  * @ingroup CHIP_11XX_Drivers
  42:../lpc11cx4-library/lpc_chip_11cxx_lib/inc/gpio_11xx_2.h ****  * For device familes identified with CHIP definitions CHIP_LPC11CXX,
  43:../lpc11cx4-library/lpc_chip_11cxx_lib/inc/gpio_11xx_2.h ****  * CHIP_LPC110X, and CHIP_LPC11XXLV only.
  44:../lpc11cx4-library/lpc_chip_11cxx_lib/inc/gpio_11xx_2.h ****  * @{
  45:../lpc11cx4-library/lpc_chip_11cxx_lib/inc/gpio_11xx_2.h ****  */
  46:../lpc11cx4-library/lpc_chip_11cxx_lib/inc/gpio_11xx_2.h **** 
  47:../lpc11cx4-library/lpc_chip_11cxx_lib/inc/gpio_11xx_2.h **** #if defined(CHIP_LPC11CXX) || defined(CHIP_LPC110X) || defined(CHIP_LPC11XXLV) || defined(CHIP_LPC1
  48:../lpc11cx4-library/lpc_chip_11cxx_lib/inc/gpio_11xx_2.h **** 
  49:../lpc11cx4-library/lpc_chip_11cxx_lib/inc/gpio_11xx_2.h **** /**
  50:../lpc11cx4-library/lpc_chip_11cxx_lib/inc/gpio_11xx_2.h ****  * @brief  GPIO port register block structure
  51:../lpc11cx4-library/lpc_chip_11cxx_lib/inc/gpio_11xx_2.h ****  */
  52:../lpc11cx4-library/lpc_chip_11cxx_lib/inc/gpio_11xx_2.h **** typedef struct {				/*!< GPIO_PORT Structure */
  53:../lpc11cx4-library/lpc_chip_11cxx_lib/inc/gpio_11xx_2.h **** 	__IO uint32_t DATA[4096];			/*!< Offset: 0x0000 to 0x3FFC Data address masking register (R/W) */
  54:../lpc11cx4-library/lpc_chip_11cxx_lib/inc/gpio_11xx_2.h **** 	uint32_t RESERVED1[4096];
  55:../lpc11cx4-library/lpc_chip_11cxx_lib/inc/gpio_11xx_2.h **** 	__IO uint32_t DIR;					/*!< Offset: 0x8000 Data direction register (R/W) */
  56:../lpc11cx4-library/lpc_chip_11cxx_lib/inc/gpio_11xx_2.h **** 	__IO uint32_t IS;					/*!< Offset: 0x8004 Interrupt sense register (R/W) */
  57:../lpc11cx4-library/lpc_chip_11cxx_lib/inc/gpio_11xx_2.h **** 	__IO uint32_t IBE;					/*!< Offset: 0x8008 Interrupt both edges register (R/W) */
  58:../lpc11cx4-library/lpc_chip_11cxx_lib/inc/gpio_11xx_2.h **** 	__IO uint32_t IEV;					/*!< Offset: 0x800C Interrupt event register  (R/W) */
  59:../lpc11cx4-library/lpc_chip_11cxx_lib/inc/gpio_11xx_2.h **** 	__IO uint32_t IE;					/*!< Offset: 0x8010 Interrupt mask register (R/W) */
  60:../lpc11cx4-library/lpc_chip_11cxx_lib/inc/gpio_11xx_2.h **** 	__I  uint32_t RIS;					/*!< Offset: 0x8014 Raw interrupt status register (R/ ) */
  61:../lpc11cx4-library/lpc_chip_11cxx_lib/inc/gpio_11xx_2.h **** 	__I  uint32_t MIS;					/*!< Offset: 0x8018 Masked interrupt status register (R/ ) */
  62:../lpc11cx4-library/lpc_chip_11cxx_lib/inc/gpio_11xx_2.h **** 	__O  uint32_t IC;					/*!< Offset: 0x801C Interrupt clear register (W) */
  63:../lpc11cx4-library/lpc_chip_11cxx_lib/inc/gpio_11xx_2.h **** 	uint32_t RESERVED2[8184];			/* Padding added for aligning contiguous GPIO blocks */
  64:../lpc11cx4-library/lpc_chip_11cxx_lib/inc/gpio_11xx_2.h **** } LPC_GPIO_T;
  65:../lpc11cx4-library/lpc_chip_11cxx_lib/inc/gpio_11xx_2.h **** 
  66:../lpc11cx4-library/lpc_chip_11cxx_lib/inc/gpio_11xx_2.h **** /**
  67:../lpc11cx4-library/lpc_chip_11cxx_lib/inc/gpio_11xx_2.h ****  * @brief	Initialize GPIO block
  68:../lpc11cx4-library/lpc_chip_11cxx_lib/inc/gpio_11xx_2.h ****  * @param	pGPIO	: The base of GPIO peripheral on the chip
  69:../lpc11cx4-library/lpc_chip_11cxx_lib/inc/gpio_11xx_2.h ****  * @return	Nothing
  70:../lpc11cx4-library/lpc_chip_11cxx_lib/inc/gpio_11xx_2.h ****  */
  71:../lpc11cx4-library/lpc_chip_11cxx_lib/inc/gpio_11xx_2.h **** void Chip_GPIO_Init(LPC_GPIO_T *pGPIO);
  72:../lpc11cx4-library/lpc_chip_11cxx_lib/inc/gpio_11xx_2.h **** 
  73:../lpc11cx4-library/lpc_chip_11cxx_lib/inc/gpio_11xx_2.h **** /**
  74:../lpc11cx4-library/lpc_chip_11cxx_lib/inc/gpio_11xx_2.h ****  * @brief	De-Initialize GPIO block
  75:../lpc11cx4-library/lpc_chip_11cxx_lib/inc/gpio_11xx_2.h ****  * @param	pGPIO	: The base of GPIO peripheral on the chip
  76:../lpc11cx4-library/lpc_chip_11cxx_lib/inc/gpio_11xx_2.h ****  * @return	Nothing
  77:../lpc11cx4-library/lpc_chip_11cxx_lib/inc/gpio_11xx_2.h ****  */
  78:../lpc11cx4-library/lpc_chip_11cxx_lib/inc/gpio_11xx_2.h **** void Chip_GPIO_DeInit(LPC_GPIO_T *pGPIO);
  79:../lpc11cx4-library/lpc_chip_11cxx_lib/inc/gpio_11xx_2.h **** 
  80:../lpc11cx4-library/lpc_chip_11cxx_lib/inc/gpio_11xx_2.h **** /**
  81:../lpc11cx4-library/lpc_chip_11cxx_lib/inc/gpio_11xx_2.h ****  * @brief	Set a GPIO port/bit state
  82:../lpc11cx4-library/lpc_chip_11cxx_lib/inc/gpio_11xx_2.h ****  * @param	pGPIO	: The base of GPIO peripheral on the chip
  83:../lpc11cx4-library/lpc_chip_11cxx_lib/inc/gpio_11xx_2.h ****  * @param	port	: GPIO port to set
  84:../lpc11cx4-library/lpc_chip_11cxx_lib/inc/gpio_11xx_2.h ****  * @param	bit		: GPIO bit to set
  85:../lpc11cx4-library/lpc_chip_11cxx_lib/inc/gpio_11xx_2.h ****  * @param	setting	: true for high, false for low
  86:../lpc11cx4-library/lpc_chip_11cxx_lib/inc/gpio_11xx_2.h ****  * @return	Nothing
  87:../lpc11cx4-library/lpc_chip_11cxx_lib/inc/gpio_11xx_2.h ****  */
  88:../lpc11cx4-library/lpc_chip_11cxx_lib/inc/gpio_11xx_2.h **** STATIC INLINE void Chip_GPIO_WritePortBit(LPC_GPIO_T *pGPIO, uint32_t port, uint8_t bit, bool setti
  89:../lpc11cx4-library/lpc_chip_11cxx_lib/inc/gpio_11xx_2.h **** {
  90:../lpc11cx4-library/lpc_chip_11cxx_lib/inc/gpio_11xx_2.h **** 	pGPIO[port].DATA[1 << bit] = setting << bit;
  91:../lpc11cx4-library/lpc_chip_11cxx_lib/inc/gpio_11xx_2.h **** }
ARM GAS  /var/folders/9j/_txx49hn253_s3mnzkyxlj8m0000gp/T//cczwRa0h.s 			page 26


  92:../lpc11cx4-library/lpc_chip_11cxx_lib/inc/gpio_11xx_2.h **** 
  93:../lpc11cx4-library/lpc_chip_11cxx_lib/inc/gpio_11xx_2.h **** /**
  94:../lpc11cx4-library/lpc_chip_11cxx_lib/inc/gpio_11xx_2.h ****  * @brief	Set a GPIO pin state via the GPIO byte register
  95:../lpc11cx4-library/lpc_chip_11cxx_lib/inc/gpio_11xx_2.h ****  * @param	pGPIO	: The base of GPIO peripheral on the chip
  96:../lpc11cx4-library/lpc_chip_11cxx_lib/inc/gpio_11xx_2.h ****  * @param	port	: Port number
  97:../lpc11cx4-library/lpc_chip_11cxx_lib/inc/gpio_11xx_2.h ****  * @param	pin		: GPIO pin to set
  98:../lpc11cx4-library/lpc_chip_11cxx_lib/inc/gpio_11xx_2.h ****  * @param	setting	: true for high, false for low
  99:../lpc11cx4-library/lpc_chip_11cxx_lib/inc/gpio_11xx_2.h ****  * @return	Nothing
 100:../lpc11cx4-library/lpc_chip_11cxx_lib/inc/gpio_11xx_2.h ****  * @note	This function replaces Chip_GPIO_WritePortBit()
 101:../lpc11cx4-library/lpc_chip_11cxx_lib/inc/gpio_11xx_2.h ****  */
 102:../lpc11cx4-library/lpc_chip_11cxx_lib/inc/gpio_11xx_2.h **** STATIC INLINE void Chip_GPIO_SetPinState(LPC_GPIO_T *pGPIO, uint8_t port, uint8_t pin, bool setting
 103:../lpc11cx4-library/lpc_chip_11cxx_lib/inc/gpio_11xx_2.h **** {
 104:../lpc11cx4-library/lpc_chip_11cxx_lib/inc/gpio_11xx_2.h **** 	pGPIO[port].DATA[1 << pin] = setting << pin;
 639              		.loc 2 104 0 discriminator 4
 640 0032 A022     		mov	r2, #160	@ tmp160,
 641              	.LVL61:
 642 0034 D205     		lsl	r2, r2, #23	@ tmp160, tmp160,
 643 0036 9046     		mov	r8, r2	@ tmp160, tmp160
 644 0038 0121     		mov	r1, #1	@ tmp142,
 645              	.LVL62:
 646 003a 037A     		ldrb	r3, [r0, #8]	@ D.7744,
 647 003c 427A     		ldrb	r2, [r0, #9]	@ D.7748,
 648 003e 1B04     		lsl	r3, r3, #16	@ D.7744, D.7744,
 649 0040 4344     		add	r3, r3, r8	@ D.7747, tmp160
 650 0042 8846     		mov	r8, r1	@ tmp142, tmp142
 651 0044 9140     		lsl	r1, r1, r2	@ D.7748, D.7748, D.7748
 652 0046 8A00     		lsl	r2, r1, #2	@ tmp143, D.7748,
 653 0048 0021     		mov	r1, #0	@ tmp144,
 654 004a 041C     		mov	r4, r0	@ config, config
 655 004c D150     		str	r1, [r2, r3]	@ tmp144, _30->DATA
 656              	.LVL63:
 657              	.LBE47:
 658              	.LBE46:
 561:../lpc11cx4-library/evt_lib/src/ltc6804.c **** 	Chip_GPIO_SetPinState(LPC_GPIO, config->cs_gpio, config->cs_pin, true);
 659              		.loc 1 561 0 discriminator 4
 660 004e 0068     		ldr	r0, [r0]	@, config_16(D)->pSSP
 661              	.LVL64:
 662 0050 6246     		mov	r2, ip	@, wake
 663 0052 1549     		ldr	r1, .L71+4	@,
 664 0054 FFF7FEFF 		bl	Chip_SSP_WriteFrames_Blocking	@
 665              	.LVL65:
 666              	.LBB48:
 667              	.LBB49:
 668              		.loc 2 104 0 discriminator 4
 669 0058 A022     		mov	r2, #160	@ tmp164,
 670 005a 4146     		mov	r1, r8	@ D.7748, tmp142
 671 005c D205     		lsl	r2, r2, #23	@ tmp164, tmp164,
 672 005e 9446     		mov	ip, r2	@ tmp164, tmp164
 673 0060 627A     		ldrb	r2, [r4, #9]	@ D.7748,
 674 0062 237A     		ldrb	r3, [r4, #8]	@ D.7744,
 675 0064 9140     		lsl	r1, r1, r2	@ D.7748, D.7748, D.7748
 676 0066 0A1C     		mov	r2, r1	@ D.7748, D.7748
 677 0068 1B04     		lsl	r3, r3, #16	@ D.7744, D.7744,
 678 006a 6344     		add	r3, r3, ip	@ D.7747, tmp164
 679 006c 8900     		lsl	r1, r1, #2	@ tmp151, D.7748,
 680 006e CA50     		str	r2, [r1, r3]	@ D.7748, _34->DATA
 681              	.LVL66:
ARM GAS  /var/folders/9j/_txx49hn253_s3mnzkyxlj8m0000gp/T//cczwRa0h.s 			page 27


 682              	.LBE49:
 683              	.LBE48:
 565:../lpc11cx4-library/evt_lib/src/ltc6804.c **** 	if (waking && state->balancing) _set_balance_states(config, state, msTicks);
 684              		.loc 1 565 0 discriminator 4
 685 0070 002F     		cmp	r7, #0	@ waking,
 686 0072 0DD0     		beq	.L66	@,
 565:../lpc11cx4-library/evt_lib/src/ltc6804.c **** 	if (waking && state->balancing) _set_balance_states(config, state, msTicks);
 687              		.loc 1 565 0 is_stmt 0 discriminator 1
 688 0074 201C     		mov	r0, r4	@, config
 689 0076 291C     		mov	r1, r5	@, state
 690 0078 321C     		mov	r2, r6	@, msTicks
 691 007a FFF7FEFF 		bl	LTC6804_WriteCFG	@
 692              	.LVL67:
 566:../lpc11cx4-library/evt_lib/src/ltc6804.c **** 
 693              		.loc 1 566 0 is_stmt 1 discriminator 1
 694 007e 2823     		mov	r3, #40	@ tmp152,
 695 0080 EB5C     		ldrb	r3, [r5, r3]	@ tmp153,
 696 0082 002B     		cmp	r3, #0	@ tmp153,
 697 0084 04D0     		beq	.L66	@,
 566:../lpc11cx4-library/evt_lib/src/ltc6804.c **** 
 698              		.loc 1 566 0 is_stmt 0 discriminator 2
 699 0086 201C     		mov	r0, r4	@, config
 700 0088 291C     		mov	r1, r5	@, state
 701 008a 321C     		mov	r2, r6	@, msTicks
 702 008c FFF7FEFF 		bl	_set_balance_states	@
 703              	.LVL68:
 704              	.L66:
 569:../lpc11cx4-library/evt_lib/src/ltc6804.c **** 
 705              		.loc 1 569 0 is_stmt 1
 706 0090 0120     		mov	r0, #1	@,
 707              		@ sp needed	@
 708 0092 04BC     		pop	{r2}
 709 0094 9046     		mov	r8, r2
 710 0096 F0BD     		pop	{r4, r5, r6, r7, pc}
 711              	.LVL69:
 712              	.L60:
 554:../lpc11cx4-library/evt_lib/src/ltc6804.c **** 	state->last_sleep_wake = (waking) ? msTicks : state->last_sleep_wake;
 713              		.loc 1 554 0
 714 0098 0B69     		ldr	r3, [r1, #16]	@ wake, state_6(D)->wake_length
 715              	.LVL70:
 716 009a 0127     		mov	r7, #1	@ waking,
 717 009c 9C46     		mov	ip, r3	@ wake, wake
 718              	.LVL71:
 555:../lpc11cx4-library/evt_lib/src/ltc6804.c **** 
 719              		.loc 1 555 0
 720 009e 131C     		mov	r3, r2	@ D.7741, msTicks
 721              	.LVL72:
 722 00a0 C3E7     		b	.L63	@
 723              	.L72:
 724 00a2 C046     		.align	2
 725              	.L71:
 726 00a4 07070000 		.word	1799
 727 00a8 00000000 		.word	.LANCHOR3
 728              		.cfi_endproc
 729              	.LFE212:
 730              		.size	_wake, .-_wake
 731              		.section	.text._command,"ax",%progbits
ARM GAS  /var/folders/9j/_txx49hn253_s3mnzkyxlj8m0000gp/T//cczwRa0h.s 			page 28


 732              		.align	2
 733              		.global	_command
 734              		.code	16
 735              		.thumb_func
 736              		.type	_command, %function
 737              	_command:
 738              	.LFB209:
 480:../lpc11cx4-library/evt_lib/src/ltc6804.c **** 	_wake(config, state, msTicks, false);
 739              		.loc 1 480 0
 740              		.cfi_startproc
 741              	.LVL73:
 742 0000 F8B5     		push	{r3, r4, r5, r6, r7, lr}	@
 743              		.cfi_def_cfa_offset 24
 744              		.cfi_offset 3, -24
 745              		.cfi_offset 4, -20
 746              		.cfi_offset 5, -16
 747              		.cfi_offset 6, -12
 748              		.cfi_offset 7, -8
 749              		.cfi_offset 14, -4
 480:../lpc11cx4-library/evt_lib/src/ltc6804.c **** 	_wake(config, state, msTicks, false);
 750              		.loc 1 480 0
 751 0002 0C1C     		mov	r4, r1	@ state, state
 752 0004 171C     		mov	r7, r2	@ cmd, cmd
 753 0006 1E1C     		mov	r6, r3	@ msTicks, msTicks
 481:../lpc11cx4-library/evt_lib/src/ltc6804.c **** 
 754              		.loc 1 481 0
 755 0008 1A1C     		mov	r2, r3	@, msTicks
 756              	.LVL74:
 757 000a 0023     		mov	r3, #0	@,
 758              	.LVL75:
 480:../lpc11cx4-library/evt_lib/src/ltc6804.c **** 	_wake(config, state, msTicks, false);
 759              		.loc 1 480 0
 760 000c 051C     		mov	r5, r0	@ config, config
 481:../lpc11cx4-library/evt_lib/src/ltc6804.c **** 
 761              		.loc 1 481 0
 762 000e FFF7FEFF 		bl	_wake	@
 763              	.LVL76:
 764              	.LBB50:
 765              	.LBB51:
 621:../lpc11cx4-library/evt_lib/src/ltc6804.c **** 	}
 766              		.loc 1 621 0
 767 0012 8021     		mov	r1, #128	@ tmp169,
 768              	.LBE51:
 769              	.LBE50:
 483:../lpc11cx4-library/evt_lib/src/ltc6804.c **** 	state->tx_buf[1] = cmd & 0xFF;
 770              		.loc 1 483 0
 771 0014 6268     		ldr	r2, [r4, #4]	@ tmp207, state_3(D)->tx_buf
 772 0016 3B0A     		lsr	r3, r7, #8	@ tmp159, cmd,
 773 0018 1370     		strb	r3, [r2]	@ tmp159, *_6
 484:../lpc11cx4-library/evt_lib/src/ltc6804.c **** 	uint16_t pec = _calculate_pec(state->tx_buf, 2);
 774              		.loc 1 484 0
 775 001a 6368     		ldr	r3, [r4, #4]	@ tmp208, state_3(D)->tx_buf
 776              	.LBB55:
 777              	.LBB52:
 621:../lpc11cx4-library/evt_lib/src/ltc6804.c **** 	}
 778              		.loc 1 621 0
 779 001c 1B48     		ldr	r0, .L74	@ tmp164,
ARM GAS  /var/folders/9j/_txx49hn253_s3mnzkyxlj8m0000gp/T//cczwRa0h.s 			page 29


 780              	.LBE52:
 781              	.LBE55:
 484:../lpc11cx4-library/evt_lib/src/ltc6804.c **** 	uint16_t pec = _calculate_pec(state->tx_buf, 2);
 782              		.loc 1 484 0
 783 001e 5F70     		strb	r7, [r3, #1]	@ cmd, MEM[(uint8_t *)_11 + 1B]
 485:../lpc11cx4-library/evt_lib/src/ltc6804.c **** 	state->tx_buf[2] = pec >> 8;
 784              		.loc 1 485 0
 785 0020 6268     		ldr	r2, [r4, #4]	@ D.7752, state_3(D)->tx_buf
 786              	.LVL77:
 787              	.LBB56:
 788              	.LBB53:
 621:../lpc11cx4-library/evt_lib/src/ltc6804.c **** 	}
 789              		.loc 1 621 0
 790 0022 4901     		lsl	r1, r1, #5	@ tmp169, tmp169,
 620:../lpc11cx4-library/evt_lib/src/ltc6804.c **** 		remainder = (remainder<<8)^crc15Table[addr];
 791              		.loc 1 620 0
 792 0024 1378     		ldrb	r3, [r2]	@ addr, *_14
 793              	.LVL78:
 794 0026 5778     		ldrb	r7, [r2, #1]	@ MEM[(uint8_t *)_14 + 1B], MEM[(uint8_t *)_14 + 1B]
 621:../lpc11cx4-library/evt_lib/src/ltc6804.c **** 	}
 795              		.loc 1 621 0
 796 0028 9B00     		lsl	r3, r3, #2	@ tmp165, addr,
 797              	.LVL79:
 798 002a C35A     		ldrh	r3, [r0, r3]	@ tmp168, crc15Table
 799              	.LBE53:
 800              	.LBE56:
 495:../lpc11cx4-library/evt_lib/src/ltc6804.c **** 
 801              		.loc 1 495 0
 802              		@ sp needed	@
 803              	.LBB57:
 804              	.LBB54:
 621:../lpc11cx4-library/evt_lib/src/ltc6804.c **** 	}
 805              		.loc 1 621 0
 806 002c 4B40     		eor	r3, r1	@ remainder, tmp169
 807              	.LVL80:
 808 002e 1902     		lsl	r1, r3, #8	@ tmp170, remainder,
 620:../lpc11cx4-library/evt_lib/src/ltc6804.c **** 		remainder = (remainder<<8)^crc15Table[addr];
 809              		.loc 1 620 0
 810 0030 DB09     		lsr	r3, r3, #7	@ tmp172, remainder,
 811              	.LVL81:
 812 0032 7B40     		eor	r3, r7	@ tmp176, MEM[(uint8_t *)_14 + 1B]
 621:../lpc11cx4-library/evt_lib/src/ltc6804.c **** 	}
 813              		.loc 1 621 0
 814 0034 FF27     		mov	r7, #255	@ tmp181,
 815 0036 3B40     		and	r3, r7	@ D.7758, tmp181
 816 0038 9B00     		lsl	r3, r3, #2	@ tmp183, D.7758,
 817 003a C35A     		ldrh	r3, [r0, r3]	@ D.7753, crc15Table
 818              	.LVL82:
 819 003c 89B2     		uxth	r1, r1	@ D.7753, tmp170
 820              	.LVL83:
 821 003e 4B40     		eor	r3, r1	@ tmp186, D.7753
 822              	.LVL84:
 823              		.loc 1 623 0
 824 0040 5B00     		lsl	r3, r3, #1	@ tmp188, tmp186,
 825 0042 9BB2     		uxth	r3, r3	@ D.7759, tmp188
 826              	.LBE54:
 827              	.LBE57:
ARM GAS  /var/folders/9j/_txx49hn253_s3mnzkyxlj8m0000gp/T//cczwRa0h.s 			page 30


 486:../lpc11cx4-library/evt_lib/src/ltc6804.c **** 	state->tx_buf[3] = pec & 0xFF;
 828              		.loc 1 486 0
 829 0044 190A     		lsr	r1, r3, #8	@ tmp189, D.7759,
 830              	.LVL85:
 831 0046 9170     		strb	r1, [r2, #2]	@ tmp189, MEM[(uint8_t *)_14 + 2B]
 832              	.LVL86:
 487:../lpc11cx4-library/evt_lib/src/ltc6804.c **** 
 833              		.loc 1 487 0
 834 0048 6268     		ldr	r2, [r4, #4]	@ tmp209, state_3(D)->tx_buf
 835              	.LVL87:
 836 004a D370     		strb	r3, [r2, #3]	@ D.7759, MEM[(uint8_t *)_18 + 3B]
 489:../lpc11cx4-library/evt_lib/src/ltc6804.c **** 	Chip_GPIO_SetPinState(LPC_GPIO, config->cs_gpio, config->cs_pin, false);
 837              		.loc 1 489 0
 838 004c E660     		str	r6, [r4, #12]	@ msTicks, state_3(D)->last_message
 839              	.LVL88:
 840              	.LBB58:
 841              	.LBB59:
 842              		.loc 2 104 0
 843 004e 0126     		mov	r6, #1	@ tmp195,
 844              	.LVL89:
 845 0050 A022     		mov	r2, #160	@ tmp210,
 846 0052 311C     		mov	r1, r6	@ D.7758, tmp195
 847 0054 D205     		lsl	r2, r2, #23	@ tmp210, tmp210,
 848 0056 9446     		mov	ip, r2	@ tmp210, tmp210
 849 0058 6A7A     		ldrb	r2, [r5, #9]	@ D.7758,
 850 005a 2B7A     		ldrb	r3, [r5, #8]	@ D.7755,
 851 005c 9140     		lsl	r1, r1, r2	@ D.7758, D.7758, D.7758
 852 005e 8A00     		lsl	r2, r1, #2	@ tmp196, D.7758,
 853 0060 0021     		mov	r1, #0	@ tmp197,
 854 0062 1B04     		lsl	r3, r3, #16	@ D.7755, D.7755,
 855 0064 6344     		add	r3, r3, ip	@ D.7760, tmp210
 856 0066 D150     		str	r1, [r2, r3]	@ tmp197, _48->DATA
 857              	.LVL90:
 858              	.LBE59:
 859              	.LBE58:
 491:../lpc11cx4-library/evt_lib/src/ltc6804.c **** 	Chip_GPIO_SetPinState(LPC_GPIO, config->cs_gpio, config->cs_pin, true);
 860              		.loc 1 491 0
 861 0068 2868     		ldr	r0, [r5]	@, config_2(D)->pSSP
 862 006a 6168     		ldr	r1, [r4, #4]	@ state_3(D)->tx_buf, state_3(D)->tx_buf
 863 006c 0422     		mov	r2, #4	@,
 864 006e FFF7FEFF 		bl	Chip_SSP_WriteFrames_Blocking	@
 865              	.LVL91:
 866              	.LBB60:
 867              	.LBB61:
 868              		.loc 2 104 0
 869 0072 A022     		mov	r2, #160	@ tmp213,
 870 0074 D205     		lsl	r2, r2, #23	@ tmp213, tmp213,
 871 0076 9446     		mov	ip, r2	@ tmp213, tmp213
 872 0078 6A7A     		ldrb	r2, [r5, #9]	@ D.7758,
 873 007a 2B7A     		ldrb	r3, [r5, #8]	@ D.7755,
 874 007c 9640     		lsl	r6, r6, r2	@ D.7758, tmp195, D.7758
 875 007e 1B04     		lsl	r3, r3, #16	@ D.7755, D.7755,
 876 0080 B200     		lsl	r2, r6, #2	@ tmp204, D.7758,
 877 0082 6344     		add	r3, r3, ip	@ D.7760, tmp213
 878 0084 D650     		str	r6, [r2, r3]	@ D.7758, _52->DATA
 879              	.LVL92:
 880              	.LBE61:
ARM GAS  /var/folders/9j/_txx49hn253_s3mnzkyxlj8m0000gp/T//cczwRa0h.s 			page 31


 881              	.LBE60:
 495:../lpc11cx4-library/evt_lib/src/ltc6804.c **** 
 882              		.loc 1 495 0
 883 0086 0120     		mov	r0, #1	@,
 884              	.LVL93:
 885              	.LVL94:
 886 0088 F8BD     		pop	{r3, r4, r5, r6, r7, pc}
 887              	.L75:
 888 008a C046     		.align	2
 889              	.L74:
 890 008c 00000000 		.word	.LANCHOR0
 891              		.cfi_endproc
 892              	.LFE209:
 893              		.size	_command, .-_command
 894              		.section	.text.LTC6804_ClearCellVoltages,"ax",%progbits
 895              		.align	2
 896              		.global	LTC6804_ClearCellVoltages
 897              		.code	16
 898              		.thumb_func
 899              		.type	LTC6804_ClearCellVoltages, %function
 900              	LTC6804_ClearCellVoltages:
 901              	.LFB207:
 411:../lpc11cx4-library/evt_lib/src/ltc6804.c **** 	return _command(config, state, CLRCELL, msTicks);
 902              		.loc 1 411 0
 903              		.cfi_startproc
 904              	.LVL95:
 905 0000 08B5     		push	{r3, lr}	@
 906              		.cfi_def_cfa_offset 8
 907              		.cfi_offset 3, -8
 908              		.cfi_offset 14, -4
 411:../lpc11cx4-library/evt_lib/src/ltc6804.c **** 	return _command(config, state, CLRCELL, msTicks);
 909              		.loc 1 411 0
 910 0002 131C     		mov	r3, r2	@ msTicks, msTicks
 412:../lpc11cx4-library/evt_lib/src/ltc6804.c **** }
 911              		.loc 1 412 0
 912 0004 014A     		ldr	r2, .L77	@,
 913              	.LVL96:
 914 0006 FFF7FEFF 		bl	_command	@
 915              	.LVL97:
 413:../lpc11cx4-library/evt_lib/src/ltc6804.c **** 
 916              		.loc 1 413 0
 917              		@ sp needed	@
 918 000a 08BD     		pop	{r3, pc}
 919              	.L78:
 920              		.align	2
 921              	.L77:
 922 000c 11070000 		.word	1809
 923              		.cfi_endproc
 924              	.LFE207:
 925              		.size	LTC6804_ClearCellVoltages, .-LTC6804_ClearCellVoltages
 926              		.section	.text._write,"ax",%progbits
 927              		.align	2
 928              		.global	_write
 929              		.code	16
 930              		.thumb_func
 931              		.type	_write, %function
 932              	_write:
ARM GAS  /var/folders/9j/_txx49hn253_s3mnzkyxlj8m0000gp/T//cczwRa0h.s 			page 32


 933              	.LFB210:
 497:../lpc11cx4-library/evt_lib/src/ltc6804.c **** 	_wake(config, state, msTicks, false);
 934              		.loc 1 497 0
 935              		.cfi_startproc
 936              	.LVL98:
 937 0000 F8B5     		push	{r3, r4, r5, r6, r7, lr}	@
 938              		.cfi_def_cfa_offset 24
 939              		.cfi_offset 3, -24
 940              		.cfi_offset 4, -20
 941              		.cfi_offset 5, -16
 942              		.cfi_offset 6, -12
 943              		.cfi_offset 7, -8
 944              		.cfi_offset 14, -4
 497:../lpc11cx4-library/evt_lib/src/ltc6804.c **** 	_wake(config, state, msTicks, false);
 945              		.loc 1 497 0
 946 0002 0D1C     		mov	r5, r1	@ state, state
 947 0004 171C     		mov	r7, r2	@ cmd, cmd
 948 0006 1E1C     		mov	r6, r3	@ msTicks, msTicks
 498:../lpc11cx4-library/evt_lib/src/ltc6804.c **** 
 949              		.loc 1 498 0
 950 0008 1A1C     		mov	r2, r3	@, msTicks
 951              	.LVL99:
 952 000a 0023     		mov	r3, #0	@,
 953              	.LVL100:
 497:../lpc11cx4-library/evt_lib/src/ltc6804.c **** 	_wake(config, state, msTicks, false);
 954              		.loc 1 497 0
 955 000c 041C     		mov	r4, r0	@ config, config
 498:../lpc11cx4-library/evt_lib/src/ltc6804.c **** 
 956              		.loc 1 498 0
 957 000e FFF7FEFF 		bl	_wake	@
 958              	.LVL101:
 959              	.LBB62:
 960              	.LBB63:
 621:../lpc11cx4-library/evt_lib/src/ltc6804.c **** 	}
 961              		.loc 1 621 0
 962 0012 8021     		mov	r1, #128	@ tmp174,
 963              	.LBE63:
 964              	.LBE62:
 500:../lpc11cx4-library/evt_lib/src/ltc6804.c **** 	state->tx_buf[1] = cmd & 0xFF;
 965              		.loc 1 500 0
 966 0014 6A68     		ldr	r2, [r5, #4]	@ tmp215, state_3(D)->tx_buf
 967 0016 3B0A     		lsr	r3, r7, #8	@ tmp164, cmd,
 968 0018 1370     		strb	r3, [r2]	@ tmp164, *_6
 501:../lpc11cx4-library/evt_lib/src/ltc6804.c **** 	uint16_t pec = _calculate_pec(state->tx_buf, 2);
 969              		.loc 1 501 0
 970 001a 6B68     		ldr	r3, [r5, #4]	@ tmp216, state_3(D)->tx_buf
 971              	.LBB67:
 972              	.LBB64:
 621:../lpc11cx4-library/evt_lib/src/ltc6804.c **** 	}
 973              		.loc 1 621 0
 974 001c 1C48     		ldr	r0, .L80	@ tmp169,
 975              	.LBE64:
 976              	.LBE67:
 501:../lpc11cx4-library/evt_lib/src/ltc6804.c **** 	uint16_t pec = _calculate_pec(state->tx_buf, 2);
 977              		.loc 1 501 0
 978 001e 5F70     		strb	r7, [r3, #1]	@ cmd, MEM[(uint8_t *)_11 + 1B]
 502:../lpc11cx4-library/evt_lib/src/ltc6804.c **** 	state->tx_buf[2] = pec >> 8;
ARM GAS  /var/folders/9j/_txx49hn253_s3mnzkyxlj8m0000gp/T//cczwRa0h.s 			page 33


 979              		.loc 1 502 0
 980 0020 6A68     		ldr	r2, [r5, #4]	@ D.7768, state_3(D)->tx_buf
 981              	.LVL102:
 982              	.LBB68:
 983              	.LBB65:
 621:../lpc11cx4-library/evt_lib/src/ltc6804.c **** 	}
 984              		.loc 1 621 0
 985 0022 4901     		lsl	r1, r1, #5	@ tmp174, tmp174,
 620:../lpc11cx4-library/evt_lib/src/ltc6804.c **** 		remainder = (remainder<<8)^crc15Table[addr];
 986              		.loc 1 620 0
 987 0024 1378     		ldrb	r3, [r2]	@ addr, *_14
 988              	.LVL103:
 989 0026 5778     		ldrb	r7, [r2, #1]	@ MEM[(uint8_t *)_14 + 1B], MEM[(uint8_t *)_14 + 1B]
 621:../lpc11cx4-library/evt_lib/src/ltc6804.c **** 	}
 990              		.loc 1 621 0
 991 0028 9B00     		lsl	r3, r3, #2	@ tmp170, addr,
 992              	.LVL104:
 993 002a C35A     		ldrh	r3, [r0, r3]	@ tmp173, crc15Table
 994              	.LBE65:
 995              	.LBE68:
 512:../lpc11cx4-library/evt_lib/src/ltc6804.c **** 
 996              		.loc 1 512 0
 997              		@ sp needed	@
 998              	.LBB69:
 999              	.LBB66:
 621:../lpc11cx4-library/evt_lib/src/ltc6804.c **** 	}
 1000              		.loc 1 621 0
 1001 002c 4B40     		eor	r3, r1	@ remainder, tmp174
 1002              	.LVL105:
 1003 002e 1902     		lsl	r1, r3, #8	@ tmp175, remainder,
 620:../lpc11cx4-library/evt_lib/src/ltc6804.c **** 		remainder = (remainder<<8)^crc15Table[addr];
 1004              		.loc 1 620 0
 1005 0030 DB09     		lsr	r3, r3, #7	@ tmp177, remainder,
 1006              	.LVL106:
 1007 0032 7B40     		eor	r3, r7	@ tmp181, MEM[(uint8_t *)_14 + 1B]
 621:../lpc11cx4-library/evt_lib/src/ltc6804.c **** 	}
 1008              		.loc 1 621 0
 1009 0034 FF27     		mov	r7, #255	@ tmp186,
 1010 0036 3B40     		and	r3, r7	@ D.7773, tmp186
 1011 0038 9B00     		lsl	r3, r3, #2	@ tmp188, D.7773,
 1012 003a C35A     		ldrh	r3, [r0, r3]	@ D.7769, crc15Table
 1013              	.LVL107:
 1014 003c 89B2     		uxth	r1, r1	@ D.7769, tmp175
 1015              	.LVL108:
 1016 003e 4B40     		eor	r3, r1	@ tmp191, D.7769
 1017              	.LVL109:
 1018              		.loc 1 623 0
 1019 0040 5B00     		lsl	r3, r3, #1	@ tmp193, tmp191,
 1020 0042 9BB2     		uxth	r3, r3	@ D.7776, tmp193
 1021              	.LBE66:
 1022              	.LBE69:
 503:../lpc11cx4-library/evt_lib/src/ltc6804.c **** 	state->tx_buf[3] = pec & 0xFF;
 1023              		.loc 1 503 0
 1024 0044 190A     		lsr	r1, r3, #8	@ tmp194, D.7776,
 1025              	.LVL110:
 1026 0046 9170     		strb	r1, [r2, #2]	@ tmp194, MEM[(uint8_t *)_14 + 2B]
 1027              	.LVL111:
ARM GAS  /var/folders/9j/_txx49hn253_s3mnzkyxlj8m0000gp/T//cczwRa0h.s 			page 34


 504:../lpc11cx4-library/evt_lib/src/ltc6804.c **** 
 1028              		.loc 1 504 0
 1029 0048 6A68     		ldr	r2, [r5, #4]	@ tmp217, state_3(D)->tx_buf
 1030              	.LVL112:
 1031 004a D370     		strb	r3, [r2, #3]	@ D.7776, MEM[(uint8_t *)_18 + 3B]
 506:../lpc11cx4-library/evt_lib/src/ltc6804.c **** 	Chip_GPIO_SetPinState(LPC_GPIO, config->cs_gpio, config->cs_pin, false);
 1032              		.loc 1 506 0
 1033 004c EE60     		str	r6, [r5, #12]	@ msTicks, state_3(D)->last_message
 1034              	.LVL113:
 1035              	.LBB70:
 1036              	.LBB71:
 1037              		.loc 2 104 0
 1038 004e 0126     		mov	r6, #1	@ tmp200,
 1039              	.LVL114:
 1040 0050 A022     		mov	r2, #160	@ tmp218,
 1041 0052 311C     		mov	r1, r6	@ D.7773, tmp200
 1042 0054 D205     		lsl	r2, r2, #23	@ tmp218, tmp218,
 1043 0056 9446     		mov	ip, r2	@ tmp218, tmp218
 1044 0058 627A     		ldrb	r2, [r4, #9]	@ D.7773,
 1045 005a 237A     		ldrb	r3, [r4, #8]	@ D.7771,
 1046 005c 9140     		lsl	r1, r1, r2	@ D.7773, D.7773, D.7773
 1047 005e 8A00     		lsl	r2, r1, #2	@ tmp201, D.7773,
 1048 0060 0021     		mov	r1, #0	@ tmp202,
 1049 0062 1B04     		lsl	r3, r3, #16	@ D.7771, D.7771,
 1050 0064 6344     		add	r3, r3, ip	@ D.7777, tmp218
 1051 0066 D150     		str	r1, [r2, r3]	@ tmp202, _53->DATA
 1052              	.LVL115:
 1053              	.LBE71:
 1054              	.LBE70:
 508:../lpc11cx4-library/evt_lib/src/ltc6804.c **** 	Chip_GPIO_SetPinState(LPC_GPIO, config->cs_gpio, config->cs_pin, true);
 1055              		.loc 1 508 0
 1056 0068 A27A     		ldrb	r2, [r4, #10]	@ D.7773,
 1057 006a 6968     		ldr	r1, [r5, #4]	@ state_3(D)->tx_buf, state_3(D)->tx_buf
 1058 006c D200     		lsl	r2, r2, #3	@ D.7773, D.7773,
 1059 006e 0432     		add	r2, r2, #4	@ D.7773,
 1060 0070 2068     		ldr	r0, [r4]	@, config_2(D)->pSSP
 1061 0072 FFF7FEFF 		bl	Chip_SSP_WriteFrames_Blocking	@
 1062              	.LVL116:
 1063              	.LBB72:
 1064              	.LBB73:
 1065              		.loc 2 104 0
 1066 0076 A022     		mov	r2, #160	@ tmp221,
 1067 0078 D205     		lsl	r2, r2, #23	@ tmp221, tmp221,
 1068 007a 9446     		mov	ip, r2	@ tmp221, tmp221
 1069 007c 627A     		ldrb	r2, [r4, #9]	@ D.7773,
 1070 007e 237A     		ldrb	r3, [r4, #8]	@ D.7771,
 1071 0080 9640     		lsl	r6, r6, r2	@ D.7773, tmp200, D.7773
 1072 0082 1B04     		lsl	r3, r3, #16	@ D.7771, D.7771,
 1073 0084 B200     		lsl	r2, r6, #2	@ tmp212, D.7773,
 1074 0086 6344     		add	r3, r3, ip	@ D.7777, tmp221
 1075 0088 D650     		str	r6, [r2, r3]	@ D.7773, _57->DATA
 1076              	.LVL117:
 1077              	.LBE73:
 1078              	.LBE72:
 512:../lpc11cx4-library/evt_lib/src/ltc6804.c **** 
 1079              		.loc 1 512 0
 1080 008a 0120     		mov	r0, #1	@,
ARM GAS  /var/folders/9j/_txx49hn253_s3mnzkyxlj8m0000gp/T//cczwRa0h.s 			page 35


 1081              	.LVL118:
 1082              	.LVL119:
 1083 008c F8BD     		pop	{r3, r4, r5, r6, r7, pc}
 1084              	.L81:
 1085 008e C046     		.align	2
 1086              	.L80:
 1087 0090 00000000 		.word	.LANCHOR0
 1088              		.cfi_endproc
 1089              	.LFE210:
 1090              		.size	_write, .-_write
 1091              		.section	.text.LTC6804_WriteCFG,"ax",%progbits
 1092              		.align	2
 1093              		.global	LTC6804_WriteCFG
 1094              		.code	16
 1095              		.thumb_func
 1096              		.type	LTC6804_WriteCFG, %function
 1097              	LTC6804_WriteCFG:
 1098              	.LFB200:
  93:../lpc11cx4-library/evt_lib/src/ltc6804.c **** 	memcpy(state->tx_buf+4, state->cfg, 6);
 1099              		.loc 1 93 0
 1100              		.cfi_startproc
 1101              	.LVL120:
 1102 0000 F8B5     		push	{r3, r4, r5, r6, r7, lr}	@
 1103              		.cfi_def_cfa_offset 24
 1104              		.cfi_offset 3, -24
 1105              		.cfi_offset 4, -20
 1106              		.cfi_offset 5, -16
 1107              		.cfi_offset 6, -12
 1108              		.cfi_offset 7, -8
 1109              		.cfi_offset 14, -4
 1110 0002 4F46     		mov	r7, r9	@,
 1111 0004 4646     		mov	r6, r8	@,
 1112 0006 0C1C     		mov	r4, r1	@ state, state
  94:../lpc11cx4-library/evt_lib/src/ltc6804.c **** 	uint16_t pec = _calculate_pec(state->tx_buf+4, 6);
 1113              		.loc 1 94 0
 1114 0008 4B68     		ldr	r3, [r1, #4]	@ tmp206, state_4(D)->tx_buf
  93:../lpc11cx4-library/evt_lib/src/ltc6804.c **** 	memcpy(state->tx_buf+4, state->cfg, 6);
 1115              		.loc 1 93 0
 1116 000a C0B4     		push	{r6, r7}	@
 1117              		.cfi_def_cfa_offset 32
 1118              		.cfi_offset 8, -32
 1119              		.cfi_offset 9, -28
  93:../lpc11cx4-library/evt_lib/src/ltc6804.c **** 	memcpy(state->tx_buf+4, state->cfg, 6);
 1120              		.loc 1 93 0
 1121 000c 051C     		mov	r5, r0	@ config, config
 1122 000e 9046     		mov	r8, r2	@ msTicks, msTicks
  94:../lpc11cx4-library/evt_lib/src/ltc6804.c **** 	uint16_t pec = _calculate_pec(state->tx_buf+4, 6);
 1123              		.loc 1 94 0
 1124 0010 181D     		add	r0, r3, #4	@ D.7794, tmp206,
 1125              	.LVL121:
 1126 0012 0622     		mov	r2, #6	@,
 1127              	.LVL122:
 1128 0014 4969     		ldr	r1, [r1, #20]	@, state_4(D)->cfg
 1129              	.LVL123:
 1130 0016 FFF7FEFF 		bl	memcpy	@
 1131              	.LVL124:
  95:../lpc11cx4-library/evt_lib/src/ltc6804.c **** 	state->tx_buf[10] = pec >> 8;
ARM GAS  /var/folders/9j/_txx49hn253_s3mnzkyxlj8m0000gp/T//cczwRa0h.s 			page 36


 1132              		.loc 1 95 0
 1133 001a 6368     		ldr	r3, [r4, #4]	@ D.7793, state_4(D)->tx_buf
 1134              	.LBB74:
 1135              	.LBB75:
 620:../lpc11cx4-library/evt_lib/src/ltc6804.c **** 		remainder = (remainder<<8)^crc15Table[addr];
 1136              		.loc 1 620 0
 1137 001c FF20     		mov	r0, #255	@ tmp205,
 1138              	.LBE75:
 1139              	.LBE74:
  95:../lpc11cx4-library/evt_lib/src/ltc6804.c **** 	state->tx_buf[10] = pec >> 8;
 1140              		.loc 1 95 0
 1141 001e 9946     		mov	r9, r3	@ D.7793, D.7793
 1142              	.LVL125:
 1143 0020 1A1D     		add	r2, r3, #4	@ ivtmp.90, D.7793,
 1144              	.LVL126:
 1145 0022 0A23     		mov	r3, #10	@ D.7803,
 1146 0024 4B44     		add	r3, r3, r9	@ D.7803, D.7793
 1147 0026 9C46     		mov	ip, r3	@ D.7803, D.7803
 1148              	.LBB78:
 1149              	.LBB76:
 616:../lpc11cx4-library/evt_lib/src/ltc6804.c **** 	uint8_t i;
 1150              		.loc 1 616 0
 1151 0028 1023     		mov	r3, #16	@ remainder,
 1152 002a 174F     		ldr	r7, .L91	@ tmp204,
 1153              	.LVL127:
 1154              	.L83:
 620:../lpc11cx4-library/evt_lib/src/ltc6804.c **** 		remainder = (remainder<<8)^crc15Table[addr];
 1155              		.loc 1 620 0
 1156 002c 1678     		ldrb	r6, [r2]	@ MEM[base: _75, offset: 0B], MEM[base: _75, offset: 0B]
 621:../lpc11cx4-library/evt_lib/src/ltc6804.c **** 	}
 1157              		.loc 1 621 0
 1158 002e 1902     		lsl	r1, r3, #8	@ tmp170, remainder,
 620:../lpc11cx4-library/evt_lib/src/ltc6804.c **** 		remainder = (remainder<<8)^crc15Table[addr];
 1159              		.loc 1 620 0
 1160 0030 DB09     		lsr	r3, r3, #7	@ tmp174, remainder,
 1161              	.LVL128:
 1162 0032 7340     		eor	r3, r6	@ tmp176, MEM[base: _75, offset: 0B]
 621:../lpc11cx4-library/evt_lib/src/ltc6804.c **** 	}
 1163              		.loc 1 621 0
 1164 0034 0340     		and	r3, r0	@ D.7797, tmp205
 1165 0036 9B00     		lsl	r3, r3, #2	@ tmp183, D.7797,
 1166 0038 FB5A     		ldrh	r3, [r7, r3]	@ D.7795, crc15Table
 1167 003a 89B2     		uxth	r1, r1	@ D.7795, tmp170
 1168 003c 0132     		add	r2, r2, #1	@ ivtmp.90,
 1169              	.LVL129:
 1170 003e 4B40     		eor	r3, r1	@ remainder, D.7795
 1171              	.LVL130:
 618:../lpc11cx4-library/evt_lib/src/ltc6804.c **** 	{
 1172              		.loc 1 618 0
 1173 0040 6245     		cmp	r2, ip	@ ivtmp.90, D.7803
 1174 0042 F3D1     		bne	.L83	@,
 1175              	.LBE76:
 1176              	.LBE78:
  96:../lpc11cx4-library/evt_lib/src/ltc6804.c **** 	state->tx_buf[11] = pec & 0xFF;
 1177              		.loc 1 96 0
 1178 0044 4946     		mov	r1, r9	@ D.7793, D.7793
 1179              	.LBB79:
ARM GAS  /var/folders/9j/_txx49hn253_s3mnzkyxlj8m0000gp/T//cczwRa0h.s 			page 37


 1180              	.LBB77:
 1181              		.loc 1 623 0
 1182 0046 5B00     		lsl	r3, r3, #1	@ tmp188, remainder,
 1183              	.LVL131:
 1184 0048 9BB2     		uxth	r3, r3	@ D.7802, tmp188
 1185              	.LBE77:
 1186              	.LBE79:
  96:../lpc11cx4-library/evt_lib/src/ltc6804.c **** 	state->tx_buf[11] = pec & 0xFF;
 1187              		.loc 1 96 0
 1188 004a 1A0A     		lsr	r2, r3, #8	@ tmp189, D.7802,
 1189 004c 8A72     		strb	r2, [r1, #10]	@ tmp189, MEM[(uint8_t *)_9 + 10B]
  97:../lpc11cx4-library/evt_lib/src/ltc6804.c **** 
 1190              		.loc 1 97 0
 1191 004e 6268     		ldr	r2, [r4, #4]	@ tmp211, state_4(D)->tx_buf
 100:../lpc11cx4-library/evt_lib/src/ltc6804.c **** 		memcpy(state->tx_buf+4+8*i, state->tx_buf+4, 8);
 1192              		.loc 1 100 0
 1193 0050 0426     		mov	r6, #4	@ ivtmp.82,
  97:../lpc11cx4-library/evt_lib/src/ltc6804.c **** 
 1194              		.loc 1 97 0
 1195 0052 D372     		strb	r3, [r2, #11]	@ D.7802, MEM[(uint8_t *)_13 + 11B]
 1196              	.LVL132:
 100:../lpc11cx4-library/evt_lib/src/ltc6804.c **** 		memcpy(state->tx_buf+4+8*i, state->tx_buf+4, 8);
 1197              		.loc 1 100 0
 1198 0054 AB7A     		ldrb	r3, [r5, #10]	@ tmp192,
 1199 0056 0027     		mov	r7, #0	@ i,
 1200 0058 002B     		cmp	r3, #0	@ tmp192,
 1201 005a 0AD0     		beq	.L85	@,
 1202              	.LVL133:
 1203              	.L87:
 101:../lpc11cx4-library/evt_lib/src/ltc6804.c **** 	}
 1204              		.loc 1 101 0 discriminator 3
 1205 005c 6168     		ldr	r1, [r4, #4]	@ D.7793, state_4(D)->tx_buf
 1206 005e 0822     		mov	r2, #8	@,
 1207 0060 8819     		add	r0, r1, r6	@ D.7793, D.7793, ivtmp.82
 1208 0062 0431     		add	r1, r1, #4	@ D.7798,
 1209 0064 FFF7FEFF 		bl	memcpy	@
 1210              	.LVL134:
 100:../lpc11cx4-library/evt_lib/src/ltc6804.c **** 		memcpy(state->tx_buf+4+8*i, state->tx_buf+4, 8);
 1211              		.loc 1 100 0 discriminator 3
 1212 0068 AB7A     		ldrb	r3, [r5, #10]	@ D.7797,
 1213 006a 0137     		add	r7, r7, #1	@ i,
 1214              	.LVL135:
 1215 006c 0836     		add	r6, r6, #8	@ ivtmp.82,
 1216 006e BB42     		cmp	r3, r7	@ D.7797, i
 1217 0070 F4DC     		bgt	.L87	@,
 1218              	.LVL136:
 1219              	.L85:
 104:../lpc11cx4-library/evt_lib/src/ltc6804.c **** }
 1220              		.loc 1 104 0
 1221 0072 281C     		mov	r0, r5	@, config
 1222 0074 4346     		mov	r3, r8	@, msTicks
 1223 0076 211C     		mov	r1, r4	@, state
 1224 0078 0122     		mov	r2, #1	@,
 1225 007a FFF7FEFF 		bl	_write	@
 1226              	.LVL137:
 105:../lpc11cx4-library/evt_lib/src/ltc6804.c **** 
 1227              		.loc 1 105 0
ARM GAS  /var/folders/9j/_txx49hn253_s3mnzkyxlj8m0000gp/T//cczwRa0h.s 			page 38


 1228              		@ sp needed	@
 1229              	.LVL138:
 1230              	.LVL139:
 1231              	.LVL140:
 1232              	.LVL141:
 1233 007e 0CBC     		pop	{r2, r3}
 1234 0080 9046     		mov	r8, r2
 1235 0082 9946     		mov	r9, r3
 1236 0084 F8BD     		pop	{r3, r4, r5, r6, r7, pc}
 1237              	.L92:
 1238 0086 C046     		.align	2
 1239              	.L91:
 1240 0088 00000000 		.word	.LANCHOR0
 1241              		.cfi_endproc
 1242              	.LFE200:
 1243              		.size	LTC6804_WriteCFG, .-LTC6804_WriteCFG
 1244              		.global	__aeabi_uidiv
 1245              		.section	.text.LTC6804_Init,"ax",%progbits
 1246              		.align	2
 1247              		.global	LTC6804_Init
 1248              		.code	16
 1249              		.thumb_func
 1250              		.type	LTC6804_Init, %function
 1251              	LTC6804_Init:
 1252              	.LFB199:
  48:../lpc11cx4-library/evt_lib/src/ltc6804.c **** 	Chip_GPIO_WriteDirBit(LPC_GPIO, config->cs_gpio, config->cs_pin, true);
 1253              		.loc 1 48 0
 1254              		.cfi_startproc
 1255              	.LVL142:
 1256 0000 F8B5     		push	{r3, r4, r5, r6, r7, lr}	@
 1257              		.cfi_def_cfa_offset 24
 1258              		.cfi_offset 3, -24
 1259              		.cfi_offset 4, -20
 1260              		.cfi_offset 5, -16
 1261              		.cfi_offset 6, -12
 1262              		.cfi_offset 7, -8
 1263              		.cfi_offset 14, -4
  48:../lpc11cx4-library/evt_lib/src/ltc6804.c **** 	Chip_GPIO_WriteDirBit(LPC_GPIO, config->cs_gpio, config->cs_pin, true);
 1264              		.loc 1 48 0
 1265 0002 0C1C     		mov	r4, r1	@ state, state
 1266 0004 051C     		mov	r5, r0	@ config, config
 1267 0006 161C     		mov	r6, r2	@ msTicks, msTicks
  49:../lpc11cx4-library/evt_lib/src/ltc6804.c **** 	Chip_GPIO_SetPinState(LPC_GPIO, config->cs_gpio, config->cs_pin, true);
 1268              		.loc 1 49 0
 1269 0008 017A     		ldrb	r1, [r0, #8]	@ D.7815,
 1270              	.LVL143:
 1271 000a 427A     		ldrb	r2, [r0, #9]	@ tmp177,
 1272              	.LVL144:
 1273 000c A020     		mov	r0, #160	@,
 1274              	.LVL145:
 1275 000e 0123     		mov	r3, #1	@,
 1276 0010 C005     		lsl	r0, r0, #23	@,,
 1277 0012 FFF7FEFF 		bl	Chip_GPIO_WriteDirBit	@
 1278              	.LVL146:
 1279              	.LBB80:
 1280              	.LBB81:
 1281              		.loc 2 104 0
ARM GAS  /var/folders/9j/_txx49hn253_s3mnzkyxlj8m0000gp/T//cczwRa0h.s 			page 39


 1282 0016 A022     		mov	r2, #160	@ tmp277,
 1283 0018 D205     		lsl	r2, r2, #23	@ tmp277, tmp277,
 1284 001a 9446     		mov	ip, r2	@ tmp277, tmp277
 1285 001c 0122     		mov	r2, #1	@ tmp181,
 1286 001e 697A     		ldrb	r1, [r5, #9]	@ D.7820,
 1287 0020 2B7A     		ldrb	r3, [r5, #8]	@ D.7826,
 1288 0022 8A40     		lsl	r2, r2, r1	@ D.7820, tmp181, D.7820
 1289 0024 1B04     		lsl	r3, r3, #16	@ D.7826, D.7826,
 1290 0026 6344     		add	r3, r3, ip	@ D.7827, tmp277
 1291 0028 9100     		lsl	r1, r2, #2	@ tmp182, D.7820,
 1292 002a CA50     		str	r2, [r1, r3]	@ D.7820, _85->DATA
 1293              	.LVL147:
 1294              	.LBE81:
 1295              	.LBE80:
  52:../lpc11cx4-library/evt_lib/src/ltc6804.c **** 	Chip_SSP_SetBitRate(config->pSSP, config->baud);
 1296              		.loc 1 52 0
 1297 002c 2868     		ldr	r0, [r5]	@, config_2(D)->pSSP
 1298 002e FFF7FEFF 		bl	Chip_SSP_Init	@
 1299              	.LVL148:
  53:../lpc11cx4-library/evt_lib/src/ltc6804.c **** 	Chip_SSP_SetFormat(config->pSSP, SSP_BITS_8, SSP_FRAMEFORMAT_SPI, SSP_CLOCK_MODE3);
 1300              		.loc 1 53 0
 1301 0032 2868     		ldr	r0, [r5]	@, config_2(D)->pSSP
 1302 0034 6968     		ldr	r1, [r5, #4]	@, config_2(D)->baud
 1303 0036 FFF7FEFF 		bl	Chip_SSP_SetBitRate	@
 1304              	.LVL149:
 1305              	.LBB82:
 1306              	.LBB83:
 1307              		.file 3 "../lpc11cx4-library/lpc_chip_11cxx_lib/inc/ssp_11xx.h"
   1:../lpc11cx4-library/lpc_chip_11cxx_lib/inc/ssp_11xx.h **** /*
   2:../lpc11cx4-library/lpc_chip_11cxx_lib/inc/ssp_11xx.h ****  * @brief LPC11xx SSP Registers and control functions
   3:../lpc11cx4-library/lpc_chip_11cxx_lib/inc/ssp_11xx.h ****  *
   4:../lpc11cx4-library/lpc_chip_11cxx_lib/inc/ssp_11xx.h ****  * @note
   5:../lpc11cx4-library/lpc_chip_11cxx_lib/inc/ssp_11xx.h ****  * Copyright(C) NXP Semiconductors, 2012
   6:../lpc11cx4-library/lpc_chip_11cxx_lib/inc/ssp_11xx.h ****  * All rights reserved.
   7:../lpc11cx4-library/lpc_chip_11cxx_lib/inc/ssp_11xx.h ****  *
   8:../lpc11cx4-library/lpc_chip_11cxx_lib/inc/ssp_11xx.h ****  * @par
   9:../lpc11cx4-library/lpc_chip_11cxx_lib/inc/ssp_11xx.h ****  * Software that is described herein is for illustrative purposes only
  10:../lpc11cx4-library/lpc_chip_11cxx_lib/inc/ssp_11xx.h ****  * which provides customers with programming information regarding the
  11:../lpc11cx4-library/lpc_chip_11cxx_lib/inc/ssp_11xx.h ****  * LPC products.  This software is supplied "AS IS" without any warranties of
  12:../lpc11cx4-library/lpc_chip_11cxx_lib/inc/ssp_11xx.h ****  * any kind, and NXP Semiconductors and its licensor disclaim any and
  13:../lpc11cx4-library/lpc_chip_11cxx_lib/inc/ssp_11xx.h ****  * all warranties, express or implied, including all implied warranties of
  14:../lpc11cx4-library/lpc_chip_11cxx_lib/inc/ssp_11xx.h ****  * merchantability, fitness for a particular purpose and non-infringement of
  15:../lpc11cx4-library/lpc_chip_11cxx_lib/inc/ssp_11xx.h ****  * intellectual property rights.  NXP Semiconductors assumes no responsibility
  16:../lpc11cx4-library/lpc_chip_11cxx_lib/inc/ssp_11xx.h ****  * or liability for the use of the software, conveys no license or rights under any
  17:../lpc11cx4-library/lpc_chip_11cxx_lib/inc/ssp_11xx.h ****  * patent, copyright, mask work right, or any other intellectual property rights in
  18:../lpc11cx4-library/lpc_chip_11cxx_lib/inc/ssp_11xx.h ****  * or to any products. NXP Semiconductors reserves the right to make changes
  19:../lpc11cx4-library/lpc_chip_11cxx_lib/inc/ssp_11xx.h ****  * in the software without notification. NXP Semiconductors also makes no
  20:../lpc11cx4-library/lpc_chip_11cxx_lib/inc/ssp_11xx.h ****  * representation or warranty that such application will be suitable for the
  21:../lpc11cx4-library/lpc_chip_11cxx_lib/inc/ssp_11xx.h ****  * specified use without further testing or modification.
  22:../lpc11cx4-library/lpc_chip_11cxx_lib/inc/ssp_11xx.h ****  *
  23:../lpc11cx4-library/lpc_chip_11cxx_lib/inc/ssp_11xx.h ****  * @par
  24:../lpc11cx4-library/lpc_chip_11cxx_lib/inc/ssp_11xx.h ****  * Permission to use, copy, modify, and distribute this software and its
  25:../lpc11cx4-library/lpc_chip_11cxx_lib/inc/ssp_11xx.h ****  * documentation is hereby granted, under NXP Semiconductors' and its
  26:../lpc11cx4-library/lpc_chip_11cxx_lib/inc/ssp_11xx.h ****  * licensor's relevant copyrights in the software, without fee, provided that it
  27:../lpc11cx4-library/lpc_chip_11cxx_lib/inc/ssp_11xx.h ****  * is used in conjunction with NXP Semiconductors microcontrollers.  This
  28:../lpc11cx4-library/lpc_chip_11cxx_lib/inc/ssp_11xx.h ****  * copyright, permission, and disclaimer notice must appear in all copies of
  29:../lpc11cx4-library/lpc_chip_11cxx_lib/inc/ssp_11xx.h ****  * this code.
ARM GAS  /var/folders/9j/_txx49hn253_s3mnzkyxlj8m0000gp/T//cczwRa0h.s 			page 40


  30:../lpc11cx4-library/lpc_chip_11cxx_lib/inc/ssp_11xx.h ****  */
  31:../lpc11cx4-library/lpc_chip_11cxx_lib/inc/ssp_11xx.h **** 
  32:../lpc11cx4-library/lpc_chip_11cxx_lib/inc/ssp_11xx.h **** #ifndef __SSP_11XX_H_
  33:../lpc11cx4-library/lpc_chip_11cxx_lib/inc/ssp_11xx.h **** #define __SSP_11XX_H_
  34:../lpc11cx4-library/lpc_chip_11cxx_lib/inc/ssp_11xx.h **** 
  35:../lpc11cx4-library/lpc_chip_11cxx_lib/inc/ssp_11xx.h **** #ifdef __cplusplus
  36:../lpc11cx4-library/lpc_chip_11cxx_lib/inc/ssp_11xx.h **** extern "C" {
  37:../lpc11cx4-library/lpc_chip_11cxx_lib/inc/ssp_11xx.h **** #endif
  38:../lpc11cx4-library/lpc_chip_11cxx_lib/inc/ssp_11xx.h **** 
  39:../lpc11cx4-library/lpc_chip_11cxx_lib/inc/ssp_11xx.h **** /** @defgroup SSP_11XX CHIP: LPC11xx SSP register block and driver
  40:../lpc11cx4-library/lpc_chip_11cxx_lib/inc/ssp_11xx.h ****  * @ingroup CHIP_11XX_Drivers
  41:../lpc11cx4-library/lpc_chip_11cxx_lib/inc/ssp_11xx.h ****  * @{
  42:../lpc11cx4-library/lpc_chip_11cxx_lib/inc/ssp_11xx.h ****  */
  43:../lpc11cx4-library/lpc_chip_11cxx_lib/inc/ssp_11xx.h **** 
  44:../lpc11cx4-library/lpc_chip_11cxx_lib/inc/ssp_11xx.h **** /**
  45:../lpc11cx4-library/lpc_chip_11cxx_lib/inc/ssp_11xx.h ****  * @brief SSP register block structure
  46:../lpc11cx4-library/lpc_chip_11cxx_lib/inc/ssp_11xx.h ****  */
  47:../lpc11cx4-library/lpc_chip_11cxx_lib/inc/ssp_11xx.h **** typedef struct {			/*!< SSPn Structure         */
  48:../lpc11cx4-library/lpc_chip_11cxx_lib/inc/ssp_11xx.h **** 	__IO uint32_t CR0;		/*!< Control Register 0. Selects the serial clock rate, bus type, and data siz
  49:../lpc11cx4-library/lpc_chip_11cxx_lib/inc/ssp_11xx.h **** 	__IO uint32_t CR1;		/*!< Control Register 1. Selects master/slave and other modes. */
  50:../lpc11cx4-library/lpc_chip_11cxx_lib/inc/ssp_11xx.h **** 	__IO uint32_t DR;		/*!< Data Register. Writes fill the transmit FIFO, and reads empty the receive 
  51:../lpc11cx4-library/lpc_chip_11cxx_lib/inc/ssp_11xx.h **** 	__I  uint32_t SR;		/*!< Status Register        */
  52:../lpc11cx4-library/lpc_chip_11cxx_lib/inc/ssp_11xx.h **** 	__IO uint32_t CPSR;		/*!< Clock Prescale Register */
  53:../lpc11cx4-library/lpc_chip_11cxx_lib/inc/ssp_11xx.h **** 	__IO uint32_t IMSC;		/*!< Interrupt Mask Set and Clear Register */
  54:../lpc11cx4-library/lpc_chip_11cxx_lib/inc/ssp_11xx.h **** 	__I  uint32_t RIS;		/*!< Raw Interrupt Status Register */
  55:../lpc11cx4-library/lpc_chip_11cxx_lib/inc/ssp_11xx.h **** 	__I  uint32_t MIS;		/*!< Masked Interrupt Status Register */
  56:../lpc11cx4-library/lpc_chip_11cxx_lib/inc/ssp_11xx.h **** 	__O  uint32_t ICR;		/*!< SSPICR Interrupt Clear Register */
  57:../lpc11cx4-library/lpc_chip_11cxx_lib/inc/ssp_11xx.h **** } LPC_SSP_T;
  58:../lpc11cx4-library/lpc_chip_11cxx_lib/inc/ssp_11xx.h **** 
  59:../lpc11cx4-library/lpc_chip_11cxx_lib/inc/ssp_11xx.h **** /**
  60:../lpc11cx4-library/lpc_chip_11cxx_lib/inc/ssp_11xx.h ****  * Macro defines for CR0 register
  61:../lpc11cx4-library/lpc_chip_11cxx_lib/inc/ssp_11xx.h ****  */
  62:../lpc11cx4-library/lpc_chip_11cxx_lib/inc/ssp_11xx.h **** 
  63:../lpc11cx4-library/lpc_chip_11cxx_lib/inc/ssp_11xx.h **** /** SSP data size select, must be 4 bits to 16 bits */
  64:../lpc11cx4-library/lpc_chip_11cxx_lib/inc/ssp_11xx.h **** #define SSP_CR0_DSS(n)          ((uint32_t) ((n) & 0xF))
  65:../lpc11cx4-library/lpc_chip_11cxx_lib/inc/ssp_11xx.h **** /** SSP control 0 Motorola SPI mode */
  66:../lpc11cx4-library/lpc_chip_11cxx_lib/inc/ssp_11xx.h **** #define SSP_CR0_FRF_SPI         ((uint32_t) (0 << 4))
  67:../lpc11cx4-library/lpc_chip_11cxx_lib/inc/ssp_11xx.h **** /** SSP control 0 TI synchronous serial mode */
  68:../lpc11cx4-library/lpc_chip_11cxx_lib/inc/ssp_11xx.h **** #define SSP_CR0_FRF_TI          ((uint32_t) (1 << 4))
  69:../lpc11cx4-library/lpc_chip_11cxx_lib/inc/ssp_11xx.h **** /** SSP control 0 National Micro-wire mode */
  70:../lpc11cx4-library/lpc_chip_11cxx_lib/inc/ssp_11xx.h **** #define SSP_CR0_FRF_MICROWIRE   ((uint32_t) (2 << 4))
  71:../lpc11cx4-library/lpc_chip_11cxx_lib/inc/ssp_11xx.h **** /** SPI clock polarity bit (used in SPI mode only), (1) = maintains the
  72:../lpc11cx4-library/lpc_chip_11cxx_lib/inc/ssp_11xx.h ****    bus clock high between frames, (0) = low */
  73:../lpc11cx4-library/lpc_chip_11cxx_lib/inc/ssp_11xx.h **** #define SSP_CR0_CPOL_LO     ((uint32_t) (0))
  74:../lpc11cx4-library/lpc_chip_11cxx_lib/inc/ssp_11xx.h **** #define SSP_CR0_CPOL_HI     ((uint32_t) (1 << 6))
  75:../lpc11cx4-library/lpc_chip_11cxx_lib/inc/ssp_11xx.h **** /** SPI clock out phase bit (used in SPI mode only), (1) = captures data
  76:../lpc11cx4-library/lpc_chip_11cxx_lib/inc/ssp_11xx.h ****    on the second clock transition of the frame, (0) = first */
  77:../lpc11cx4-library/lpc_chip_11cxx_lib/inc/ssp_11xx.h **** #define SSP_CR0_CPHA_FIRST  ((uint32_t) (0))
  78:../lpc11cx4-library/lpc_chip_11cxx_lib/inc/ssp_11xx.h **** #define SSP_CR0_CPHA_SECOND ((uint32_t) (1 << 7))
  79:../lpc11cx4-library/lpc_chip_11cxx_lib/inc/ssp_11xx.h **** /** SSP serial clock rate value load macro, divider rate is
  80:../lpc11cx4-library/lpc_chip_11cxx_lib/inc/ssp_11xx.h ****    PERIPH_CLK / (cpsr * (SCR + 1)) */
  81:../lpc11cx4-library/lpc_chip_11cxx_lib/inc/ssp_11xx.h **** #define SSP_CR0_SCR(n)      ((uint32_t) ((n & 0xFF) << 8))
  82:../lpc11cx4-library/lpc_chip_11cxx_lib/inc/ssp_11xx.h **** /** SSP CR0 bit mask */
  83:../lpc11cx4-library/lpc_chip_11cxx_lib/inc/ssp_11xx.h **** #define SSP_CR0_BITMASK     ((uint32_t) (0xFFFF))
  84:../lpc11cx4-library/lpc_chip_11cxx_lib/inc/ssp_11xx.h **** /** SSP CR0 bit mask */
  85:../lpc11cx4-library/lpc_chip_11cxx_lib/inc/ssp_11xx.h **** #define SSP_CR0_BITMASK     ((uint32_t) (0xFFFF))
  86:../lpc11cx4-library/lpc_chip_11cxx_lib/inc/ssp_11xx.h **** /** SSP serial clock rate value load macro, divider rate is
ARM GAS  /var/folders/9j/_txx49hn253_s3mnzkyxlj8m0000gp/T//cczwRa0h.s 			page 41


  87:../lpc11cx4-library/lpc_chip_11cxx_lib/inc/ssp_11xx.h ****    PERIPH_CLK / (cpsr * (SCR + 1)) */
  88:../lpc11cx4-library/lpc_chip_11cxx_lib/inc/ssp_11xx.h **** #define SSP_CR0_SCR(n)      ((uint32_t) ((n & 0xFF) << 8))
  89:../lpc11cx4-library/lpc_chip_11cxx_lib/inc/ssp_11xx.h **** 
  90:../lpc11cx4-library/lpc_chip_11cxx_lib/inc/ssp_11xx.h **** /**
  91:../lpc11cx4-library/lpc_chip_11cxx_lib/inc/ssp_11xx.h ****  * Macro defines for CR1 register
  92:../lpc11cx4-library/lpc_chip_11cxx_lib/inc/ssp_11xx.h ****  */
  93:../lpc11cx4-library/lpc_chip_11cxx_lib/inc/ssp_11xx.h **** 
  94:../lpc11cx4-library/lpc_chip_11cxx_lib/inc/ssp_11xx.h **** /** SSP control 1 loopback mode enable bit */
  95:../lpc11cx4-library/lpc_chip_11cxx_lib/inc/ssp_11xx.h **** #define SSP_CR1_LBM_EN      ((uint32_t) (1 << 0))
  96:../lpc11cx4-library/lpc_chip_11cxx_lib/inc/ssp_11xx.h **** /** SSP control 1 enable bit */
  97:../lpc11cx4-library/lpc_chip_11cxx_lib/inc/ssp_11xx.h **** #define SSP_CR1_SSP_EN      ((uint32_t) (1 << 1))
  98:../lpc11cx4-library/lpc_chip_11cxx_lib/inc/ssp_11xx.h **** /** SSP control 1 slave enable */
  99:../lpc11cx4-library/lpc_chip_11cxx_lib/inc/ssp_11xx.h **** #define SSP_CR1_SLAVE_EN    ((uint32_t) (1 << 2))
 100:../lpc11cx4-library/lpc_chip_11cxx_lib/inc/ssp_11xx.h **** #define SSP_CR1_MASTER_EN   ((uint32_t) (0))
 101:../lpc11cx4-library/lpc_chip_11cxx_lib/inc/ssp_11xx.h **** /** SSP control 1 slave out disable bit, disables transmit line in slave
 102:../lpc11cx4-library/lpc_chip_11cxx_lib/inc/ssp_11xx.h ****    mode */
 103:../lpc11cx4-library/lpc_chip_11cxx_lib/inc/ssp_11xx.h **** #define SSP_CR1_SO_DISABLE  ((uint32_t) (1 << 3))
 104:../lpc11cx4-library/lpc_chip_11cxx_lib/inc/ssp_11xx.h **** /** SSP CR1 bit mask */
 105:../lpc11cx4-library/lpc_chip_11cxx_lib/inc/ssp_11xx.h **** #define SSP_CR1_BITMASK     ((uint32_t) (0x0F))
 106:../lpc11cx4-library/lpc_chip_11cxx_lib/inc/ssp_11xx.h **** 
 107:../lpc11cx4-library/lpc_chip_11cxx_lib/inc/ssp_11xx.h **** /** SSP CPSR bit mask */
 108:../lpc11cx4-library/lpc_chip_11cxx_lib/inc/ssp_11xx.h **** #define SSP_CPSR_BITMASK    ((uint32_t) (0xFF))
 109:../lpc11cx4-library/lpc_chip_11cxx_lib/inc/ssp_11xx.h **** /**
 110:../lpc11cx4-library/lpc_chip_11cxx_lib/inc/ssp_11xx.h ****  * Macro defines for DR register
 111:../lpc11cx4-library/lpc_chip_11cxx_lib/inc/ssp_11xx.h ****  */
 112:../lpc11cx4-library/lpc_chip_11cxx_lib/inc/ssp_11xx.h **** 
 113:../lpc11cx4-library/lpc_chip_11cxx_lib/inc/ssp_11xx.h **** /** SSP data bit mask */
 114:../lpc11cx4-library/lpc_chip_11cxx_lib/inc/ssp_11xx.h **** #define SSP_DR_BITMASK(n)   ((n) & 0xFFFF)
 115:../lpc11cx4-library/lpc_chip_11cxx_lib/inc/ssp_11xx.h **** 
 116:../lpc11cx4-library/lpc_chip_11cxx_lib/inc/ssp_11xx.h **** /**
 117:../lpc11cx4-library/lpc_chip_11cxx_lib/inc/ssp_11xx.h ****  * Macro defines for SR register
 118:../lpc11cx4-library/lpc_chip_11cxx_lib/inc/ssp_11xx.h ****  */
 119:../lpc11cx4-library/lpc_chip_11cxx_lib/inc/ssp_11xx.h **** 
 120:../lpc11cx4-library/lpc_chip_11cxx_lib/inc/ssp_11xx.h **** /** SSP SR bit mask */
 121:../lpc11cx4-library/lpc_chip_11cxx_lib/inc/ssp_11xx.h **** #define SSP_SR_BITMASK  ((uint32_t) (0x1F))
 122:../lpc11cx4-library/lpc_chip_11cxx_lib/inc/ssp_11xx.h **** 
 123:../lpc11cx4-library/lpc_chip_11cxx_lib/inc/ssp_11xx.h **** /** ICR bit mask */
 124:../lpc11cx4-library/lpc_chip_11cxx_lib/inc/ssp_11xx.h **** #define SSP_ICR_BITMASK ((uint32_t) (0x03))
 125:../lpc11cx4-library/lpc_chip_11cxx_lib/inc/ssp_11xx.h **** 
 126:../lpc11cx4-library/lpc_chip_11cxx_lib/inc/ssp_11xx.h **** /**
 127:../lpc11cx4-library/lpc_chip_11cxx_lib/inc/ssp_11xx.h ****  * @brief SSP Type of Status
 128:../lpc11cx4-library/lpc_chip_11cxx_lib/inc/ssp_11xx.h ****  */
 129:../lpc11cx4-library/lpc_chip_11cxx_lib/inc/ssp_11xx.h **** typedef enum _SSP_STATUS {
 130:../lpc11cx4-library/lpc_chip_11cxx_lib/inc/ssp_11xx.h **** 	SSP_STAT_TFE = ((uint32_t)(1 << 0)),/**< TX FIFO Empty */
 131:../lpc11cx4-library/lpc_chip_11cxx_lib/inc/ssp_11xx.h **** 	SSP_STAT_TNF = ((uint32_t)(1 << 1)),/**< TX FIFO not full */
 132:../lpc11cx4-library/lpc_chip_11cxx_lib/inc/ssp_11xx.h **** 	SSP_STAT_RNE = ((uint32_t)(1 << 2)),/**< RX FIFO not empty */
 133:../lpc11cx4-library/lpc_chip_11cxx_lib/inc/ssp_11xx.h **** 	SSP_STAT_RFF = ((uint32_t)(1 << 3)),/**< RX FIFO full */
 134:../lpc11cx4-library/lpc_chip_11cxx_lib/inc/ssp_11xx.h **** 	SSP_STAT_BSY = ((uint32_t)(1 << 4)),/**< SSP Busy */
 135:../lpc11cx4-library/lpc_chip_11cxx_lib/inc/ssp_11xx.h **** } SSP_STATUS_T;
 136:../lpc11cx4-library/lpc_chip_11cxx_lib/inc/ssp_11xx.h **** 
 137:../lpc11cx4-library/lpc_chip_11cxx_lib/inc/ssp_11xx.h **** /**
 138:../lpc11cx4-library/lpc_chip_11cxx_lib/inc/ssp_11xx.h ****  * @brief SSP Type of Interrupt Mask
 139:../lpc11cx4-library/lpc_chip_11cxx_lib/inc/ssp_11xx.h ****  */
 140:../lpc11cx4-library/lpc_chip_11cxx_lib/inc/ssp_11xx.h **** typedef enum _SSP_INTMASK {
 141:../lpc11cx4-library/lpc_chip_11cxx_lib/inc/ssp_11xx.h **** 	SSP_RORIM = ((uint32_t)(1 << 0)),	/**< Overun */
 142:../lpc11cx4-library/lpc_chip_11cxx_lib/inc/ssp_11xx.h **** 	SSP_RTIM = ((uint32_t)(1 << 1)),/**< TimeOut */
 143:../lpc11cx4-library/lpc_chip_11cxx_lib/inc/ssp_11xx.h **** 	SSP_RXIM = ((uint32_t)(1 << 2)),/**< Rx FIFO is at least half full */
ARM GAS  /var/folders/9j/_txx49hn253_s3mnzkyxlj8m0000gp/T//cczwRa0h.s 			page 42


 144:../lpc11cx4-library/lpc_chip_11cxx_lib/inc/ssp_11xx.h **** 	SSP_TXIM = ((uint32_t)(1 << 3)),/**< Tx FIFO is at least half empty */
 145:../lpc11cx4-library/lpc_chip_11cxx_lib/inc/ssp_11xx.h **** 	SSP_INT_MASK_BITMASK = ((uint32_t)(0xF)),
 146:../lpc11cx4-library/lpc_chip_11cxx_lib/inc/ssp_11xx.h **** } SSP_INTMASK_T;
 147:../lpc11cx4-library/lpc_chip_11cxx_lib/inc/ssp_11xx.h **** 
 148:../lpc11cx4-library/lpc_chip_11cxx_lib/inc/ssp_11xx.h **** /**
 149:../lpc11cx4-library/lpc_chip_11cxx_lib/inc/ssp_11xx.h ****  * @brief SSP Type of Mask Interrupt Status
 150:../lpc11cx4-library/lpc_chip_11cxx_lib/inc/ssp_11xx.h ****  */
 151:../lpc11cx4-library/lpc_chip_11cxx_lib/inc/ssp_11xx.h **** typedef enum _SSP_MASKINTSTATUS {
 152:../lpc11cx4-library/lpc_chip_11cxx_lib/inc/ssp_11xx.h **** 	SSP_RORMIS = ((uint32_t)(1 << 0)),	/**< Overun */
 153:../lpc11cx4-library/lpc_chip_11cxx_lib/inc/ssp_11xx.h **** 	SSP_RTMIS = ((uint32_t)(1 << 1)),	/**< TimeOut */
 154:../lpc11cx4-library/lpc_chip_11cxx_lib/inc/ssp_11xx.h **** 	SSP_RXMIS = ((uint32_t)(1 << 2)),	/**< Rx FIFO is at least half full */
 155:../lpc11cx4-library/lpc_chip_11cxx_lib/inc/ssp_11xx.h **** 	SSP_TXMIS = ((uint32_t)(1 << 3)),	/**< Tx FIFO is at least half empty */
 156:../lpc11cx4-library/lpc_chip_11cxx_lib/inc/ssp_11xx.h **** 	SSP_MASK_INT_STAT_BITMASK = ((uint32_t)(0xF)),
 157:../lpc11cx4-library/lpc_chip_11cxx_lib/inc/ssp_11xx.h **** } SSP_MASKINTSTATUS_T;
 158:../lpc11cx4-library/lpc_chip_11cxx_lib/inc/ssp_11xx.h **** 
 159:../lpc11cx4-library/lpc_chip_11cxx_lib/inc/ssp_11xx.h **** /**
 160:../lpc11cx4-library/lpc_chip_11cxx_lib/inc/ssp_11xx.h ****  * @brief SSP Type of Raw Interrupt Status
 161:../lpc11cx4-library/lpc_chip_11cxx_lib/inc/ssp_11xx.h ****  */
 162:../lpc11cx4-library/lpc_chip_11cxx_lib/inc/ssp_11xx.h **** typedef enum _SSP_RAWINTSTATUS {
 163:../lpc11cx4-library/lpc_chip_11cxx_lib/inc/ssp_11xx.h **** 	SSP_RORRIS = ((uint32_t)(1 << 0)),	/**< Overun */
 164:../lpc11cx4-library/lpc_chip_11cxx_lib/inc/ssp_11xx.h **** 	SSP_RTRIS = ((uint32_t)(1 << 1)),	/**< TimeOut */
 165:../lpc11cx4-library/lpc_chip_11cxx_lib/inc/ssp_11xx.h **** 	SSP_RXRIS = ((uint32_t)(1 << 2)),	/**< Rx FIFO is at least half full */
 166:../lpc11cx4-library/lpc_chip_11cxx_lib/inc/ssp_11xx.h **** 	SSP_TXRIS = ((uint32_t)(1 << 3)),	/**< Tx FIFO is at least half empty */
 167:../lpc11cx4-library/lpc_chip_11cxx_lib/inc/ssp_11xx.h **** 	SSP_RAW_INT_STAT_BITMASK = ((uint32_t)(0xF)),
 168:../lpc11cx4-library/lpc_chip_11cxx_lib/inc/ssp_11xx.h **** } SSP_RAWINTSTATUS_T;
 169:../lpc11cx4-library/lpc_chip_11cxx_lib/inc/ssp_11xx.h **** 
 170:../lpc11cx4-library/lpc_chip_11cxx_lib/inc/ssp_11xx.h **** typedef enum _SSP_INTCLEAR {
 171:../lpc11cx4-library/lpc_chip_11cxx_lib/inc/ssp_11xx.h **** 	SSP_RORIC = 0x0,
 172:../lpc11cx4-library/lpc_chip_11cxx_lib/inc/ssp_11xx.h **** 	SSP_RTIC = 0x1,
 173:../lpc11cx4-library/lpc_chip_11cxx_lib/inc/ssp_11xx.h **** 	SSP_INT_CLEAR_BITMASK = 0x3,
 174:../lpc11cx4-library/lpc_chip_11cxx_lib/inc/ssp_11xx.h **** } SSP_INTCLEAR_T;
 175:../lpc11cx4-library/lpc_chip_11cxx_lib/inc/ssp_11xx.h **** 
 176:../lpc11cx4-library/lpc_chip_11cxx_lib/inc/ssp_11xx.h **** /*
 177:../lpc11cx4-library/lpc_chip_11cxx_lib/inc/ssp_11xx.h ****  * @brief SSP clock format
 178:../lpc11cx4-library/lpc_chip_11cxx_lib/inc/ssp_11xx.h ****  */
 179:../lpc11cx4-library/lpc_chip_11cxx_lib/inc/ssp_11xx.h **** typedef enum CHIP_SSP_CLOCK_FORMAT {
 180:../lpc11cx4-library/lpc_chip_11cxx_lib/inc/ssp_11xx.h **** 	SSP_CLOCK_CPHA0_CPOL0 = (0 << 6),		/**< CPHA = 0, CPOL = 0 */
 181:../lpc11cx4-library/lpc_chip_11cxx_lib/inc/ssp_11xx.h **** 	SSP_CLOCK_CPHA0_CPOL1 = (1u << 6),		/**< CPHA = 0, CPOL = 1 */
 182:../lpc11cx4-library/lpc_chip_11cxx_lib/inc/ssp_11xx.h **** 	SSP_CLOCK_CPHA1_CPOL0 = (2u << 6),		/**< CPHA = 1, CPOL = 0 */
 183:../lpc11cx4-library/lpc_chip_11cxx_lib/inc/ssp_11xx.h **** 	SSP_CLOCK_CPHA1_CPOL1 = (3u << 6),		/**< CPHA = 1, CPOL = 1 */
 184:../lpc11cx4-library/lpc_chip_11cxx_lib/inc/ssp_11xx.h **** 	SSP_CLOCK_MODE0 = SSP_CLOCK_CPHA0_CPOL0,/**< alias */
 185:../lpc11cx4-library/lpc_chip_11cxx_lib/inc/ssp_11xx.h **** 	SSP_CLOCK_MODE1 = SSP_CLOCK_CPHA1_CPOL0,/**< alias */
 186:../lpc11cx4-library/lpc_chip_11cxx_lib/inc/ssp_11xx.h **** 	SSP_CLOCK_MODE2 = SSP_CLOCK_CPHA0_CPOL1,/**< alias */
 187:../lpc11cx4-library/lpc_chip_11cxx_lib/inc/ssp_11xx.h **** 	SSP_CLOCK_MODE3 = SSP_CLOCK_CPHA1_CPOL1,/**< alias */
 188:../lpc11cx4-library/lpc_chip_11cxx_lib/inc/ssp_11xx.h **** } CHIP_SSP_CLOCK_MODE_T;
 189:../lpc11cx4-library/lpc_chip_11cxx_lib/inc/ssp_11xx.h **** 
 190:../lpc11cx4-library/lpc_chip_11cxx_lib/inc/ssp_11xx.h **** /*
 191:../lpc11cx4-library/lpc_chip_11cxx_lib/inc/ssp_11xx.h ****  * @brief SSP frame format
 192:../lpc11cx4-library/lpc_chip_11cxx_lib/inc/ssp_11xx.h ****  */
 193:../lpc11cx4-library/lpc_chip_11cxx_lib/inc/ssp_11xx.h **** typedef enum CHIP_SSP_FRAME_FORMAT {
 194:../lpc11cx4-library/lpc_chip_11cxx_lib/inc/ssp_11xx.h **** 	SSP_FRAMEFORMAT_SPI = (0 << 4),			/**< Frame format: SPI */
 195:../lpc11cx4-library/lpc_chip_11cxx_lib/inc/ssp_11xx.h **** 	CHIP_SSP_FRAME_FORMAT_TI = (1u << 4),			/**< Frame format: TI SSI */
 196:../lpc11cx4-library/lpc_chip_11cxx_lib/inc/ssp_11xx.h **** 	SSP_FRAMEFORMAT_MICROWIRE = (2u << 4),	/**< Frame format: Microwire */
 197:../lpc11cx4-library/lpc_chip_11cxx_lib/inc/ssp_11xx.h **** } CHIP_SSP_FRAME_FORMAT_T;
 198:../lpc11cx4-library/lpc_chip_11cxx_lib/inc/ssp_11xx.h **** 
 199:../lpc11cx4-library/lpc_chip_11cxx_lib/inc/ssp_11xx.h **** /*
 200:../lpc11cx4-library/lpc_chip_11cxx_lib/inc/ssp_11xx.h ****  * @brief Number of bits per frame
ARM GAS  /var/folders/9j/_txx49hn253_s3mnzkyxlj8m0000gp/T//cczwRa0h.s 			page 43


 201:../lpc11cx4-library/lpc_chip_11cxx_lib/inc/ssp_11xx.h ****  */
 202:../lpc11cx4-library/lpc_chip_11cxx_lib/inc/ssp_11xx.h **** typedef enum CHIP_SSP_BITS {
 203:../lpc11cx4-library/lpc_chip_11cxx_lib/inc/ssp_11xx.h **** 	SSP_BITS_4 = (3u << 0),		/*!< 4 bits/frame */
 204:../lpc11cx4-library/lpc_chip_11cxx_lib/inc/ssp_11xx.h **** 	SSP_BITS_5 = (4u << 0),		/*!< 5 bits/frame */
 205:../lpc11cx4-library/lpc_chip_11cxx_lib/inc/ssp_11xx.h **** 	SSP_BITS_6 = (5u << 0),		/*!< 6 bits/frame */
 206:../lpc11cx4-library/lpc_chip_11cxx_lib/inc/ssp_11xx.h **** 	SSP_BITS_7 = (6u << 0),		/*!< 7 bits/frame */
 207:../lpc11cx4-library/lpc_chip_11cxx_lib/inc/ssp_11xx.h **** 	SSP_BITS_8 = (7u << 0),		/*!< 8 bits/frame */
 208:../lpc11cx4-library/lpc_chip_11cxx_lib/inc/ssp_11xx.h **** 	SSP_BITS_9 = (8u << 0),		/*!< 9 bits/frame */
 209:../lpc11cx4-library/lpc_chip_11cxx_lib/inc/ssp_11xx.h **** 	SSP_BITS_10 = (9u << 0),	/*!< 10 bits/frame */
 210:../lpc11cx4-library/lpc_chip_11cxx_lib/inc/ssp_11xx.h **** 	SSP_BITS_11 = (10u << 0),	/*!< 11 bits/frame */
 211:../lpc11cx4-library/lpc_chip_11cxx_lib/inc/ssp_11xx.h **** 	SSP_BITS_12 = (11u << 0),	/*!< 12 bits/frame */
 212:../lpc11cx4-library/lpc_chip_11cxx_lib/inc/ssp_11xx.h **** 	SSP_BITS_13 = (12u << 0),	/*!< 13 bits/frame */
 213:../lpc11cx4-library/lpc_chip_11cxx_lib/inc/ssp_11xx.h **** 	SSP_BITS_14 = (13u << 0),	/*!< 14 bits/frame */
 214:../lpc11cx4-library/lpc_chip_11cxx_lib/inc/ssp_11xx.h **** 	SSP_BITS_15 = (14u << 0),	/*!< 15 bits/frame */
 215:../lpc11cx4-library/lpc_chip_11cxx_lib/inc/ssp_11xx.h **** 	SSP_BITS_16 = (15u << 0),	/*!< 16 bits/frame */
 216:../lpc11cx4-library/lpc_chip_11cxx_lib/inc/ssp_11xx.h **** } CHIP_SSP_BITS_T;
 217:../lpc11cx4-library/lpc_chip_11cxx_lib/inc/ssp_11xx.h **** 
 218:../lpc11cx4-library/lpc_chip_11cxx_lib/inc/ssp_11xx.h **** /*
 219:../lpc11cx4-library/lpc_chip_11cxx_lib/inc/ssp_11xx.h ****  * @brief SSP config format
 220:../lpc11cx4-library/lpc_chip_11cxx_lib/inc/ssp_11xx.h ****  */
 221:../lpc11cx4-library/lpc_chip_11cxx_lib/inc/ssp_11xx.h **** typedef struct SSP_ConfigFormat {
 222:../lpc11cx4-library/lpc_chip_11cxx_lib/inc/ssp_11xx.h **** 	CHIP_SSP_BITS_T bits;					/*!< Format config: bits/frame */
 223:../lpc11cx4-library/lpc_chip_11cxx_lib/inc/ssp_11xx.h **** 	CHIP_SSP_CLOCK_MODE_T clockMode;	/*!< Format config: clock phase/polarity */
 224:../lpc11cx4-library/lpc_chip_11cxx_lib/inc/ssp_11xx.h **** 	CHIP_SSP_FRAME_FORMAT_T frameFormat;	/*!< Format config: SPI/TI/Microwire */
 225:../lpc11cx4-library/lpc_chip_11cxx_lib/inc/ssp_11xx.h **** } SSP_ConfigFormat;
 226:../lpc11cx4-library/lpc_chip_11cxx_lib/inc/ssp_11xx.h **** 
 227:../lpc11cx4-library/lpc_chip_11cxx_lib/inc/ssp_11xx.h **** /**
 228:../lpc11cx4-library/lpc_chip_11cxx_lib/inc/ssp_11xx.h ****  * @brief	Enable SSP operation
 229:../lpc11cx4-library/lpc_chip_11cxx_lib/inc/ssp_11xx.h ****  * @param	pSSP		: The base of SSP peripheral on the chip
 230:../lpc11cx4-library/lpc_chip_11cxx_lib/inc/ssp_11xx.h ****  * @return	 Nothing
 231:../lpc11cx4-library/lpc_chip_11cxx_lib/inc/ssp_11xx.h ****  */
 232:../lpc11cx4-library/lpc_chip_11cxx_lib/inc/ssp_11xx.h **** STATIC INLINE void Chip_SSP_Enable(LPC_SSP_T *pSSP)
 233:../lpc11cx4-library/lpc_chip_11cxx_lib/inc/ssp_11xx.h **** {
 234:../lpc11cx4-library/lpc_chip_11cxx_lib/inc/ssp_11xx.h **** 	pSSP->CR1 |= SSP_CR1_SSP_EN;
 235:../lpc11cx4-library/lpc_chip_11cxx_lib/inc/ssp_11xx.h **** }
 236:../lpc11cx4-library/lpc_chip_11cxx_lib/inc/ssp_11xx.h **** 
 237:../lpc11cx4-library/lpc_chip_11cxx_lib/inc/ssp_11xx.h **** /**
 238:../lpc11cx4-library/lpc_chip_11cxx_lib/inc/ssp_11xx.h ****  * @brief	Disable SSP operation
 239:../lpc11cx4-library/lpc_chip_11cxx_lib/inc/ssp_11xx.h ****  * @param	pSSP		: The base of SSP peripheral on the chip
 240:../lpc11cx4-library/lpc_chip_11cxx_lib/inc/ssp_11xx.h ****  * @return	 Nothing
 241:../lpc11cx4-library/lpc_chip_11cxx_lib/inc/ssp_11xx.h ****  */
 242:../lpc11cx4-library/lpc_chip_11cxx_lib/inc/ssp_11xx.h **** STATIC INLINE void Chip_SSP_Disable(LPC_SSP_T *pSSP)
 243:../lpc11cx4-library/lpc_chip_11cxx_lib/inc/ssp_11xx.h **** {
 244:../lpc11cx4-library/lpc_chip_11cxx_lib/inc/ssp_11xx.h **** 	pSSP->CR1 &= (~SSP_CR1_SSP_EN) & SSP_CR1_BITMASK;
 245:../lpc11cx4-library/lpc_chip_11cxx_lib/inc/ssp_11xx.h **** }
 246:../lpc11cx4-library/lpc_chip_11cxx_lib/inc/ssp_11xx.h **** 
 247:../lpc11cx4-library/lpc_chip_11cxx_lib/inc/ssp_11xx.h **** /**
 248:../lpc11cx4-library/lpc_chip_11cxx_lib/inc/ssp_11xx.h ****  * @brief	Enable loopback mode
 249:../lpc11cx4-library/lpc_chip_11cxx_lib/inc/ssp_11xx.h ****  * @param	pSSP		: The base of SSP peripheral on the chip
 250:../lpc11cx4-library/lpc_chip_11cxx_lib/inc/ssp_11xx.h ****  * @return	 Nothing
 251:../lpc11cx4-library/lpc_chip_11cxx_lib/inc/ssp_11xx.h ****  * @note	Serial input is taken from the serial output (MOSI or MISO) rather
 252:../lpc11cx4-library/lpc_chip_11cxx_lib/inc/ssp_11xx.h ****  * than the serial input pin
 253:../lpc11cx4-library/lpc_chip_11cxx_lib/inc/ssp_11xx.h ****  */
 254:../lpc11cx4-library/lpc_chip_11cxx_lib/inc/ssp_11xx.h **** STATIC INLINE void Chip_SSP_EnableLoopBack(LPC_SSP_T *pSSP)
 255:../lpc11cx4-library/lpc_chip_11cxx_lib/inc/ssp_11xx.h **** {
 256:../lpc11cx4-library/lpc_chip_11cxx_lib/inc/ssp_11xx.h **** 	pSSP->CR1 |= SSP_CR1_LBM_EN;
 257:../lpc11cx4-library/lpc_chip_11cxx_lib/inc/ssp_11xx.h **** }
ARM GAS  /var/folders/9j/_txx49hn253_s3mnzkyxlj8m0000gp/T//cczwRa0h.s 			page 44


 258:../lpc11cx4-library/lpc_chip_11cxx_lib/inc/ssp_11xx.h **** 
 259:../lpc11cx4-library/lpc_chip_11cxx_lib/inc/ssp_11xx.h **** /**
 260:../lpc11cx4-library/lpc_chip_11cxx_lib/inc/ssp_11xx.h ****  * @brief	Disable loopback mode
 261:../lpc11cx4-library/lpc_chip_11cxx_lib/inc/ssp_11xx.h ****  * @param	pSSP		: The base of SSP peripheral on the chip
 262:../lpc11cx4-library/lpc_chip_11cxx_lib/inc/ssp_11xx.h ****  * @return	 Nothing
 263:../lpc11cx4-library/lpc_chip_11cxx_lib/inc/ssp_11xx.h ****  * @note	Serial input is taken from the serial output (MOSI or MISO) rather
 264:../lpc11cx4-library/lpc_chip_11cxx_lib/inc/ssp_11xx.h ****  * than the serial input pin
 265:../lpc11cx4-library/lpc_chip_11cxx_lib/inc/ssp_11xx.h ****  */
 266:../lpc11cx4-library/lpc_chip_11cxx_lib/inc/ssp_11xx.h **** STATIC INLINE void Chip_SSP_DisableLoopBack(LPC_SSP_T *pSSP)
 267:../lpc11cx4-library/lpc_chip_11cxx_lib/inc/ssp_11xx.h **** {
 268:../lpc11cx4-library/lpc_chip_11cxx_lib/inc/ssp_11xx.h **** 	pSSP->CR1 &= (~SSP_CR1_LBM_EN) & SSP_CR1_BITMASK;
 269:../lpc11cx4-library/lpc_chip_11cxx_lib/inc/ssp_11xx.h **** }
 270:../lpc11cx4-library/lpc_chip_11cxx_lib/inc/ssp_11xx.h **** 
 271:../lpc11cx4-library/lpc_chip_11cxx_lib/inc/ssp_11xx.h **** /**
 272:../lpc11cx4-library/lpc_chip_11cxx_lib/inc/ssp_11xx.h ****  * @brief	Get the current status of SSP controller
 273:../lpc11cx4-library/lpc_chip_11cxx_lib/inc/ssp_11xx.h ****  * @param	pSSP	: The base of SSP peripheral on the chip
 274:../lpc11cx4-library/lpc_chip_11cxx_lib/inc/ssp_11xx.h ****  * @param	Stat	: Type of status, should be :
 275:../lpc11cx4-library/lpc_chip_11cxx_lib/inc/ssp_11xx.h ****  *						- SSP_STAT_TFE
 276:../lpc11cx4-library/lpc_chip_11cxx_lib/inc/ssp_11xx.h ****  *						- SSP_STAT_TNF
 277:../lpc11cx4-library/lpc_chip_11cxx_lib/inc/ssp_11xx.h ****  *						- SSP_STAT_RNE
 278:../lpc11cx4-library/lpc_chip_11cxx_lib/inc/ssp_11xx.h ****  *						- SSP_STAT_RFF
 279:../lpc11cx4-library/lpc_chip_11cxx_lib/inc/ssp_11xx.h ****  *						- SSP_STAT_BSY
 280:../lpc11cx4-library/lpc_chip_11cxx_lib/inc/ssp_11xx.h ****  * @return	 SSP controller status, SET or RESET
 281:../lpc11cx4-library/lpc_chip_11cxx_lib/inc/ssp_11xx.h ****  */
 282:../lpc11cx4-library/lpc_chip_11cxx_lib/inc/ssp_11xx.h **** STATIC INLINE FlagStatus Chip_SSP_GetStatus(LPC_SSP_T *pSSP, SSP_STATUS_T Stat)
 283:../lpc11cx4-library/lpc_chip_11cxx_lib/inc/ssp_11xx.h **** {
 284:../lpc11cx4-library/lpc_chip_11cxx_lib/inc/ssp_11xx.h **** 	return (pSSP->SR & Stat) ? SET : RESET;
 285:../lpc11cx4-library/lpc_chip_11cxx_lib/inc/ssp_11xx.h **** }
 286:../lpc11cx4-library/lpc_chip_11cxx_lib/inc/ssp_11xx.h **** 
 287:../lpc11cx4-library/lpc_chip_11cxx_lib/inc/ssp_11xx.h **** /**
 288:../lpc11cx4-library/lpc_chip_11cxx_lib/inc/ssp_11xx.h ****  * @brief	Get the masked interrupt status
 289:../lpc11cx4-library/lpc_chip_11cxx_lib/inc/ssp_11xx.h ****  * @param	pSSP	: The base of SSP peripheral on the chip
 290:../lpc11cx4-library/lpc_chip_11cxx_lib/inc/ssp_11xx.h ****  * @return	 SSP Masked Interrupt Status Register value
 291:../lpc11cx4-library/lpc_chip_11cxx_lib/inc/ssp_11xx.h ****  * @note	The return value contains a 1 for each interrupt condition that is asserted and enabled (m
 292:../lpc11cx4-library/lpc_chip_11cxx_lib/inc/ssp_11xx.h ****  */
 293:../lpc11cx4-library/lpc_chip_11cxx_lib/inc/ssp_11xx.h **** STATIC INLINE uint32_t Chip_SSP_GetIntStatus(LPC_SSP_T *pSSP)
 294:../lpc11cx4-library/lpc_chip_11cxx_lib/inc/ssp_11xx.h **** {
 295:../lpc11cx4-library/lpc_chip_11cxx_lib/inc/ssp_11xx.h **** 	return pSSP->MIS;
 296:../lpc11cx4-library/lpc_chip_11cxx_lib/inc/ssp_11xx.h **** }
 297:../lpc11cx4-library/lpc_chip_11cxx_lib/inc/ssp_11xx.h **** 
 298:../lpc11cx4-library/lpc_chip_11cxx_lib/inc/ssp_11xx.h **** /**
 299:../lpc11cx4-library/lpc_chip_11cxx_lib/inc/ssp_11xx.h ****  * @brief	Get the raw interrupt status
 300:../lpc11cx4-library/lpc_chip_11cxx_lib/inc/ssp_11xx.h ****  * @param	pSSP	: The base of SSP peripheral on the chip
 301:../lpc11cx4-library/lpc_chip_11cxx_lib/inc/ssp_11xx.h ****  * @param	RawInt	: Interrupt condition to be get status, shoud be :
 302:../lpc11cx4-library/lpc_chip_11cxx_lib/inc/ssp_11xx.h ****  *						- SSP_RORRIS
 303:../lpc11cx4-library/lpc_chip_11cxx_lib/inc/ssp_11xx.h ****  *						- SSP_RTRIS
 304:../lpc11cx4-library/lpc_chip_11cxx_lib/inc/ssp_11xx.h ****  *						- SSP_RXRIS
 305:../lpc11cx4-library/lpc_chip_11cxx_lib/inc/ssp_11xx.h ****  *						- SSP_TXRIS
 306:../lpc11cx4-library/lpc_chip_11cxx_lib/inc/ssp_11xx.h ****  * @return	 Raw interrupt status corresponding to interrupt condition , SET or RESET
 307:../lpc11cx4-library/lpc_chip_11cxx_lib/inc/ssp_11xx.h ****  * @note	Get the status of each interrupt condition ,regardless of whether or not the interrupt is 
 308:../lpc11cx4-library/lpc_chip_11cxx_lib/inc/ssp_11xx.h ****  */
 309:../lpc11cx4-library/lpc_chip_11cxx_lib/inc/ssp_11xx.h **** STATIC INLINE IntStatus Chip_SSP_GetRawIntStatus(LPC_SSP_T *pSSP, SSP_RAWINTSTATUS_T RawInt)
 310:../lpc11cx4-library/lpc_chip_11cxx_lib/inc/ssp_11xx.h **** {
 311:../lpc11cx4-library/lpc_chip_11cxx_lib/inc/ssp_11xx.h **** 	return (pSSP->RIS & RawInt) ? SET : RESET;
 312:../lpc11cx4-library/lpc_chip_11cxx_lib/inc/ssp_11xx.h **** }
 313:../lpc11cx4-library/lpc_chip_11cxx_lib/inc/ssp_11xx.h **** 
 314:../lpc11cx4-library/lpc_chip_11cxx_lib/inc/ssp_11xx.h **** /**
ARM GAS  /var/folders/9j/_txx49hn253_s3mnzkyxlj8m0000gp/T//cczwRa0h.s 			page 45


 315:../lpc11cx4-library/lpc_chip_11cxx_lib/inc/ssp_11xx.h ****  * @brief	Get the number of bits transferred in each frame
 316:../lpc11cx4-library/lpc_chip_11cxx_lib/inc/ssp_11xx.h ****  * @param	pSSP	: The base of SSP peripheral on the chip
 317:../lpc11cx4-library/lpc_chip_11cxx_lib/inc/ssp_11xx.h ****  * @return	 the number of bits transferred in each frame minus one
 318:../lpc11cx4-library/lpc_chip_11cxx_lib/inc/ssp_11xx.h ****  * @note	The return value is 0x03 -> 0xF corresponding to 4bit -> 16bit transfer
 319:../lpc11cx4-library/lpc_chip_11cxx_lib/inc/ssp_11xx.h ****  */
 320:../lpc11cx4-library/lpc_chip_11cxx_lib/inc/ssp_11xx.h **** STATIC INLINE uint8_t Chip_SSP_GetDataSize(LPC_SSP_T *pSSP)
 321:../lpc11cx4-library/lpc_chip_11cxx_lib/inc/ssp_11xx.h **** {
 322:../lpc11cx4-library/lpc_chip_11cxx_lib/inc/ssp_11xx.h **** 	return SSP_CR0_DSS(pSSP->CR0);
 323:../lpc11cx4-library/lpc_chip_11cxx_lib/inc/ssp_11xx.h **** }
 324:../lpc11cx4-library/lpc_chip_11cxx_lib/inc/ssp_11xx.h **** 
 325:../lpc11cx4-library/lpc_chip_11cxx_lib/inc/ssp_11xx.h **** /**
 326:../lpc11cx4-library/lpc_chip_11cxx_lib/inc/ssp_11xx.h ****  * @brief	Clear the corresponding interrupt condition(s) in the SSP controller
 327:../lpc11cx4-library/lpc_chip_11cxx_lib/inc/ssp_11xx.h ****  * @param	pSSP	: The base of SSP peripheral on the chip
 328:../lpc11cx4-library/lpc_chip_11cxx_lib/inc/ssp_11xx.h ****  * @param	IntClear: Type of cleared interrupt, should be :
 329:../lpc11cx4-library/lpc_chip_11cxx_lib/inc/ssp_11xx.h ****  *						- SSP_RORIC
 330:../lpc11cx4-library/lpc_chip_11cxx_lib/inc/ssp_11xx.h ****  *						- SSP_RTIC
 331:../lpc11cx4-library/lpc_chip_11cxx_lib/inc/ssp_11xx.h ****  * @return	 Nothing
 332:../lpc11cx4-library/lpc_chip_11cxx_lib/inc/ssp_11xx.h ****  * @note	Software can clear one or more interrupt condition(s) in the SSP controller
 333:../lpc11cx4-library/lpc_chip_11cxx_lib/inc/ssp_11xx.h ****  */
 334:../lpc11cx4-library/lpc_chip_11cxx_lib/inc/ssp_11xx.h **** STATIC INLINE void Chip_SSP_ClearIntPending(LPC_SSP_T *pSSP, SSP_INTCLEAR_T IntClear)
 335:../lpc11cx4-library/lpc_chip_11cxx_lib/inc/ssp_11xx.h **** {
 336:../lpc11cx4-library/lpc_chip_11cxx_lib/inc/ssp_11xx.h **** 	pSSP->ICR = IntClear;
 337:../lpc11cx4-library/lpc_chip_11cxx_lib/inc/ssp_11xx.h **** }
 338:../lpc11cx4-library/lpc_chip_11cxx_lib/inc/ssp_11xx.h **** 
 339:../lpc11cx4-library/lpc_chip_11cxx_lib/inc/ssp_11xx.h **** /**
 340:../lpc11cx4-library/lpc_chip_11cxx_lib/inc/ssp_11xx.h ****  * @brief	Enable interrupt for the SSP
 341:../lpc11cx4-library/lpc_chip_11cxx_lib/inc/ssp_11xx.h ****  * @param	pSSP		: The base of SSP peripheral on the chip
 342:../lpc11cx4-library/lpc_chip_11cxx_lib/inc/ssp_11xx.h ****  * @return	 Nothing
 343:../lpc11cx4-library/lpc_chip_11cxx_lib/inc/ssp_11xx.h ****  */
 344:../lpc11cx4-library/lpc_chip_11cxx_lib/inc/ssp_11xx.h **** STATIC INLINE void Chip_SSP_Int_Enable(LPC_SSP_T *pSSP)
 345:../lpc11cx4-library/lpc_chip_11cxx_lib/inc/ssp_11xx.h **** {
 346:../lpc11cx4-library/lpc_chip_11cxx_lib/inc/ssp_11xx.h **** 	pSSP->IMSC |= SSP_TXIM;
 347:../lpc11cx4-library/lpc_chip_11cxx_lib/inc/ssp_11xx.h **** }
 348:../lpc11cx4-library/lpc_chip_11cxx_lib/inc/ssp_11xx.h **** 
 349:../lpc11cx4-library/lpc_chip_11cxx_lib/inc/ssp_11xx.h **** /**
 350:../lpc11cx4-library/lpc_chip_11cxx_lib/inc/ssp_11xx.h ****  * @brief	Disable interrupt for the SSP
 351:../lpc11cx4-library/lpc_chip_11cxx_lib/inc/ssp_11xx.h ****  * @param	pSSP		: The base of SSP peripheral on the chip
 352:../lpc11cx4-library/lpc_chip_11cxx_lib/inc/ssp_11xx.h ****  * @return	 Nothing
 353:../lpc11cx4-library/lpc_chip_11cxx_lib/inc/ssp_11xx.h ****  */
 354:../lpc11cx4-library/lpc_chip_11cxx_lib/inc/ssp_11xx.h **** STATIC INLINE void Chip_SSP_Int_Disable(LPC_SSP_T *pSSP)
 355:../lpc11cx4-library/lpc_chip_11cxx_lib/inc/ssp_11xx.h **** {
 356:../lpc11cx4-library/lpc_chip_11cxx_lib/inc/ssp_11xx.h **** 	pSSP->IMSC &= (~SSP_TXIM);
 357:../lpc11cx4-library/lpc_chip_11cxx_lib/inc/ssp_11xx.h **** }
 358:../lpc11cx4-library/lpc_chip_11cxx_lib/inc/ssp_11xx.h **** 
 359:../lpc11cx4-library/lpc_chip_11cxx_lib/inc/ssp_11xx.h **** /**
 360:../lpc11cx4-library/lpc_chip_11cxx_lib/inc/ssp_11xx.h ****  * @brief	Get received SSP data
 361:../lpc11cx4-library/lpc_chip_11cxx_lib/inc/ssp_11xx.h ****  * @param	pSSP	: The base of SSP peripheral on the chip
 362:../lpc11cx4-library/lpc_chip_11cxx_lib/inc/ssp_11xx.h ****  * @return	 SSP 16-bit data received
 363:../lpc11cx4-library/lpc_chip_11cxx_lib/inc/ssp_11xx.h ****  */
 364:../lpc11cx4-library/lpc_chip_11cxx_lib/inc/ssp_11xx.h **** STATIC INLINE uint16_t Chip_SSP_ReceiveFrame(LPC_SSP_T *pSSP)
 365:../lpc11cx4-library/lpc_chip_11cxx_lib/inc/ssp_11xx.h **** {
 366:../lpc11cx4-library/lpc_chip_11cxx_lib/inc/ssp_11xx.h **** 	return (uint16_t) (SSP_DR_BITMASK(pSSP->DR));
 367:../lpc11cx4-library/lpc_chip_11cxx_lib/inc/ssp_11xx.h **** }
 368:../lpc11cx4-library/lpc_chip_11cxx_lib/inc/ssp_11xx.h **** 
 369:../lpc11cx4-library/lpc_chip_11cxx_lib/inc/ssp_11xx.h **** /**
 370:../lpc11cx4-library/lpc_chip_11cxx_lib/inc/ssp_11xx.h ****  * @brief	Send SSP 16-bit data
 371:../lpc11cx4-library/lpc_chip_11cxx_lib/inc/ssp_11xx.h ****  * @param	pSSP	: The base of SSP peripheral on the chip
ARM GAS  /var/folders/9j/_txx49hn253_s3mnzkyxlj8m0000gp/T//cczwRa0h.s 			page 46


 372:../lpc11cx4-library/lpc_chip_11cxx_lib/inc/ssp_11xx.h ****  * @param	tx_data	: SSP 16-bit data to be transmited
 373:../lpc11cx4-library/lpc_chip_11cxx_lib/inc/ssp_11xx.h ****  * @return	 Nothing
 374:../lpc11cx4-library/lpc_chip_11cxx_lib/inc/ssp_11xx.h ****  */
 375:../lpc11cx4-library/lpc_chip_11cxx_lib/inc/ssp_11xx.h **** STATIC INLINE void Chip_SSP_SendFrame(LPC_SSP_T *pSSP, uint16_t tx_data)
 376:../lpc11cx4-library/lpc_chip_11cxx_lib/inc/ssp_11xx.h **** {
 377:../lpc11cx4-library/lpc_chip_11cxx_lib/inc/ssp_11xx.h **** 	pSSP->DR = SSP_DR_BITMASK(tx_data);
 378:../lpc11cx4-library/lpc_chip_11cxx_lib/inc/ssp_11xx.h **** }
 379:../lpc11cx4-library/lpc_chip_11cxx_lib/inc/ssp_11xx.h **** 
 380:../lpc11cx4-library/lpc_chip_11cxx_lib/inc/ssp_11xx.h **** /**
 381:../lpc11cx4-library/lpc_chip_11cxx_lib/inc/ssp_11xx.h ****  * @brief	Set up output clocks per bit for SSP bus
 382:../lpc11cx4-library/lpc_chip_11cxx_lib/inc/ssp_11xx.h ****  * @param	pSSP		: The base of SSP peripheral on the chip
 383:../lpc11cx4-library/lpc_chip_11cxx_lib/inc/ssp_11xx.h ****  * @param	clk_rate	fs: The number of prescaler-output clocks per bit on the bus, minus one
 384:../lpc11cx4-library/lpc_chip_11cxx_lib/inc/ssp_11xx.h ****  * @param	prescale	: The factor by which the Prescaler divides the SSP peripheral clock PCLK
 385:../lpc11cx4-library/lpc_chip_11cxx_lib/inc/ssp_11xx.h ****  * @return	 Nothing
 386:../lpc11cx4-library/lpc_chip_11cxx_lib/inc/ssp_11xx.h ****  * @note	The bit frequency is PCLK / (prescale x[clk_rate+1])
 387:../lpc11cx4-library/lpc_chip_11cxx_lib/inc/ssp_11xx.h ****  */
 388:../lpc11cx4-library/lpc_chip_11cxx_lib/inc/ssp_11xx.h **** void Chip_SSP_SetClockRate(LPC_SSP_T *pSSP, uint32_t clk_rate, uint32_t prescale);
 389:../lpc11cx4-library/lpc_chip_11cxx_lib/inc/ssp_11xx.h **** 
 390:../lpc11cx4-library/lpc_chip_11cxx_lib/inc/ssp_11xx.h **** /**
 391:../lpc11cx4-library/lpc_chip_11cxx_lib/inc/ssp_11xx.h ****  * @brief	Set up the SSP frame format
 392:../lpc11cx4-library/lpc_chip_11cxx_lib/inc/ssp_11xx.h ****  * @param	pSSP		: The base of SSP peripheral on the chip
 393:../lpc11cx4-library/lpc_chip_11cxx_lib/inc/ssp_11xx.h ****  * @param	bits		: The number of bits transferred in each frame, should be SSP_BITS_4 to SSP_BITS_16
 394:../lpc11cx4-library/lpc_chip_11cxx_lib/inc/ssp_11xx.h ****  * @param	frameFormat	: Frame format, should be :
 395:../lpc11cx4-library/lpc_chip_11cxx_lib/inc/ssp_11xx.h ****  *							- SSP_FRAMEFORMAT_SPI
 396:../lpc11cx4-library/lpc_chip_11cxx_lib/inc/ssp_11xx.h ****  *							- SSP_FRAME_FORMAT_TI
 397:../lpc11cx4-library/lpc_chip_11cxx_lib/inc/ssp_11xx.h ****  *							- SSP_FRAMEFORMAT_MICROWIRE
 398:../lpc11cx4-library/lpc_chip_11cxx_lib/inc/ssp_11xx.h ****  * @param	clockMode	: Select Clock polarity and Clock phase, should be :
 399:../lpc11cx4-library/lpc_chip_11cxx_lib/inc/ssp_11xx.h ****  *							- SSP_CLOCK_CPHA0_CPOL0
 400:../lpc11cx4-library/lpc_chip_11cxx_lib/inc/ssp_11xx.h ****  *							- SSP_CLOCK_CPHA0_CPOL1
 401:../lpc11cx4-library/lpc_chip_11cxx_lib/inc/ssp_11xx.h ****  *							- SSP_CLOCK_CPHA1_CPOL0
 402:../lpc11cx4-library/lpc_chip_11cxx_lib/inc/ssp_11xx.h ****  *							- SSP_CLOCK_CPHA1_CPOL1
 403:../lpc11cx4-library/lpc_chip_11cxx_lib/inc/ssp_11xx.h ****  * @return	 Nothing
 404:../lpc11cx4-library/lpc_chip_11cxx_lib/inc/ssp_11xx.h ****  * @note	Note: The clockFormat is only used in SPI mode
 405:../lpc11cx4-library/lpc_chip_11cxx_lib/inc/ssp_11xx.h ****  */
 406:../lpc11cx4-library/lpc_chip_11cxx_lib/inc/ssp_11xx.h **** STATIC INLINE void Chip_SSP_SetFormat(LPC_SSP_T *pSSP, uint32_t bits, uint32_t frameFormat, uint32_
 407:../lpc11cx4-library/lpc_chip_11cxx_lib/inc/ssp_11xx.h **** {
 408:../lpc11cx4-library/lpc_chip_11cxx_lib/inc/ssp_11xx.h **** 	pSSP->CR0 = (pSSP->CR0 & ~0xFF) | bits | frameFormat | clockMode;
 1308              		.loc 3 408 0
 1309 003a FF22     		mov	r2, #255	@ tmp187,
 1310              	.LBE83:
 1311              	.LBE82:
  54:../lpc11cx4-library/evt_lib/src/ltc6804.c **** 	Chip_SSP_SetMaster(config->pSSP, true);
 1312              		.loc 1 54 0
 1313 003c 2868     		ldr	r0, [r5]	@ D.7816, config_2(D)->pSSP
 1314              	.LVL150:
  55:../lpc11cx4-library/evt_lib/src/ltc6804.c **** 	Chip_SSP_Enable(config->pSSP);
 1315              		.loc 1 55 0
 1316 003e 0121     		mov	r1, #1	@,
 1317              	.LBB86:
 1318              	.LBB84:
 1319              		.loc 3 408 0
 1320 0040 0368     		ldr	r3, [r0]	@ D.7815, _15->CR0
 1321              	.LBE84:
 1322              	.LBE86:
  66:../lpc11cx4-library/evt_lib/src/ltc6804.c **** 	state->cfg[5] = 0x00; // [TODO] Consider using DCTO
 1323              		.loc 1 66 0
 1324 0042 0027     		mov	r7, #0	@ tmp222,
ARM GAS  /var/folders/9j/_txx49hn253_s3mnzkyxlj8m0000gp/T//cczwRa0h.s 			page 47


 1325              	.LBB87:
 1326              	.LBB85:
 1327              		.loc 3 408 0
 1328 0044 9343     		bic	r3, r2	@ D.7815, tmp187
 1329 0046 383A     		sub	r2, r2, #56	@ tmp188,
 1330 0048 1343     		orr	r3, r2	@ D.7815, tmp188
 1331 004a 0360     		str	r3, [r0]	@ D.7815, _15->CR0
 1332              	.LBE85:
 1333              	.LBE87:
  55:../lpc11cx4-library/evt_lib/src/ltc6804.c **** 	Chip_SSP_Enable(config->pSSP);
 1334              		.loc 1 55 0
 1335 004c FFF7FEFF 		bl	Chip_SSP_SetMaster	@
 1336              	.LVL151:
 1337              	.LBB88:
 1338              	.LBB89:
 234:../lpc11cx4-library/lpc_chip_11cxx_lib/inc/ssp_11xx.h **** }
 1339              		.loc 3 234 0
 1340 0050 0223     		mov	r3, #2	@ tmp189,
 1341              	.LBE89:
 1342              	.LBE88:
  56:../lpc11cx4-library/evt_lib/src/ltc6804.c **** 
 1343              		.loc 1 56 0
 1344 0052 2A68     		ldr	r2, [r5]	@ D.7816, config_2(D)->pSSP
 1345              	.LVL152:
  61:../lpc11cx4-library/evt_lib/src/ltc6804.c **** 	state->cfg[0] = 0xBC; 
 1346              		.loc 1 61 0
 1347 0054 A068     		ldr	r0, [r4, #8]	@ tmp279, state_28(D)->rx_buf
 1348              	.LBB92:
 1349              	.LBB90:
 234:../lpc11cx4-library/lpc_chip_11cxx_lib/inc/ssp_11xx.h **** }
 1350              		.loc 3 234 0
 1351 0056 5168     		ldr	r1, [r2, #4]	@ D.7815, _18->CR1
 1352              	.LBE90:
 1353              	.LBE92:
  90:../lpc11cx4-library/evt_lib/src/ltc6804.c **** 
 1354              		.loc 1 90 0
 1355              		@ sp needed	@
 1356              	.LBB93:
 1357              	.LBB91:
 234:../lpc11cx4-library/lpc_chip_11cxx_lib/inc/ssp_11xx.h **** }
 1358              		.loc 3 234 0
 1359 0058 0B43     		orr	r3, r1	@ D.7815, D.7815
 1360 005a 5360     		str	r3, [r2, #4]	@ D.7815, _18->CR1
 1361              	.LBE91:
 1362              	.LBE93:
  58:../lpc11cx4-library/evt_lib/src/ltc6804.c **** 	uint16_t VOV = config->max_cell_mV * 10 / 16;
 1363              		.loc 1 58 0
 1364 005c 2B69     		ldr	r3, [r5, #16]	@ config_2(D)->min_cell_mV, config_2(D)->min_cell_mV
 1365 005e 9A00     		lsl	r2, r3, #2	@ tmp192, config_2(D)->min_cell_mV,
 1366              	.LVL153:
 1367 0060 D318     		add	r3, r2, r3	@ D.7815, tmp192, config_2(D)->min_cell_mV
  59:../lpc11cx4-library/evt_lib/src/ltc6804.c **** 
 1368              		.loc 1 59 0
 1369 0062 6A69     		ldr	r2, [r5, #20]	@ config_2(D)->max_cell_mV, config_2(D)->max_cell_mV
  58:../lpc11cx4-library/evt_lib/src/ltc6804.c **** 	uint16_t VOV = config->max_cell_mV * 10 / 16;
 1370              		.loc 1 58 0
 1371 0064 5B00     		lsl	r3, r3, #1	@ tmp194, D.7815,
ARM GAS  /var/folders/9j/_txx49hn253_s3mnzkyxlj8m0000gp/T//cczwRa0h.s 			page 48


  59:../lpc11cx4-library/evt_lib/src/ltc6804.c **** 
 1372              		.loc 1 59 0
 1373 0066 9100     		lsl	r1, r2, #2	@ tmp200, config_2(D)->max_cell_mV,
 1374 0068 8A18     		add	r2, r1, r2	@ D.7815, tmp200, config_2(D)->max_cell_mV
  61:../lpc11cx4-library/evt_lib/src/ltc6804.c **** 	state->cfg[0] = 0xBC; 
 1375              		.loc 1 61 0
 1376 006a 2168     		ldr	r1, [r4]	@ state_28(D)->xf, state_28(D)->xf
  58:../lpc11cx4-library/evt_lib/src/ltc6804.c **** 	uint16_t VOV = config->max_cell_mV * 10 / 16;
 1377              		.loc 1 58 0
 1378 006c 1B09     		lsr	r3, r3, #4	@ D.7815, tmp194,
  61:../lpc11cx4-library/evt_lib/src/ltc6804.c **** 	state->cfg[0] = 0xBC; 
 1379              		.loc 1 61 0
 1380 006e 8860     		str	r0, [r1, #8]	@ tmp279, _29->rx_data
  62:../lpc11cx4-library/evt_lib/src/ltc6804.c **** 	state->cfg[1] = VUV & 0xFF;
 1381              		.loc 1 62 0
 1382 0070 BC21     		mov	r1, #188	@ tmp205,
 1383 0072 6069     		ldr	r0, [r4, #20]	@ tmp280, state_28(D)->cfg
  58:../lpc11cx4-library/evt_lib/src/ltc6804.c **** 	uint16_t VOV = config->max_cell_mV * 10 / 16;
 1384              		.loc 1 58 0
 1385 0074 013B     		sub	r3, r3, #1	@ tmp197,
  62:../lpc11cx4-library/evt_lib/src/ltc6804.c **** 	state->cfg[1] = VUV & 0xFF;
 1386              		.loc 1 62 0
 1387 0076 0170     		strb	r1, [r0]	@ tmp205, *_32
 1388              	.LVL154:
  63:../lpc11cx4-library/evt_lib/src/ltc6804.c **** 	state->cfg[2] = (VUV & 0xF00) >> 8 | (VOV & 0xF) << 4; 
 1389              		.loc 1 63 0
 1390 0078 6169     		ldr	r1, [r4, #20]	@ tmp281, state_28(D)->cfg
  58:../lpc11cx4-library/evt_lib/src/ltc6804.c **** 	uint16_t VOV = config->max_cell_mV * 10 / 16;
 1391              		.loc 1 58 0
 1392 007a 9BB2     		uxth	r3, r3	@ VUV, tmp197
 1393              	.LVL155:
 1394 007c 5203     		lsl	r2, r2, #13	@ tmp208, D.7815,
 1395              	.LVL156:
  63:../lpc11cx4-library/evt_lib/src/ltc6804.c **** 	state->cfg[2] = (VUV & 0xF00) >> 8 | (VOV & 0xF) << 4; 
 1396              		.loc 1 63 0
 1397 007e 4B70     		strb	r3, [r1, #1]	@ VUV, MEM[(uint8_t *)_34 + 1B]
 1398 0080 120C     		lsr	r2, r2, #16	@ D.7820, tmp208,
  64:../lpc11cx4-library/evt_lib/src/ltc6804.c **** 	state->cfg[3] = (VOV & 0xFF0) >> 4;
 1399              		.loc 1 64 0
 1400 0082 1B05     		lsl	r3, r3, #20	@ D.7820, VUV,
 1401              	.LVL157:
 1402 0084 1101     		lsl	r1, r2, #4	@ D.7820, D.7820,
 1403 0086 1B0F     		lsr	r3, r3, #28	@ D.7820, D.7820,
 1404 0088 0B43     		orr	r3, r1	@ tmp216, D.7820
 1405 008a 6169     		ldr	r1, [r4, #20]	@ tmp282, state_28(D)->cfg
  65:../lpc11cx4-library/evt_lib/src/ltc6804.c **** 	state->cfg[4] = 0x00; 
 1406              		.loc 1 65 0
 1407 008c 1209     		lsr	r2, r2, #4	@ D.7820, D.7820,
  64:../lpc11cx4-library/evt_lib/src/ltc6804.c **** 	state->cfg[3] = (VOV & 0xFF0) >> 4;
 1408              		.loc 1 64 0
 1409 008e 8B70     		strb	r3, [r1, #2]	@ tmp216, MEM[(uint8_t *)_37 + 2B]
  65:../lpc11cx4-library/evt_lib/src/ltc6804.c **** 	state->cfg[4] = 0x00; 
 1410              		.loc 1 65 0
 1411 0090 6369     		ldr	r3, [r4, #20]	@ tmp283, state_28(D)->cfg
  70:../lpc11cx4-library/evt_lib/src/ltc6804.c **** 	state->waiting = false;
 1412              		.loc 1 70 0
 1413 0092 1F49     		ldr	r1, .L94	@,
ARM GAS  /var/folders/9j/_txx49hn253_s3mnzkyxlj8m0000gp/T//cczwRa0h.s 			page 49


  65:../lpc11cx4-library/evt_lib/src/ltc6804.c **** 	state->cfg[4] = 0x00; 
 1414              		.loc 1 65 0
 1415 0094 DA70     		strb	r2, [r3, #3]	@ D.7820, MEM[(uint8_t *)_47 + 3B]
  66:../lpc11cx4-library/evt_lib/src/ltc6804.c **** 	state->cfg[5] = 0x00; // [TODO] Consider using DCTO
 1416              		.loc 1 66 0
 1417 0096 6369     		ldr	r3, [r4, #20]	@ tmp284, state_28(D)->cfg
 1418 0098 1F71     		strb	r7, [r3, #4]	@ tmp222, MEM[(uint8_t *)_52 + 4B]
  67:../lpc11cx4-library/evt_lib/src/ltc6804.c **** 
 1419              		.loc 1 67 0
 1420 009a 6369     		ldr	r3, [r4, #20]	@ tmp285, state_28(D)->cfg
 1421 009c 5F71     		strb	r7, [r3, #5]	@ tmp222, MEM[(uint8_t *)_55 + 5B]
  70:../lpc11cx4-library/evt_lib/src/ltc6804.c **** 	state->waiting = false;
 1422              		.loc 1 70 0
 1423 009e 6B68     		ldr	r3, [r5, #4]	@ config_2(D)->baud, config_2(D)->baud
  69:../lpc11cx4-library/evt_lib/src/ltc6804.c **** 	state->wake_length = 3*config->baud/80000 + 1; // [TODO] Remember how this was calculated
 1424              		.loc 1 69 0
 1425 00a0 E660     		str	r6, [r4, #12]	@ msTicks, state_28(D)->last_message
  70:../lpc11cx4-library/evt_lib/src/ltc6804.c **** 	state->waiting = false;
 1426              		.loc 1 70 0
 1427 00a2 5800     		lsl	r0, r3, #1	@ tmp228, config_2(D)->baud,
 1428 00a4 C018     		add	r0, r0, r3	@ D.7815, tmp228, config_2(D)->baud
 1429 00a6 FFF7FEFF 		bl	__aeabi_uidiv	@
 1430              	.LVL158:
 1431 00aa 0130     		add	r0, r0, #1	@ D.7815,
 1432 00ac 2061     		str	r0, [r4, #16]	@ D.7815, state_28(D)->wake_length
  71:../lpc11cx4-library/evt_lib/src/ltc6804.c **** 	state->wait_time = LTC6804_ADCV_MODE_WAIT_TIMES[config->adc_mode];
 1433              		.loc 1 71 0
 1434 00ae 2776     		strb	r7, [r4, #24]	@ tmp222, state_28(D)->waiting
  72:../lpc11cx4-library/evt_lib/src/ltc6804.c **** 	// state->wait_time = 7; // [TODO] Remove
 1435              		.loc 1 72 0
 1436 00b0 2B7E     		ldrb	r3, [r5, #24]	@ D.7820,
 1437 00b2 184A     		ldr	r2, .L94+4	@ tmp237,
  74:../lpc11cx4-library/evt_lib/src/ltc6804.c **** 	state->balancing = false;
 1438              		.loc 1 74 0
 1439 00b4 6662     		str	r6, [r4, #36]	@ msTicks, state_28(D)->last_sleep_wake
  72:../lpc11cx4-library/evt_lib/src/ltc6804.c **** 	// state->wait_time = 7; // [TODO] Remove
 1440              		.loc 1 72 0
 1441 00b6 D35C     		ldrb	r3, [r2, r3]	@ tmp239, LTC6804_ADCV_MODE_WAIT_TIMES
  82:../lpc11cx4-library/evt_lib/src/ltc6804.c **** 	memset(state->bal_list, 0, sizeof(state->bal_list[0])*MAX_NUM_MODULES);
 1442              		.loc 1 82 0
 1443 00b8 0021     		mov	r1, #0	@,
  72:../lpc11cx4-library/evt_lib/src/ltc6804.c **** 	// state->wait_time = 7; // [TODO] Remove
 1444              		.loc 1 72 0
 1445 00ba E361     		str	r3, [r4, #28]	@ tmp239, state_28(D)->wait_time
  75:../lpc11cx4-library/evt_lib/src/ltc6804.c **** 
 1446              		.loc 1 75 0
 1447 00bc 2823     		mov	r3, #40	@ tmp240,
 1448 00be E754     		strb	r7, [r4, r3]	@ tmp222, state_28(D)->balancing
  77:../lpc11cx4-library/evt_lib/src/ltc6804.c **** 
 1449              		.loc 1 77 0
 1450 00c0 0833     		add	r3, r3, #8	@ tmp243,
 1451 00c2 E754     		strb	r7, [r4, r3]	@ tmp222, state_28(D)->adc_status
  79:../lpc11cx4-library/evt_lib/src/ltc6804.c **** 
 1452              		.loc 1 79 0
 1453 00c4 144B     		ldr	r3, .L94+8	@ tmp246,
  82:../lpc11cx4-library/evt_lib/src/ltc6804.c **** 	memset(state->bal_list, 0, sizeof(state->bal_list[0])*MAX_NUM_MODULES);
 1454              		.loc 1 82 0
ARM GAS  /var/folders/9j/_txx49hn253_s3mnzkyxlj8m0000gp/T//cczwRa0h.s 			page 50


 1455 00c6 B422     		mov	r2, #180	@,
  79:../lpc11cx4-library/evt_lib/src/ltc6804.c **** 
 1456              		.loc 1 79 0
 1457 00c8 1F80     		strh	r7, [r3]	@ tmp222, owt_state
  81:../lpc11cx4-library/evt_lib/src/ltc6804.c ****   memset(zero_vector, 0, sizeof(bool) * MAX_NUM_MODULES * MAX_CELLS_PER_MODULE);
 1458              		.loc 1 81 0
 1459 00ca 144B     		ldr	r3, .L94+12	@ tmp249,
 1460 00cc 1F60     		str	r7, [r3]	@ tmp222, MEM[(void *)&wake_buf]
 1461 00ce 5F60     		str	r7, [r3, #4]	@ tmp222, MEM[(void *)&wake_buf]
 1462 00d0 9F60     		str	r7, [r3, #8]	@ tmp222, MEM[(void *)&wake_buf]
 1463 00d2 DF60     		str	r7, [r3, #12]	@ tmp222, MEM[(void *)&wake_buf]
 1464 00d4 1F61     		str	r7, [r3, #16]	@ tmp222, MEM[(void *)&wake_buf]
 1465 00d6 5F61     		str	r7, [r3, #20]	@ tmp222, MEM[(void *)&wake_buf]
 1466 00d8 9F61     		str	r7, [r3, #24]	@ tmp222, MEM[(void *)&wake_buf]
 1467 00da DF61     		str	r7, [r3, #28]	@ tmp222, MEM[(void *)&wake_buf]
 1468 00dc 1F62     		str	r7, [r3, #32]	@ tmp222, MEM[(void *)&wake_buf]
 1469 00de 5F62     		str	r7, [r3, #36]	@ tmp222, MEM[(void *)&wake_buf]
  82:../lpc11cx4-library/evt_lib/src/ltc6804.c **** 	memset(state->bal_list, 0, sizeof(state->bal_list[0])*MAX_NUM_MODULES);
 1470              		.loc 1 82 0
 1471 00e0 0F48     		ldr	r0, .L94+16	@,
 1472 00e2 FFF7FEFF 		bl	memset	@
 1473              	.LVL159:
  83:../lpc11cx4-library/evt_lib/src/ltc6804.c **** 
 1474              		.loc 1 83 0
 1475 00e6 E06A     		ldr	r0, [r4, #44]	@, state_28(D)->bal_list
 1476 00e8 0021     		mov	r1, #0	@,
 1477 00ea 1E22     		mov	r2, #30	@,
 1478 00ec FFF7FEFF 		bl	memset	@
 1479              	.LVL160:
  85:../lpc11cx4-library/evt_lib/src/ltc6804.c **** 
 1480              		.loc 1 85 0
 1481 00f0 0022     		mov	r2, #0	@ tmp248,
 1482 00f2 0C4B     		ldr	r3, .L94+20	@ tmp270,
  87:../lpc11cx4-library/evt_lib/src/ltc6804.c **** 
 1483              		.loc 1 87 0
 1484 00f4 281C     		mov	r0, r5	@, config
  85:../lpc11cx4-library/evt_lib/src/ltc6804.c **** 
 1485              		.loc 1 85 0
 1486 00f6 1A70     		strb	r2, [r3]	@ tmp248, should_zero_balance
  87:../lpc11cx4-library/evt_lib/src/ltc6804.c **** 
 1487              		.loc 1 87 0
 1488 00f8 211C     		mov	r1, r4	@, state
 1489 00fa 321C     		mov	r2, r6	@, msTicks
 1490 00fc 0123     		mov	r3, #1	@,
 1491 00fe FFF7FEFF 		bl	_wake	@
 1492              	.LVL161:
  89:../lpc11cx4-library/evt_lib/src/ltc6804.c **** }
 1493              		.loc 1 89 0
 1494 0102 281C     		mov	r0, r5	@, config
 1495 0104 321C     		mov	r2, r6	@, msTicks
 1496 0106 211C     		mov	r1, r4	@, state
 1497 0108 FFF7FEFF 		bl	LTC6804_WriteCFG	@
 1498              	.LVL162:
 1499              	.LVL163:
 1500              	.LVL164:
 1501              	.LVL165:
  90:../lpc11cx4-library/evt_lib/src/ltc6804.c **** 
ARM GAS  /var/folders/9j/_txx49hn253_s3mnzkyxlj8m0000gp/T//cczwRa0h.s 			page 51


 1502              		.loc 1 90 0
 1503 010c F8BD     		pop	{r3, r4, r5, r6, r7, pc}
 1504              	.L95:
 1505 010e C046     		.align	2
 1506              	.L94:
 1507 0110 80380100 		.word	80000
 1508 0114 00000000 		.word	.LANCHOR4
 1509 0118 00000000 		.word	.LANCHOR5
 1510 011c 00000000 		.word	.LANCHOR3
 1511 0120 00000000 		.word	.LANCHOR1
 1512 0124 00000000 		.word	.LANCHOR2
 1513              		.cfi_endproc
 1514              	.LFE199:
 1515              		.size	LTC6804_Init, .-LTC6804_Init
 1516              		.section	.text._read,"ax",%progbits
 1517              		.align	2
 1518              		.global	_read
 1519              		.code	16
 1520              		.thumb_func
 1521              		.type	_read, %function
 1522              	_read:
 1523              	.LFB211:
 514:../lpc11cx4-library/evt_lib/src/ltc6804.c **** 	_wake(config, state, msTicks, false);
 1524              		.loc 1 514 0
 1525              		.cfi_startproc
 1526              	.LVL166:
 1527 0000 F8B5     		push	{r3, r4, r5, r6, r7, lr}	@
 1528              		.cfi_def_cfa_offset 24
 1529              		.cfi_offset 3, -24
 1530              		.cfi_offset 4, -20
 1531              		.cfi_offset 5, -16
 1532              		.cfi_offset 6, -12
 1533              		.cfi_offset 7, -8
 1534              		.cfi_offset 14, -4
 514:../lpc11cx4-library/evt_lib/src/ltc6804.c **** 	_wake(config, state, msTicks, false);
 1535              		.loc 1 514 0
 1536 0002 0E1C     		mov	r6, r1	@ state, state
 1537 0004 141C     		mov	r4, r2	@ cmd, cmd
 1538 0006 1F1C     		mov	r7, r3	@ msTicks, msTicks
 515:../lpc11cx4-library/evt_lib/src/ltc6804.c **** 
 1539              		.loc 1 515 0
 1540 0008 1A1C     		mov	r2, r3	@, msTicks
 1541              	.LVL167:
 1542 000a 0023     		mov	r3, #0	@,
 1543              	.LVL168:
 514:../lpc11cx4-library/evt_lib/src/ltc6804.c **** 	_wake(config, state, msTicks, false);
 1544              		.loc 1 514 0
 1545 000c 051C     		mov	r5, r0	@ config, config
 515:../lpc11cx4-library/evt_lib/src/ltc6804.c **** 
 1546              		.loc 1 515 0
 1547 000e FFF7FEFF 		bl	_wake	@
 1548              	.LVL169:
 1549              	.LBB94:
 1550              	.LBB95:
 621:../lpc11cx4-library/evt_lib/src/ltc6804.c **** 	}
 1551              		.loc 1 621 0
 1552 0012 8021     		mov	r1, #128	@ tmp219,
ARM GAS  /var/folders/9j/_txx49hn253_s3mnzkyxlj8m0000gp/T//cczwRa0h.s 			page 52


 1553              	.LBE95:
 1554              	.LBE94:
 517:../lpc11cx4-library/evt_lib/src/ltc6804.c **** 	state->tx_buf[1] = cmd & 0xFF;
 1555              		.loc 1 517 0
 1556 0014 7268     		ldr	r2, [r6, #4]	@ tmp300, state_5(D)->tx_buf
 1557 0016 230A     		lsr	r3, r4, #8	@ tmp209, cmd,
 1558 0018 1370     		strb	r3, [r2]	@ tmp209, *_8
 518:../lpc11cx4-library/evt_lib/src/ltc6804.c **** 	uint16_t pec = _calculate_pec(state->tx_buf, 2);
 1559              		.loc 1 518 0
 1560 001a 7368     		ldr	r3, [r6, #4]	@ tmp301, state_5(D)->tx_buf
 1561              	.LBB98:
 1562              	.LBB96:
 621:../lpc11cx4-library/evt_lib/src/ltc6804.c **** 	}
 1563              		.loc 1 621 0
 1564 001c 4901     		lsl	r1, r1, #5	@ tmp219, tmp219,
 1565              	.LBE96:
 1566              	.LBE98:
 518:../lpc11cx4-library/evt_lib/src/ltc6804.c **** 	uint16_t pec = _calculate_pec(state->tx_buf, 2);
 1567              		.loc 1 518 0
 1568 001e 5C70     		strb	r4, [r3, #1]	@ cmd, MEM[(uint8_t *)_13 + 1B]
 519:../lpc11cx4-library/evt_lib/src/ltc6804.c **** 	state->tx_buf[2] = pec >> 8;
 1569              		.loc 1 519 0
 1570 0020 7268     		ldr	r2, [r6, #4]	@ D.7855, state_5(D)->tx_buf
 1571              	.LVL170:
 1572              	.LBB99:
 1573              	.LBB97:
 621:../lpc11cx4-library/evt_lib/src/ltc6804.c **** 	}
 1574              		.loc 1 621 0
 1575 0022 354C     		ldr	r4, .L104	@ tmp295,
 620:../lpc11cx4-library/evt_lib/src/ltc6804.c **** 		remainder = (remainder<<8)^crc15Table[addr];
 1576              		.loc 1 620 0
 1577 0024 1378     		ldrb	r3, [r2]	@ addr, *_16
 1578              	.LVL171:
 1579 0026 5078     		ldrb	r0, [r2, #1]	@ MEM[(uint8_t *)_16 + 1B], MEM[(uint8_t *)_16 + 1B]
 621:../lpc11cx4-library/evt_lib/src/ltc6804.c **** 	}
 1580              		.loc 1 621 0
 1581 0028 9B00     		lsl	r3, r3, #2	@ tmp215, addr,
 1582              	.LVL172:
 1583 002a E35A     		ldrh	r3, [r4, r3]	@ tmp218, crc15Table
 1584 002c 4B40     		eor	r3, r1	@ remainder, tmp219
 1585              	.LVL173:
 1586 002e 1902     		lsl	r1, r3, #8	@ tmp220, remainder,
 620:../lpc11cx4-library/evt_lib/src/ltc6804.c **** 		remainder = (remainder<<8)^crc15Table[addr];
 1587              		.loc 1 620 0
 1588 0030 DB09     		lsr	r3, r3, #7	@ tmp222, remainder,
 1589              	.LVL174:
 1590 0032 4340     		eor	r3, r0	@ tmp226, MEM[(uint8_t *)_16 + 1B]
 621:../lpc11cx4-library/evt_lib/src/ltc6804.c **** 	}
 1591              		.loc 1 621 0
 1592 0034 FF20     		mov	r0, #255	@ tmp231,
 1593 0036 0340     		and	r3, r0	@ D.7859, tmp231
 1594 0038 9B00     		lsl	r3, r3, #2	@ tmp233, D.7859,
 1595 003a E35A     		ldrh	r3, [r4, r3]	@ D.7856, crc15Table
 1596              	.LVL175:
 1597 003c 89B2     		uxth	r1, r1	@ D.7856, tmp220
 1598              	.LVL176:
 1599 003e 4B40     		eor	r3, r1	@ tmp236, D.7856
ARM GAS  /var/folders/9j/_txx49hn253_s3mnzkyxlj8m0000gp/T//cczwRa0h.s 			page 53


 1600              	.LVL177:
 1601              		.loc 1 623 0
 1602 0040 5B00     		lsl	r3, r3, #1	@ tmp238, tmp236,
 1603 0042 9BB2     		uxth	r3, r3	@ D.7865, tmp238
 1604              	.LBE97:
 1605              	.LBE99:
 520:../lpc11cx4-library/evt_lib/src/ltc6804.c **** 	state->tx_buf[3] = pec & 0xFF;
 1606              		.loc 1 520 0
 1607 0044 190A     		lsr	r1, r3, #8	@ tmp239, D.7865,
 1608              	.LVL178:
 1609 0046 9170     		strb	r1, [r2, #2]	@ tmp239, MEM[(uint8_t *)_16 + 2B]
 1610              	.LVL179:
 521:../lpc11cx4-library/evt_lib/src/ltc6804.c **** 
 1611              		.loc 1 521 0
 1612 0048 7268     		ldr	r2, [r6, #4]	@ tmp302, state_5(D)->tx_buf
 1613              	.LVL180:
 523:../lpc11cx4-library/evt_lib/src/ltc6804.c **** 
 1614              		.loc 1 523 0
 1615 004a 0021     		mov	r1, #0	@,
 521:../lpc11cx4-library/evt_lib/src/ltc6804.c **** 
 1616              		.loc 1 521 0
 1617 004c D370     		strb	r3, [r2, #3]	@ D.7865, MEM[(uint8_t *)_20 + 3B]
 523:../lpc11cx4-library/evt_lib/src/ltc6804.c **** 
 1618              		.loc 1 523 0
 1619 004e 7368     		ldr	r3, [r6, #4]	@ tmp303, state_5(D)->tx_buf
 1620 0050 AA7A     		ldrb	r2, [r5, #10]	@ D.7859,
 1621 0052 181D     		add	r0, r3, #4	@ D.7858, tmp303,
 1622 0054 D200     		lsl	r2, r2, #3	@ D.7859, D.7859,
 1623 0056 FFF7FEFF 		bl	memset	@
 1624              	.LVL181:
 1625              	.LBB100:
 1626              	.LBB101:
 1627              		.loc 2 104 0
 1628 005a A022     		mov	r2, #160	@ tmp306,
 1629              	.LBE101:
 1630              	.LBE100:
 525:../lpc11cx4-library/evt_lib/src/ltc6804.c **** 	state->xf->rx_data = state->rx_buf;
 1631              		.loc 1 525 0
 1632 005c 0020     		mov	r0, #0	@ tmp253,
 1633 005e AB7A     		ldrb	r3, [r5, #10]	@ D.7859,
 1634 0060 3168     		ldr	r1, [r6]	@ D.7861, state_5(D)->xf
 1635 0062 DB00     		lsl	r3, r3, #3	@ D.7859, D.7859,
 1636 0064 0433     		add	r3, r3, #4	@ D.7859,
 1637 0066 0B61     		str	r3, [r1, #16]	@ D.7859, _30->length
 526:../lpc11cx4-library/evt_lib/src/ltc6804.c **** 	state->xf->tx_data = state->tx_buf;
 1638              		.loc 1 526 0
 1639 0068 B368     		ldr	r3, [r6, #8]	@ tmp304, state_5(D)->rx_buf
 1640              	.LBB105:
 1641              	.LBB102:
 1642              		.loc 2 104 0
 1643 006a D205     		lsl	r2, r2, #23	@ tmp306, tmp306,
 1644              	.LBE102:
 1645              	.LBE105:
 526:../lpc11cx4-library/evt_lib/src/ltc6804.c **** 	state->xf->tx_data = state->tx_buf;
 1646              		.loc 1 526 0
 1647 006c 8B60     		str	r3, [r1, #8]	@ tmp304, _30->rx_data
 527:../lpc11cx4-library/evt_lib/src/ltc6804.c **** 
ARM GAS  /var/folders/9j/_txx49hn253_s3mnzkyxlj8m0000gp/T//cczwRa0h.s 			page 54


 1648              		.loc 1 527 0
 1649 006e 7368     		ldr	r3, [r6, #4]	@ tmp305, state_5(D)->tx_buf
 525:../lpc11cx4-library/evt_lib/src/ltc6804.c **** 	state->xf->rx_data = state->rx_buf;
 1650              		.loc 1 525 0
 1651 0070 C860     		str	r0, [r1, #12]	@ tmp253, _30->rx_cnt
 1652 0072 4860     		str	r0, [r1, #4]	@ tmp253, _30->tx_cnt
 527:../lpc11cx4-library/evt_lib/src/ltc6804.c **** 
 1653              		.loc 1 527 0
 1654 0074 0B60     		str	r3, [r1]	@ tmp305, _30->tx_data
 1655              	.LBB106:
 1656              	.LBB103:
 1657              		.loc 2 104 0
 1658 0076 9446     		mov	ip, r2	@ tmp306, tmp306
 1659              	.LBE103:
 1660              	.LBE106:
 529:../lpc11cx4-library/evt_lib/src/ltc6804.c **** 	Chip_GPIO_SetPinState(LPC_GPIO, config->cs_gpio, config->cs_pin, false);
 1661              		.loc 1 529 0
 1662 0078 F760     		str	r7, [r6, #12]	@ msTicks, state_5(D)->last_message
 1663              	.LVL182:
 1664              	.LBB107:
 1665              	.LBB104:
 1666              		.loc 2 104 0
 1667 007a 0127     		mov	r7, #1	@ tmp260,
 1668              	.LVL183:
 1669 007c 2B7A     		ldrb	r3, [r5, #8]	@ D.7860,
 1670 007e 6A7A     		ldrb	r2, [r5, #9]	@ D.7859,
 1671 0080 1B04     		lsl	r3, r3, #16	@ D.7860, D.7860,
 1672 0082 9C44     		add	ip, ip, r3	@ D.7866, D.7860
 1673 0084 3B1C     		mov	r3, r7	@ D.7859, tmp260
 1674 0086 9340     		lsl	r3, r3, r2	@ D.7859, D.7859, D.7859
 1675 0088 9A00     		lsl	r2, r3, #2	@ tmp261, D.7859,
 1676 008a 6346     		mov	r3, ip	@ D.7866, D.7866
 1677 008c D050     		str	r0, [r2, r3]	@ tmp253, _85->DATA
 1678              	.LVL184:
 1679              	.LBE104:
 1680              	.LBE107:
 531:../lpc11cx4-library/evt_lib/src/ltc6804.c **** 	Chip_GPIO_SetPinState(LPC_GPIO, config->cs_gpio, config->cs_pin, true);
 1681              		.loc 1 531 0
 1682 008e 2868     		ldr	r0, [r5]	@, config_4(D)->pSSP
 1683 0090 FFF7FEFF 		bl	Chip_SSP_RWFrames_Blocking	@
 1684              	.LVL185:
 1685              	.LBB108:
 1686              	.LBB109:
 1687              		.loc 2 104 0
 1688 0094 A022     		mov	r2, #160	@ tmp309,
 1689 0096 D205     		lsl	r2, r2, #23	@ tmp309, tmp309,
 1690 0098 9446     		mov	ip, r2	@ tmp309, tmp309
 1691 009a 6A7A     		ldrb	r2, [r5, #9]	@ D.7859,
 1692 009c 2B7A     		ldrb	r3, [r5, #8]	@ D.7860,
 1693 009e 9740     		lsl	r7, r7, r2	@ D.7859, tmp260, D.7859
 1694 00a0 1B04     		lsl	r3, r3, #16	@ D.7860, D.7860,
 1695 00a2 6344     		add	r3, r3, ip	@ D.7866, tmp309
 1696 00a4 BA00     		lsl	r2, r7, #2	@ tmp268, D.7859,
 1697 00a6 D750     		str	r7, [r2, r3]	@ D.7859, _89->DATA
 1698              	.LVL186:
 1699              	.LBE109:
 1700              	.LBE108:
ARM GAS  /var/folders/9j/_txx49hn253_s3mnzkyxlj8m0000gp/T//cczwRa0h.s 			page 55


 537:../lpc11cx4-library/evt_lib/src/ltc6804.c **** 		uint8_t *rx_ptr = state->rx_buf + 4 + 8 * i;
 1701              		.loc 1 537 0
 1702 00a8 AB7A     		ldrb	r3, [r5, #10]	@ D.7859,
 1703 00aa 9C46     		mov	ip, r3	@ D.7859, D.7859
 1704 00ac 002B     		cmp	r3, #0	@ D.7859,
 1705 00ae 1ED0     		beq	.L100	@,
 1706 00b0 0020     		mov	r0, #0	@ i,
 1707              	.LBB110:
 1708              	.LBB111:
 1709              	.LBB112:
 620:../lpc11cx4-library/evt_lib/src/ltc6804.c **** 		remainder = (remainder<<8)^crc15Table[addr];
 1710              		.loc 1 620 0
 1711 00b2 FF21     		mov	r1, #255	@ tmp298,
 1712 00b4 B768     		ldr	r7, [r6, #8]	@ state_5(D)->rx_buf, state_5(D)->rx_buf
 1713 00b6 0A37     		add	r7, r7, #10	@ ivtmp.105,
 1714              	.LVL187:
 1715              	.L99:
 616:../lpc11cx4-library/evt_lib/src/ltc6804.c **** 	uint8_t i;
 1716              		.loc 1 616 0
 1717 00b8 1023     		mov	r3, #16	@ remainder,
 1718 00ba BA1F     		sub	r2, r7, #6	@ ivtmp.102, ivtmp.105,
 1719              	.LVL188:
 1720              	.L98:
 620:../lpc11cx4-library/evt_lib/src/ltc6804.c **** 		remainder = (remainder<<8)^crc15Table[addr];
 1721              		.loc 1 620 0
 1722 00bc 1578     		ldrb	r5, [r2]	@ MEM[base: _194, offset: 0B], MEM[base: _194, offset: 0B]
 621:../lpc11cx4-library/evt_lib/src/ltc6804.c **** 	}
 1723              		.loc 1 621 0
 1724 00be 1E02     		lsl	r6, r3, #8	@ tmp270, remainder,
 620:../lpc11cx4-library/evt_lib/src/ltc6804.c **** 		remainder = (remainder<<8)^crc15Table[addr];
 1725              		.loc 1 620 0
 1726 00c0 DB09     		lsr	r3, r3, #7	@ tmp274, remainder,
 1727              	.LVL189:
 1728 00c2 6B40     		eor	r3, r5	@ tmp276, MEM[base: _194, offset: 0B]
 621:../lpc11cx4-library/evt_lib/src/ltc6804.c **** 	}
 1729              		.loc 1 621 0
 1730 00c4 0B40     		and	r3, r1	@ D.7859, tmp298
 1731 00c6 9B00     		lsl	r3, r3, #2	@ tmp283, D.7859,
 1732 00c8 E35A     		ldrh	r3, [r4, r3]	@ D.7856, crc15Table
 1733 00ca B6B2     		uxth	r6, r6	@ D.7856, tmp270
 1734 00cc 0132     		add	r2, r2, #1	@ ivtmp.102,
 1735              	.LVL190:
 1736 00ce 7340     		eor	r3, r6	@ remainder, D.7856
 1737              	.LVL191:
 618:../lpc11cx4-library/evt_lib/src/ltc6804.c **** 	{
 1738              		.loc 1 618 0
 1739 00d0 BA42     		cmp	r2, r7	@ ivtmp.102, ivtmp.105
 1740 00d2 F3D1     		bne	.L98	@,
 1741              	.LBE112:
 1742              	.LBE111:
 540:../lpc11cx4-library/evt_lib/src/ltc6804.c **** 	}
 1743              		.loc 1 540 0
 1744 00d4 1678     		ldrb	r6, [r2]	@ D.7859, MEM[base: _96, offset: 0B]
 1745              	.LBB114:
 1746              	.LBB113:
 1747              		.loc 1 623 0
 1748 00d6 5B00     		lsl	r3, r3, #1	@ tmp288, remainder,
ARM GAS  /var/folders/9j/_txx49hn253_s3mnzkyxlj8m0000gp/T//cczwRa0h.s 			page 56


 1749              	.LVL192:
 1750              	.LBE113:
 1751              	.LBE114:
 540:../lpc11cx4-library/evt_lib/src/ltc6804.c **** 	}
 1752              		.loc 1 540 0
 1753 00d8 5778     		ldrb	r7, [r2, #1]	@ D.7859, MEM[base: _96, offset: 1B]
 1754              	.LVL193:
 1755 00da 3602     		lsl	r6, r6, #8	@ D.7859, D.7859,
 1756 00dc 9BB2     		uxth	r3, r3	@ D.7859, tmp288
 1757 00de 3E43     		orr	r6, r7	@ D.7859, D.7859
 1758 00e0 B342     		cmp	r3, r6	@ D.7859, D.7859
 1759 00e2 06D1     		bne	.L101	@,
 1760 00e4 0832     		add	r2, r2, #8	@ ivtmp.105,
 1761              	.LBE110:
 537:../lpc11cx4-library/evt_lib/src/ltc6804.c **** 		uint8_t *rx_ptr = state->rx_buf + 4 + 8 * i;
 1762              		.loc 1 537 0 discriminator 2
 1763 00e6 0130     		add	r0, r0, #1	@ i,
 1764              	.LVL194:
 1765 00e8 171C     		mov	r7, r2	@ ivtmp.105, ivtmp.105
 1766 00ea 6045     		cmp	r0, ip	@ i, D.7859
 1767 00ec E4DB     		blt	.L99	@,
 1768              	.LVL195:
 1769              	.L100:
 543:../lpc11cx4-library/evt_lib/src/ltc6804.c **** }
 1770              		.loc 1 543 0
 1771 00ee 0120     		mov	r0, #1	@ D.7854,
 1772              	.L97:
 544:../lpc11cx4-library/evt_lib/src/ltc6804.c **** 
 1773              		.loc 1 544 0
 1774              		@ sp needed	@
 1775 00f0 F8BD     		pop	{r3, r4, r5, r6, r7, pc}
 1776              	.LVL196:
 1777              	.L101:
 1778              	.LBB115:
 540:../lpc11cx4-library/evt_lib/src/ltc6804.c **** 	}
 1779              		.loc 1 540 0
 1780 00f2 0320     		mov	r0, #3	@ D.7854,
 1781              	.LVL197:
 1782 00f4 FCE7     		b	.L97	@
 1783              	.L105:
 1784 00f6 C046     		.align	2
 1785              	.L104:
 1786 00f8 00000000 		.word	.LANCHOR0
 1787              	.LBE115:
 1788              		.cfi_endproc
 1789              	.LFE211:
 1790              		.size	_read, .-_read
 1791              		.section	.text.LTC6804_VerifyCFG,"ax",%progbits
 1792              		.align	2
 1793              		.global	LTC6804_VerifyCFG
 1794              		.code	16
 1795              		.thumb_func
 1796              		.type	LTC6804_VerifyCFG, %function
 1797              	LTC6804_VerifyCFG:
 1798              	.LFB201:
 107:../lpc11cx4-library/evt_lib/src/ltc6804.c **** 	LTC6804_STATUS_T res = _read(config, state, RDCFG, msTicks);
 1799              		.loc 1 107 0
ARM GAS  /var/folders/9j/_txx49hn253_s3mnzkyxlj8m0000gp/T//cczwRa0h.s 			page 57


 1800              		.cfi_startproc
 1801              	.LVL198:
 1802 0000 F0B5     		push	{r4, r5, r6, r7, lr}	@
 1803              		.cfi_def_cfa_offset 20
 1804              		.cfi_offset 4, -20
 1805              		.cfi_offset 5, -16
 1806              		.cfi_offset 6, -12
 1807              		.cfi_offset 7, -8
 1808              		.cfi_offset 14, -4
 1809 0002 4746     		mov	r7, r8	@,
 1810 0004 131C     		mov	r3, r2	@ msTicks, msTicks
 1811 0006 80B4     		push	{r7}	@
 1812              		.cfi_def_cfa_offset 24
 1813              		.cfi_offset 8, -24
 108:../lpc11cx4-library/evt_lib/src/ltc6804.c **** 	if (res != LTC6804_PASS) return false;
 1814              		.loc 1 108 0
 1815 0008 0222     		mov	r2, #2	@,
 1816              	.LVL199:
 107:../lpc11cx4-library/evt_lib/src/ltc6804.c **** 	LTC6804_STATUS_T res = _read(config, state, RDCFG, msTicks);
 1817              		.loc 1 107 0
 1818 000a 041C     		mov	r4, r0	@ config, config
 1819 000c 0E1C     		mov	r6, r1	@ state, state
 108:../lpc11cx4-library/evt_lib/src/ltc6804.c **** 	if (res != LTC6804_PASS) return false;
 1820              		.loc 1 108 0
 1821 000e FFF7FEFF 		bl	_read	@
 1822              	.LVL200:
 109:../lpc11cx4-library/evt_lib/src/ltc6804.c **** 
 1823              		.loc 1 109 0
 1824 0012 0023     		mov	r3, #0	@ D.7882,
 1825 0014 0128     		cmp	r0, #1	@ tmp135,
 1826 0016 03D0     		beq	.L119	@,
 1827              	.LVL201:
 1828              	.L107:
 121:../lpc11cx4-library/evt_lib/src/ltc6804.c **** 
 1829              		.loc 1 121 0
 1830 0018 181C     		mov	r0, r3	@, D.7882
 1831              		@ sp needed	@
 1832 001a 04BC     		pop	{r2}
 1833 001c 9046     		mov	r8, r2
 1834 001e F0BD     		pop	{r4, r5, r6, r7, pc}
 1835              	.LVL202:
 1836              	.L119:
 112:../lpc11cx4-library/evt_lib/src/ltc6804.c **** 		uint8_t *rx_ptr = state->rx_buf+4+8*i;
 1837              		.loc 1 112 0 discriminator 1
 1838 0020 A47A     		ldrb	r4, [r4, #10]	@ D.7886,
 1839              	.LVL203:
 1840 0022 002C     		cmp	r4, #0	@ D.7886,
 1841 0024 29D0     		beq	.L111	@,
 1842              	.LBB116:
 113:../lpc11cx4-library/evt_lib/src/ltc6804.c **** 		if (rx_ptr[1] != state->cfg[1]) return false;
 1843              		.loc 1 113 0
 1844 0026 B168     		ldr	r1, [r6, #8]	@ D.7885, state_5(D)->rx_buf
 114:../lpc11cx4-library/evt_lib/src/ltc6804.c **** 		if (rx_ptr[2] != state->cfg[2]) return false;
 1845              		.loc 1 114 0
 1846 0028 7069     		ldr	r0, [r6, #20]	@ D.7885, state_5(D)->cfg
 1847              	.LVL204:
 1848 002a 4D79     		ldrb	r5, [r1, #5]	@ D.7884, MEM[(uint8_t *)_29 + 5B]
ARM GAS  /var/folders/9j/_txx49hn253_s3mnzkyxlj8m0000gp/T//cczwRa0h.s 			page 58


 1849 002c 4678     		ldrb	r6, [r0, #1]	@ MEM[(uint8_t *)_38 + 1B], MEM[(uint8_t *)_38 + 1B]
 1850              	.LVL205:
 113:../lpc11cx4-library/evt_lib/src/ltc6804.c **** 		if (rx_ptr[1] != state->cfg[1]) return false;
 1851              		.loc 1 113 0
 1852 002e 0A1D     		add	r2, r1, #4	@ rx_ptr, D.7885,
 1853              	.LVL206:
 114:../lpc11cx4-library/evt_lib/src/ltc6804.c **** 		if (rx_ptr[2] != state->cfg[2]) return false;
 1854              		.loc 1 114 0
 1855 0030 AE42     		cmp	r6, r5	@ MEM[(uint8_t *)_38 + 1B], D.7884
 1856 0032 F1D1     		bne	.L107	@,
 115:../lpc11cx4-library/evt_lib/src/ltc6804.c **** 		if (rx_ptr[3] != state->cfg[3]) return false;
 1857              		.loc 1 115 0
 1858 0034 8E79     		ldrb	r6, [r1, #6]	@ D.7884, MEM[(uint8_t *)_29 + 6B]
 1859 0036 8778     		ldrb	r7, [r0, #2]	@ MEM[(uint8_t *)_38 + 2B], MEM[(uint8_t *)_38 + 2B]
 1860 0038 B742     		cmp	r7, r6	@ MEM[(uint8_t *)_38 + 2B], D.7884
 1861 003a EDD1     		bne	.L107	@,
 116:../lpc11cx4-library/evt_lib/src/ltc6804.c **** 		if ((rx_ptr[5] & 0xF0) != (state->cfg[5] & 0xF0)) return false;
 1862              		.loc 1 116 0
 1863 003c CF79     		ldrb	r7, [r1, #7]	@ D.7884, MEM[(uint8_t *)_29 + 7B]
 1864 003e C178     		ldrb	r1, [r0, #3]	@ MEM[(uint8_t *)_38 + 3B], MEM[(uint8_t *)_38 + 3B]
 1865 0040 B942     		cmp	r1, r7	@ MEM[(uint8_t *)_38 + 3B], D.7884
 1866 0042 E9D1     		bne	.L107	@,
 1867 0044 4379     		ldrb	r3, [r0, #5]	@ D.7883, MEM[(uint8_t *)_38 + 5B]
 1868 0046 0021     		mov	r1, #0	@ i,
 1869 0048 9C46     		mov	ip, r3	@ D.7883, D.7883
 117:../lpc11cx4-library/evt_lib/src/ltc6804.c **** 	}
 1870              		.loc 1 117 0
 1871 004a 0F23     		mov	r3, #15	@ tmp152,
 1872 004c 9846     		mov	r8, r3	@ tmp152, tmp152
 1873 004e 0CE0     		b	.L108	@
 1874              	.LVL207:
 1875              	.L120:
 1876              	.LBE116:
 112:../lpc11cx4-library/evt_lib/src/ltc6804.c **** 		uint8_t *rx_ptr = state->rx_buf+4+8*i;
 1877              		.loc 1 112 0 discriminator 2
 1878 0050 0131     		add	r1, r1, #1	@ i,
 1879              	.LVL208:
 1880 0052 A142     		cmp	r1, r4	@ i, D.7886
 1881 0054 11DA     		bge	.L111	@,
 1882              	.LBB117:
 113:../lpc11cx4-library/evt_lib/src/ltc6804.c **** 		if (rx_ptr[1] != state->cfg[1]) return false;
 1883              		.loc 1 113 0
 1884 0056 0832     		add	r2, r2, #8	@ rx_ptr,
 1885              	.LVL209:
 114:../lpc11cx4-library/evt_lib/src/ltc6804.c **** 		if (rx_ptr[2] != state->cfg[2]) return false;
 1886              		.loc 1 114 0
 1887 0058 5378     		ldrb	r3, [r2, #1]	@ MEM[base: rx_ptr_15, offset: 1B], MEM[base: rx_ptr_15, offset: 1B]
 1888 005a AB42     		cmp	r3, r5	@ MEM[base: rx_ptr_15, offset: 1B], D.7884
 1889 005c 0BD1     		bne	.L118	@,
 115:../lpc11cx4-library/evt_lib/src/ltc6804.c **** 		if (rx_ptr[3] != state->cfg[3]) return false;
 1890              		.loc 1 115 0
 1891 005e 9378     		ldrb	r3, [r2, #2]	@ MEM[base: rx_ptr_15, offset: 2B], MEM[base: rx_ptr_15, offset: 2B]
 1892 0060 B342     		cmp	r3, r6	@ MEM[base: rx_ptr_15, offset: 2B], D.7884
 1893 0062 08D1     		bne	.L118	@,
 116:../lpc11cx4-library/evt_lib/src/ltc6804.c **** 		if ((rx_ptr[5] & 0xF0) != (state->cfg[5] & 0xF0)) return false;
 1894              		.loc 1 116 0
 1895 0064 D378     		ldrb	r3, [r2, #3]	@ MEM[base: rx_ptr_15, offset: 3B], MEM[base: rx_ptr_15, offset: 3B]
ARM GAS  /var/folders/9j/_txx49hn253_s3mnzkyxlj8m0000gp/T//cczwRa0h.s 			page 59


 1896 0066 BB42     		cmp	r3, r7	@ MEM[base: rx_ptr_15, offset: 3B], D.7884
 1897 0068 05D1     		bne	.L118	@,
 1898              	.LVL210:
 1899              	.L108:
 117:../lpc11cx4-library/evt_lib/src/ltc6804.c **** 	}
 1900              		.loc 1 117 0
 1901 006a 6046     		mov	r0, ip	@ D.7883, D.7883
 1902 006c 5379     		ldrb	r3, [r2, #5]	@ MEM[base: rx_ptr_45, offset: 5B], MEM[base: rx_ptr_45, offset: 5B]
 1903 006e 4340     		eor	r3, r0	@ tmp145, D.7883
 1904 0070 4046     		mov	r0, r8	@ tmp152, tmp152
 1905 0072 8343     		bic	r3, r0	@ tmp150, tmp152
 1906 0074 ECD0     		beq	.L120	@,
 1907              	.L118:
 1908              	.LBE117:
 109:../lpc11cx4-library/evt_lib/src/ltc6804.c **** 
 1909              		.loc 1 109 0
 1910 0076 0023     		mov	r3, #0	@ D.7882,
 1911 0078 CEE7     		b	.L107	@
 1912              	.LVL211:
 1913              	.L111:
 120:../lpc11cx4-library/evt_lib/src/ltc6804.c **** }
 1914              		.loc 1 120 0
 1915 007a 0123     		mov	r3, #1	@ D.7882,
 1916 007c CCE7     		b	.L107	@
 1917              		.cfi_endproc
 1918              	.LFE201:
 1919              		.size	LTC6804_VerifyCFG, .-LTC6804_VerifyCFG
 1920 007e C046     		.section	.text.LTC6804_GetCellVoltages,"ax",%progbits
 1921              		.align	2
 1922              		.global	LTC6804_GetCellVoltages
 1923              		.code	16
 1924              		.thumb_func
 1925              		.type	LTC6804_GetCellVoltages, %function
 1926              	LTC6804_GetCellVoltages:
 1927              	.LFB206:
 298:../lpc11cx4-library/evt_lib/src/ltc6804.c **** 	if (state->adc_status == LTC6804_ADC_NONE) {
 1928              		.loc 1 298 0
 1929              		.cfi_startproc
 1930              	.LVL212:
 1931 0000 F0B5     		push	{r4, r5, r6, r7, lr}	@
 1932              		.cfi_def_cfa_offset 20
 1933              		.cfi_offset 4, -20
 1934              		.cfi_offset 5, -16
 1935              		.cfi_offset 6, -12
 1936              		.cfi_offset 7, -8
 1937              		.cfi_offset 14, -4
 1938 0002 4D46     		mov	r5, r9	@,
 1939 0004 4446     		mov	r4, r8	@,
 1940 0006 5F46     		mov	r7, fp	@,
 1941 0008 5646     		mov	r6, r10	@,
 1942 000a F0B4     		push	{r4, r5, r6, r7}	@
 1943              		.cfi_def_cfa_offset 36
 1944              		.cfi_offset 8, -36
 1945              		.cfi_offset 9, -32
 1946              		.cfi_offset 10, -28
 1947              		.cfi_offset 11, -24
 299:../lpc11cx4-library/evt_lib/src/ltc6804.c **** 		state->adc_status = LTC6804_ADC_GCV;
ARM GAS  /var/folders/9j/_txx49hn253_s3mnzkyxlj8m0000gp/T//cczwRa0h.s 			page 60


 1948              		.loc 1 299 0
 1949 000c 3025     		mov	r5, #48	@ tmp294,
 1950 000e 4C5D     		ldrb	r4, [r1, r5]	@ D.7962,
 298:../lpc11cx4-library/evt_lib/src/ltc6804.c **** 	if (state->adc_status == LTC6804_ADC_NONE) {
 1951              		.loc 1 298 0
 1952 0010 87B0     		sub	sp, sp, #28	@,,
 1953              		.cfi_def_cfa_offset 64
 299:../lpc11cx4-library/evt_lib/src/ltc6804.c **** 		state->adc_status = LTC6804_ADC_GCV;
 1954              		.loc 1 299 0
 1955 0012 002C     		cmp	r4, #0	@ D.7962,
 1956 0014 18D1     		bne	.L122	@,
 300:../lpc11cx4-library/evt_lib/src/ltc6804.c **** 	} else if (state->adc_status != LTC6804_ADC_GCV) {
 1957              		.loc 1 300 0
 1958 0016 0134     		add	r4, r4, #1	@ tmp296,
 1959 0018 4C55     		strb	r4, [r1, r5]	@ tmp296, state_49(D)->adc_status
 1960              	.L123:
 1961 001a 0492     		str	r2, [sp, #16]	@ res, %sfp
 305:../lpc11cx4-library/evt_lib/src/ltc6804.c **** 		_wake(config, state, msTicks, false);
 1962              		.loc 1 305 0
 1963 001c CA68     		ldr	r2, [r1, #12]	@ tmp476, state_49(D)->last_message
 1964              	.LVL213:
 1965 001e 0193     		str	r3, [sp, #4]	@ msTicks, %sfp
 1966 0020 9B1A     		sub	r3, r3, r2	@ D.7963, msTicks, tmp476
 1967              	.LVL214:
 1968 0022 E122     		mov	r2, #225	@ tmp300,
 1969 0024 0C1C     		mov	r4, r1	@ state, state
 1970 0026 0090     		str	r0, [sp]	@ config, %sfp
 1971 0028 D200     		lsl	r2, r2, #3	@ tmp300, tmp300,
 1972 002a 9342     		cmp	r3, r2	@ D.7963, tmp300
 1973 002c 27D8     		bhi	.L203	@,
 308:../lpc11cx4-library/evt_lib/src/ltc6804.c **** 		return LTC6804_WAITING_REFUP;
 1974              		.loc 1 308 0
 1975 002e 019B     		ldr	r3, [sp, #4]	@ msTicks, %sfp
 1976 0030 4A6A     		ldr	r2, [r1, #36]	@ tmp478, state_49(D)->last_sleep_wake
 309:../lpc11cx4-library/evt_lib/src/ltc6804.c **** 	}
 1977              		.loc 1 309 0
 1978 0032 0420     		mov	r0, #4	@ D.7961,
 1979              	.LVL215:
 308:../lpc11cx4-library/evt_lib/src/ltc6804.c **** 		return LTC6804_WAITING_REFUP;
 1980              		.loc 1 308 0
 1981 0034 9B1A     		sub	r3, r3, r2	@ D.7963, msTicks, tmp478
 1982 0036 052B     		cmp	r3, #5	@ D.7963,
 1983 0038 0AD8     		bhi	.L204	@,
 1984              	.LVL216:
 1985              	.L124:
 409:../lpc11cx4-library/evt_lib/src/ltc6804.c **** 
 1986              		.loc 1 409 0
 1987 003a 07B0     		add	sp, sp, #28	@,,
 1988              		@ sp needed	@
 1989 003c 3CBC     		pop	{r2, r3, r4, r5}
 1990 003e 9046     		mov	r8, r2
 1991 0040 9946     		mov	r9, r3
 1992 0042 A246     		mov	r10, r4
 1993 0044 AB46     		mov	fp, r5
 1994 0046 F0BD     		pop	{r4, r5, r6, r7, pc}
 1995              	.LVL217:
 1996              	.L122:
ARM GAS  /var/folders/9j/_txx49hn253_s3mnzkyxlj8m0000gp/T//cczwRa0h.s 			page 61


 301:../lpc11cx4-library/evt_lib/src/ltc6804.c **** 		return LTC6804_WAITING;
 1997              		.loc 1 301 0
 1998 0048 012C     		cmp	r4, #1	@ D.7962,
 1999 004a E6D0     		beq	.L123	@,
 2000              	.LVL218:
 2001              	.L202:
 307:../lpc11cx4-library/evt_lib/src/ltc6804.c **** 	} else if (!_IS_REFUP(state, msTicks)) {
 2002              		.loc 1 307 0
 2003 004c 0020     		mov	r0, #0	@ D.7961,
 2004 004e F4E7     		b	.L124	@
 2005              	.LVL219:
 2006              	.L204:
 312:../lpc11cx4-library/evt_lib/src/ltc6804.c ****     should_zero_balance = true;
 2007              		.loc 1 312 0
 2008 0050 0B7E     		ldrb	r3, [r1, #24]	@ tmp303,
 2009 0052 002B     		cmp	r3, #0	@ tmp303,
 2010 0054 19D1     		bne	.L126	@,
 312:../lpc11cx4-library/evt_lib/src/ltc6804.c ****     should_zero_balance = true;
 2011              		.loc 1 312 0 is_stmt 0 discriminator 1
 2012 0056 C64B     		ldr	r3, .L206	@ tmp304,
 2013 0058 1A78     		ldrb	r2, [r3]	@ should_zero_balance, should_zero_balance
 2014 005a 002A     		cmp	r2, #0	@ should_zero_balance,
 2015 005c 00D1     		bne	.LCB2065	@
 2016 005e 78E1     		b	.L205	@long jump	@
 2017              	.LCB2065:
 319:../lpc11cx4-library/evt_lib/src/ltc6804.c **** 		state->flight_time = msTicks;
 2018              		.loc 1 319 0 is_stmt 1
 2019 0060 0123     		mov	r3, #1	@ tmp310,
 2020 0062 0B76     		strb	r3, [r1, #24]	@ tmp310, state_49(D)->waiting
 321:../lpc11cx4-library/evt_lib/src/ltc6804.c **** 		return LTC6804_WAITING;
 2021              		.loc 1 321 0
 2022 0064 9C23     		mov	r3, #156	@ tmp316,
 320:../lpc11cx4-library/evt_lib/src/ltc6804.c **** 		_command(config, state, (config->adc_mode << 7) | 0x270, msTicks); // ADCV, All Channels, DCP=1
 2023              		.loc 1 320 0
 2024 0066 019D     		ldr	r5, [sp, #4]	@ msTicks, %sfp
 321:../lpc11cx4-library/evt_lib/src/ltc6804.c **** 		return LTC6804_WAITING;
 2025              		.loc 1 321 0
 2026 0068 0098     		ldr	r0, [sp]	@ config, %sfp
 320:../lpc11cx4-library/evt_lib/src/ltc6804.c **** 		_command(config, state, (config->adc_mode << 7) | 0x270, msTicks); // ADCV, All Channels, DCP=1
 2027              		.loc 1 320 0
 2028 006a 2562     		str	r5, [r4, #32]	@ msTicks, state_49(D)->flight_time
 321:../lpc11cx4-library/evt_lib/src/ltc6804.c **** 		return LTC6804_WAITING;
 2029              		.loc 1 321 0
 2030 006c 027E     		ldrb	r2, [r0, #24]	@ D.7966,
 2031 006e 9B00     		lsl	r3, r3, #2	@ tmp316, tmp316,
 2032 0070 D201     		lsl	r2, r2, #7	@ D.7966, D.7966,
 2033 0072 1A43     		orr	r2, r3	@ tmp317, tmp316
 2034 0074 2B1C     		mov	r3, r5	@, msTicks
 2035 0076 FFF7FEFF 		bl	_command	@
 2036              	.LVL220:
 322:../lpc11cx4-library/evt_lib/src/ltc6804.c **** 	} else {
 2037              		.loc 1 322 0
 2038 007a 0020     		mov	r0, #0	@ D.7961,
 2039 007c DDE7     		b	.L124	@
 2040              	.LVL221:
 2041              	.L203:
 306:../lpc11cx4-library/evt_lib/src/ltc6804.c **** 		return LTC6804_WAITING;
ARM GAS  /var/folders/9j/_txx49hn253_s3mnzkyxlj8m0000gp/T//cczwRa0h.s 			page 62


 2042              		.loc 1 306 0
 2043 007e 019A     		ldr	r2, [sp, #4]	@, %sfp
 2044 0080 0023     		mov	r3, #0	@,
 2045 0082 FFF7FEFF 		bl	_wake	@
 2046              	.LVL222:
 307:../lpc11cx4-library/evt_lib/src/ltc6804.c **** 	} else if (!_IS_REFUP(state, msTicks)) {
 2047              		.loc 1 307 0
 2048 0086 0020     		mov	r0, #0	@ D.7961,
 2049 0088 D7E7     		b	.L124	@
 2050              	.LVL223:
 2051              	.L126:
 324:../lpc11cx4-library/evt_lib/src/ltc6804.c **** 		// [TODO] make >=
 2052              		.loc 1 324 0
 2053 008a 0022     		mov	r2, #0	@ tmp319,
 2054 008c B84B     		ldr	r3, .L206	@ tmp318,
 326:../lpc11cx4-library/evt_lib/src/ltc6804.c **** 			state->waiting = false;
 2055              		.loc 1 326 0
 2056 008e 096A     		ldr	r1, [r1, #32]	@ tmp482, state_49(D)->flight_time
 2057              	.LVL224:
 324:../lpc11cx4-library/evt_lib/src/ltc6804.c **** 		// [TODO] make >=
 2058              		.loc 1 324 0
 2059 0090 1A70     		strb	r2, [r3]	@ tmp319, should_zero_balance
 326:../lpc11cx4-library/evt_lib/src/ltc6804.c **** 			state->waiting = false;
 2060              		.loc 1 326 0
 2061 0092 019B     		ldr	r3, [sp, #4]	@ msTicks, %sfp
 2062 0094 5B1A     		sub	r3, r3, r1	@ D.7963, msTicks, tmp482
 2063 0096 E169     		ldr	r1, [r4, #28]	@ tmp483, state_49(D)->wait_time
 2064 0098 8B42     		cmp	r3, r1	@ D.7963, tmp483
 2065 009a D7D9     		bls	.L202	@,
 2066              	.LBB118:
 329:../lpc11cx4-library/evt_lib/src/ltc6804.c **** 			uint32_t min = UINT32_MAX;
 2067              		.loc 1 329 0
 2068 009c 049B     		ldr	r3, [sp, #16]	@ res, %sfp
 327:../lpc11cx4-library/evt_lib/src/ltc6804.c **** 			int i, j;
 2069              		.loc 1 327 0
 2070 009e 2276     		strb	r2, [r4, #24]	@ tmp319, state_49(D)->waiting
 329:../lpc11cx4-library/evt_lib/src/ltc6804.c **** 			uint32_t min = UINT32_MAX;
 2071              		.loc 1 329 0
 2072 00a0 1B68     		ldr	r3, [r3]	@ vol_ptr, res_77(D)->cell_voltages_mV
 337:../lpc11cx4-library/evt_lib/src/ltc6804.c **** 			if (r == LTC6804_PEC_ERROR) return r;
 2073              		.loc 1 337 0
 2074 00a2 0098     		ldr	r0, [sp]	@, %sfp
 329:../lpc11cx4-library/evt_lib/src/ltc6804.c **** 			uint32_t min = UINT32_MAX;
 2075              		.loc 1 329 0
 2076 00a4 0293     		str	r3, [sp, #8]	@ vol_ptr, %sfp
 2077              	.LVL225:
 337:../lpc11cx4-library/evt_lib/src/ltc6804.c **** 			if (r == LTC6804_PEC_ERROR) return r;
 2078              		.loc 1 337 0
 2079 00a6 211C     		mov	r1, r4	@, state
 2080 00a8 0432     		add	r2, r2, #4	@,
 2081 00aa 019B     		ldr	r3, [sp, #4]	@, %sfp
 2082              	.LVL226:
 2083 00ac FFF7FEFF 		bl	_read	@
 2084              	.LVL227:
 338:../lpc11cx4-library/evt_lib/src/ltc6804.c **** 			for (i = 0; i < config->num_modules; i++) {
 2085              		.loc 1 338 0
 2086 00b0 0328     		cmp	r0, #3	@ tmp326,
ARM GAS  /var/folders/9j/_txx49hn253_s3mnzkyxlj8m0000gp/T//cczwRa0h.s 			page 63


 2087 00b2 00D1     		bne	.LCB2131	@
 2088 00b4 4BE1     		b	.L136	@long jump	@
 2089              	.LCB2131:
 2090              	.LVL228:
 339:../lpc11cx4-library/evt_lib/src/ltc6804.c **** 				uint8_t *rx_ptr = state->rx_buf + 4 + 8 * i;
 2091              		.loc 1 339 0 discriminator 1
 2092 00b6 009B     		ldr	r3, [sp]	@ config, %sfp
 2093 00b8 9A7A     		ldrb	r2, [r3, #10]	@ D.7966,
 2094 00ba 002A     		cmp	r2, #0	@ D.7966,
 2095 00bc 00D1     		bne	.LCB2140	@
 2096 00be 51E1     		b	.L156	@long jump	@
 2097              	.LCB2140:
 2098 00c0 A168     		ldr	r1, [r4, #8]	@ tmp491, state_49(D)->rx_buf
 339:../lpc11cx4-library/evt_lib/src/ltc6804.c **** 				uint8_t *rx_ptr = state->rx_buf + 4 + 8 * i;
 2099              		.loc 1 339 0 is_stmt 0
 2100 00c2 0026     		mov	r6, #0	@ max,
 2101 00c4 0431     		add	r1, r1, #4	@ ivtmp.191,
 2102 00c6 0391     		str	r1, [sp, #12]	@ ivtmp.191, %sfp
 2103 00c8 0121     		mov	r1, #1	@ min,
 2104 00ca DB68     		ldr	r3, [r3, #12]	@ D.7974, config_55(D)->module_cell_count
 2105 00cc A94D     		ldr	r5, .L206+4	@ failed_read,
 2106 00ce 4942     		neg	r1, r1	@ min, min
 2107 00d0 8B46     		mov	fp, r1	@ min, min
 2108 00d2 A846     		mov	r8, r5	@ failed_read, failed_read
 2109 00d4 B146     		mov	r9, r6	@ max, max
 2110 00d6 9A46     		mov	r10, r3	@ D.7974, D.7974
 2111 00d8 0594     		str	r4, [sp, #20]	@ state, %sfp
 2112              	.LVL229:
 2113              	.L135:
 2114              	.LBB119:
 341:../lpc11cx4-library/evt_lib/src/ltc6804.c **** 					uint16_t vol = (rx_ptr[2 * j + 1] << 8 | rx_ptr[2 * j]);
 2115              		.loc 1 341 0 is_stmt 1
 2116 00da 5346     		mov	r3, r10	@ D.7974, D.7974
 2117 00dc 9B5D     		ldrb	r3, [r3, r6]	@ D.7969, MEM[base: _547, index: _108, offset: 0B]
 2118 00de 002B     		cmp	r3, #0	@ D.7969,
 2119 00e0 22D0     		beq	.L131	@,
 2120 00e2 331C     		mov	r3, r6	@ i, i
 2121 00e4 0024     		mov	r4, #0	@ j,
 2122 00e6 4646     		mov	r6, r8	@ failed_read, failed_read
 2123              	.LVL230:
 2124 00e8 9846     		mov	r8, r3	@ i, i
 2125              	.LVL231:
 2126 00ea 029D     		ldr	r5, [sp, #8]	@ ivtmp.186, %sfp
 2127 00ec 039F     		ldr	r7, [sp, #12]	@ ivtmp.185, %sfp
 2128              	.LVL232:
 2129              	.L134:
 2130              	.LBB120:
 342:../lpc11cx4-library/evt_lib/src/ltc6804.c **** 					failed_read &= vol;
 2131              		.loc 1 342 0 discriminator 4
 2132 00ee 7878     		ldrb	r0, [r7, #1]	@ D.7966, MEM[base: _88, offset: 1B]
 2133 00f0 3B78     		ldrb	r3, [r7]	@ MEM[base: _88, offset: 0B], MEM[base: _88, offset: 0B]
 2134 00f2 0002     		lsl	r0, r0, #8	@ D.7966, D.7966,
 2135 00f4 1843     		orr	r0, r3	@ vol, MEM[base: _88, offset: 0B]
 2136              	.LVL233:
 343:../lpc11cx4-library/evt_lib/src/ltc6804.c **** 					vol_ptr[j] = divu10(vol);
 2137              		.loc 1 343 0 discriminator 4
 2138 00f6 0640     		and	r6, r0	@ failed_read, vol
ARM GAS  /var/folders/9j/_txx49hn253_s3mnzkyxlj8m0000gp/T//cczwRa0h.s 			page 64


 2139              	.LVL234:
 344:../lpc11cx4-library/evt_lib/src/ltc6804.c **** 					max = (vol_ptr[j] > max) ? vol_ptr[j] : max;
 2140              		.loc 1 344 0 discriminator 4
 2141 00f8 FFF7FEFF 		bl	divu10	@
 2142              	.LVL235:
 2143 00fc 2860     		str	r0, [r5]	@ D.7963, MEM[base: _145, offset: 0B]
 345:../lpc11cx4-library/evt_lib/src/ltc6804.c **** 					min = (vol_ptr[j] < min) ? vol_ptr[j] : min;
 2144              		.loc 1 345 0 discriminator 4
 2145 00fe 8145     		cmp	r9, r0	@ max, D.7963
 2146 0100 00D2     		bcs	.L132	@,
 2147 0102 8146     		mov	r9, r0	@ max, D.7963
 2148              	.LVL236:
 2149              	.L132:
 346:../lpc11cx4-library/evt_lib/src/ltc6804.c **** 				}
 2150              		.loc 1 346 0 discriminator 4
 2151 0104 8345     		cmp	fp, r0	@ min, D.7963
 2152 0106 00D9     		bls	.L133	@,
 2153 0108 8346     		mov	fp, r0	@ min, D.7963
 2154              	.LVL237:
 2155              	.L133:
 2156              	.LBE120:
 341:../lpc11cx4-library/evt_lib/src/ltc6804.c **** 					uint16_t vol = (rx_ptr[2 * j + 1] << 8 | rx_ptr[2 * j]);
 2157              		.loc 1 341 0 discriminator 4
 2158 010a 5346     		mov	r3, r10	@ D.7974, D.7974
 2159 010c 4246     		mov	r2, r8	@ i, i
 2160 010e 9B5C     		ldrb	r3, [r3, r2]	@ D.7969, MEM[base: _547, index: _108, offset: 0B]
 2161 0110 0134     		add	r4, r4, #1	@ j,
 2162              	.LVL238:
 2163 0112 A342     		cmp	r3, r4	@ D.7969, j
 2164 0114 04DD     		ble	.L198	@,
 2165              	.LVL239:
 2166 0116 0237     		add	r7, r7, #2	@ ivtmp.185,
 2167 0118 0435     		add	r5, r5, #4	@ ivtmp.186,
 341:../lpc11cx4-library/evt_lib/src/ltc6804.c **** 					uint16_t vol = (rx_ptr[2 * j + 1] << 8 | rx_ptr[2 * j]);
 2168              		.loc 1 341 0 is_stmt 0 discriminator 3
 2169 011a 032C     		cmp	r4, #3	@ j,
 2170 011c E7D1     		bne	.L134	@,
 2171 011e 4246     		mov	r2, r8	@ i, i
 2172              	.LVL240:
 2173              	.L198:
 2174 0120 B046     		mov	r8, r6	@ failed_read, failed_read
 2175 0122 161C     		mov	r6, r2	@ i, i
 2176              	.LVL241:
 2177 0124 009A     		ldr	r2, [sp]	@ config, %sfp
 2178              	.LVL242:
 2179 0126 927A     		ldrb	r2, [r2, #10]	@ D.7966,
 2180              	.LVL243:
 2181              	.L131:
 348:../lpc11cx4-library/evt_lib/src/ltc6804.c **** 			}
 2182              		.loc 1 348 0 is_stmt 1 discriminator 2
 2183 0128 0299     		ldr	r1, [sp, #8]	@ vol_ptr, %sfp
 2184 012a 9B00     		lsl	r3, r3, #2	@ D.7973, D.7969,
 2185 012c 8C46     		mov	ip, r1	@ vol_ptr, vol_ptr
 2186 012e 9C44     		add	ip, ip, r3	@ vol_ptr, D.7973
 2187 0130 6346     		mov	r3, ip	@ vol_ptr, vol_ptr
 2188 0132 0293     		str	r3, [sp, #8]	@ vol_ptr, %sfp
 2189              	.LVL244:
ARM GAS  /var/folders/9j/_txx49hn253_s3mnzkyxlj8m0000gp/T//cczwRa0h.s 			page 65


 2190 0134 039B     		ldr	r3, [sp, #12]	@ ivtmp.191, %sfp
 2191              	.LVL245:
 2192              	.LBE119:
 339:../lpc11cx4-library/evt_lib/src/ltc6804.c **** 				uint8_t *rx_ptr = state->rx_buf + 4 + 8 * i;
 2193              		.loc 1 339 0 discriminator 2
 2194 0136 0136     		add	r6, r6, #1	@ i,
 2195              	.LVL246:
 2196 0138 0833     		add	r3, r3, #8	@ ivtmp.191,
 2197 013a 0393     		str	r3, [sp, #12]	@ ivtmp.191, %sfp
 2198              	.LVL247:
 2199 013c B242     		cmp	r2, r6	@ D.7966, i
 2200 013e CCDC     		bgt	.L135	@,
 2201 0140 4546     		mov	r5, r8	@ failed_read, failed_read
 2202 0142 4E46     		mov	r6, r9	@ max, max
 2203              	.LVL248:
 2204 0144 059C     		ldr	r4, [sp, #20]	@ state, %sfp
 2205              	.LVL249:
 2206              	.L130:
 351:../lpc11cx4-library/evt_lib/src/ltc6804.c **** 			if (r == LTC6804_PEC_ERROR) return r;
 2207              		.loc 1 351 0
 2208 0146 009F     		ldr	r7, [sp]	@ config, %sfp
 2209 0148 211C     		mov	r1, r4	@, state
 2210 014a 381C     		mov	r0, r7	@, config
 2211 014c 0622     		mov	r2, #6	@,
 2212 014e 019B     		ldr	r3, [sp, #4]	@, %sfp
 2213 0150 FFF7FEFF 		bl	_read	@
 2214              	.LVL250:
 352:../lpc11cx4-library/evt_lib/src/ltc6804.c **** 			vol_ptr = res->cell_voltages_mV;
 2215              		.loc 1 352 0
 2216 0154 0328     		cmp	r0, #3	@ tmp339,
 2217 0156 00D1     		bne	.LCB2316	@
 2218 0158 F9E0     		b	.L136	@long jump	@
 2219              	.LCB2316:
 353:../lpc11cx4-library/evt_lib/src/ltc6804.c **** 			for (i = 0; i < config->num_modules; i++) {
 2220              		.loc 1 353 0
 2221 015a 049A     		ldr	r2, [sp, #16]	@ res, %sfp
 2222 015c 1268     		ldr	r2, [r2]	@ vol_ptr, res_77(D)->cell_voltages_mV
 2223 015e 0292     		str	r2, [sp, #8]	@ vol_ptr, %sfp
 2224              	.LVL251:
 354:../lpc11cx4-library/evt_lib/src/ltc6804.c **** 				uint8_t *rx_ptr = state->rx_buf + 4 + 8 * i;
 2225              		.loc 1 354 0
 2226 0160 BA7A     		ldrb	r2, [r7, #10]	@ D.7966,
 2227              	.LVL252:
 2228 0162 002A     		cmp	r2, #0	@ D.7966,
 2229 0164 41D0     		beq	.L137	@,
 2230 0166 A168     		ldr	r1, [r4, #8]	@ tmp514, state_49(D)->rx_buf
 2231 0168 FB68     		ldr	r3, [r7, #12]	@ D.7974, config_55(D)->module_cell_count
 2232 016a 0431     		add	r1, r1, #4	@ ivtmp.175,
 2233 016c 0391     		str	r1, [sp, #12]	@ ivtmp.175, %sfp
 2234 016e 0021     		mov	r1, #0	@ i,
 2235 0170 B146     		mov	r9, r6	@ max, max
 2236 0172 A846     		mov	r8, r5	@ failed_read, failed_read
 2237 0174 0E1C     		mov	r6, r1	@ i, i
 2238              	.LVL253:
 2239 0176 9A46     		mov	r10, r3	@ D.7974, D.7974
 2240 0178 0594     		str	r4, [sp, #20]	@ state, %sfp
 2241              	.LVL254:
ARM GAS  /var/folders/9j/_txx49hn253_s3mnzkyxlj8m0000gp/T//cczwRa0h.s 			page 66


 2242              	.L142:
 2243              	.LBB121:
 356:../lpc11cx4-library/evt_lib/src/ltc6804.c **** 					uint16_t vol = (rx_ptr[2 * j + 1] << 8 | rx_ptr[2 * j]);
 2244              		.loc 1 356 0
 2245 017a 5346     		mov	r3, r10	@ D.7974, D.7974
 2246 017c 9B5D     		ldrb	r3, [r3, r6]	@ D.7969, MEM[base: _530, index: _153, offset: 0B]
 2247 017e 032B     		cmp	r3, #3	@ D.7969,
 2248 0180 24DD     		ble	.L138	@,
 2249 0182 331C     		mov	r3, r6	@ i, i
 2250 0184 0024     		mov	r4, #0	@ j,
 2251 0186 4646     		mov	r6, r8	@ failed_read, failed_read
 2252              	.LVL255:
 2253 0188 9846     		mov	r8, r3	@ i, i
 2254              	.LVL256:
 2255 018a 029D     		ldr	r5, [sp, #8]	@ ivtmp.168, %sfp
 2256 018c 039F     		ldr	r7, [sp, #12]	@ ivtmp.167, %sfp
 2257 018e 0C35     		add	r5, r5, #12	@ ivtmp.168,
 2258              	.LVL257:
 2259              	.L141:
 2260              	.LBB122:
 357:../lpc11cx4-library/evt_lib/src/ltc6804.c **** 					failed_read &= vol;
 2261              		.loc 1 357 0 discriminator 4
 2262 0190 7878     		ldrb	r0, [r7, #1]	@ D.7966, MEM[base: _340, offset: 1B]
 2263 0192 3B78     		ldrb	r3, [r7]	@ MEM[base: _340, offset: 0B], MEM[base: _340, offset: 0B]
 2264 0194 0002     		lsl	r0, r0, #8	@ D.7966, D.7966,
 2265 0196 1843     		orr	r0, r3	@ vol, MEM[base: _340, offset: 0B]
 2266              	.LVL258:
 358:../lpc11cx4-library/evt_lib/src/ltc6804.c **** 					vol_ptr[j + 3] = divu10(vol);
 2267              		.loc 1 358 0 discriminator 4
 2268 0198 0640     		and	r6, r0	@ failed_read, vol
 2269              	.LVL259:
 359:../lpc11cx4-library/evt_lib/src/ltc6804.c **** 					max = (vol_ptr[j + 3] > max) ? vol_ptr[j + 3] : max;
 2270              		.loc 1 359 0 discriminator 4
 2271 019a FFF7FEFF 		bl	divu10	@
 2272              	.LVL260:
 2273 019e 2860     		str	r0, [r5]	@ D.7963, MEM[base: _190, offset: 0B]
 360:../lpc11cx4-library/evt_lib/src/ltc6804.c **** 					min = (vol_ptr[j + 3] < min) ? vol_ptr[j + 3] : min;
 2274              		.loc 1 360 0 discriminator 4
 2275 01a0 8145     		cmp	r9, r0	@ max, D.7963
 2276 01a2 00D2     		bcs	.L139	@,
 2277 01a4 8146     		mov	r9, r0	@ max, D.7963
 2278              	.LVL261:
 2279              	.L139:
 361:../lpc11cx4-library/evt_lib/src/ltc6804.c **** 				} 
 2280              		.loc 1 361 0 discriminator 4
 2281 01a6 8345     		cmp	fp, r0	@ min, D.7963
 2282 01a8 00D9     		bls	.L140	@,
 2283 01aa 8346     		mov	fp, r0	@ min, D.7963
 2284              	.LVL262:
 2285              	.L140:
 2286              	.LBE122:
 356:../lpc11cx4-library/evt_lib/src/ltc6804.c **** 					uint16_t vol = (rx_ptr[2 * j + 1] << 8 | rx_ptr[2 * j]);
 2287              		.loc 1 356 0 discriminator 4
 2288 01ac 4246     		mov	r2, r8	@ i, i
 2289 01ae 5346     		mov	r3, r10	@ D.7974, D.7974
 2290 01b0 0134     		add	r4, r4, #1	@ j,
 2291              	.LVL263:
ARM GAS  /var/folders/9j/_txx49hn253_s3mnzkyxlj8m0000gp/T//cczwRa0h.s 			page 67


 2292 01b2 9B5C     		ldrb	r3, [r3, r2]	@ D.7969, MEM[base: _530, index: _153, offset: 0B]
 2293 01b4 E21C     		add	r2, r4, #3	@ D.7975, j,
 2294 01b6 9342     		cmp	r3, r2	@ D.7969, D.7975
 2295 01b8 03DD     		ble	.L199	@,
 2296 01ba 0237     		add	r7, r7, #2	@ ivtmp.167,
 2297 01bc 0435     		add	r5, r5, #4	@ ivtmp.168,
 356:../lpc11cx4-library/evt_lib/src/ltc6804.c **** 					uint16_t vol = (rx_ptr[2 * j + 1] << 8 | rx_ptr[2 * j]);
 2298              		.loc 1 356 0 is_stmt 0 discriminator 3
 2299 01be 032C     		cmp	r4, #3	@ j,
 2300 01c0 E6D1     		bne	.L141	@,
 2301              	.L199:
 2302 01c2 4246     		mov	r2, r8	@ i, i
 2303 01c4 B046     		mov	r8, r6	@ failed_read, failed_read
 2304              	.LVL264:
 2305 01c6 161C     		mov	r6, r2	@ i, i
 2306              	.LVL265:
 2307 01c8 009A     		ldr	r2, [sp]	@ config, %sfp
 2308              	.LVL266:
 2309 01ca 927A     		ldrb	r2, [r2, #10]	@ D.7966,
 2310              	.LVL267:
 2311              	.L138:
 363:../lpc11cx4-library/evt_lib/src/ltc6804.c **** 			}
 2312              		.loc 1 363 0 is_stmt 1 discriminator 2
 2313 01cc 0299     		ldr	r1, [sp, #8]	@ vol_ptr, %sfp
 2314 01ce 9B00     		lsl	r3, r3, #2	@ D.7973, D.7969,
 2315 01d0 8C46     		mov	ip, r1	@ vol_ptr, vol_ptr
 2316 01d2 9C44     		add	ip, ip, r3	@ vol_ptr, D.7973
 2317 01d4 6346     		mov	r3, ip	@ vol_ptr, vol_ptr
 2318 01d6 0293     		str	r3, [sp, #8]	@ vol_ptr, %sfp
 2319              	.LVL268:
 2320 01d8 039B     		ldr	r3, [sp, #12]	@ ivtmp.175, %sfp
 2321              	.LVL269:
 2322              	.LBE121:
 354:../lpc11cx4-library/evt_lib/src/ltc6804.c **** 				uint8_t *rx_ptr = state->rx_buf + 4 + 8 * i;
 2323              		.loc 1 354 0 discriminator 2
 2324 01da 0136     		add	r6, r6, #1	@ i,
 2325              	.LVL270:
 2326 01dc 0833     		add	r3, r3, #8	@ ivtmp.175,
 2327 01de 0393     		str	r3, [sp, #12]	@ ivtmp.175, %sfp
 2328              	.LVL271:
 2329 01e0 B242     		cmp	r2, r6	@ D.7966, i
 2330 01e2 CADC     		bgt	.L142	@,
 2331 01e4 4546     		mov	r5, r8	@ failed_read, failed_read
 2332 01e6 4E46     		mov	r6, r9	@ max, max
 2333              	.LVL272:
 2334 01e8 059C     		ldr	r4, [sp, #20]	@ state, %sfp
 2335              	.LVL273:
 2336              	.L137:
 366:../lpc11cx4-library/evt_lib/src/ltc6804.c **** 			if (r == LTC6804_PEC_ERROR) return r;
 2337              		.loc 1 366 0
 2338 01ea 009F     		ldr	r7, [sp]	@ config, %sfp
 2339 01ec 211C     		mov	r1, r4	@, state
 2340 01ee 381C     		mov	r0, r7	@, config
 2341 01f0 0822     		mov	r2, #8	@,
 2342 01f2 019B     		ldr	r3, [sp, #4]	@, %sfp
 2343 01f4 FFF7FEFF 		bl	_read	@
 2344              	.LVL274:
ARM GAS  /var/folders/9j/_txx49hn253_s3mnzkyxlj8m0000gp/T//cczwRa0h.s 			page 68


 367:../lpc11cx4-library/evt_lib/src/ltc6804.c **** 			vol_ptr = res->cell_voltages_mV;
 2345              		.loc 1 367 0
 2346 01f8 0328     		cmp	r0, #3	@ tmp353,
 2347 01fa 00D1     		bne	.LCB2500	@
 2348 01fc A7E0     		b	.L136	@long jump	@
 2349              	.LCB2500:
 368:../lpc11cx4-library/evt_lib/src/ltc6804.c **** 			for (i = 0; i < config->num_modules; i++) {
 2350              		.loc 1 368 0
 2351 01fe 049A     		ldr	r2, [sp, #16]	@ res, %sfp
 2352 0200 1268     		ldr	r2, [r2]	@ vol_ptr, res_77(D)->cell_voltages_mV
 2353 0202 0292     		str	r2, [sp, #8]	@ vol_ptr, %sfp
 2354              	.LVL275:
 369:../lpc11cx4-library/evt_lib/src/ltc6804.c **** 				uint8_t *rx_ptr = state->rx_buf + 4 + 8 * i;
 2355              		.loc 1 369 0
 2356 0204 BA7A     		ldrb	r2, [r7, #10]	@ D.7966,
 2357              	.LVL276:
 2358 0206 002A     		cmp	r2, #0	@ D.7966,
 2359 0208 41D0     		beq	.L143	@,
 2360 020a A168     		ldr	r1, [r4, #8]	@ tmp536, state_49(D)->rx_buf
 2361 020c FB68     		ldr	r3, [r7, #12]	@ D.7974, config_55(D)->module_cell_count
 2362 020e 0431     		add	r1, r1, #4	@ ivtmp.157,
 2363 0210 0391     		str	r1, [sp, #12]	@ ivtmp.157, %sfp
 2364 0212 0021     		mov	r1, #0	@ i,
 2365 0214 B146     		mov	r9, r6	@ max, max
 2366 0216 A846     		mov	r8, r5	@ failed_read, failed_read
 2367 0218 0E1C     		mov	r6, r1	@ i, i
 2368              	.LVL277:
 2369 021a 9A46     		mov	r10, r3	@ D.7974, D.7974
 2370 021c 0594     		str	r4, [sp, #20]	@ state, %sfp
 2371              	.LVL278:
 2372              	.L148:
 2373              	.LBB123:
 371:../lpc11cx4-library/evt_lib/src/ltc6804.c **** 					uint16_t vol = (rx_ptr[2 * j + 1] << 8 | rx_ptr[2 * j]);
 2374              		.loc 1 371 0
 2375 021e 5346     		mov	r3, r10	@ D.7974, D.7974
 2376 0220 9B5D     		ldrb	r3, [r3, r6]	@ D.7969, MEM[base: _513, index: _198, offset: 0B]
 2377 0222 062B     		cmp	r3, #6	@ D.7969,
 2378 0224 24DD     		ble	.L144	@,
 2379 0226 331C     		mov	r3, r6	@ i, i
 2380 0228 0024     		mov	r4, #0	@ j,
 2381 022a 4646     		mov	r6, r8	@ failed_read, failed_read
 2382              	.LVL279:
 2383 022c 9846     		mov	r8, r3	@ i, i
 2384              	.LVL280:
 2385 022e 029D     		ldr	r5, [sp, #8]	@ ivtmp.150, %sfp
 2386 0230 039F     		ldr	r7, [sp, #12]	@ ivtmp.149, %sfp
 2387 0232 1835     		add	r5, r5, #24	@ ivtmp.150,
 2388              	.LVL281:
 2389              	.L147:
 2390              	.LBB124:
 372:../lpc11cx4-library/evt_lib/src/ltc6804.c **** 					failed_read &= vol;
 2391              		.loc 1 372 0 discriminator 4
 2392 0234 7878     		ldrb	r0, [r7, #1]	@ D.7966, MEM[base: _358, offset: 1B]
 2393 0236 3B78     		ldrb	r3, [r7]	@ MEM[base: _358, offset: 0B], MEM[base: _358, offset: 0B]
 2394 0238 0002     		lsl	r0, r0, #8	@ D.7966, D.7966,
 2395 023a 1843     		orr	r0, r3	@ vol, MEM[base: _358, offset: 0B]
 2396              	.LVL282:
ARM GAS  /var/folders/9j/_txx49hn253_s3mnzkyxlj8m0000gp/T//cczwRa0h.s 			page 69


 373:../lpc11cx4-library/evt_lib/src/ltc6804.c **** 					vol_ptr[j + 6] = divu10(vol);
 2397              		.loc 1 373 0 discriminator 4
 2398 023c 0640     		and	r6, r0	@ failed_read, vol
 2399              	.LVL283:
 374:../lpc11cx4-library/evt_lib/src/ltc6804.c **** 					max = (vol_ptr[j + 6] > max) ? vol_ptr[j + 6] : max;
 2400              		.loc 1 374 0 discriminator 4
 2401 023e FFF7FEFF 		bl	divu10	@
 2402              	.LVL284:
 2403 0242 2860     		str	r0, [r5]	@ D.7963, MEM[base: _235, offset: 0B]
 375:../lpc11cx4-library/evt_lib/src/ltc6804.c **** 					min = (vol_ptr[j + 6] < min) ? vol_ptr[j + 6] : min;
 2404              		.loc 1 375 0 discriminator 4
 2405 0244 8145     		cmp	r9, r0	@ max, D.7963
 2406 0246 00D2     		bcs	.L145	@,
 2407 0248 8146     		mov	r9, r0	@ max, D.7963
 2408              	.LVL285:
 2409              	.L145:
 376:../lpc11cx4-library/evt_lib/src/ltc6804.c **** 				} 
 2410              		.loc 1 376 0 discriminator 4
 2411 024a 8345     		cmp	fp, r0	@ min, D.7963
 2412 024c 00D9     		bls	.L146	@,
 2413 024e 8346     		mov	fp, r0	@ min, D.7963
 2414              	.LVL286:
 2415              	.L146:
 2416              	.LBE124:
 371:../lpc11cx4-library/evt_lib/src/ltc6804.c **** 					uint16_t vol = (rx_ptr[2 * j + 1] << 8 | rx_ptr[2 * j]);
 2417              		.loc 1 371 0 discriminator 4
 2418 0250 4246     		mov	r2, r8	@ i, i
 2419 0252 5346     		mov	r3, r10	@ D.7974, D.7974
 2420 0254 0134     		add	r4, r4, #1	@ j,
 2421              	.LVL287:
 2422 0256 9B5C     		ldrb	r3, [r3, r2]	@ D.7969, MEM[base: _513, index: _198, offset: 0B]
 2423 0258 A21D     		add	r2, r4, #6	@ D.7975, j,
 2424 025a 9342     		cmp	r3, r2	@ D.7969, D.7975
 2425 025c 03DD     		ble	.L200	@,
 2426 025e 0237     		add	r7, r7, #2	@ ivtmp.149,
 2427 0260 0435     		add	r5, r5, #4	@ ivtmp.150,
 371:../lpc11cx4-library/evt_lib/src/ltc6804.c **** 					uint16_t vol = (rx_ptr[2 * j + 1] << 8 | rx_ptr[2 * j]);
 2428              		.loc 1 371 0 is_stmt 0 discriminator 3
 2429 0262 032C     		cmp	r4, #3	@ j,
 2430 0264 E6D1     		bne	.L147	@,
 2431              	.L200:
 2432 0266 4246     		mov	r2, r8	@ i, i
 2433 0268 B046     		mov	r8, r6	@ failed_read, failed_read
 2434              	.LVL288:
 2435 026a 161C     		mov	r6, r2	@ i, i
 2436              	.LVL289:
 2437 026c 009A     		ldr	r2, [sp]	@ config, %sfp
 2438              	.LVL290:
 2439 026e 927A     		ldrb	r2, [r2, #10]	@ D.7966,
 2440              	.LVL291:
 2441              	.L144:
 378:../lpc11cx4-library/evt_lib/src/ltc6804.c **** 			}
 2442              		.loc 1 378 0 is_stmt 1 discriminator 2
 2443 0270 0299     		ldr	r1, [sp, #8]	@ vol_ptr, %sfp
 2444 0272 9B00     		lsl	r3, r3, #2	@ D.7973, D.7969,
 2445 0274 8C46     		mov	ip, r1	@ vol_ptr, vol_ptr
 2446 0276 9C44     		add	ip, ip, r3	@ vol_ptr, D.7973
ARM GAS  /var/folders/9j/_txx49hn253_s3mnzkyxlj8m0000gp/T//cczwRa0h.s 			page 70


 2447 0278 6346     		mov	r3, ip	@ vol_ptr, vol_ptr
 2448 027a 0293     		str	r3, [sp, #8]	@ vol_ptr, %sfp
 2449              	.LVL292:
 2450 027c 039B     		ldr	r3, [sp, #12]	@ ivtmp.157, %sfp
 2451              	.LVL293:
 2452              	.LBE123:
 369:../lpc11cx4-library/evt_lib/src/ltc6804.c **** 				uint8_t *rx_ptr = state->rx_buf + 4 + 8 * i;
 2453              		.loc 1 369 0 discriminator 2
 2454 027e 0136     		add	r6, r6, #1	@ i,
 2455              	.LVL294:
 2456 0280 0833     		add	r3, r3, #8	@ ivtmp.157,
 2457 0282 0393     		str	r3, [sp, #12]	@ ivtmp.157, %sfp
 2458              	.LVL295:
 2459 0284 B242     		cmp	r2, r6	@ D.7966, i
 2460 0286 CADC     		bgt	.L148	@,
 2461 0288 4546     		mov	r5, r8	@ failed_read, failed_read
 2462 028a 4E46     		mov	r6, r9	@ max, max
 2463              	.LVL296:
 2464 028c 059C     		ldr	r4, [sp, #20]	@ state, %sfp
 2465              	.LVL297:
 2466              	.L143:
 381:../lpc11cx4-library/evt_lib/src/ltc6804.c **** 			if (r == LTC6804_PEC_ERROR) return r;
 2467              		.loc 1 381 0
 2468 028e 009F     		ldr	r7, [sp]	@ config, %sfp
 2469 0290 211C     		mov	r1, r4	@, state
 2470 0292 381C     		mov	r0, r7	@, config
 2471 0294 0A22     		mov	r2, #10	@,
 2472 0296 019B     		ldr	r3, [sp, #4]	@, %sfp
 2473 0298 FFF7FEFF 		bl	_read	@
 2474              	.LVL298:
 382:../lpc11cx4-library/evt_lib/src/ltc6804.c **** 			vol_ptr = res->cell_voltages_mV;
 2475              		.loc 1 382 0
 2476 029c 0328     		cmp	r0, #3	@ tmp367,
 2477 029e 56D0     		beq	.L136	@,
 383:../lpc11cx4-library/evt_lib/src/ltc6804.c **** 			for (i = 0; i < config->num_modules; i++) {
 2478              		.loc 1 383 0
 2479 02a0 049A     		ldr	r2, [sp, #16]	@ res, %sfp
 2480 02a2 1268     		ldr	r2, [r2]	@ vol_ptr, res_77(D)->cell_voltages_mV
 2481 02a4 0192     		str	r2, [sp, #4]	@ vol_ptr, %sfp
 2482              	.LVL299:
 384:../lpc11cx4-library/evt_lib/src/ltc6804.c **** 				uint8_t *rx_ptr = state->rx_buf + 4 + 8 * i;
 2483              		.loc 1 384 0
 2484 02a6 BA7A     		ldrb	r2, [r7, #10]	@ D.7966,
 2485              	.LVL300:
 2486 02a8 002A     		cmp	r2, #0	@ D.7966,
 2487 02aa 42D0     		beq	.L149	@,
 2488 02ac A168     		ldr	r1, [r4, #8]	@ tmp558, state_49(D)->rx_buf
 2489 02ae FB68     		ldr	r3, [r7, #12]	@ D.7974, config_55(D)->module_cell_count
 2490 02b0 0431     		add	r1, r1, #4	@ ivtmp.139,
 2491 02b2 0291     		str	r1, [sp, #8]	@ ivtmp.139, %sfp
 2492 02b4 0021     		mov	r1, #0	@ i,
 2493 02b6 B146     		mov	r9, r6	@ max, max
 2494 02b8 A846     		mov	r8, r5	@ failed_read, failed_read
 2495 02ba 0E1C     		mov	r6, r1	@ i, i
 2496              	.LVL301:
 2497 02bc 9A46     		mov	r10, r3	@ D.7974, D.7974
 2498 02be 0394     		str	r4, [sp, #12]	@ state, %sfp
ARM GAS  /var/folders/9j/_txx49hn253_s3mnzkyxlj8m0000gp/T//cczwRa0h.s 			page 71


 2499              	.LVL302:
 2500              	.L154:
 2501              	.LBB125:
 386:../lpc11cx4-library/evt_lib/src/ltc6804.c **** 					uint16_t vol = (rx_ptr[2 * j + 1] << 8 | rx_ptr[2 * j]);
 2502              		.loc 1 386 0
 2503 02c0 5346     		mov	r3, r10	@ D.7974, D.7974
 2504 02c2 9B5D     		ldrb	r3, [r3, r6]	@ D.7969, MEM[base: _496, index: _243, offset: 0B]
 2505 02c4 092B     		cmp	r3, #9	@ D.7969,
 2506 02c6 25DD     		ble	.L150	@,
 2507 02c8 331C     		mov	r3, r6	@ i, i
 2508 02ca 0024     		mov	r4, #0	@ j,
