ARM GAS  /var/folders/9j/_txx49hn253_s3mnzkyxlj8m0000gp/T//ccxigpJH.s 			page 1


   1              		.cpu cortex-m0
   2              		.fpu softvfp
   3              		.eabi_attribute 20, 1	@ Tag_ABI_FP_denormal
   4              		.eabi_attribute 21, 1	@ Tag_ABI_FP_exceptions
   5              		.eabi_attribute 23, 3	@ Tag_ABI_FP_number_model
   6              		.eabi_attribute 24, 1	@ Tag_ABI_align8_needed
   7              		.eabi_attribute 25, 1	@ Tag_ABI_align8_preserved
   8              		.eabi_attribute 26, 1	@ Tag_ABI_enum_size
   9              		.eabi_attribute 30, 2	@ Tag_ABI_optimization_goals
  10              		.eabi_attribute 34, 0	@ Tag_CPU_unaligned_access
  11              		.eabi_attribute 18, 4	@ Tag_ABI_PCS_wchar_t
  12              		.file	"MY17_Can_Library_Test.c"
  13              	@ GNU C (GNU Tools for ARM Embedded Processors) version 4.9.3 20150529 (release) [ARM/embedded-4_9-
  14              	@	compiled by GNU C version 4.2.1 (Based on Apple Inc. build 5658) (LLVM build 2336.9.00), GMP vers
  15              	@ GGC heuristics: --param ggc-min-expand=100 --param ggc-min-heapsize=131072
  16              	@ options passed:  -I . -I inc/
  17              	@ -I ../lpc11cx4-library/lpc_chip_11cxx_lib/inc
  18              	@ -I ../lpc11cx4-library/evt_lib/inc/ -I ../MY17/lib/MY17_Can_Library
  19              	@ -imultilib armv6-m
  20              	@ -iprefix /usr/local/Cellar/gcc-arm-none-eabi/20150925/bin/../lib/gcc/arm-none-eabi/4.9.3/
  21              	@ -isysroot /usr/local/Cellar/gcc-arm-none-eabi/20150925/bin/../arm-none-eabi
  22              	@ -MD bin/MY17_Can_Library_Test.d -MF bin/MY17_Can_Library_Test.d -MP
  23              	@ -MQ bin/MY17_Can_Library_Test.o -D__USES_INITFINI__ -D UART_BAUD=115200
  24              	@ -D CORE_M0 -D DEBUG_ENABLE -D CAN_ARCHITECTURE_ARM
  25              	@ ../MY17/lib/MY17_Can_Library/MY17_Can_Library_Test.c -mcpu=cortex-m0
  26              	@ -mthumb -auxbase-strip bin/MY17_Can_Library_Test.o -g -ggdb3 -O2 -Wall
  27              	@ -Wstrict-prototypes -Wextra -std=gnu90 -ffunction-sections
  28              	@ -fdata-sections -fdiagnostics-color=always -fverbose-asm
  29              	@ options enabled:  -faggressive-loop-optimizations -fauto-inc-dec
  30              	@ -fbranch-count-reg -fcaller-saves -fcombine-stack-adjustments -fcommon
  31              	@ -fcompare-elim -fcprop-registers -fcrossjumping -fcse-follow-jumps
  32              	@ -fdata-sections -fdefer-pop -fdelete-null-pointer-checks -fdevirtualize
  33              	@ -fdevirtualize-speculatively -fdwarf2-cfi-asm -fearly-inlining
  34              	@ -feliminate-unused-debug-types -fexpensive-optimizations
  35              	@ -fforward-propagate -ffunction-cse -ffunction-sections -fgcse -fgcse-lm
  36              	@ -fgnu-runtime -fgnu-unique -fguess-branch-probability
  37              	@ -fhoist-adjacent-loads -fident -fif-conversion -fif-conversion2
  38              	@ -findirect-inlining -finline -finline-atomics
  39              	@ -finline-functions-called-once -finline-small-functions -fipa-cp
  40              	@ -fipa-profile -fipa-pure-const -fipa-reference -fipa-sra
  41              	@ -fira-hoist-pressure -fira-share-save-slots -fira-share-spill-slots
  42              	@ -fisolate-erroneous-paths-dereference -fivopts -fkeep-static-consts
  43              	@ -fleading-underscore -flifetime-dse -fmath-errno -fmerge-constants
  44              	@ -fmerge-debug-strings -fmove-loop-invariants -fomit-frame-pointer
  45              	@ -foptimize-sibling-calls -foptimize-strlen -fpartial-inlining -fpeephole
  46              	@ -fpeephole2 -fprefetch-loop-arrays -freg-struct-return -freorder-blocks
  47              	@ -freorder-functions -frerun-cse-after-loop
  48              	@ -fsched-critical-path-heuristic -fsched-dep-count-heuristic
  49              	@ -fsched-group-heuristic -fsched-interblock -fsched-last-insn-heuristic
  50              	@ -fsched-pressure -fsched-rank-heuristic -fsched-spec
  51              	@ -fsched-spec-insn-heuristic -fsched-stalled-insns-dep -fschedule-insns2
  52              	@ -fsection-anchors -fshow-column -fshrink-wrap -fsigned-zeros
  53              	@ -fsplit-ivs-in-unroller -fsplit-wide-types -fstrict-aliasing
  54              	@ -fstrict-overflow -fstrict-volatile-bitfields -fsync-libcalls
  55              	@ -fthread-jumps -ftoplevel-reorder -ftrapping-math -ftree-bit-ccp
  56              	@ -ftree-builtin-call-dce -ftree-ccp -ftree-ch -ftree-coalesce-vars
  57              	@ -ftree-copy-prop -ftree-copyrename -ftree-cselim -ftree-dce
ARM GAS  /var/folders/9j/_txx49hn253_s3mnzkyxlj8m0000gp/T//ccxigpJH.s 			page 2


  58              	@ -ftree-dominator-opts -ftree-dse -ftree-forwprop -ftree-fre
  59              	@ -ftree-loop-if-convert -ftree-loop-im -ftree-loop-ivcanon
  60              	@ -ftree-loop-optimize -ftree-parallelize-loops= -ftree-phiprop -ftree-pre
  61              	@ -ftree-pta -ftree-reassoc -ftree-scev-cprop -ftree-sink -ftree-slsr
  62              	@ -ftree-sra -ftree-switch-conversion -ftree-tail-merge -ftree-ter
  63              	@ -ftree-vrp -funit-at-a-time -fvar-tracking -fvar-tracking-assignments
  64              	@ -fverbose-asm -fzero-initialized-in-bss -mlittle-endian -mlra
  65              	@ -mpic-data-is-text-relative -msched-prolog -mthumb
  66              	@ -mvectorize-with-neon-quad
  67              	
  68              		.text
  69              	.Ltext0:
  70              		.cfi_sections	.debug_frame
  71              		.section	.text.Can_BinaryPrint,"ax",%progbits
  72              		.align	2
  73              		.global	Can_BinaryPrint
  74              		.code	16
  75              		.thumb_func
  76              		.type	Can_BinaryPrint, %function
  77              	Can_BinaryPrint:
  78              	.LFB0:
  79              		.file 1 "../MY17/lib/MY17_Can_Library/MY17_Can_Library_Test.c"
   1:../MY17/lib/MY17_Can_Library/MY17_Can_Library_Test.c **** #include "MY17_Can_Library_Test.h"
   2:../MY17/lib/MY17_Can_Library/MY17_Can_Library_Test.c **** 
   3:../MY17/lib/MY17_Can_Library/MY17_Can_Library_Test.c **** #include "MY17_Can_Library.h"
   4:../MY17/lib/MY17_Can_Library/MY17_Can_Library_Test.c **** 
   5:../MY17/lib/MY17_Can_Library/MY17_Can_Library_Test.c **** typedef void (*PRINT)(const char *);
   6:../MY17/lib/MY17_Can_Library/MY17_Can_Library_Test.c **** 
   7:../MY17/lib/MY17_Can_Library/MY17_Can_Library_Test.c **** #define BOILERPLATE(typename) \
   8:../MY17/lib/MY17_Can_Library/MY17_Can_Library_Test.c ****   Frame mid; \
   9:../MY17/lib/MY17_Can_Library/MY17_Can_Library_Test.c ****   typename ## _ToCan(&begin, &mid); \
  10:../MY17/lib/MY17_Can_Library/MY17_Can_Library_Test.c ****   uint64_t end_bitstring = 0; \
  11:../MY17/lib/MY17_Can_Library/MY17_Can_Library_Test.c ****   to_bitstring(mid.data, &end_bitstring); \
  12:../MY17/lib/MY17_Can_Library/MY17_Can_Library_Test.c ****   typename ## _T end; \
  13:../MY17/lib/MY17_Can_Library/MY17_Can_Library_Test.c ****   typename ## _FromCan(&mid, &end)
  14:../MY17/lib/MY17_Can_Library/MY17_Can_Library_Test.c **** 
  15:../MY17/lib/MY17_Can_Library/MY17_Can_Library_Test.c **** 
  16:../MY17/lib/MY17_Can_Library/MY17_Can_Library_Test.c **** void Can_BinaryPrint(PRINT print, uint64_t out, uint8_t len) {
  80              		.loc 1 16 0
  81              		.cfi_startproc
  82              	.LVL0:
  83 0000 F0B5     		push	{r4, r5, r6, r7, lr}	@
  84              		.cfi_def_cfa_offset 20
  85              		.cfi_offset 4, -20
  86              		.cfi_offset 5, -16
  87              		.cfi_offset 6, -12
  88              		.cfi_offset 7, -8
  89              		.cfi_offset 14, -4
  90 0002 5746     		mov	r7, r10	@,
  91 0004 4E46     		mov	r6, r9	@,
  92 0006 4546     		mov	r5, r8	@,
  93 0008 E0B4     		push	{r5, r6, r7}	@
  94              		.cfi_def_cfa_offset 32
  95              		.cfi_offset 8, -32
  96              		.cfi_offset 9, -28
  97              		.cfi_offset 10, -24
  98              		.loc 1 16 0
ARM GAS  /var/folders/9j/_txx49hn253_s3mnzkyxlj8m0000gp/T//ccxigpJH.s 			page 3


  99 000a 08A9     		add	r1, sp, #32	@ tmp129,,
 100              	.LVL1:
 101 000c 0C78     		ldrb	r4, [r1]	@ len, len
  17:../MY17/lib/MY17_Can_Library/MY17_Can_Library_Test.c ****   int8_t i;
  18:../MY17/lib/MY17_Can_Library/MY17_Can_Library_Test.c ****   for (i = len - 1; i >= 0; i--) {
 102              		.loc 1 18 0
 103 000e 013C     		sub	r4, r4, #1	@ tmp130,
 104 0010 E4B2     		uxtb	r4, r4	@ i, tmp130
 105              	.LVL2:
 106 0012 61B2     		sxtb	r1, r4	@ D.5382, i
 107              	.LVL3:
 108 0014 0029     		cmp	r1, #0	@ D.5382,
 109 0016 22DB     		blt	.L1	@,
 110 0018 1E1C     		mov	r6, r3	@ out, out
 111              	.LBB2:
  19:../MY17/lib/MY17_Can_Library/MY17_Can_Library_Test.c ****     bool result = (out >> i) & 0x1;
 112              		.loc 1 19 0
 113 001a 2023     		mov	r3, #32	@ tmp159,
 114 001c 9A46     		mov	r10, r3	@ tmp159, tmp159
  20:../MY17/lib/MY17_Can_Library/MY17_Can_Library_Test.c ****     print(result ? "1" : "0");
 115              		.loc 1 20 0
 116 001e 124B     		ldr	r3, .L13	@ D.5380,
 117 0020 9146     		mov	r9, r2	@ out, out
 118 0022 051C     		mov	r5, r0	@ print, print
 119 0024 114F     		ldr	r7, .L13+4	@ D.5380,
 120 0026 9846     		mov	r8, r3	@ D.5380, D.5380
 121 0028 0BE0     		b	.L9	@
 122              	.LVL4:
 123              	.L12:
  19:../MY17/lib/MY17_Can_Library/MY17_Can_Library_Test.c ****     bool result = (out >> i) & 0x1;
 124              		.loc 1 19 0
 125 002a 311C     		mov	r1, r6	@ D.5383, out
 126 002c D940     		lsr	r1, r1, r3	@ D.5383, D.5383, tmp135
 127              	.L5:
 128              		.loc 1 20 0
 129 002e 381C     		mov	r0, r7	@ D.5380, D.5380
 130 0030 CB07     		lsl	r3, r1, #31	@ tmp166, D.5383,
 131 0032 00D4     		bmi	.L3	@,
 132 0034 4046     		mov	r0, r8	@ D.5380, D.5380
 133              	.L3:
 134 0036 013C     		sub	r4, r4, #1	@ tmp150,
 135              	.LVL5:
 136 0038 E4B2     		uxtb	r4, r4	@ i, tmp150
 137              		.loc 1 20 0 is_stmt 0 discriminator 4
 138 003a A847     		blx	r5	@ print
 139              	.LVL6:
 140              	.LBE2:
  18:../MY17/lib/MY17_Can_Library/MY17_Can_Library_Test.c ****     bool result = (out >> i) & 0x1;
 141              		.loc 1 18 0 is_stmt 1 discriminator 4
 142 003c 61B2     		sxtb	r1, r4	@ D.5382, i
 143 003e 4B1C     		add	r3, r1, #1	@ tmp167, D.5382,
 144 0040 0DD0     		beq	.L1	@,
 145              	.L9:
 146              	.LVL7:
 147              	.LBB3:
  19:../MY17/lib/MY17_Can_Library/MY17_Can_Library_Test.c ****     bool result = (out >> i) & 0x1;
 148              		.loc 1 19 0
ARM GAS  /var/folders/9j/_txx49hn253_s3mnzkyxlj8m0000gp/T//ccxigpJH.s 			page 4


 149 0042 2023     		mov	r3, #32	@ tmp170,
 150 0044 5B42     		neg	r3, r3	@ tmp170, tmp170
 151 0046 CB18     		add	r3, r1, r3	@ tmp135, D.5382, tmp170
 152 0048 EFD5     		bpl	.L12	@,
 153 004a 5346     		mov	r3, r10	@ tmp159, tmp159
 154 004c 321C     		mov	r2, r6	@ tmp142, out
 155 004e 5B1A     		sub	r3, r3, r1	@ tmp141, tmp159, D.5382
 156 0050 9A40     		lsl	r2, r2, r3	@ tmp142, tmp142, tmp141
 157 0052 131C     		mov	r3, r2	@ tmp142, tmp142
 158 0054 4A46     		mov	r2, r9	@ D.5383, out
 159 0056 CA40     		lsr	r2, r2, r1	@ D.5383, D.5383, D.5382
 160 0058 111C     		mov	r1, r2	@ D.5383, D.5383
 161 005a 1943     		orr	r1, r3	@ D.5383, tmp142
 162 005c E7E7     		b	.L5	@
 163              	.LVL8:
 164              	.L1:
 165              	.LBE3:
  21:../MY17/lib/MY17_Can_Library/MY17_Can_Library_Test.c ****   }
  22:../MY17/lib/MY17_Can_Library/MY17_Can_Library_Test.c **** }
 166              		.loc 1 22 0
 167              		@ sp needed	@
 168              	.LVL9:
 169 005e 1CBC     		pop	{r2, r3, r4}
 170 0060 9046     		mov	r8, r2
 171 0062 9946     		mov	r9, r3
 172 0064 A246     		mov	r10, r4
 173 0066 F0BD     		pop	{r4, r5, r6, r7, pc}
 174              	.L14:
 175              		.align	2
 176              	.L13:
 177 0068 04000000 		.word	.LC2
 178 006c 00000000 		.word	.LC0
 179              		.cfi_endproc
 180              	.LFE0:
 181              		.size	Can_BinaryPrint, .-Can_BinaryPrint
 182              		.section	.text.Can_FrontCanNode_DriverOutput_Test,"ax",%progbits
 183              		.align	2
 184              		.global	Can_FrontCanNode_DriverOutput_Test
 185              		.code	16
 186              		.thumb_func
 187              		.type	Can_FrontCanNode_DriverOutput_Test, %function
 188              	Can_FrontCanNode_DriverOutput_Test:
 189              	.LFB1:
  23:../MY17/lib/MY17_Can_Library/MY17_Can_Library_Test.c **** 
  24:../MY17/lib/MY17_Can_Library/MY17_Can_Library_Test.c **** void Can_FrontCanNode_DriverOutput_Test(PRINT print) {
 190              		.loc 1 24 0
 191              		.cfi_startproc
 192              	.LVL10:
 193 0000 30B5     		push	{r4, r5, lr}	@
 194              		.cfi_def_cfa_offset 12
 195              		.cfi_offset 4, -12
 196              		.cfi_offset 5, -8
 197              		.cfi_offset 14, -4
  25:../MY17/lib/MY17_Can_Library/MY17_Can_Library_Test.c ****   Can_FrontCanNode_DriverOutput_T begin;
  26:../MY17/lib/MY17_Can_Library/MY17_Can_Library_Test.c ****   begin.torque = -10000;
 198              		.loc 1 26 0
 199 0002 1D4B     		ldr	r3, .L22	@ tmp121,
ARM GAS  /var/folders/9j/_txx49hn253_s3mnzkyxlj8m0000gp/T//ccxigpJH.s 			page 5


  24:../MY17/lib/MY17_Can_Library/MY17_Can_Library_Test.c ****   Can_FrontCanNode_DriverOutput_T begin;
 200              		.loc 1 24 0
 201 0004 8BB0     		sub	sp, sp, #44	@,,
 202              		.cfi_def_cfa_offset 56
 203              		.loc 1 26 0
 204 0006 03AC     		add	r4, sp, #12	@ tmp120,,
 205 0008 2380     		strh	r3, [r4]	@ tmp121, begin.torque
  27:../MY17/lib/MY17_Can_Library/MY17_Can_Library_Test.c ****   begin.brake_pressure = 200;
 206              		.loc 1 27 0
 207 000a C823     		mov	r3, #200	@ tmp124,
  28:../MY17/lib/MY17_Can_Library/MY17_Can_Library_Test.c ****   begin.steering_position = 100;
  29:../MY17/lib/MY17_Can_Library/MY17_Can_Library_Test.c ****   begin.throttle_implausible = true;
  30:../MY17/lib/MY17_Can_Library/MY17_Can_Library_Test.c ****   begin.brake_throttle_conflict = false;
 208              		.loc 1 30 0
 209 000c 0022     		mov	r2, #0	@ tmp133,
  27:../MY17/lib/MY17_Can_Library/MY17_Can_Library_Test.c ****   begin.brake_pressure = 200;
 210              		.loc 1 27 0
 211 000e A370     		strb	r3, [r4, #2]	@ tmp124, begin.brake_pressure
  28:../MY17/lib/MY17_Can_Library/MY17_Can_Library_Test.c ****   begin.steering_position = 100;
 212              		.loc 1 28 0
 213 0010 643B     		sub	r3, r3, #100	@ tmp127,
 214 0012 E370     		strb	r3, [r4, #3]	@ tmp127, begin.steering_position
  31:../MY17/lib/MY17_Can_Library/MY17_Can_Library_Test.c ****   begin.brake_engaged = true;
  32:../MY17/lib/MY17_Can_Library/MY17_Can_Library_Test.c **** 
  33:../MY17/lib/MY17_Can_Library/MY17_Can_Library_Test.c ****   BOILERPLATE(Can_FrontCanNode_DriverOutput);
 215              		.loc 1 33 0
 216 0014 07A9     		add	r1, sp, #28	@ tmp164,,
  29:../MY17/lib/MY17_Can_Library/MY17_Can_Library_Test.c ****   begin.brake_throttle_conflict = false;
 217              		.loc 1 29 0
 218 0016 633B     		sub	r3, r3, #99	@ tmp130,
  24:../MY17/lib/MY17_Can_Library/MY17_Can_Library_Test.c ****   Can_FrontCanNode_DriverOutput_T begin;
 219              		.loc 1 24 0
 220 0018 051C     		mov	r5, r0	@ print, print
 221              		.loc 1 33 0
 222 001a 201C     		mov	r0, r4	@, tmp120
 223              	.LVL11:
  29:../MY17/lib/MY17_Can_Library/MY17_Can_Library_Test.c ****   begin.brake_throttle_conflict = false;
 224              		.loc 1 29 0
 225 001c 2371     		strb	r3, [r4, #4]	@ tmp130, begin.throttle_implausible
  30:../MY17/lib/MY17_Can_Library/MY17_Can_Library_Test.c ****   begin.brake_engaged = true;
 226              		.loc 1 30 0
 227 001e 6271     		strb	r2, [r4, #5]	@ tmp133, begin.brake_throttle_conflict
  31:../MY17/lib/MY17_Can_Library/MY17_Can_Library_Test.c **** 
 228              		.loc 1 31 0
 229 0020 A371     		strb	r3, [r4, #6]	@ tmp130, begin.brake_engaged
 230              		.loc 1 33 0
 231 0022 FFF7FEFF 		bl	Can_FrontCanNode_DriverOutput_ToCan	@
 232              	.LVL12:
 233 0026 1F20     		mov	r0, #31	@ tmp165,
 234 0028 0023     		mov	r3, #0	@,
 235 002a 0022     		mov	r2, #0	@ tmp140,
 236 002c 6844     		add	r0, r0, sp	@ tmp165,
 237 002e 6946     		mov	r1, sp	@,
 238 0030 0092     		str	r2, [sp]	@ tmp140, end_bitstring
 239 0032 0193     		str	r3, [sp, #4]	@ tmp140,
 240 0034 FFF7FEFF 		bl	to_bitstring	@
 241              	.LVL13:
ARM GAS  /var/folders/9j/_txx49hn253_s3mnzkyxlj8m0000gp/T//ccxigpJH.s 			page 6


 242 0038 05A9     		add	r1, sp, #20	@ tmp167,,
 243 003a 07A8     		add	r0, sp, #28	@ tmp166,,
 244 003c FFF7FEFF 		bl	Can_FrontCanNode_DriverOutput_FromCan	@
 245              	.LVL14:
  34:../MY17/lib/MY17_Can_Library/MY17_Can_Library_Test.c **** 
  35:../MY17/lib/MY17_Can_Library/MY17_Can_Library_Test.c ****   bool equal = (
  36:../MY17/lib/MY17_Can_Library/MY17_Can_Library_Test.c ****       begin.torque == end.torque &&
  37:../MY17/lib/MY17_Can_Library/MY17_Can_Library_Test.c ****       begin.brake_pressure == end.brake_pressure &&
  38:../MY17/lib/MY17_Can_Library/MY17_Can_Library_Test.c ****       begin.steering_position == end.steering_position &&
  39:../MY17/lib/MY17_Can_Library/MY17_Can_Library_Test.c ****       begin.throttle_implausible == end.throttle_implausible &&
  40:../MY17/lib/MY17_Can_Library/MY17_Can_Library_Test.c ****       begin.brake_throttle_conflict == end.brake_throttle_conflict &&
 246              		.loc 1 40 0
 247 0040 0023     		mov	r3, #0	@ tmp162,
 248 0042 E25E     		ldrsh	r2, [r4, r3]	@ begin, tmp120, tmp162
 249 0044 6B46     		mov	r3, sp	@ tmp168,
 250 0046 1421     		mov	r1, #20	@ tmp163,
 251 0048 5B5E     		ldrsh	r3, [r3, r1]	@ end, tmp168, tmp163
 252 004a 9A42     		cmp	r2, r3	@ begin, end
 253 004c 03D0     		beq	.L21	@,
 254              	.L20:
  41:../MY17/lib/MY17_Can_Library/MY17_Can_Library_Test.c ****       begin.brake_engaged == end.brake_engaged);
  42:../MY17/lib/MY17_Can_Library/MY17_Can_Library_Test.c ****   print(equal ? "FrontCanNode_DriverOutput_PASS\r\n" : "FrontCanNode_DriverOutput_FAIL!!!!!!!!!!!!!
 255              		.loc 1 42 0
 256 004e 0B48     		ldr	r0, .L22+4	@ D.5388,
 257              	.L16:
 258              		.loc 1 42 0 is_stmt 0 discriminator 4
 259 0050 A847     		blx	r5	@ print
 260              	.LVL15:
  43:../MY17/lib/MY17_Can_Library/MY17_Can_Library_Test.c **** }
 261              		.loc 1 43 0 is_stmt 1 discriminator 4
 262 0052 0BB0     		add	sp, sp, #44	@,,
 263              		@ sp needed	@
 264              	.LVL16:
 265 0054 30BD     		pop	{r4, r5, pc}
 266              	.LVL17:
 267              	.L21:
  37:../MY17/lib/MY17_Can_Library/MY17_Can_Library_Test.c ****       begin.steering_position == end.steering_position &&
 268              		.loc 1 37 0
 269 0056 6B46     		mov	r3, sp	@ tmp169,
 270 0058 6288     		ldrh	r2, [r4, #2]	@ begin, begin
 271 005a DB8A     		ldrh	r3, [r3, #22]	@ end, end
 272 005c 9A42     		cmp	r2, r3	@ begin, end
 273 005e F6D1     		bne	.L20	@,
  39:../MY17/lib/MY17_Can_Library/MY17_Can_Library_Test.c ****       begin.brake_throttle_conflict == end.brake_throttle_conflict &&
 274              		.loc 1 39 0
 275 0060 6B46     		mov	r3, sp	@ tmp170,
 276 0062 A288     		ldrh	r2, [r4, #4]	@ begin, begin
 277 0064 1B8B     		ldrh	r3, [r3, #24]	@ end, end
 278 0066 9A42     		cmp	r2, r3	@ begin, end
 279 0068 F1D1     		bne	.L20	@,
  40:../MY17/lib/MY17_Can_Library/MY17_Can_Library_Test.c ****       begin.brake_engaged == end.brake_engaged);
 280              		.loc 1 40 0 discriminator 3
 281 006a 6B46     		mov	r3, sp	@ tmp171,
 282 006c A279     		ldrb	r2, [r4, #6]	@ tmp160,
 283 006e 9B7E     		ldrb	r3, [r3, #26]	@ tmp161,
 284 0070 9A42     		cmp	r2, r3	@ tmp160, tmp161
 285 0072 ECD1     		bne	.L20	@,
ARM GAS  /var/folders/9j/_txx49hn253_s3mnzkyxlj8m0000gp/T//ccxigpJH.s 			page 7


  42:../MY17/lib/MY17_Can_Library/MY17_Can_Library_Test.c **** }
 286              		.loc 1 42 0
 287 0074 0248     		ldr	r0, .L22+8	@ D.5388,
 288 0076 EBE7     		b	.L16	@
 289              	.L23:
 290              		.align	2
 291              	.L22:
 292 0078 F0D8FFFF 		.word	-10000
 293 007c 2C000000 		.word	.LC6
 294 0080 08000000 		.word	.LC4
 295              		.cfi_endproc
 296              	.LFE1:
 297              		.size	Can_FrontCanNode_DriverOutput_Test, .-Can_FrontCanNode_DriverOutput_Test
 298              		.section	.text.Can_FrontCanNode_RawValues_Test,"ax",%progbits
 299              		.align	2
 300              		.global	Can_FrontCanNode_RawValues_Test
 301              		.code	16
 302              		.thumb_func
 303              		.type	Can_FrontCanNode_RawValues_Test, %function
 304              	Can_FrontCanNode_RawValues_Test:
 305              	.LFB2:
  44:../MY17/lib/MY17_Can_Library/MY17_Can_Library_Test.c **** 
  45:../MY17/lib/MY17_Can_Library/MY17_Can_Library_Test.c **** void Can_FrontCanNode_RawValues_Test(PRINT print) {
 306              		.loc 1 45 0
 307              		.cfi_startproc
 308              	.LVL18:
  46:../MY17/lib/MY17_Can_Library/MY17_Can_Library_Test.c ****   Can_FrontCanNode_RawValues_T begin;
  47:../MY17/lib/MY17_Can_Library/MY17_Can_Library_Test.c ****   begin.accel_1_raw = 100;
 309              		.loc 1 47 0
 310 0000 6423     		mov	r3, #100	@ tmp123,
  45:../MY17/lib/MY17_Can_Library/MY17_Can_Library_Test.c ****   Can_FrontCanNode_RawValues_T begin;
 311              		.loc 1 45 0
 312 0002 30B5     		push	{r4, r5, lr}	@
 313              		.cfi_def_cfa_offset 12
 314              		.cfi_offset 4, -12
 315              		.cfi_offset 5, -8
 316              		.cfi_offset 14, -4
 317 0004 8DB0     		sub	sp, sp, #52	@,,
 318              		.cfi_def_cfa_offset 64
 319              		.loc 1 47 0
 320 0006 03AC     		add	r4, sp, #12	@ tmp122,,
 321 0008 2380     		strh	r3, [r4]	@ tmp123, begin.accel_1_raw
  48:../MY17/lib/MY17_Can_Library/MY17_Can_Library_Test.c ****   begin.accel_2_raw = 200;
 322              		.loc 1 48 0
 323 000a 6433     		add	r3, r3, #100	@ tmp126,
 324 000c 6380     		strh	r3, [r4, #2]	@ tmp126, begin.accel_2_raw
  49:../MY17/lib/MY17_Can_Library/MY17_Can_Library_Test.c ****   begin.brake_1_raw = 300;
 325              		.loc 1 49 0
 326 000e 6433     		add	r3, r3, #100	@ tmp129,
 327 0010 A380     		strh	r3, [r4, #4]	@ tmp129, begin.brake_1_raw
  50:../MY17/lib/MY17_Can_Library/MY17_Can_Library_Test.c ****   begin.brake_2_raw = 400;
 328              		.loc 1 50 0
 329 0012 6433     		add	r3, r3, #100	@ tmp132,
 330 0014 E380     		strh	r3, [r4, #6]	@ tmp132, begin.brake_2_raw
  51:../MY17/lib/MY17_Can_Library/MY17_Can_Library_Test.c ****   begin.steering_raw = 500;
  52:../MY17/lib/MY17_Can_Library/MY17_Can_Library_Test.c **** 
  53:../MY17/lib/MY17_Can_Library/MY17_Can_Library_Test.c ****   BOILERPLATE(Can_FrontCanNode_RawValues);
ARM GAS  /var/folders/9j/_txx49hn253_s3mnzkyxlj8m0000gp/T//ccxigpJH.s 			page 8


 331              		.loc 1 53 0
 332 0016 09A9     		add	r1, sp, #36	@ tmp168,,
  51:../MY17/lib/MY17_Can_Library/MY17_Can_Library_Test.c ****   begin.steering_raw = 500;
 333              		.loc 1 51 0
 334 0018 6433     		add	r3, r3, #100	@ tmp135,
  45:../MY17/lib/MY17_Can_Library/MY17_Can_Library_Test.c ****   Can_FrontCanNode_RawValues_T begin;
 335              		.loc 1 45 0
 336 001a 051C     		mov	r5, r0	@ print, print
 337              		.loc 1 53 0
 338 001c 201C     		mov	r0, r4	@, tmp122
 339              	.LVL19:
  51:../MY17/lib/MY17_Can_Library/MY17_Can_Library_Test.c ****   begin.steering_raw = 500;
 340              		.loc 1 51 0
 341 001e 2381     		strh	r3, [r4, #8]	@ tmp135, begin.steering_raw
 342              		.loc 1 53 0
 343 0020 FFF7FEFF 		bl	Can_FrontCanNode_RawValues_ToCan	@
 344              	.LVL20:
 345 0024 2720     		mov	r0, #39	@ tmp169,
 346 0026 0022     		mov	r2, #0	@ tmp139,
 347 0028 0023     		mov	r3, #0	@,
 348 002a 6844     		add	r0, r0, sp	@ tmp169,
 349 002c 6946     		mov	r1, sp	@,
 350 002e 0092     		str	r2, [sp]	@ tmp139, end_bitstring
 351 0030 0193     		str	r3, [sp, #4]	@ tmp139,
 352 0032 FFF7FEFF 		bl	to_bitstring	@
 353              	.LVL21:
 354 0036 09A8     		add	r0, sp, #36	@ tmp170,,
 355 0038 06A9     		add	r1, sp, #24	@ tmp171,,
 356 003a FFF7FEFF 		bl	Can_FrontCanNode_RawValues_FromCan	@
 357              	.LVL22:
  54:../MY17/lib/MY17_Can_Library/MY17_Can_Library_Test.c **** 
  55:../MY17/lib/MY17_Can_Library/MY17_Can_Library_Test.c ****   bool equal = (
  56:../MY17/lib/MY17_Can_Library/MY17_Can_Library_Test.c ****       begin.accel_1_raw == end.accel_1_raw &&
  57:../MY17/lib/MY17_Can_Library/MY17_Can_Library_Test.c ****       begin.accel_2_raw == end.accel_2_raw &&
  58:../MY17/lib/MY17_Can_Library/MY17_Can_Library_Test.c ****       begin.brake_1_raw == end.brake_1_raw &&
  59:../MY17/lib/MY17_Can_Library/MY17_Can_Library_Test.c ****       begin.brake_2_raw == end.brake_2_raw &&
 358              		.loc 1 59 0
 359 003e 6B46     		mov	r3, sp	@ tmp172,
 360 0040 2288     		ldrh	r2, [r4]	@ begin, begin
 361 0042 1B8B     		ldrh	r3, [r3, #24]	@ end, end
 362 0044 9A42     		cmp	r2, r3	@ begin, end
 363 0046 03D0     		beq	.L31	@,
 364              	.L30:
  60:../MY17/lib/MY17_Can_Library/MY17_Can_Library_Test.c ****       begin.steering_raw == end.steering_raw);
  61:../MY17/lib/MY17_Can_Library/MY17_Can_Library_Test.c ****   print(equal ? "FrontCanNode_RawValues_PASS\r\n" : "FrontCanNode_RawValues_FAIL!!!!!!!!!!!!!!!!\r\
 365              		.loc 1 61 0
 366 0048 0C48     		ldr	r0, .L32	@ D.5396,
 367              	.L25:
 368              		.loc 1 61 0 is_stmt 0 discriminator 4
 369 004a A847     		blx	r5	@ print
 370              	.LVL23:
  62:../MY17/lib/MY17_Can_Library/MY17_Can_Library_Test.c **** }
 371              		.loc 1 62 0 is_stmt 1 discriminator 4
 372 004c 0DB0     		add	sp, sp, #52	@,,
 373              		@ sp needed	@
 374              	.LVL24:
 375 004e 30BD     		pop	{r4, r5, pc}
ARM GAS  /var/folders/9j/_txx49hn253_s3mnzkyxlj8m0000gp/T//ccxigpJH.s 			page 9


 376              	.LVL25:
 377              	.L31:
  56:../MY17/lib/MY17_Can_Library/MY17_Can_Library_Test.c ****       begin.accel_2_raw == end.accel_2_raw &&
 378              		.loc 1 56 0
 379 0050 6B46     		mov	r3, sp	@ tmp173,
 380 0052 6288     		ldrh	r2, [r4, #2]	@ tmp151,
 381 0054 5B8B     		ldrh	r3, [r3, #26]	@ tmp152,
 382 0056 9A42     		cmp	r2, r3	@ tmp151, tmp152
 383 0058 F6D1     		bne	.L30	@,
  57:../MY17/lib/MY17_Can_Library/MY17_Can_Library_Test.c ****       begin.brake_1_raw == end.brake_1_raw &&
 384              		.loc 1 57 0
 385 005a 6B46     		mov	r3, sp	@ tmp174,
 386 005c A288     		ldrh	r2, [r4, #4]	@ tmp155,
 387 005e 9B8B     		ldrh	r3, [r3, #28]	@ tmp156,
 388 0060 9A42     		cmp	r2, r3	@ tmp155, tmp156
 389 0062 F1D1     		bne	.L30	@,
  58:../MY17/lib/MY17_Can_Library/MY17_Can_Library_Test.c ****       begin.brake_2_raw == end.brake_2_raw &&
 390              		.loc 1 58 0
 391 0064 6B46     		mov	r3, sp	@ tmp175,
 392 0066 E288     		ldrh	r2, [r4, #6]	@ tmp159,
 393 0068 DB8B     		ldrh	r3, [r3, #30]	@ tmp160,
 394 006a 9A42     		cmp	r2, r3	@ tmp159, tmp160
 395 006c ECD1     		bne	.L30	@,
  59:../MY17/lib/MY17_Can_Library/MY17_Can_Library_Test.c ****       begin.steering_raw == end.steering_raw);
 396              		.loc 1 59 0 discriminator 3
 397 006e 6B46     		mov	r3, sp	@ tmp176,
 398 0070 2289     		ldrh	r2, [r4, #8]	@ tmp163,
 399 0072 1B8C     		ldrh	r3, [r3, #32]	@ tmp164,
 400 0074 9A42     		cmp	r2, r3	@ tmp163, tmp164
 401 0076 E7D1     		bne	.L30	@,
  61:../MY17/lib/MY17_Can_Library/MY17_Can_Library_Test.c **** }
 402              		.loc 1 61 0
 403 0078 0148     		ldr	r0, .L32+4	@ D.5396,
 404 007a E6E7     		b	.L25	@
 405              	.L33:
 406              		.align	2
 407              	.L32:
 408 007c 60000000 		.word	.LC8
 409 0080 90000000 		.word	.LC10
 410              		.cfi_endproc
 411              	.LFE2:
 412              		.size	Can_FrontCanNode_RawValues_Test, .-Can_FrontCanNode_RawValues_Test
 413              		.section	.text.Can_FrontCanNode_WheelSpeed_Test,"ax",%progbits
 414              		.align	2
 415              		.global	Can_FrontCanNode_WheelSpeed_Test
 416              		.code	16
 417              		.thumb_func
 418              		.type	Can_FrontCanNode_WheelSpeed_Test, %function
 419              	Can_FrontCanNode_WheelSpeed_Test:
 420              	.LFB3:
  63:../MY17/lib/MY17_Can_Library/MY17_Can_Library_Test.c **** 
  64:../MY17/lib/MY17_Can_Library/MY17_Can_Library_Test.c **** void Can_FrontCanNode_WheelSpeed_Test(PRINT print) {
 421              		.loc 1 64 0
 422              		.cfi_startproc
 423              	.LVL26:
 424 0000 10B5     		push	{r4, lr}	@
 425              		.cfi_def_cfa_offset 8
ARM GAS  /var/folders/9j/_txx49hn253_s3mnzkyxlj8m0000gp/T//ccxigpJH.s 			page 10


 426              		.cfi_offset 4, -8
 427              		.cfi_offset 14, -4
  65:../MY17/lib/MY17_Can_Library/MY17_Can_Library_Test.c ****   Can_FrontCanNode_WheelSpeed_T begin;
  66:../MY17/lib/MY17_Can_Library/MY17_Can_Library_Test.c ****   begin.front_right_wheel_speed = 100000;
 428              		.loc 1 66 0
 429 0002 124B     		ldr	r3, .L39	@ tmp117,
  64:../MY17/lib/MY17_Can_Library/MY17_Can_Library_Test.c ****   Can_FrontCanNode_WheelSpeed_T begin;
 430              		.loc 1 64 0
 431 0004 8AB0     		sub	sp, sp, #40	@,,
 432              		.cfi_def_cfa_offset 48
 433              		.loc 1 66 0
 434 0006 0393     		str	r3, [sp, #12]	@ tmp117, begin.front_right_wheel_speed
  67:../MY17/lib/MY17_Can_Library/MY17_Can_Library_Test.c ****   begin.front_left_wheel_speed = 3000000000UL;
 435              		.loc 1 67 0
 436 0008 114B     		ldr	r3, .L39+4	@ tmp119,
  68:../MY17/lib/MY17_Can_Library/MY17_Can_Library_Test.c **** 
  69:../MY17/lib/MY17_Can_Library/MY17_Can_Library_Test.c ****   BOILERPLATE(Can_FrontCanNode_WheelSpeed);
 437              		.loc 1 69 0
 438 000a 07A9     		add	r1, sp, #28	@ tmp137,,
  64:../MY17/lib/MY17_Can_Library/MY17_Can_Library_Test.c ****   Can_FrontCanNode_WheelSpeed_T begin;
 439              		.loc 1 64 0
 440 000c 041C     		mov	r4, r0	@ print, print
 441              		.loc 1 69 0
 442 000e 03A8     		add	r0, sp, #12	@ tmp136,,
 443              	.LVL27:
  67:../MY17/lib/MY17_Can_Library/MY17_Can_Library_Test.c ****   begin.front_left_wheel_speed = 3000000000UL;
 444              		.loc 1 67 0
 445 0010 0493     		str	r3, [sp, #16]	@ tmp119, begin.front_left_wheel_speed
 446              		.loc 1 69 0
 447 0012 FFF7FEFF 		bl	Can_FrontCanNode_WheelSpeed_ToCan	@
 448              	.LVL28:
 449 0016 1F20     		mov	r0, #31	@ tmp138,
 450 0018 0022     		mov	r2, #0	@ tmp122,
 451 001a 0023     		mov	r3, #0	@,
 452 001c 6844     		add	r0, r0, sp	@ tmp138,
 453 001e 6946     		mov	r1, sp	@,
 454 0020 0092     		str	r2, [sp]	@ tmp122, end_bitstring
 455 0022 0193     		str	r3, [sp, #4]	@ tmp122,
 456 0024 FFF7FEFF 		bl	to_bitstring	@
 457              	.LVL29:
 458 0028 07A8     		add	r0, sp, #28	@ tmp139,,
 459 002a 05A9     		add	r1, sp, #20	@ tmp140,,
 460 002c FFF7FEFF 		bl	Can_FrontCanNode_WheelSpeed_FromCan	@
 461              	.LVL30:
  70:../MY17/lib/MY17_Can_Library/MY17_Can_Library_Test.c **** 
  71:../MY17/lib/MY17_Can_Library/MY17_Can_Library_Test.c ****   bool equal = (
  72:../MY17/lib/MY17_Can_Library/MY17_Can_Library_Test.c ****       begin.front_right_wheel_speed == end.front_right_wheel_speed &&
 462              		.loc 1 72 0
 463 0030 039B     		ldr	r3, [sp, #12]	@ tmp141, begin.front_right_wheel_speed
 464 0032 059A     		ldr	r2, [sp, #20]	@ tmp142, end.front_right_wheel_speed
 465 0034 9342     		cmp	r3, r2	@ tmp141, tmp142
 466 0036 03D0     		beq	.L38	@,
 467              	.L37:
  73:../MY17/lib/MY17_Can_Library/MY17_Can_Library_Test.c ****       begin.front_left_wheel_speed == end.front_left_wheel_speed);
  74:../MY17/lib/MY17_Can_Library/MY17_Can_Library_Test.c **** 
  75:../MY17/lib/MY17_Can_Library/MY17_Can_Library_Test.c ****   print(equal ? "FrontCanNode_WheelSpeed_PASS\r\n" : "FrontCanNode_WheelSpeed_FAIL!!!!!!!!!!!!!!!!\
 468              		.loc 1 75 0
ARM GAS  /var/folders/9j/_txx49hn253_s3mnzkyxlj8m0000gp/T//ccxigpJH.s 			page 11


 469 0038 0648     		ldr	r0, .L39+8	@ D.5402,
 470              	.L35:
 471              		.loc 1 75 0 is_stmt 0 discriminator 4
 472 003a A047     		blx	r4	@ print
 473              	.LVL31:
  76:../MY17/lib/MY17_Can_Library/MY17_Can_Library_Test.c **** 
  77:../MY17/lib/MY17_Can_Library/MY17_Can_Library_Test.c **** }
 474              		.loc 1 77 0 is_stmt 1 discriminator 4
 475 003c 0AB0     		add	sp, sp, #40	@,,
 476              		@ sp needed	@
 477              	.LVL32:
 478 003e 10BD     		pop	{r4, pc}
 479              	.LVL33:
 480              	.L38:
  72:../MY17/lib/MY17_Can_Library/MY17_Can_Library_Test.c ****       begin.front_left_wheel_speed == end.front_left_wheel_speed);
 481              		.loc 1 72 0 discriminator 1
 482 0040 049A     		ldr	r2, [sp, #16]	@ begin.front_left_wheel_speed, begin.front_left_wheel_speed
 483 0042 069B     		ldr	r3, [sp, #24]	@ end.front_left_wheel_speed, end.front_left_wheel_speed
 484 0044 9A42     		cmp	r2, r3	@ begin.front_left_wheel_speed, end.front_left_wheel_speed
 485 0046 F7D1     		bne	.L37	@,
  75:../MY17/lib/MY17_Can_Library/MY17_Can_Library_Test.c **** 
 486              		.loc 1 75 0
 487 0048 0348     		ldr	r0, .L39+12	@ D.5402,
 488 004a F6E7     		b	.L35	@
 489              	.L40:
 490              		.align	2
 491              	.L39:
 492 004c A0860100 		.word	100000
 493 0050 005ED0B2 		.word	-1294967296
 494 0054 B0000000 		.word	.LC12
 495 0058 E0000000 		.word	.LC14
 496              		.cfi_endproc
 497              	.LFE3:
 498              		.size	Can_FrontCanNode_WheelSpeed_Test, .-Can_FrontCanNode_WheelSpeed_Test
 499              		.section	.text.Can_RearCanNode_Heartbeat_Test,"ax",%progbits
 500              		.align	2
 501              		.global	Can_RearCanNode_Heartbeat_Test
 502              		.code	16
 503              		.thumb_func
 504              		.type	Can_RearCanNode_Heartbeat_Test, %function
 505              	Can_RearCanNode_Heartbeat_Test:
 506              	.LFB4:
  78:../MY17/lib/MY17_Can_Library/MY17_Can_Library_Test.c **** 
  79:../MY17/lib/MY17_Can_Library/MY17_Can_Library_Test.c **** void Can_RearCanNode_Heartbeat_Test(PRINT print) {
 507              		.loc 1 79 0
 508              		.cfi_startproc
 509              	.LVL34:
 510 0000 30B5     		push	{r4, r5, lr}	@
 511              		.cfi_def_cfa_offset 12
 512              		.cfi_offset 4, -12
 513              		.cfi_offset 5, -8
 514              		.cfi_offset 14, -4
 515 0002 89B0     		sub	sp, sp, #36	@,,
 516              		.cfi_def_cfa_offset 48
  80:../MY17/lib/MY17_Can_Library/MY17_Can_Library_Test.c ****   Can_RearCanNode_Heartbeat_T begin;
  81:../MY17/lib/MY17_Can_Library/MY17_Can_Library_Test.c ****   begin.is_alive = true;
 517              		.loc 1 81 0
ARM GAS  /var/folders/9j/_txx49hn253_s3mnzkyxlj8m0000gp/T//ccxigpJH.s 			page 12


 518 0004 0123     		mov	r3, #1	@ tmp115,
 519 0006 6A46     		mov	r2, sp	@ tmp129,
  82:../MY17/lib/MY17_Can_Library/MY17_Can_Library_Test.c **** 
  83:../MY17/lib/MY17_Can_Library/MY17_Can_Library_Test.c ****   BOILERPLATE(Can_RearCanNode_Heartbeat);
 520              		.loc 1 83 0
 521 0008 05A9     		add	r1, sp, #20	@ tmp130,,
  79:../MY17/lib/MY17_Can_Library/MY17_Can_Library_Test.c ****   Can_RearCanNode_Heartbeat_T begin;
 522              		.loc 1 79 0
 523 000a 051C     		mov	r5, r0	@ print, print
 524              		.loc 1 83 0
 525 000c 6846     		mov	r0, sp	@,
 526              	.LVL35:
  81:../MY17/lib/MY17_Can_Library/MY17_Can_Library_Test.c **** 
 527              		.loc 1 81 0
 528 000e 1370     		strb	r3, [r2]	@ tmp115, begin.is_alive
 529              		.loc 1 83 0
 530 0010 FFF7FEFF 		bl	Can_RearCanNode_Heartbeat_ToCan	@
 531              	.LVL36:
 532 0014 1720     		mov	r0, #23	@ tmp131,
 533 0016 0022     		mov	r2, #0	@ tmp119,
 534 0018 0023     		mov	r3, #0	@,
 535 001a 6844     		add	r0, r0, sp	@ tmp131,
 536 001c 02A9     		add	r1, sp, #8	@,,
 537 001e 01AC     		add	r4, sp, #4	@ tmp124,,
 538 0020 0292     		str	r2, [sp, #8]	@ tmp119, end_bitstring
 539 0022 0393     		str	r3, [sp, #12]	@ tmp119,
 540 0024 FFF7FEFF 		bl	to_bitstring	@
 541              	.LVL37:
 542 0028 05A8     		add	r0, sp, #20	@ tmp132,,
 543 002a 211C     		mov	r1, r4	@, tmp124
 544 002c FFF7FEFF 		bl	Can_RearCanNode_Heartbeat_FromCan	@
 545              	.LVL38:
  84:../MY17/lib/MY17_Can_Library/MY17_Can_Library_Test.c **** 
  85:../MY17/lib/MY17_Can_Library/MY17_Can_Library_Test.c ****   bool equal = begin.is_alive == end.is_alive;
  86:../MY17/lib/MY17_Can_Library/MY17_Can_Library_Test.c **** 
  87:../MY17/lib/MY17_Can_Library/MY17_Can_Library_Test.c ****   print(equal ? "RearCanNode_Heartbeat_PASS\r\n" : "RearCanNode_Heartbeat_FAIL!!!!!!!!!!!!!!!!\r\n"
 546              		.loc 1 87 0
 547 0030 6B46     		mov	r3, sp	@ tmp133,
 548 0032 1A78     		ldrb	r2, [r3]	@ begin, begin
 549 0034 2378     		ldrb	r3, [r4]	@ end, end
 550 0036 9A42     		cmp	r2, r3	@ begin, end
 551 0038 03D0     		beq	.L43	@,
 552 003a 0348     		ldr	r0, .L44	@ D.5408,
 553              	.L42:
 554              		.loc 1 87 0 is_stmt 0 discriminator 4
 555 003c A847     		blx	r5	@ print
 556              	.LVL39:
  88:../MY17/lib/MY17_Can_Library/MY17_Can_Library_Test.c **** 
  89:../MY17/lib/MY17_Can_Library/MY17_Can_Library_Test.c **** }
 557              		.loc 1 89 0 is_stmt 1 discriminator 4
 558 003e 09B0     		add	sp, sp, #36	@,,
 559              		@ sp needed	@
 560              	.LVL40:
 561 0040 30BD     		pop	{r4, r5, pc}
 562              	.LVL41:
 563              	.L43:
  87:../MY17/lib/MY17_Can_Library/MY17_Can_Library_Test.c **** 
ARM GAS  /var/folders/9j/_txx49hn253_s3mnzkyxlj8m0000gp/T//ccxigpJH.s 			page 13


 564              		.loc 1 87 0
 565 0042 0248     		ldr	r0, .L44+4	@ D.5408,
 566 0044 FAE7     		b	.L42	@
 567              	.L45:
 568 0046 C046     		.align	2
 569              	.L44:
 570 0048 20010000 		.word	.LC18
 571 004c 00010000 		.word	.LC16
 572              		.cfi_endproc
 573              	.LFE4:
 574              		.size	Can_RearCanNode_Heartbeat_Test, .-Can_RearCanNode_Heartbeat_Test
 575              		.section	.text.Can_RearCanNode_WheelSpeed_Test,"ax",%progbits
 576              		.align	2
 577              		.global	Can_RearCanNode_WheelSpeed_Test
 578              		.code	16
 579              		.thumb_func
 580              		.type	Can_RearCanNode_WheelSpeed_Test, %function
 581              	Can_RearCanNode_WheelSpeed_Test:
 582              	.LFB5:
  90:../MY17/lib/MY17_Can_Library/MY17_Can_Library_Test.c **** 
  91:../MY17/lib/MY17_Can_Library/MY17_Can_Library_Test.c **** void Can_RearCanNode_WheelSpeed_Test(PRINT print) {
 583              		.loc 1 91 0
 584              		.cfi_startproc
 585              	.LVL42:
 586 0000 10B5     		push	{r4, lr}	@
 587              		.cfi_def_cfa_offset 8
 588              		.cfi_offset 4, -8
 589              		.cfi_offset 14, -4
  92:../MY17/lib/MY17_Can_Library/MY17_Can_Library_Test.c ****   Can_RearCanNode_WheelSpeed_T begin;
  93:../MY17/lib/MY17_Can_Library/MY17_Can_Library_Test.c ****   begin.rear_right_wheel_speed = 1000000;
 590              		.loc 1 93 0
 591 0002 124B     		ldr	r3, .L51	@ tmp117,
  91:../MY17/lib/MY17_Can_Library/MY17_Can_Library_Test.c ****   Can_RearCanNode_WheelSpeed_T begin;
 592              		.loc 1 91 0
 593 0004 8AB0     		sub	sp, sp, #40	@,,
 594              		.cfi_def_cfa_offset 48
 595              		.loc 1 93 0
 596 0006 0393     		str	r3, [sp, #12]	@ tmp117, begin.rear_right_wheel_speed
  94:../MY17/lib/MY17_Can_Library/MY17_Can_Library_Test.c ****   begin.rear_left_wheel_speed = 30000000UL;
 597              		.loc 1 94 0
 598 0008 114B     		ldr	r3, .L51+4	@ tmp119,
  95:../MY17/lib/MY17_Can_Library/MY17_Can_Library_Test.c **** 
  96:../MY17/lib/MY17_Can_Library/MY17_Can_Library_Test.c ****   BOILERPLATE(Can_RearCanNode_WheelSpeed);
 599              		.loc 1 96 0
 600 000a 07A9     		add	r1, sp, #28	@ tmp137,,
  91:../MY17/lib/MY17_Can_Library/MY17_Can_Library_Test.c ****   Can_RearCanNode_WheelSpeed_T begin;
 601              		.loc 1 91 0
 602 000c 041C     		mov	r4, r0	@ print, print
 603              		.loc 1 96 0
 604 000e 03A8     		add	r0, sp, #12	@ tmp136,,
 605              	.LVL43:
  94:../MY17/lib/MY17_Can_Library/MY17_Can_Library_Test.c ****   begin.rear_left_wheel_speed = 30000000UL;
 606              		.loc 1 94 0
 607 0010 0493     		str	r3, [sp, #16]	@ tmp119, begin.rear_left_wheel_speed
 608              		.loc 1 96 0
 609 0012 FFF7FEFF 		bl	Can_RearCanNode_WheelSpeed_ToCan	@
 610              	.LVL44:
ARM GAS  /var/folders/9j/_txx49hn253_s3mnzkyxlj8m0000gp/T//ccxigpJH.s 			page 14


 611 0016 1F20     		mov	r0, #31	@ tmp138,
 612 0018 0022     		mov	r2, #0	@ tmp122,
 613 001a 0023     		mov	r3, #0	@,
 614 001c 6844     		add	r0, r0, sp	@ tmp138,
 615 001e 6946     		mov	r1, sp	@,
 616 0020 0092     		str	r2, [sp]	@ tmp122, end_bitstring
 617 0022 0193     		str	r3, [sp, #4]	@ tmp122,
 618 0024 FFF7FEFF 		bl	to_bitstring	@
 619              	.LVL45:
 620 0028 07A8     		add	r0, sp, #28	@ tmp139,,
 621 002a 05A9     		add	r1, sp, #20	@ tmp140,,
 622 002c FFF7FEFF 		bl	Can_RearCanNode_WheelSpeed_FromCan	@
 623              	.LVL46:
  97:../MY17/lib/MY17_Can_Library/MY17_Can_Library_Test.c **** 
  98:../MY17/lib/MY17_Can_Library/MY17_Can_Library_Test.c ****   bool equal = (
  99:../MY17/lib/MY17_Can_Library/MY17_Can_Library_Test.c ****       begin.rear_right_wheel_speed == end.rear_right_wheel_speed &&
 624              		.loc 1 99 0
 625 0030 039B     		ldr	r3, [sp, #12]	@ tmp141, begin.rear_right_wheel_speed
 626 0032 059A     		ldr	r2, [sp, #20]	@ tmp142, end.rear_right_wheel_speed
 627 0034 9342     		cmp	r3, r2	@ tmp141, tmp142
 628 0036 03D0     		beq	.L50	@,
 629              	.L49:
 100:../MY17/lib/MY17_Can_Library/MY17_Can_Library_Test.c ****       begin.rear_left_wheel_speed == end.rear_left_wheel_speed);
 101:../MY17/lib/MY17_Can_Library/MY17_Can_Library_Test.c **** 
 102:../MY17/lib/MY17_Can_Library/MY17_Can_Library_Test.c ****   print(equal ? "RearCanNode_WheelSpeed_PASS\r\n" : "RearCanNode_WheelSpeed_FAIL!!!!!!!!!!!!!!!!\r\
 630              		.loc 1 102 0
 631 0038 0648     		ldr	r0, .L51+8	@ D.5414,
 632              	.L47:
 633              		.loc 1 102 0 is_stmt 0 discriminator 4
 634 003a A047     		blx	r4	@ print
 635              	.LVL47:
 103:../MY17/lib/MY17_Can_Library/MY17_Can_Library_Test.c **** 
 104:../MY17/lib/MY17_Can_Library/MY17_Can_Library_Test.c **** }
 636              		.loc 1 104 0 is_stmt 1 discriminator 4
 637 003c 0AB0     		add	sp, sp, #40	@,,
 638              		@ sp needed	@
 639              	.LVL48:
 640 003e 10BD     		pop	{r4, pc}
 641              	.LVL49:
 642              	.L50:
  99:../MY17/lib/MY17_Can_Library/MY17_Can_Library_Test.c ****       begin.rear_left_wheel_speed == end.rear_left_wheel_speed);
 643              		.loc 1 99 0 discriminator 1
 644 0040 049A     		ldr	r2, [sp, #16]	@ begin.rear_left_wheel_speed, begin.rear_left_wheel_speed
 645 0042 069B     		ldr	r3, [sp, #24]	@ end.rear_left_wheel_speed, end.rear_left_wheel_speed
 646 0044 9A42     		cmp	r2, r3	@ begin.rear_left_wheel_speed, end.rear_left_wheel_speed
 647 0046 F7D1     		bne	.L49	@,
 102:../MY17/lib/MY17_Can_Library/MY17_Can_Library_Test.c **** 
 648              		.loc 1 102 0
 649 0048 0348     		ldr	r0, .L51+12	@ D.5414,
 650 004a F6E7     		b	.L47	@
 651              	.L52:
 652              		.align	2
 653              	.L51:
 654 004c 40420F00 		.word	1000000
 655 0050 80C3C901 		.word	30000000
 656 0054 50010000 		.word	.LC20
 657 0058 80010000 		.word	.LC22
ARM GAS  /var/folders/9j/_txx49hn253_s3mnzkyxlj8m0000gp/T//ccxigpJH.s 			page 15


 658              		.cfi_endproc
 659              	.LFE5:
 660              		.size	Can_RearCanNode_WheelSpeed_Test, .-Can_RearCanNode_WheelSpeed_Test
 661              		.section	.text.Can_Vcu_BmsHeartbeat_Test,"ax",%progbits
 662              		.align	2
 663              		.global	Can_Vcu_BmsHeartbeat_Test
 664              		.code	16
 665              		.thumb_func
 666              		.type	Can_Vcu_BmsHeartbeat_Test, %function
 667              	Can_Vcu_BmsHeartbeat_Test:
 668              	.LFB6:
 105:../MY17/lib/MY17_Can_Library/MY17_Can_Library_Test.c **** 
 106:../MY17/lib/MY17_Can_Library/MY17_Can_Library_Test.c **** void Can_Vcu_BmsHeartbeat_Test(PRINT print) {
 669              		.loc 1 106 0
 670              		.cfi_startproc
 671              	.LVL50:
 672 0000 30B5     		push	{r4, r5, lr}	@
 673              		.cfi_def_cfa_offset 12
 674              		.cfi_offset 4, -12
 675              		.cfi_offset 5, -8
 676              		.cfi_offset 14, -4
 677 0002 89B0     		sub	sp, sp, #36	@,,
 678              		.cfi_def_cfa_offset 48
 107:../MY17/lib/MY17_Can_Library/MY17_Can_Library_Test.c ****   Can_Vcu_BmsHeartbeat_T begin;
 108:../MY17/lib/MY17_Can_Library/MY17_Can_Library_Test.c ****   begin.alwaysTrue = true;
 679              		.loc 1 108 0
 680 0004 0123     		mov	r3, #1	@ tmp115,
 681 0006 6A46     		mov	r2, sp	@ tmp129,
 109:../MY17/lib/MY17_Can_Library/MY17_Can_Library_Test.c **** 
 110:../MY17/lib/MY17_Can_Library/MY17_Can_Library_Test.c ****   BOILERPLATE(Can_Vcu_BmsHeartbeat);
 682              		.loc 1 110 0
 683 0008 05A9     		add	r1, sp, #20	@ tmp130,,
 106:../MY17/lib/MY17_Can_Library/MY17_Can_Library_Test.c ****   Can_Vcu_BmsHeartbeat_T begin;
 684              		.loc 1 106 0
 685 000a 051C     		mov	r5, r0	@ print, print
 686              		.loc 1 110 0
 687 000c 6846     		mov	r0, sp	@,
 688              	.LVL51:
 108:../MY17/lib/MY17_Can_Library/MY17_Can_Library_Test.c **** 
 689              		.loc 1 108 0
 690 000e 1370     		strb	r3, [r2]	@ tmp115, begin.alwaysTrue
 691              		.loc 1 110 0
 692 0010 FFF7FEFF 		bl	Can_Vcu_BmsHeartbeat_ToCan	@
 693              	.LVL52:
 694 0014 1720     		mov	r0, #23	@ tmp131,
 695 0016 0022     		mov	r2, #0	@ tmp119,
 696 0018 0023     		mov	r3, #0	@,
 697 001a 6844     		add	r0, r0, sp	@ tmp131,
 698 001c 02A9     		add	r1, sp, #8	@,,
 699 001e 01AC     		add	r4, sp, #4	@ tmp124,,
 700 0020 0292     		str	r2, [sp, #8]	@ tmp119, end_bitstring
 701 0022 0393     		str	r3, [sp, #12]	@ tmp119,
 702 0024 FFF7FEFF 		bl	to_bitstring	@
 703              	.LVL53:
 704 0028 05A8     		add	r0, sp, #20	@ tmp132,,
 705 002a 211C     		mov	r1, r4	@, tmp124
 706 002c FFF7FEFF 		bl	Can_Vcu_BmsHeartbeat_FromCan	@
ARM GAS  /var/folders/9j/_txx49hn253_s3mnzkyxlj8m0000gp/T//ccxigpJH.s 			page 16


 707              	.LVL54:
 111:../MY17/lib/MY17_Can_Library/MY17_Can_Library_Test.c **** 
 112:../MY17/lib/MY17_Can_Library/MY17_Can_Library_Test.c ****   bool equal = begin.alwaysTrue == end.alwaysTrue;
 113:../MY17/lib/MY17_Can_Library/MY17_Can_Library_Test.c ****   print(equal ? "Vcu_BmsHeartbeat_PASS\r\n" : "Vcu_BmsHeartbeat_FAIL!!!!!!!!!!!!!!!!\r\n");
 708              		.loc 1 113 0
 709 0030 6B46     		mov	r3, sp	@ tmp133,
 710 0032 1A78     		ldrb	r2, [r3]	@ begin, begin
 711 0034 2378     		ldrb	r3, [r4]	@ end, end
 712 0036 9A42     		cmp	r2, r3	@ begin, end
 713 0038 03D0     		beq	.L55	@,
 714 003a 0348     		ldr	r0, .L56	@ D.5420,
 715              	.L54:
 716              		.loc 1 113 0 is_stmt 0 discriminator 4
 717 003c A847     		blx	r5	@ print
 718              	.LVL55:
 114:../MY17/lib/MY17_Can_Library/MY17_Can_Library_Test.c **** 
 115:../MY17/lib/MY17_Can_Library/MY17_Can_Library_Test.c **** }
 719              		.loc 1 115 0 is_stmt 1 discriminator 4
 720 003e 09B0     		add	sp, sp, #36	@,,
 721              		@ sp needed	@
 722              	.LVL56:
 723 0040 30BD     		pop	{r4, r5, pc}
 724              	.LVL57:
 725              	.L55:
 113:../MY17/lib/MY17_Can_Library/MY17_Can_Library_Test.c **** 
 726              		.loc 1 113 0
 727 0042 0248     		ldr	r0, .L56+4	@ D.5420,
 728 0044 FAE7     		b	.L54	@
 729              	.L57:
 730 0046 C046     		.align	2
 731              	.L56:
 732 0048 B8010000 		.word	.LC26
 733 004c A0010000 		.word	.LC24
 734              		.cfi_endproc
 735              	.LFE6:
 736              		.size	Can_Vcu_BmsHeartbeat_Test, .-Can_Vcu_BmsHeartbeat_Test
 737              		.section	.text.Can_Vcu_DashHeartbeat_Test,"ax",%progbits
 738              		.align	2
 739              		.global	Can_Vcu_DashHeartbeat_Test
 740              		.code	16
 741              		.thumb_func
 742              		.type	Can_Vcu_DashHeartbeat_Test, %function
 743              	Can_Vcu_DashHeartbeat_Test:
 744              	.LFB7:
 116:../MY17/lib/MY17_Can_Library/MY17_Can_Library_Test.c **** 
 117:../MY17/lib/MY17_Can_Library/MY17_Can_Library_Test.c **** void Can_Vcu_DashHeartbeat_Test(PRINT print) {
 745              		.loc 1 117 0
 746              		.cfi_startproc
 747              	.LVL58:
 118:../MY17/lib/MY17_Can_Library/MY17_Can_Library_Test.c ****   Can_Vcu_DashHeartbeat_T begin;
 119:../MY17/lib/MY17_Can_Library/MY17_Can_Library_Test.c **** 
 120:../MY17/lib/MY17_Can_Library/MY17_Can_Library_Test.c ****   begin.rtd_light = true;
 748              		.loc 1 120 0
 749 0000 0123     		mov	r3, #1	@ tmp143,
 121:../MY17/lib/MY17_Can_Library/MY17_Can_Library_Test.c ****   begin.ams_light = false;
 750              		.loc 1 121 0
 751 0002 0022     		mov	r2, #0	@ tmp146,
ARM GAS  /var/folders/9j/_txx49hn253_s3mnzkyxlj8m0000gp/T//ccxigpJH.s 			page 17


 117:../MY17/lib/MY17_Can_Library/MY17_Can_Library_Test.c ****   Can_Vcu_DashHeartbeat_T begin;
 752              		.loc 1 117 0
 753 0004 30B5     		push	{r4, r5, lr}	@
 754              		.cfi_def_cfa_offset 12
 755              		.cfi_offset 4, -12
 756              		.cfi_offset 5, -8
 757              		.cfi_offset 14, -4
 758 0006 97B0     		sub	sp, sp, #92	@,,
 759              		.cfi_def_cfa_offset 104
 120:../MY17/lib/MY17_Can_Library/MY17_Can_Library_Test.c ****   begin.ams_light = false;
 760              		.loc 1 120 0
 761 0008 06AC     		add	r4, sp, #24	@ tmp298,,
 762 000a 2370     		strb	r3, [r4]	@ tmp143, begin.rtd_light
 122:../MY17/lib/MY17_Can_Library/MY17_Can_Library_Test.c ****   begin.imd_light = false;
 123:../MY17/lib/MY17_Can_Library/MY17_Can_Library_Test.c ****   begin.hv_light = true;
 763              		.loc 1 123 0
 764 000c E370     		strb	r3, [r4, #3]	@ tmp143, begin.hv_light
 124:../MY17/lib/MY17_Can_Library/MY17_Can_Library_Test.c **** 
 125:../MY17/lib/MY17_Can_Library/MY17_Can_Library_Test.c ****   begin.traction_control = true;
 765              		.loc 1 125 0
 766 000e 2371     		strb	r3, [r4, #4]	@ tmp143, begin.traction_control
 126:../MY17/lib/MY17_Can_Library/MY17_Can_Library_Test.c ****   begin.limp_mode = true;
 767              		.loc 1 126 0
 768 0010 6371     		strb	r3, [r4, #5]	@ tmp143, begin.limp_mode
 127:../MY17/lib/MY17_Can_Library/MY17_Can_Library_Test.c ****   begin.lv_warning = false;
 128:../MY17/lib/MY17_Can_Library/MY17_Can_Library_Test.c ****   begin.active_aero = true;
 769              		.loc 1 128 0
 770 0012 E371     		strb	r3, [r4, #7]	@ tmp143, begin.active_aero
 129:../MY17/lib/MY17_Can_Library/MY17_Can_Library_Test.c **** 
 130:../MY17/lib/MY17_Can_Library/MY17_Can_Library_Test.c ****   begin.regen = true;
 771              		.loc 1 130 0
 772 0014 2372     		strb	r3, [r4, #8]	@ tmp143, begin.regen
 131:../MY17/lib/MY17_Can_Library/MY17_Can_Library_Test.c ****   begin.shutdown_esd_drain = false;
 132:../MY17/lib/MY17_Can_Library/MY17_Can_Library_Test.c ****   begin.shutdown_bms = true;
 773              		.loc 1 132 0
 774 0016 A372     		strb	r3, [r4, #10]	@ tmp143, begin.shutdown_bms
 133:../MY17/lib/MY17_Can_Library/MY17_Can_Library_Test.c ****   begin.shutdown_imd = true;
 775              		.loc 1 133 0
 776 0018 E372     		strb	r3, [r4, #11]	@ tmp143, begin.shutdown_imd
 134:../MY17/lib/MY17_Can_Library/MY17_Can_Library_Test.c **** 
 135:../MY17/lib/MY17_Can_Library/MY17_Can_Library_Test.c ****   begin.shutdown_bspd = false;
 136:../MY17/lib/MY17_Can_Library/MY17_Can_Library_Test.c ****   begin.shutdown_vcu = false;
 137:../MY17/lib/MY17_Can_Library/MY17_Can_Library_Test.c ****   begin.shutdown_precharge = false;
 138:../MY17/lib/MY17_Can_Library/MY17_Can_Library_Test.c ****   begin.shutdown_master_reset = true;
 777              		.loc 1 138 0
 778 001a E373     		strb	r3, [r4, #15]	@ tmp143, begin.shutdown_master_reset
 139:../MY17/lib/MY17_Can_Library/MY17_Can_Library_Test.c **** 
 140:../MY17/lib/MY17_Can_Library/MY17_Can_Library_Test.c ****   begin.shutdown_driver_reset = false;
 141:../MY17/lib/MY17_Can_Library/MY17_Can_Library_Test.c **** 
 142:../MY17/lib/MY17_Can_Library/MY17_Can_Library_Test.c ****   begin.heartbeat_front_can_node_dead = false;
 143:../MY17/lib/MY17_Can_Library/MY17_Can_Library_Test.c ****   begin.heartbeat_rear_can_node_dead = false;
 144:../MY17/lib/MY17_Can_Library/MY17_Can_Library_Test.c ****   begin.heartbeat_bms_dead = true;
 779              		.loc 1 144 0
 780 001c E374     		strb	r3, [r4, #19]	@ tmp143, begin.heartbeat_bms_dead
 145:../MY17/lib/MY17_Can_Library/MY17_Can_Library_Test.c ****   begin.heartbeat_dash_dead = false;
 146:../MY17/lib/MY17_Can_Library/MY17_Can_Library_Test.c ****   begin.heartbeat_mc_dead = true;
 781              		.loc 1 146 0
ARM GAS  /var/folders/9j/_txx49hn253_s3mnzkyxlj8m0000gp/T//ccxigpJH.s 			page 18


 782 001e 6375     		strb	r3, [r4, #21]	@ tmp143, begin.heartbeat_mc_dead
 147:../MY17/lib/MY17_Can_Library/MY17_Can_Library_Test.c ****   begin.heartbeat_current_sensor_dead = false;
 148:../MY17/lib/MY17_Can_Library/MY17_Can_Library_Test.c **** 
 149:../MY17/lib/MY17_Can_Library/MY17_Can_Library_Test.c ****   begin.tsms_off = false;
 150:../MY17/lib/MY17_Can_Library/MY17_Can_Library_Test.c ****   begin.reset_latch_open = true;
 783              		.loc 1 150 0
 784 0020 2376     		strb	r3, [r4, #24]	@ tmp143, begin.reset_latch_open
 151:../MY17/lib/MY17_Can_Library/MY17_Can_Library_Test.c ****   begin.precharge_running = true;
 785              		.loc 1 151 0
 786 0022 6376     		strb	r3, [r4, #25]	@ tmp143, begin.precharge_running
 152:../MY17/lib/MY17_Can_Library/MY17_Can_Library_Test.c **** 
 153:../MY17/lib/MY17_Can_Library/MY17_Can_Library_Test.c ****   begin.master_reset_not_initialized = false;
 154:../MY17/lib/MY17_Can_Library/MY17_Can_Library_Test.c ****   begin.driver_reset_not_initialized = true;
 787              		.loc 1 154 0
 788 0024 E376     		strb	r3, [r4, #27]	@ tmp143, begin.driver_reset_not_initialized
 155:../MY17/lib/MY17_Can_Library/MY17_Can_Library_Test.c **** 
 156:../MY17/lib/MY17_Can_Library/MY17_Can_Library_Test.c ****   begin.lv_battery_voltage = 1022;
 789              		.loc 1 156 0
 790 0026 464B     		ldr	r3, .L76	@ tmp227,
 157:../MY17/lib/MY17_Can_Library/MY17_Can_Library_Test.c **** 
 158:../MY17/lib/MY17_Can_Library/MY17_Can_Library_Test.c ****   BOILERPLATE(Can_Vcu_DashHeartbeat);
 791              		.loc 1 158 0
 792 0028 03A9     		add	r1, sp, #12	@ tmp299,,
 117:../MY17/lib/MY17_Can_Library/MY17_Can_Library_Test.c ****   Can_Vcu_DashHeartbeat_T begin;
 793              		.loc 1 117 0
 794 002a 051C     		mov	r5, r0	@ print, print
 795              		.loc 1 158 0
 796 002c 201C     		mov	r0, r4	@, tmp298
 797              	.LVL59:
 121:../MY17/lib/MY17_Can_Library/MY17_Can_Library_Test.c ****   begin.imd_light = false;
 798              		.loc 1 121 0
 799 002e 6270     		strb	r2, [r4, #1]	@ tmp146, begin.ams_light
 122:../MY17/lib/MY17_Can_Library/MY17_Can_Library_Test.c ****   begin.hv_light = true;
 800              		.loc 1 122 0
 801 0030 A270     		strb	r2, [r4, #2]	@ tmp146, begin.imd_light
 127:../MY17/lib/MY17_Can_Library/MY17_Can_Library_Test.c ****   begin.active_aero = true;
 802              		.loc 1 127 0
 803 0032 A271     		strb	r2, [r4, #6]	@ tmp146, begin.lv_warning
 131:../MY17/lib/MY17_Can_Library/MY17_Can_Library_Test.c ****   begin.shutdown_bms = true;
 804              		.loc 1 131 0
 805 0034 6272     		strb	r2, [r4, #9]	@ tmp146, begin.shutdown_esd_drain
 135:../MY17/lib/MY17_Can_Library/MY17_Can_Library_Test.c ****   begin.shutdown_vcu = false;
 806              		.loc 1 135 0
 807 0036 2273     		strb	r2, [r4, #12]	@ tmp146, begin.shutdown_bspd
 136:../MY17/lib/MY17_Can_Library/MY17_Can_Library_Test.c ****   begin.shutdown_precharge = false;
 808              		.loc 1 136 0
 809 0038 6273     		strb	r2, [r4, #13]	@ tmp146, begin.shutdown_vcu
 137:../MY17/lib/MY17_Can_Library/MY17_Can_Library_Test.c ****   begin.shutdown_master_reset = true;
 810              		.loc 1 137 0
 811 003a A273     		strb	r2, [r4, #14]	@ tmp146, begin.shutdown_precharge
 140:../MY17/lib/MY17_Can_Library/MY17_Can_Library_Test.c **** 
 812              		.loc 1 140 0
 813 003c 2274     		strb	r2, [r4, #16]	@ tmp146, begin.shutdown_driver_reset
 142:../MY17/lib/MY17_Can_Library/MY17_Can_Library_Test.c ****   begin.heartbeat_rear_can_node_dead = false;
 814              		.loc 1 142 0
 815 003e 6274     		strb	r2, [r4, #17]	@ tmp146, begin.heartbeat_front_can_node_dead
 143:../MY17/lib/MY17_Can_Library/MY17_Can_Library_Test.c ****   begin.heartbeat_bms_dead = true;
ARM GAS  /var/folders/9j/_txx49hn253_s3mnzkyxlj8m0000gp/T//ccxigpJH.s 			page 19


 816              		.loc 1 143 0
 817 0040 A274     		strb	r2, [r4, #18]	@ tmp146, begin.heartbeat_rear_can_node_dead
 145:../MY17/lib/MY17_Can_Library/MY17_Can_Library_Test.c ****   begin.heartbeat_mc_dead = true;
 818              		.loc 1 145 0
 819 0042 2275     		strb	r2, [r4, #20]	@ tmp146, begin.heartbeat_dash_dead
 147:../MY17/lib/MY17_Can_Library/MY17_Can_Library_Test.c **** 
 820              		.loc 1 147 0
 821 0044 A275     		strb	r2, [r4, #22]	@ tmp146, begin.heartbeat_current_sensor_dead
 149:../MY17/lib/MY17_Can_Library/MY17_Can_Library_Test.c ****   begin.reset_latch_open = true;
 822              		.loc 1 149 0
 823 0046 E275     		strb	r2, [r4, #23]	@ tmp146, begin.tsms_off
 153:../MY17/lib/MY17_Can_Library/MY17_Can_Library_Test.c ****   begin.driver_reset_not_initialized = true;
 824              		.loc 1 153 0
 825 0048 A276     		strb	r2, [r4, #26]	@ tmp146, begin.master_reset_not_initialized
 156:../MY17/lib/MY17_Can_Library/MY17_Can_Library_Test.c **** 
 826              		.loc 1 156 0
 827 004a A383     		strh	r3, [r4, #28]	@ tmp227, begin.lv_battery_voltage
 828              		.loc 1 158 0
 829 004c FFF7FEFF 		bl	Can_Vcu_DashHeartbeat_ToCan	@
 830              	.LVL60:
 831 0050 0F20     		mov	r0, #15	@ tmp300,
 832 0052 0022     		mov	r2, #0	@ tmp231,
 833 0054 0023     		mov	r3, #0	@,
 834 0056 6844     		add	r0, r0, sp	@ tmp300,
 835 0058 6946     		mov	r1, sp	@,
 836 005a 0092     		str	r2, [sp]	@ tmp231, end_bitstring
 837 005c 0193     		str	r3, [sp, #4]	@ tmp231,
 838 005e FFF7FEFF 		bl	to_bitstring	@
 839              	.LVL61:
 840 0062 03A8     		add	r0, sp, #12	@ tmp301,,
 841 0064 0EA9     		add	r1, sp, #56	@ tmp302,,
 842 0066 FFF7FEFF 		bl	Can_Vcu_DashHeartbeat_FromCan	@
 843              	.LVL62:
 159:../MY17/lib/MY17_Can_Library/MY17_Can_Library_Test.c **** 
 160:../MY17/lib/MY17_Can_Library/MY17_Can_Library_Test.c ****   bool equal = (
 161:../MY17/lib/MY17_Can_Library/MY17_Can_Library_Test.c ****       begin.rtd_light == end.rtd_light &&
 162:../MY17/lib/MY17_Can_Library/MY17_Can_Library_Test.c ****       begin.ams_light == end.ams_light &&
 163:../MY17/lib/MY17_Can_Library/MY17_Can_Library_Test.c ****       begin.imd_light == end.imd_light &&
 164:../MY17/lib/MY17_Can_Library/MY17_Can_Library_Test.c ****       begin.hv_light == end.hv_light &&
 165:../MY17/lib/MY17_Can_Library/MY17_Can_Library_Test.c ****       begin.traction_control == end.traction_control &&
 166:../MY17/lib/MY17_Can_Library/MY17_Can_Library_Test.c ****       begin.limp_mode == end.limp_mode &&
 167:../MY17/lib/MY17_Can_Library/MY17_Can_Library_Test.c ****       begin.lv_warning == end.lv_warning &&
 168:../MY17/lib/MY17_Can_Library/MY17_Can_Library_Test.c ****       begin.active_aero == end.active_aero &&
 169:../MY17/lib/MY17_Can_Library/MY17_Can_Library_Test.c ****       begin.regen == end.regen &&
 170:../MY17/lib/MY17_Can_Library/MY17_Can_Library_Test.c ****       begin.shutdown_esd_drain == end.shutdown_esd_drain &&
 171:../MY17/lib/MY17_Can_Library/MY17_Can_Library_Test.c ****       begin.shutdown_bms == end.shutdown_bms &&
 172:../MY17/lib/MY17_Can_Library/MY17_Can_Library_Test.c ****       begin.shutdown_imd == end.shutdown_imd &&
 173:../MY17/lib/MY17_Can_Library/MY17_Can_Library_Test.c ****       begin.shutdown_bspd == end.shutdown_bspd &&
 174:../MY17/lib/MY17_Can_Library/MY17_Can_Library_Test.c ****       begin.shutdown_vcu == end.shutdown_vcu &&
 175:../MY17/lib/MY17_Can_Library/MY17_Can_Library_Test.c ****       begin.shutdown_precharge == end.shutdown_precharge &&
 176:../MY17/lib/MY17_Can_Library/MY17_Can_Library_Test.c ****       begin.shutdown_master_reset == end.shutdown_master_reset &&
 177:../MY17/lib/MY17_Can_Library/MY17_Can_Library_Test.c ****       begin.shutdown_driver_reset == end.shutdown_driver_reset &&
 178:../MY17/lib/MY17_Can_Library/MY17_Can_Library_Test.c ****       begin.heartbeat_front_can_node_dead == end.heartbeat_front_can_node_dead &&
 179:../MY17/lib/MY17_Can_Library/MY17_Can_Library_Test.c ****       begin.heartbeat_rear_can_node_dead == end.heartbeat_rear_can_node_dead &&
 180:../MY17/lib/MY17_Can_Library/MY17_Can_Library_Test.c ****       begin.heartbeat_bms_dead == end.heartbeat_bms_dead &&
 181:../MY17/lib/MY17_Can_Library/MY17_Can_Library_Test.c ****       begin.heartbeat_dash_dead == end.heartbeat_dash_dead &&
 182:../MY17/lib/MY17_Can_Library/MY17_Can_Library_Test.c ****       begin.heartbeat_mc_dead == end.heartbeat_mc_dead &&
ARM GAS  /var/folders/9j/_txx49hn253_s3mnzkyxlj8m0000gp/T//ccxigpJH.s 			page 20


 183:../MY17/lib/MY17_Can_Library/MY17_Can_Library_Test.c ****       begin.heartbeat_current_sensor_dead == end.heartbeat_current_sensor_dead &&
 184:../MY17/lib/MY17_Can_Library/MY17_Can_Library_Test.c ****       begin.tsms_off == end.tsms_off &&
 185:../MY17/lib/MY17_Can_Library/MY17_Can_Library_Test.c ****       begin.reset_latch_open == end. reset_latch_open &&
 186:../MY17/lib/MY17_Can_Library/MY17_Can_Library_Test.c ****       begin.precharge_running == end.precharge_running &&
 187:../MY17/lib/MY17_Can_Library/MY17_Can_Library_Test.c ****       begin.master_reset_not_initialized == end.master_reset_not_initialized &&
 188:../MY17/lib/MY17_Can_Library/MY17_Can_Library_Test.c ****       begin.driver_reset_not_initialized == end.driver_reset_not_initialized &&
 844              		.loc 1 188 0
 845 006a 6B46     		mov	r3, sp	@ tmp303,
 846 006c 2288     		ldrh	r2, [r4]	@ begin, begin
 847 006e 1B8F     		ldrh	r3, [r3, #56]	@ end, end
 848 0070 9A42     		cmp	r2, r3	@ begin, end
 849 0072 03D0     		beq	.L75	@,
 850              	.L65:
 189:../MY17/lib/MY17_Can_Library/MY17_Can_Library_Test.c ****       begin.lv_battery_voltage == end.lv_battery_voltage);
 190:../MY17/lib/MY17_Can_Library/MY17_Can_Library_Test.c **** 
 191:../MY17/lib/MY17_Can_Library/MY17_Can_Library_Test.c ****   print(equal ? "Vcu_DashHeartbeat_PASS\r\n" : "Vcu_DashHeartbeat_FAIL!!!!!!!!!!!!!!!!\r\n");
 851              		.loc 1 191 0
 852 0074 3348     		ldr	r0, .L76+4	@ D.5426,
 853              	.L59:
 854              		.loc 1 191 0 is_stmt 0 discriminator 4
 855 0076 A847     		blx	r5	@ print
 856              	.LVL63:
 192:../MY17/lib/MY17_Can_Library/MY17_Can_Library_Test.c **** 
 193:../MY17/lib/MY17_Can_Library/MY17_Can_Library_Test.c **** }
 857              		.loc 1 193 0 is_stmt 1 discriminator 4
 858 0078 17B0     		add	sp, sp, #92	@,,
 859              		@ sp needed	@
 860              	.LVL64:
 861 007a 30BD     		pop	{r4, r5, pc}
 862              	.LVL65:
 863              	.L75:
 163:../MY17/lib/MY17_Can_Library/MY17_Can_Library_Test.c ****       begin.hv_light == end.hv_light &&
 864              		.loc 1 163 0
 865 007c 6B46     		mov	r3, sp	@ tmp304,
 866 007e 6288     		ldrh	r2, [r4, #2]	@ begin, begin
 867 0080 5B8F     		ldrh	r3, [r3, #58]	@ end, end
 868 0082 9A42     		cmp	r2, r3	@ begin, end
 869 0084 F6D1     		bne	.L65	@,
 165:../MY17/lib/MY17_Can_Library/MY17_Can_Library_Test.c ****       begin.limp_mode == end.limp_mode &&
 870              		.loc 1 165 0
 871 0086 6B46     		mov	r3, sp	@ tmp305,
 872 0088 A288     		ldrh	r2, [r4, #4]	@ begin, begin
 873 008a 9B8F     		ldrh	r3, [r3, #60]	@ end, end
 874 008c 9A42     		cmp	r2, r3	@ begin, end
 875 008e F1D1     		bne	.L65	@,
 167:../MY17/lib/MY17_Can_Library/MY17_Can_Library_Test.c ****       begin.active_aero == end.active_aero &&
 876              		.loc 1 167 0
 877 0090 6B46     		mov	r3, sp	@ tmp306,
 878 0092 E288     		ldrh	r2, [r4, #6]	@ begin, begin
 879 0094 DB8F     		ldrh	r3, [r3, #62]	@ end, end
 880 0096 9A42     		cmp	r2, r3	@ begin, end
 881 0098 ECD1     		bne	.L65	@,
 169:../MY17/lib/MY17_Can_Library/MY17_Can_Library_Test.c ****       begin.shutdown_esd_drain == end.shutdown_esd_drain &&
 882              		.loc 1 169 0
 883 009a 6B46     		mov	r3, sp	@ tmp307,
 884 009c 4021     		mov	r1, #64	@ tmp309,
 885 009e 5B18     		add	r3, r3, r1	@ tmp308, tmp307, tmp309
ARM GAS  /var/folders/9j/_txx49hn253_s3mnzkyxlj8m0000gp/T//ccxigpJH.s 			page 21


 886 00a0 2289     		ldrh	r2, [r4, #8]	@ begin, begin
 887 00a2 1B88     		ldrh	r3, [r3]	@ end, end
 888 00a4 9A42     		cmp	r2, r3	@ begin, end
 889 00a6 E5D1     		bne	.L65	@,
 171:../MY17/lib/MY17_Can_Library/MY17_Can_Library_Test.c ****       begin.shutdown_imd == end.shutdown_imd &&
 890              		.loc 1 171 0
 891 00a8 6B46     		mov	r3, sp	@ tmp310,
 892 00aa 0231     		add	r1, r1, #2	@ tmp312,
 893 00ac 5B18     		add	r3, r3, r1	@ tmp311, tmp310, tmp312
 894 00ae 6289     		ldrh	r2, [r4, #10]	@ begin, begin
 895 00b0 1B88     		ldrh	r3, [r3]	@ end, end
 896 00b2 9A42     		cmp	r2, r3	@ begin, end
 897 00b4 DED1     		bne	.L65	@,
 173:../MY17/lib/MY17_Can_Library/MY17_Can_Library_Test.c ****       begin.shutdown_vcu == end.shutdown_vcu &&
 898              		.loc 1 173 0
 899 00b6 6B46     		mov	r3, sp	@ tmp313,
 900 00b8 0231     		add	r1, r1, #2	@ tmp315,
 901 00ba 5B18     		add	r3, r3, r1	@ tmp314, tmp313, tmp315
 902 00bc A289     		ldrh	r2, [r4, #12]	@ begin, begin
 903 00be 1B88     		ldrh	r3, [r3]	@ end, end
 191:../MY17/lib/MY17_Can_Library/MY17_Can_Library_Test.c **** 
 904              		.loc 1 191 0
 905 00c0 2048     		ldr	r0, .L76+4	@ D.5426,
 173:../MY17/lib/MY17_Can_Library/MY17_Can_Library_Test.c ****       begin.shutdown_vcu == end.shutdown_vcu &&
 906              		.loc 1 173 0
 907 00c2 9A42     		cmp	r2, r3	@ begin, end
 908 00c4 D7D1     		bne	.L59	@,
 175:../MY17/lib/MY17_Can_Library/MY17_Can_Library_Test.c ****       begin.shutdown_master_reset == end.shutdown_master_reset &&
 909              		.loc 1 175 0
 910 00c6 6B46     		mov	r3, sp	@ tmp316,
 911 00c8 0231     		add	r1, r1, #2	@ tmp318,
 912 00ca 5B18     		add	r3, r3, r1	@ tmp317, tmp316, tmp318
 913 00cc E289     		ldrh	r2, [r4, #14]	@ begin, begin
 914 00ce 1B88     		ldrh	r3, [r3]	@ end, end
 915 00d0 9A42     		cmp	r2, r3	@ begin, end
 916 00d2 D0D1     		bne	.L59	@,
 177:../MY17/lib/MY17_Can_Library/MY17_Can_Library_Test.c ****       begin.heartbeat_front_can_node_dead == end.heartbeat_front_can_node_dead &&
 917              		.loc 1 177 0
 918 00d4 6B46     		mov	r3, sp	@ tmp319,
 919 00d6 0231     		add	r1, r1, #2	@ tmp321,
 920 00d8 5B18     		add	r3, r3, r1	@ tmp320, tmp319, tmp321
 921 00da 228A     		ldrh	r2, [r4, #16]	@ begin, begin
 922 00dc 1B88     		ldrh	r3, [r3]	@ end, end
 923 00de 9A42     		cmp	r2, r3	@ begin, end
 924 00e0 C9D1     		bne	.L59	@,
 179:../MY17/lib/MY17_Can_Library/MY17_Can_Library_Test.c ****       begin.heartbeat_bms_dead == end.heartbeat_bms_dead &&
 925              		.loc 1 179 0
 926 00e2 6B46     		mov	r3, sp	@ tmp322,
 927 00e4 0231     		add	r1, r1, #2	@ tmp324,
 928 00e6 5B18     		add	r3, r3, r1	@ tmp323, tmp322, tmp324
 929 00e8 628A     		ldrh	r2, [r4, #18]	@ begin, begin
 930 00ea 1B88     		ldrh	r3, [r3]	@ end, end
 931 00ec 9A42     		cmp	r2, r3	@ begin, end
 932 00ee C2D1     		bne	.L59	@,
 181:../MY17/lib/MY17_Can_Library/MY17_Can_Library_Test.c ****       begin.heartbeat_mc_dead == end.heartbeat_mc_dead &&
 933              		.loc 1 181 0
 934 00f0 6B46     		mov	r3, sp	@ tmp325,
ARM GAS  /var/folders/9j/_txx49hn253_s3mnzkyxlj8m0000gp/T//ccxigpJH.s 			page 22


 935 00f2 0231     		add	r1, r1, #2	@ tmp327,
 936 00f4 5B18     		add	r3, r3, r1	@ tmp326, tmp325, tmp327
 937 00f6 A28A     		ldrh	r2, [r4, #20]	@ begin, begin
 938 00f8 1B88     		ldrh	r3, [r3]	@ end, end
 939 00fa 9A42     		cmp	r2, r3	@ begin, end
 940 00fc BBD1     		bne	.L59	@,
 183:../MY17/lib/MY17_Can_Library/MY17_Can_Library_Test.c ****       begin.tsms_off == end.tsms_off &&
 941              		.loc 1 183 0
 942 00fe 6B46     		mov	r3, sp	@ tmp328,
 943 0100 0231     		add	r1, r1, #2	@ tmp330,
 944 0102 5B18     		add	r3, r3, r1	@ tmp329, tmp328, tmp330
 945 0104 E28A     		ldrh	r2, [r4, #22]	@ begin, begin
 946 0106 1B88     		ldrh	r3, [r3]	@ end, end
 947 0108 9A42     		cmp	r2, r3	@ begin, end
 948 010a B4D1     		bne	.L59	@,
 185:../MY17/lib/MY17_Can_Library/MY17_Can_Library_Test.c ****       begin.precharge_running == end.precharge_running &&
 949              		.loc 1 185 0
 950 010c 6B46     		mov	r3, sp	@ tmp331,
 951 010e 0231     		add	r1, r1, #2	@ tmp333,
 952 0110 5B18     		add	r3, r3, r1	@ tmp332, tmp331, tmp333
 953 0112 228B     		ldrh	r2, [r4, #24]	@ begin, begin
 954 0114 1B88     		ldrh	r3, [r3]	@ end, end
 955 0116 9A42     		cmp	r2, r3	@ begin, end
 956 0118 ADD1     		bne	.L59	@,
 187:../MY17/lib/MY17_Can_Library/MY17_Can_Library_Test.c ****       begin.driver_reset_not_initialized == end.driver_reset_not_initialized &&
 957              		.loc 1 187 0
 958 011a 6B46     		mov	r3, sp	@ tmp334,
 959 011c 0231     		add	r1, r1, #2	@ tmp336,
 960 011e 5B18     		add	r3, r3, r1	@ tmp335, tmp334, tmp336
 961 0120 628B     		ldrh	r2, [r4, #26]	@ begin, begin
 962 0122 1B88     		ldrh	r3, [r3]	@ end, end
 963 0124 9A42     		cmp	r2, r3	@ begin, end
 964 0126 00D0     		beq	.LCB785	@
 965 0128 A5E7     		b	.L59	@long jump	@
 966              	.LCB785:
 188:../MY17/lib/MY17_Can_Library/MY17_Can_Library_Test.c ****       begin.lv_battery_voltage == end.lv_battery_voltage);
 967              		.loc 1 188 0 discriminator 3
 968 012a 6B46     		mov	r3, sp	@ tmp337,
 969 012c 0231     		add	r1, r1, #2	@ tmp339,
 970 012e 5B18     		add	r3, r3, r1	@ tmp338, tmp337, tmp339
 971 0130 A28B     		ldrh	r2, [r4, #28]	@ tmp295,
 972 0132 1B88     		ldrh	r3, [r3]	@ tmp296,
 973 0134 9A42     		cmp	r2, r3	@ tmp295, tmp296
 974 0136 00D0     		beq	.LCB792	@
 975 0138 9DE7     		b	.L59	@long jump	@
 976              	.LCB792:
 191:../MY17/lib/MY17_Can_Library/MY17_Can_Library_Test.c **** 
 977              		.loc 1 191 0
 978 013a 0348     		ldr	r0, .L76+8	@ D.5426,
 979 013c 9BE7     		b	.L59	@
 980              	.L77:
 981 013e C046     		.align	2
 982              	.L76:
 983 0140 FE030000 		.word	1022
 984 0144 FC010000 		.word	.LC30
 985 0148 E0010000 		.word	.LC28
 986              		.cfi_endproc
ARM GAS  /var/folders/9j/_txx49hn253_s3mnzkyxlj8m0000gp/T//ccxigpJH.s 			page 23


 987              	.LFE7:
 988              		.size	Can_Vcu_DashHeartbeat_Test, .-Can_Vcu_DashHeartbeat_Test
 989              		.section	.text.Can_Vcu_MCRequest_Test,"ax",%progbits
 990              		.align	2
 991              		.global	Can_Vcu_MCRequest_Test
 992              		.code	16
 993              		.thumb_func
 994              		.type	Can_Vcu_MCRequest_Test, %function
 995              	Can_Vcu_MCRequest_Test:
 996              	.LFB8:
 194:../MY17/lib/MY17_Can_Library/MY17_Can_Library_Test.c **** 
 195:../MY17/lib/MY17_Can_Library/MY17_Can_Library_Test.c **** void Can_Vcu_MCRequest_Test(PRINT print) {
 997              		.loc 1 195 0
 998              		.cfi_startproc
 999              	.LVL66:
 1000 0000 10B5     		push	{r4, lr}	@
 1001              		.cfi_def_cfa_offset 8
 1002              		.cfi_offset 4, -8
 1003              		.cfi_offset 14, -4
 1004 0002 88B0     		sub	sp, sp, #32	@,,
 1005              		.cfi_def_cfa_offset 40
 196:../MY17/lib/MY17_Can_Library/MY17_Can_Library_Test.c ****   Can_Vcu_MCRequest_T begin;
 197:../MY17/lib/MY17_Can_Library/MY17_Can_Library_Test.c ****   begin.requestType = CAN_MC_REG_MSG_REQUEST;
 1006              		.loc 1 197 0
 1007 0004 6A46     		mov	r2, sp	@ tmp138,
 1008 0006 3D23     		mov	r3, #61	@ tmp117,
 198:../MY17/lib/MY17_Can_Library/MY17_Can_Library_Test.c ****   begin.period = 100;
 199:../MY17/lib/MY17_Can_Library/MY17_Can_Library_Test.c **** 
 200:../MY17/lib/MY17_Can_Library/MY17_Can_Library_Test.c ****   BOILERPLATE(Can_Vcu_MCRequest);
 1009              		.loc 1 200 0
 1010 0008 05A9     		add	r1, sp, #20	@ tmp140,,
 197:../MY17/lib/MY17_Can_Library/MY17_Can_Library_Test.c ****   begin.period = 100;
 1011              		.loc 1 197 0
 1012 000a 1370     		strb	r3, [r2]	@ tmp117, begin.requestType
 195:../MY17/lib/MY17_Can_Library/MY17_Can_Library_Test.c ****   Can_Vcu_MCRequest_T begin;
 1013              		.loc 1 195 0
 1014 000c 041C     		mov	r4, r0	@ print, print
 198:../MY17/lib/MY17_Can_Library/MY17_Can_Library_Test.c ****   begin.period = 100;
 1015              		.loc 1 198 0
 1016 000e 2733     		add	r3, r3, #39	@ tmp120,
 1017              		.loc 1 200 0
 1018 0010 6846     		mov	r0, sp	@,
 1019              	.LVL67:
 198:../MY17/lib/MY17_Can_Library/MY17_Can_Library_Test.c ****   begin.period = 100;
 1020              		.loc 1 198 0
 1021 0012 5370     		strb	r3, [r2, #1]	@ tmp120, begin.period
 1022              		.loc 1 200 0
 1023 0014 FFF7FEFF 		bl	Can_Vcu_MCRequest_ToCan	@
 1024              	.LVL68:
 1025 0018 1720     		mov	r0, #23	@ tmp141,
 1026 001a 0022     		mov	r2, #0	@ tmp124,
 1027 001c 0023     		mov	r3, #0	@,
 1028 001e 6844     		add	r0, r0, sp	@ tmp141,
 1029 0020 02A9     		add	r1, sp, #8	@,,
 1030 0022 0292     		str	r2, [sp, #8]	@ tmp124, end_bitstring
 1031 0024 0393     		str	r3, [sp, #12]	@ tmp124,
 1032 0026 FFF7FEFF 		bl	to_bitstring	@
ARM GAS  /var/folders/9j/_txx49hn253_s3mnzkyxlj8m0000gp/T//ccxigpJH.s 			page 24


 1033              	.LVL69:
 1034 002a 05A8     		add	r0, sp, #20	@ tmp142,,
 1035 002c 01A9     		add	r1, sp, #4	@ tmp143,,
 1036 002e FFF7FEFF 		bl	Can_Vcu_MCRequest_FromCan	@
 1037              	.LVL70:
 201:../MY17/lib/MY17_Can_Library/MY17_Can_Library_Test.c **** 
 202:../MY17/lib/MY17_Can_Library/MY17_Can_Library_Test.c ****   bool equal = (
 203:../MY17/lib/MY17_Can_Library/MY17_Can_Library_Test.c ****       begin.requestType == end.requestType &&
 1038              		.loc 1 203 0
 1039 0032 6B46     		mov	r3, sp	@ tmp144,
 1040 0034 1A78     		ldrb	r2, [r3]	@ begin, begin
 1041 0036 1B79     		ldrb	r3, [r3, #4]	@ end, end
 1042 0038 9A42     		cmp	r2, r3	@ begin, end
 1043 003a 03D0     		beq	.L82	@,
 1044              	.L81:
 204:../MY17/lib/MY17_Can_Library/MY17_Can_Library_Test.c ****       begin.period == end.period);
 205:../MY17/lib/MY17_Can_Library/MY17_Can_Library_Test.c ****   print(equal ? "Vcu_MCRequest_PASS\r\n" : "Vcu_MCRequest_FAIL!!!!!!!!!!!!!!!!\r\n");
 1045              		.loc 1 205 0
 1046 003c 0548     		ldr	r0, .L83	@ D.5432,
 1047              	.L79:
 1048              		.loc 1 205 0 is_stmt 0 discriminator 4
 1049 003e A047     		blx	r4	@ print
 1050              	.LVL71:
 206:../MY17/lib/MY17_Can_Library/MY17_Can_Library_Test.c **** }
 1051              		.loc 1 206 0 is_stmt 1 discriminator 4
 1052 0040 08B0     		add	sp, sp, #32	@,,
 1053              		@ sp needed	@
 1054              	.LVL72:
 1055 0042 10BD     		pop	{r4, pc}
 1056              	.LVL73:
 1057              	.L82:
 203:../MY17/lib/MY17_Can_Library/MY17_Can_Library_Test.c ****       begin.period == end.period);
 1058              		.loc 1 203 0 discriminator 1
 1059 0044 6B46     		mov	r3, sp	@ tmp146,
 1060 0046 5A78     		ldrb	r2, [r3, #1]	@ tmp136,
 1061 0048 5B79     		ldrb	r3, [r3, #5]	@ tmp137,
 1062 004a 9A42     		cmp	r2, r3	@ tmp136, tmp137
 1063 004c F6D1     		bne	.L81	@,
 205:../MY17/lib/MY17_Can_Library/MY17_Can_Library_Test.c **** }
 1064              		.loc 1 205 0
 1065 004e 0248     		ldr	r0, .L83+4	@ D.5432,
 1066 0050 F5E7     		b	.L79	@
 1067              	.L84:
 1068 0052 C046     		.align	2
 1069              	.L83:
 1070 0054 28020000 		.word	.LC32
 1071 0058 50020000 		.word	.LC34
 1072              		.cfi_endproc
 1073              	.LFE8:
 1074              		.size	Can_Vcu_MCRequest_Test, .-Can_Vcu_MCRequest_Test
 1075              		.section	.text.Can_Vcu_MCTorque_Test,"ax",%progbits
 1076              		.align	2
 1077              		.global	Can_Vcu_MCTorque_Test
 1078              		.code	16
 1079              		.thumb_func
 1080              		.type	Can_Vcu_MCTorque_Test, %function
 1081              	Can_Vcu_MCTorque_Test:
ARM GAS  /var/folders/9j/_txx49hn253_s3mnzkyxlj8m0000gp/T//ccxigpJH.s 			page 25


 1082              	.LFB9:
 207:../MY17/lib/MY17_Can_Library/MY17_Can_Library_Test.c **** 
 208:../MY17/lib/MY17_Can_Library/MY17_Can_Library_Test.c **** void Can_Vcu_MCTorque_Test(PRINT print) {
 1083              		.loc 1 208 0
 1084              		.cfi_startproc
 1085              	.LVL74:
 1086 0000 30B5     		push	{r4, r5, lr}	@
 1087              		.cfi_def_cfa_offset 12
 1088              		.cfi_offset 4, -12
 1089              		.cfi_offset 5, -8
 1090              		.cfi_offset 14, -4
 1091 0002 89B0     		sub	sp, sp, #36	@,,
 1092              		.cfi_def_cfa_offset 48
 209:../MY17/lib/MY17_Can_Library/MY17_Can_Library_Test.c ****   Can_Vcu_MCTorque_T begin;
 210:../MY17/lib/MY17_Can_Library/MY17_Can_Library_Test.c ****   begin.torque_cmd = 5000;
 1093              		.loc 1 210 0
 1094 0004 6A46     		mov	r2, sp	@ tmp131,
 1095 0006 114B     		ldr	r3, .L88	@ tmp115,
 211:../MY17/lib/MY17_Can_Library/MY17_Can_Library_Test.c **** 
 212:../MY17/lib/MY17_Can_Library/MY17_Can_Library_Test.c ****   BOILERPLATE(Can_Vcu_MCTorque);
 1096              		.loc 1 212 0
 1097 0008 05A9     		add	r1, sp, #20	@ tmp132,,
 208:../MY17/lib/MY17_Can_Library/MY17_Can_Library_Test.c ****   Can_Vcu_MCTorque_T begin;
 1098              		.loc 1 208 0
 1099 000a 051C     		mov	r5, r0	@ print, print
 1100              		.loc 1 212 0
 1101 000c 6846     		mov	r0, sp	@,
 1102              	.LVL75:
 210:../MY17/lib/MY17_Can_Library/MY17_Can_Library_Test.c **** 
 1103              		.loc 1 210 0
 1104 000e 1380     		strh	r3, [r2]	@ tmp115, begin.torque_cmd
 1105              		.loc 1 212 0
 1106 0010 FFF7FEFF 		bl	Can_Vcu_MCTorque_ToCan	@
 1107              	.LVL76:
 1108 0014 1720     		mov	r0, #23	@ tmp133,
 1109 0016 0022     		mov	r2, #0	@ tmp119,
 1110 0018 0023     		mov	r3, #0	@,
 1111 001a 6844     		add	r0, r0, sp	@ tmp133,
 1112 001c 02A9     		add	r1, sp, #8	@,,
 1113 001e 01AC     		add	r4, sp, #4	@ tmp124,,
 1114 0020 0292     		str	r2, [sp, #8]	@ tmp119, end_bitstring
 1115 0022 0393     		str	r3, [sp, #12]	@ tmp119,
 1116 0024 FFF7FEFF 		bl	to_bitstring	@
 1117              	.LVL77:
 1118 0028 211C     		mov	r1, r4	@, tmp124
 1119 002a 05A8     		add	r0, sp, #20	@ tmp134,,
 1120 002c FFF7FEFF 		bl	Can_Vcu_MCTorque_FromCan	@
 1121              	.LVL78:
 213:../MY17/lib/MY17_Can_Library/MY17_Can_Library_Test.c **** 
 214:../MY17/lib/MY17_Can_Library/MY17_Can_Library_Test.c ****   bool equal = begin.torque_cmd == end.torque_cmd;
 215:../MY17/lib/MY17_Can_Library/MY17_Can_Library_Test.c ****   print(equal ? "Vcu_MCTorque_PASS\r\n" : "Vcu_MCTorque_FAIL!!!!!!!!!!!!!!!!\r\n");
 1122              		.loc 1 215 0
 1123 0030 6B46     		mov	r3, sp	@ tmp135,
 1124 0032 0022     		mov	r2, #0	@ begin,
 1125 0034 9A5E     		ldrsh	r2, [r3, r2]	@ begin, tmp135, begin
 1126 0036 0021     		mov	r1, #0	@ tmp130,
 1127 0038 635E     		ldrsh	r3, [r4, r1]	@ end, tmp124, tmp130
ARM GAS  /var/folders/9j/_txx49hn253_s3mnzkyxlj8m0000gp/T//ccxigpJH.s 			page 26


 1128 003a 9A42     		cmp	r2, r3	@ begin, end
 1129 003c 03D0     		beq	.L87	@,
 1130 003e 0448     		ldr	r0, .L88+4	@ D.5439,
 1131              	.L86:
 1132              		.loc 1 215 0 is_stmt 0 discriminator 4
 1133 0040 A847     		blx	r5	@ print
 1134              	.LVL79:
 216:../MY17/lib/MY17_Can_Library/MY17_Can_Library_Test.c **** }
 1135              		.loc 1 216 0 is_stmt 1 discriminator 4
 1136 0042 09B0     		add	sp, sp, #36	@,,
 1137              		@ sp needed	@
 1138              	.LVL80:
 1139 0044 30BD     		pop	{r4, r5, pc}
 1140              	.LVL81:
 1141              	.L87:
 215:../MY17/lib/MY17_Can_Library/MY17_Can_Library_Test.c **** }
 1142              		.loc 1 215 0
 1143 0046 0348     		ldr	r0, .L88+8	@ D.5439,
 1144 0048 FAE7     		b	.L86	@
 1145              	.L89:
 1146 004a C046     		.align	2
 1147              	.L88:
 1148 004c 88130000 		.word	5000
 1149 0050 7C020000 		.word	.LC38
 1150 0054 68020000 		.word	.LC36
 1151              		.cfi_endproc
 1152              	.LFE9:
 1153              		.size	Can_Vcu_MCTorque_Test, .-Can_Vcu_MCTorque_Test
 1154              		.section	.text.Can_Bms_Heartbeat_Test,"ax",%progbits
 1155              		.align	2
 1156              		.global	Can_Bms_Heartbeat_Test
 1157              		.code	16
 1158              		.thumb_func
 1159              		.type	Can_Bms_Heartbeat_Test, %function
 1160              	Can_Bms_Heartbeat_Test:
 1161              	.LFB10:
 217:../MY17/lib/MY17_Can_Library/MY17_Can_Library_Test.c **** 
 218:../MY17/lib/MY17_Can_Library/MY17_Can_Library_Test.c **** void Can_Bms_Heartbeat_Test(PRINT print) {
 1162              		.loc 1 218 0
 1163              		.cfi_startproc
 1164              	.LVL82:
 219:../MY17/lib/MY17_Can_Library/MY17_Can_Library_Test.c ****   Can_Bms_Heartbeat_T begin;
 220:../MY17/lib/MY17_Can_Library/MY17_Can_Library_Test.c ****   begin.state = CAN_BMS_STATE_BATTERY_FAULT;
 1165              		.loc 1 220 0
 1166 0000 0523     		mov	r3, #5	@ tmp121,
 221:../MY17/lib/MY17_Can_Library/MY17_Can_Library_Test.c ****   begin.soc = 90;
 222:../MY17/lib/MY17_Can_Library/MY17_Can_Library_Test.c ****   begin.fan_enable = true;
 223:../MY17/lib/MY17_Can_Library/MY17_Can_Library_Test.c ****   begin.dcdc_enable = false;
 1167              		.loc 1 223 0
 1168 0002 0022     		mov	r2, #0	@ tmp130,
 218:../MY17/lib/MY17_Can_Library/MY17_Can_Library_Test.c ****   Can_Bms_Heartbeat_T begin;
 1169              		.loc 1 218 0
 1170 0004 30B5     		push	{r4, r5, lr}	@
 1171              		.cfi_def_cfa_offset 12
 1172              		.cfi_offset 4, -12
 1173              		.cfi_offset 5, -8
 1174              		.cfi_offset 14, -4
ARM GAS  /var/folders/9j/_txx49hn253_s3mnzkyxlj8m0000gp/T//ccxigpJH.s 			page 27


 1175 0006 8BB0     		sub	sp, sp, #44	@,,
 1176              		.cfi_def_cfa_offset 56
 220:../MY17/lib/MY17_Can_Library/MY17_Can_Library_Test.c ****   begin.soc = 90;
 1177              		.loc 1 220 0
 1178 0008 03AC     		add	r4, sp, #12	@ tmp120,,
 1179 000a 2370     		strb	r3, [r4]	@ tmp121, begin.state
 221:../MY17/lib/MY17_Can_Library/MY17_Can_Library_Test.c ****   begin.soc = 90;
 1180              		.loc 1 221 0
 1181 000c 5533     		add	r3, r3, #85	@ tmp124,
 1182 000e 6380     		strh	r3, [r4, #2]	@ tmp124, begin.soc
 224:../MY17/lib/MY17_Can_Library/MY17_Can_Library_Test.c ****   begin.dcdc_fault = true;
 225:../MY17/lib/MY17_Can_Library/MY17_Can_Library_Test.c **** 
 226:../MY17/lib/MY17_Can_Library/MY17_Can_Library_Test.c ****   BOILERPLATE(Can_Bms_Heartbeat);
 1183              		.loc 1 226 0
 1184 0010 07A9     		add	r1, sp, #28	@ tmp159,,
 222:../MY17/lib/MY17_Can_Library/MY17_Can_Library_Test.c ****   begin.dcdc_enable = false;
 1185              		.loc 1 222 0
 1186 0012 593B     		sub	r3, r3, #89	@ tmp127,
 218:../MY17/lib/MY17_Can_Library/MY17_Can_Library_Test.c ****   Can_Bms_Heartbeat_T begin;
 1187              		.loc 1 218 0
 1188 0014 051C     		mov	r5, r0	@ print, print
 1189              		.loc 1 226 0
 1190 0016 201C     		mov	r0, r4	@, tmp120
 1191              	.LVL83:
 222:../MY17/lib/MY17_Can_Library/MY17_Can_Library_Test.c ****   begin.dcdc_enable = false;
 1192              		.loc 1 222 0
 1193 0018 2371     		strb	r3, [r4, #4]	@ tmp127, begin.fan_enable
 223:../MY17/lib/MY17_Can_Library/MY17_Can_Library_Test.c ****   begin.dcdc_fault = true;
 1194              		.loc 1 223 0
 1195 001a 6271     		strb	r2, [r4, #5]	@ tmp130, begin.dcdc_enable
 224:../MY17/lib/MY17_Can_Library/MY17_Can_Library_Test.c **** 
 1196              		.loc 1 224 0
 1197 001c A371     		strb	r3, [r4, #6]	@ tmp127, begin.dcdc_fault
 1198              		.loc 1 226 0
 1199 001e FFF7FEFF 		bl	Can_Bms_Heartbeat_ToCan	@
 1200              	.LVL84:
 1201 0022 1F20     		mov	r0, #31	@ tmp160,
 1202 0024 0022     		mov	r2, #0	@ tmp137,
 1203 0026 0023     		mov	r3, #0	@,
 1204 0028 6844     		add	r0, r0, sp	@ tmp160,
 1205 002a 6946     		mov	r1, sp	@,
 1206 002c 0092     		str	r2, [sp]	@ tmp137, end_bitstring
 1207 002e 0193     		str	r3, [sp, #4]	@ tmp137,
 1208 0030 FFF7FEFF 		bl	to_bitstring	@
 1209              	.LVL85:
 1210 0034 07A8     		add	r0, sp, #28	@ tmp161,,
 1211 0036 05A9     		add	r1, sp, #20	@ tmp162,,
 1212 0038 FFF7FEFF 		bl	Can_Bms_Heartbeat_FromCan	@
 1213              	.LVL86:
 227:../MY17/lib/MY17_Can_Library/MY17_Can_Library_Test.c **** 
 228:../MY17/lib/MY17_Can_Library/MY17_Can_Library_Test.c ****   bool equal = (
 229:../MY17/lib/MY17_Can_Library/MY17_Can_Library_Test.c ****       begin.state == end.state &&
 230:../MY17/lib/MY17_Can_Library/MY17_Can_Library_Test.c ****       begin.soc == end.soc &&
 231:../MY17/lib/MY17_Can_Library/MY17_Can_Library_Test.c ****       begin.fan_enable == end.fan_enable &&
 232:../MY17/lib/MY17_Can_Library/MY17_Can_Library_Test.c ****       begin.dcdc_enable == end.dcdc_enable &&
 1214              		.loc 1 232 0
 1215 003c 6B46     		mov	r3, sp	@ tmp163,
ARM GAS  /var/folders/9j/_txx49hn253_s3mnzkyxlj8m0000gp/T//ccxigpJH.s 			page 28


 1216 003e 2278     		ldrb	r2, [r4]	@ begin, begin
 1217 0040 1B7D     		ldrb	r3, [r3, #20]	@ end, end
 1218 0042 9A42     		cmp	r2, r3	@ begin, end
 1219 0044 03D0     		beq	.L96	@,
 1220              	.L95:
 233:../MY17/lib/MY17_Can_Library/MY17_Can_Library_Test.c ****       begin.dcdc_fault == end.dcdc_fault);
 234:../MY17/lib/MY17_Can_Library/MY17_Can_Library_Test.c ****   print(equal ? "Bms_Heartbeat_PASS\r\n" : "Bms_Heartbeat_FAIL!!!!!!!!!!!!!!!!\r\n");
 1221              		.loc 1 234 0
 1222 0046 0A48     		ldr	r0, .L97	@ D.5445,
 1223              	.L91:
 1224              		.loc 1 234 0 is_stmt 0 discriminator 4
 1225 0048 A847     		blx	r5	@ print
 1226              	.LVL87:
 235:../MY17/lib/MY17_Can_Library/MY17_Can_Library_Test.c **** }
 1227              		.loc 1 235 0 is_stmt 1 discriminator 4
 1228 004a 0BB0     		add	sp, sp, #44	@,,
 1229              		@ sp needed	@
 1230              	.LVL88:
 1231 004c 30BD     		pop	{r4, r5, pc}
 1232              	.LVL89:
 1233              	.L96:
 229:../MY17/lib/MY17_Can_Library/MY17_Can_Library_Test.c ****       begin.soc == end.soc &&
 1234              		.loc 1 229 0
 1235 004e 6B46     		mov	r3, sp	@ tmp164,
 1236 0050 6288     		ldrh	r2, [r4, #2]	@ tmp149,
 1237 0052 DB8A     		ldrh	r3, [r3, #22]	@ tmp150,
 1238 0054 9A42     		cmp	r2, r3	@ tmp149, tmp150
 1239 0056 F6D1     		bne	.L95	@,
 231:../MY17/lib/MY17_Can_Library/MY17_Can_Library_Test.c ****       begin.dcdc_enable == end.dcdc_enable &&
 1240              		.loc 1 231 0
 1241 0058 6B46     		mov	r3, sp	@ tmp165,
 1242 005a A288     		ldrh	r2, [r4, #4]	@ begin, begin
 1243 005c 1B8B     		ldrh	r3, [r3, #24]	@ end, end
 1244 005e 9A42     		cmp	r2, r3	@ begin, end
 1245 0060 F1D1     		bne	.L95	@,
 232:../MY17/lib/MY17_Can_Library/MY17_Can_Library_Test.c ****       begin.dcdc_fault == end.dcdc_fault);
 1246              		.loc 1 232 0 discriminator 3
 1247 0062 6B46     		mov	r3, sp	@ tmp166,
 1248 0064 A279     		ldrb	r2, [r4, #6]	@ tmp157,
 1249 0066 9B7E     		ldrb	r3, [r3, #26]	@ tmp158,
 1250 0068 9A42     		cmp	r2, r3	@ tmp157, tmp158
 1251 006a ECD1     		bne	.L95	@,
 234:../MY17/lib/MY17_Can_Library/MY17_Can_Library_Test.c **** }
 1252              		.loc 1 234 0
 1253 006c 0148     		ldr	r0, .L97+4	@ D.5445,
 1254 006e EBE7     		b	.L91	@
 1255              	.L98:
 1256              		.align	2
 1257              	.L97:
 1258 0070 B8020000 		.word	.LC42
 1259 0074 A0020000 		.word	.LC40
 1260              		.cfi_endproc
 1261              	.LFE10:
 1262              		.size	Can_Bms_Heartbeat_Test, .-Can_Bms_Heartbeat_Test
 1263              		.section	.text.Can_Bms_CellTemps_Test,"ax",%progbits
 1264              		.align	2
 1265              		.global	Can_Bms_CellTemps_Test
ARM GAS  /var/folders/9j/_txx49hn253_s3mnzkyxlj8m0000gp/T//ccxigpJH.s 			page 29


 1266              		.code	16
 1267              		.thumb_func
 1268              		.type	Can_Bms_CellTemps_Test, %function
 1269              	Can_Bms_CellTemps_Test:
 1270              	.LFB11:
 236:../MY17/lib/MY17_Can_Library/MY17_Can_Library_Test.c **** 
 237:../MY17/lib/MY17_Can_Library/MY17_Can_Library_Test.c **** void Can_Bms_CellTemps_Test(PRINT print) {
 1271              		.loc 1 237 0
 1272              		.cfi_startproc
 1273              	.LVL90:
 1274 0000 30B5     		push	{r4, r5, lr}	@
 1275              		.cfi_def_cfa_offset 12
 1276              		.cfi_offset 4, -12
 1277              		.cfi_offset 5, -8
 1278              		.cfi_offset 14, -4
 238:../MY17/lib/MY17_Can_Library/MY17_Can_Library_Test.c ****   Can_Bms_CellTemps_T begin;
 239:../MY17/lib/MY17_Can_Library/MY17_Can_Library_Test.c ****   begin.avg_cell_temp = -7520;
 1279              		.loc 1 239 0
 1280 0002 224B     		ldr	r3, .L107	@ tmp123,
 237:../MY17/lib/MY17_Can_Library/MY17_Can_Library_Test.c ****   Can_Bms_CellTemps_T begin;
 1281              		.loc 1 237 0
 1282 0004 8DB0     		sub	sp, sp, #52	@,,
 1283              		.cfi_def_cfa_offset 64
 1284              		.loc 1 239 0
 1285 0006 03AC     		add	r4, sp, #12	@ tmp122,,
 1286 0008 2380     		strh	r3, [r4]	@ tmp123, begin.avg_cell_temp
 240:../MY17/lib/MY17_Can_Library/MY17_Can_Library_Test.c ****   begin.min_cell_temp = 7000;
 1287              		.loc 1 240 0
 1288 000a 214B     		ldr	r3, .L107+4	@ tmp126,
 241:../MY17/lib/MY17_Can_Library/MY17_Can_Library_Test.c ****   begin.id_min_cell_temp = 300;
 242:../MY17/lib/MY17_Can_Library/MY17_Can_Library_Test.c ****   begin.max_cell_temp = -200;
 243:../MY17/lib/MY17_Can_Library/MY17_Can_Library_Test.c ****   begin.id_max_cell_temp = 10;
 244:../MY17/lib/MY17_Can_Library/MY17_Can_Library_Test.c **** 
 245:../MY17/lib/MY17_Can_Library/MY17_Can_Library_Test.c ****   BOILERPLATE(Can_Bms_CellTemps);
 1289              		.loc 1 245 0
 1290 000c 09A9     		add	r1, sp, #36	@ tmp173,,
 240:../MY17/lib/MY17_Can_Library/MY17_Can_Library_Test.c ****   begin.min_cell_temp = 7000;
 1291              		.loc 1 240 0
 1292 000e 6380     		strh	r3, [r4, #2]	@ tmp126, begin.min_cell_temp
 241:../MY17/lib/MY17_Can_Library/MY17_Can_Library_Test.c ****   begin.id_min_cell_temp = 300;
 1293              		.loc 1 241 0
 1294 0010 9623     		mov	r3, #150	@ tmp129,
 1295 0012 5B00     		lsl	r3, r3, #1	@ tmp129, tmp129,
 1296 0014 E380     		strh	r3, [r4, #6]	@ tmp129, begin.id_min_cell_temp
 242:../MY17/lib/MY17_Can_Library/MY17_Can_Library_Test.c ****   begin.id_max_cell_temp = 10;
 1297              		.loc 1 242 0
 1298 0016 F53B     		sub	r3, r3, #245	@ tmp132,
 1299 0018 FF3B     		sub	r3, r3, #255	@ tmp132,
 1300 001a A380     		strh	r3, [r4, #4]	@ tmp132, begin.max_cell_temp
 237:../MY17/lib/MY17_Can_Library/MY17_Can_Library_Test.c ****   Can_Bms_CellTemps_T begin;
 1301              		.loc 1 237 0
 1302 001c 051C     		mov	r5, r0	@ print, print
 243:../MY17/lib/MY17_Can_Library/MY17_Can_Library_Test.c **** 
 1303              		.loc 1 243 0
 1304 001e D233     		add	r3, r3, #210	@ tmp135,
 1305              		.loc 1 245 0
 1306 0020 201C     		mov	r0, r4	@, tmp122
ARM GAS  /var/folders/9j/_txx49hn253_s3mnzkyxlj8m0000gp/T//ccxigpJH.s 			page 30


 1307              	.LVL91:
 243:../MY17/lib/MY17_Can_Library/MY17_Can_Library_Test.c **** 
 1308              		.loc 1 243 0
 1309 0022 2381     		strh	r3, [r4, #8]	@ tmp135, begin.id_max_cell_temp
 1310              		.loc 1 245 0
 1311 0024 FFF7FEFF 		bl	Can_Bms_CellTemps_ToCan	@
 1312              	.LVL92:
 1313 0028 2720     		mov	r0, #39	@ tmp174,
 1314 002a 0023     		mov	r3, #0	@,
 1315 002c 0022     		mov	r2, #0	@ tmp139,
 1316 002e 6844     		add	r0, r0, sp	@ tmp174,
 1317 0030 6946     		mov	r1, sp	@,
 1318 0032 0092     		str	r2, [sp]	@ tmp139, end_bitstring
 1319 0034 0193     		str	r3, [sp, #4]	@ tmp139,
 1320 0036 FFF7FEFF 		bl	to_bitstring	@
 1321              	.LVL93:
 1322 003a 06A9     		add	r1, sp, #24	@ tmp176,,
 1323 003c 09A8     		add	r0, sp, #36	@ tmp175,,
 1324 003e FFF7FEFF 		bl	Can_Bms_CellTemps_FromCan	@
 1325              	.LVL94:
 246:../MY17/lib/MY17_Can_Library/MY17_Can_Library_Test.c **** 
 247:../MY17/lib/MY17_Can_Library/MY17_Can_Library_Test.c ****   bool equal = (
 248:../MY17/lib/MY17_Can_Library/MY17_Can_Library_Test.c ****       begin.avg_cell_temp == end.avg_cell_temp &&
 249:../MY17/lib/MY17_Can_Library/MY17_Can_Library_Test.c ****       begin.min_cell_temp == end.min_cell_temp &&
 250:../MY17/lib/MY17_Can_Library/MY17_Can_Library_Test.c ****       begin.id_min_cell_temp == end.id_min_cell_temp &&
 251:../MY17/lib/MY17_Can_Library/MY17_Can_Library_Test.c ****       begin.max_cell_temp == end.max_cell_temp &&
 1326              		.loc 1 251 0
 1327 0042 0023     		mov	r3, #0	@ tmp167,
 1328 0044 E25E     		ldrsh	r2, [r4, r3]	@ begin, tmp122, tmp167
 1329 0046 6B46     		mov	r3, sp	@ tmp177,
 1330 0048 1821     		mov	r1, #24	@ tmp168,
 1331 004a 5B5E     		ldrsh	r3, [r3, r1]	@ end, tmp177, tmp168
 1332 004c 9A42     		cmp	r2, r3	@ begin, end
 1333 004e 03D0     		beq	.L106	@,
 1334              	.L105:
 252:../MY17/lib/MY17_Can_Library/MY17_Can_Library_Test.c ****       begin.id_max_cell_temp == end.id_max_cell_temp);
 253:../MY17/lib/MY17_Can_Library/MY17_Can_Library_Test.c ****   print(equal ? "Bms_CellTemps_PASS\r\n" : "Bms_CellTemps_FAIL!!!!!!!!!!!!!!!!\r\n");
 1335              		.loc 1 253 0
 1336 0050 1048     		ldr	r0, .L107+8	@ D.5453,
 1337              	.L100:
 1338              		.loc 1 253 0 is_stmt 0 discriminator 4
 1339 0052 A847     		blx	r5	@ print
 1340              	.LVL95:
 254:../MY17/lib/MY17_Can_Library/MY17_Can_Library_Test.c **** }
 1341              		.loc 1 254 0 is_stmt 1 discriminator 4
 1342 0054 0DB0     		add	sp, sp, #52	@,,
 1343              		@ sp needed	@
 1344              	.LVL96:
 1345 0056 30BD     		pop	{r4, r5, pc}
 1346              	.LVL97:
 1347              	.L106:
 248:../MY17/lib/MY17_Can_Library/MY17_Can_Library_Test.c ****       begin.min_cell_temp == end.min_cell_temp &&
 1348              		.loc 1 248 0
 1349 0058 0223     		mov	r3, #2	@ tmp169,
 1350 005a E25E     		ldrsh	r2, [r4, r3]	@ tmp151, tmp122, tmp169
 1351 005c 6B46     		mov	r3, sp	@ tmp178,
 1352 005e 1A21     		mov	r1, #26	@ tmp170,
ARM GAS  /var/folders/9j/_txx49hn253_s3mnzkyxlj8m0000gp/T//ccxigpJH.s 			page 31


 1353 0060 5B5E     		ldrsh	r3, [r3, r1]	@ tmp152, tmp178, tmp170
 1354 0062 9A42     		cmp	r2, r3	@ tmp151, tmp152
 1355 0064 F4D1     		bne	.L105	@,
 249:../MY17/lib/MY17_Can_Library/MY17_Can_Library_Test.c ****       begin.id_min_cell_temp == end.id_min_cell_temp &&
 1356              		.loc 1 249 0
 1357 0066 6B46     		mov	r3, sp	@ tmp179,
 1358 0068 E288     		ldrh	r2, [r4, #6]	@ tmp155,
 1359 006a DB8B     		ldrh	r3, [r3, #30]	@ tmp156,
 1360 006c 9A42     		cmp	r2, r3	@ tmp155, tmp156
 1361 006e EFD1     		bne	.L105	@,
 250:../MY17/lib/MY17_Can_Library/MY17_Can_Library_Test.c ****       begin.max_cell_temp == end.max_cell_temp &&
 1362              		.loc 1 250 0
 1363 0070 0423     		mov	r3, #4	@ tmp171,
 1364 0072 E25E     		ldrsh	r2, [r4, r3]	@ tmp159, tmp122, tmp171
 1365 0074 6B46     		mov	r3, sp	@ tmp180,
 1366 0076 1C21     		mov	r1, #28	@ tmp172,
 1367 0078 5B5E     		ldrsh	r3, [r3, r1]	@ tmp160, tmp180, tmp172
 1368 007a 9A42     		cmp	r2, r3	@ tmp159, tmp160
 1369 007c E8D1     		bne	.L105	@,
 251:../MY17/lib/MY17_Can_Library/MY17_Can_Library_Test.c ****       begin.id_max_cell_temp == end.id_max_cell_temp);
 1370              		.loc 1 251 0 discriminator 3
 1371 007e 6B46     		mov	r3, sp	@ tmp181,
 1372 0080 2289     		ldrh	r2, [r4, #8]	@ tmp163,
 1373 0082 1B8C     		ldrh	r3, [r3, #32]	@ tmp164,
 1374 0084 9A42     		cmp	r2, r3	@ tmp163, tmp164
 1375 0086 E3D1     		bne	.L105	@,
 253:../MY17/lib/MY17_Can_Library/MY17_Can_Library_Test.c **** }
 1376              		.loc 1 253 0
 1377 0088 0348     		ldr	r0, .L107+12	@ D.5453,
 1378 008a E2E7     		b	.L100	@
 1379              	.L108:
 1380              		.align	2
 1381              	.L107:
 1382 008c A0E2FFFF 		.word	-7520
 1383 0090 581B0000 		.word	7000
 1384 0094 E0020000 		.word	.LC44
 1385 0098 08030000 		.word	.LC46
 1386              		.cfi_endproc
 1387              	.LFE11:
 1388              		.size	Can_Bms_CellTemps_Test, .-Can_Bms_CellTemps_Test
 1389              		.section	.text.Can_Bms_PackStatus_Test,"ax",%progbits
 1390              		.align	2
 1391              		.global	Can_Bms_PackStatus_Test
 1392              		.code	16
 1393              		.thumb_func
 1394              		.type	Can_Bms_PackStatus_Test, %function
 1395              	Can_Bms_PackStatus_Test:
 1396              	.LFB12:
 255:../MY17/lib/MY17_Can_Library/MY17_Can_Library_Test.c **** 
 256:../MY17/lib/MY17_Can_Library/MY17_Can_Library_Test.c **** void Can_Bms_PackStatus_Test(PRINT print) {
 1397              		.loc 1 256 0
 1398              		.cfi_startproc
 1399              	.LVL98:
 257:../MY17/lib/MY17_Can_Library/MY17_Can_Library_Test.c ****   Can_Bms_PackStatus_T begin;
 258:../MY17/lib/MY17_Can_Library/MY17_Can_Library_Test.c ****   begin.pack_voltage = 260;
 1400              		.loc 1 258 0
 1401 0000 8223     		mov	r3, #130	@ tmp127,
ARM GAS  /var/folders/9j/_txx49hn253_s3mnzkyxlj8m0000gp/T//ccxigpJH.s 			page 32


 256:../MY17/lib/MY17_Can_Library/MY17_Can_Library_Test.c ****   Can_Bms_PackStatus_T begin;
 1402              		.loc 1 256 0
 1403 0002 30B5     		push	{r4, r5, lr}	@
 1404              		.cfi_def_cfa_offset 12
 1405              		.cfi_offset 4, -12
 1406              		.cfi_offset 5, -8
 1407              		.cfi_offset 14, -4
 1408 0004 8FB0     		sub	sp, sp, #60	@,,
 1409              		.cfi_def_cfa_offset 72
 1410              		.loc 1 258 0
 1411 0006 06AC     		add	r4, sp, #24	@ tmp126,,
 1412 0008 5B00     		lsl	r3, r3, #1	@ tmp127, tmp127,
 1413 000a 2380     		strh	r3, [r4]	@ tmp127, begin.pack_voltage
 259:../MY17/lib/MY17_Can_Library/MY17_Can_Library_Test.c ****   begin.pack_current = -600;
 1414              		.loc 1 259 0
 1415 000c 284B     		ldr	r3, .L119	@ tmp130,
 260:../MY17/lib/MY17_Can_Library/MY17_Can_Library_Test.c ****   begin.avg_cell_voltage = 330;
 261:../MY17/lib/MY17_Can_Library/MY17_Can_Library_Test.c ****   begin.min_cell_voltage = 150;
 262:../MY17/lib/MY17_Can_Library/MY17_Can_Library_Test.c ****   begin.id_min_cell_voltage = 20;
 263:../MY17/lib/MY17_Can_Library/MY17_Can_Library_Test.c ****   begin.max_cell_voltage = 400;
 264:../MY17/lib/MY17_Can_Library/MY17_Can_Library_Test.c ****   begin.id_max_cell_voltage = 40;
 265:../MY17/lib/MY17_Can_Library/MY17_Can_Library_Test.c **** 
 266:../MY17/lib/MY17_Can_Library/MY17_Can_Library_Test.c ****   BOILERPLATE(Can_Bms_PackStatus);
 1416              		.loc 1 266 0
 1417 000e 03A9     		add	r1, sp, #12	@ tmp188,,
 259:../MY17/lib/MY17_Can_Library/MY17_Can_Library_Test.c ****   begin.pack_current = -600;
 1418              		.loc 1 259 0
 1419 0010 6380     		strh	r3, [r4, #2]	@ tmp130, begin.pack_current
 260:../MY17/lib/MY17_Can_Library/MY17_Can_Library_Test.c ****   begin.avg_cell_voltage = 330;
 1420              		.loc 1 260 0
 1421 0012 A523     		mov	r3, #165	@ tmp133,
 1422 0014 5B00     		lsl	r3, r3, #1	@ tmp133, tmp133,
 1423 0016 A380     		strh	r3, [r4, #4]	@ tmp133, begin.avg_cell_voltage
 261:../MY17/lib/MY17_Can_Library/MY17_Can_Library_Test.c ****   begin.id_min_cell_voltage = 20;
 1424              		.loc 1 261 0
 1425 0018 B43B     		sub	r3, r3, #180	@ tmp136,
 1426 001a E380     		strh	r3, [r4, #6]	@ tmp136, begin.min_cell_voltage
 262:../MY17/lib/MY17_Can_Library/MY17_Can_Library_Test.c ****   begin.max_cell_voltage = 400;
 1427              		.loc 1 262 0
 1428 001c 823B     		sub	r3, r3, #130	@ tmp139,
 1429 001e 2372     		strb	r3, [r4, #8]	@ tmp139, begin.id_min_cell_voltage
 263:../MY17/lib/MY17_Can_Library/MY17_Can_Library_Test.c ****   begin.id_max_cell_voltage = 40;
 1430              		.loc 1 263 0
 1431 0020 7D33     		add	r3, r3, #125	@ tmp142,
 1432 0022 FF33     		add	r3, r3, #255	@ tmp142,
 1433 0024 6381     		strh	r3, [r4, #10]	@ tmp142, begin.max_cell_voltage
 264:../MY17/lib/MY17_Can_Library/MY17_Can_Library_Test.c **** 
 1434              		.loc 1 264 0
 1435 0026 693B     		sub	r3, r3, #105	@ tmp145,
 1436 0028 FF3B     		sub	r3, r3, #255	@ tmp145,
 256:../MY17/lib/MY17_Can_Library/MY17_Can_Library_Test.c ****   Can_Bms_PackStatus_T begin;
 1437              		.loc 1 256 0
 1438 002a 051C     		mov	r5, r0	@ print, print
 1439              		.loc 1 266 0
 1440 002c 201C     		mov	r0, r4	@, tmp126
 1441              	.LVL99:
 264:../MY17/lib/MY17_Can_Library/MY17_Can_Library_Test.c **** 
ARM GAS  /var/folders/9j/_txx49hn253_s3mnzkyxlj8m0000gp/T//ccxigpJH.s 			page 33


 1442              		.loc 1 264 0
 1443 002e 2373     		strb	r3, [r4, #12]	@ tmp145, begin.id_max_cell_voltage
 1444              		.loc 1 266 0
 1445 0030 FFF7FEFF 		bl	Can_Bms_PackStatus_ToCan	@
 1446              	.LVL100:
 1447 0034 0F20     		mov	r0, #15	@ tmp189,
 1448 0036 0022     		mov	r2, #0	@ tmp149,
 1449 0038 0023     		mov	r3, #0	@,
 1450 003a 6844     		add	r0, r0, sp	@ tmp189,
 1451 003c 6946     		mov	r1, sp	@,
 1452 003e 0092     		str	r2, [sp]	@ tmp149, end_bitstring
 1453 0040 0193     		str	r3, [sp, #4]	@ tmp149,
 1454 0042 FFF7FEFF 		bl	to_bitstring	@
 1455              	.LVL101:
 1456 0046 03A8     		add	r0, sp, #12	@ tmp190,,
 1457 0048 0AA9     		add	r1, sp, #40	@ tmp191,,
 1458 004a FFF7FEFF 		bl	Can_Bms_PackStatus_FromCan	@
 1459              	.LVL102:
 267:../MY17/lib/MY17_Can_Library/MY17_Can_Library_Test.c **** 
 268:../MY17/lib/MY17_Can_Library/MY17_Can_Library_Test.c ****   bool equal = (
 269:../MY17/lib/MY17_Can_Library/MY17_Can_Library_Test.c ****       begin.pack_voltage == end.pack_voltage &&
 270:../MY17/lib/MY17_Can_Library/MY17_Can_Library_Test.c ****       begin.pack_current == end.pack_current &&
 271:../MY17/lib/MY17_Can_Library/MY17_Can_Library_Test.c ****       begin.avg_cell_voltage == end.avg_cell_voltage &&
 272:../MY17/lib/MY17_Can_Library/MY17_Can_Library_Test.c ****       begin.min_cell_voltage == end.min_cell_voltage &&
 273:../MY17/lib/MY17_Can_Library/MY17_Can_Library_Test.c ****       begin.id_min_cell_voltage == end.id_min_cell_voltage &&
 274:../MY17/lib/MY17_Can_Library/MY17_Can_Library_Test.c ****       begin.max_cell_voltage == end.max_cell_voltage &&
 1460              		.loc 1 274 0
 1461 004e 6B46     		mov	r3, sp	@ tmp192,
 1462 0050 2288     		ldrh	r2, [r4]	@ begin, begin
 1463 0052 1B8D     		ldrh	r3, [r3, #40]	@ end, end
 1464 0054 9A42     		cmp	r2, r3	@ begin, end
 1465 0056 03D0     		beq	.L118	@,
 1466              	.L116:
 275:../MY17/lib/MY17_Can_Library/MY17_Can_Library_Test.c ****       begin.id_max_cell_voltage == end.id_max_cell_voltage);
 276:../MY17/lib/MY17_Can_Library/MY17_Can_Library_Test.c ****   print(equal ? "Bms_PackStatus_PASS\r\n" : "Bms_PackStatus_FAIL!!!!!!!!!!!!!!!!\r\n");
 1467              		.loc 1 276 0
 1468 0058 1648     		ldr	r0, .L119+4	@ D.5460,
 1469              	.L110:
 1470              		.loc 1 276 0 is_stmt 0 discriminator 4
 1471 005a A847     		blx	r5	@ print
 1472              	.LVL103:
 277:../MY17/lib/MY17_Can_Library/MY17_Can_Library_Test.c **** }
 1473              		.loc 1 277 0 is_stmt 1 discriminator 4
 1474 005c 0FB0     		add	sp, sp, #60	@,,
 1475              		@ sp needed	@
 1476              	.LVL104:
 1477 005e 30BD     		pop	{r4, r5, pc}
 1478              	.LVL105:
 1479              	.L118:
 269:../MY17/lib/MY17_Can_Library/MY17_Can_Library_Test.c ****       begin.pack_current == end.pack_current &&
 1480              		.loc 1 269 0
 1481 0060 0223     		mov	r3, #2	@ tmp186,
 1482 0062 E25E     		ldrsh	r2, [r4, r3]	@ tmp161, tmp126, tmp186
 1483 0064 6B46     		mov	r3, sp	@ tmp193,
 1484 0066 2A21     		mov	r1, #42	@ tmp187,
 1485 0068 5B5E     		ldrsh	r3, [r3, r1]	@ tmp162, tmp193, tmp187
 1486 006a 9A42     		cmp	r2, r3	@ tmp161, tmp162
ARM GAS  /var/folders/9j/_txx49hn253_s3mnzkyxlj8m0000gp/T//ccxigpJH.s 			page 34


 1487 006c F4D1     		bne	.L116	@,
 270:../MY17/lib/MY17_Can_Library/MY17_Can_Library_Test.c ****       begin.avg_cell_voltage == end.avg_cell_voltage &&
 1488              		.loc 1 270 0
 1489 006e 6B46     		mov	r3, sp	@ tmp194,
 1490 0070 A288     		ldrh	r2, [r4, #4]	@ tmp165,
 1491 0072 9B8D     		ldrh	r3, [r3, #44]	@ tmp166,
 1492 0074 9A42     		cmp	r2, r3	@ tmp165, tmp166
 1493 0076 EFD1     		bne	.L116	@,
 271:../MY17/lib/MY17_Can_Library/MY17_Can_Library_Test.c ****       begin.min_cell_voltage == end.min_cell_voltage &&
 1494              		.loc 1 271 0
 1495 0078 6B46     		mov	r3, sp	@ tmp195,
 1496 007a E288     		ldrh	r2, [r4, #6]	@ tmp169,
 1497 007c DB8D     		ldrh	r3, [r3, #46]	@ tmp170,
 1498 007e 9A42     		cmp	r2, r3	@ tmp169, tmp170
 1499 0080 EAD1     		bne	.L116	@,
 272:../MY17/lib/MY17_Can_Library/MY17_Can_Library_Test.c ****       begin.id_min_cell_voltage == end.id_min_cell_voltage &&
 1500              		.loc 1 272 0
 1501 0082 6B46     		mov	r3, sp	@ tmp196,
 1502 0084 3021     		mov	r1, #48	@ tmp198,
 1503 0086 5B18     		add	r3, r3, r1	@ tmp197, tmp196, tmp198
 1504 0088 227A     		ldrb	r2, [r4, #8]	@ tmp173,
 1505 008a 1B78     		ldrb	r3, [r3]	@ tmp174,
 1506 008c 9A42     		cmp	r2, r3	@ tmp173, tmp174
 1507 008e E3D1     		bne	.L116	@,
 273:../MY17/lib/MY17_Can_Library/MY17_Can_Library_Test.c ****       begin.max_cell_voltage == end.max_cell_voltage &&
 1508              		.loc 1 273 0
 1509 0090 6B46     		mov	r3, sp	@ tmp199,
 1510 0092 6289     		ldrh	r2, [r4, #10]	@ tmp177,
 1511 0094 5B8E     		ldrh	r3, [r3, #50]	@ tmp178,
 1512 0096 9A42     		cmp	r2, r3	@ tmp177, tmp178
 1513 0098 DED1     		bne	.L116	@,
 274:../MY17/lib/MY17_Can_Library/MY17_Can_Library_Test.c ****       begin.id_max_cell_voltage == end.id_max_cell_voltage);
 1514              		.loc 1 274 0 discriminator 3
 1515 009a 6B46     		mov	r3, sp	@ tmp200,
 1516 009c 0431     		add	r1, r1, #4	@ tmp202,
 1517 009e 5B18     		add	r3, r3, r1	@ tmp201, tmp200, tmp202
 1518 00a0 227B     		ldrb	r2, [r4, #12]	@ tmp181,
 1519 00a2 1B78     		ldrb	r3, [r3]	@ tmp182,
 276:../MY17/lib/MY17_Can_Library/MY17_Can_Library_Test.c **** }
 1520              		.loc 1 276 0 discriminator 3
 1521 00a4 0348     		ldr	r0, .L119+4	@ D.5460,
 274:../MY17/lib/MY17_Can_Library/MY17_Can_Library_Test.c ****       begin.id_max_cell_voltage == end.id_max_cell_voltage);
 1522              		.loc 1 274 0 discriminator 3
 1523 00a6 9A42     		cmp	r2, r3	@ tmp181, tmp182
 1524 00a8 D7D1     		bne	.L110	@,
 276:../MY17/lib/MY17_Can_Library/MY17_Can_Library_Test.c **** }
 1525              		.loc 1 276 0
 1526 00aa 0348     		ldr	r0, .L119+8	@ D.5460,
 1527 00ac D5E7     		b	.L110	@
 1528              	.L120:
 1529 00ae C046     		.align	2
 1530              	.L119:
 1531 00b0 A8FDFFFF 		.word	-600
 1532 00b4 38030000 		.word	.LC50
 1533 00b8 20030000 		.word	.LC48
 1534              		.cfi_endproc
 1535              	.LFE12:
ARM GAS  /var/folders/9j/_txx49hn253_s3mnzkyxlj8m0000gp/T//ccxigpJH.s 			page 35


 1536              		.size	Can_Bms_PackStatus_Test, .-Can_Bms_PackStatus_Test
 1537              		.section	.text.Can_Bms_Error_Test,"ax",%progbits
 1538              		.align	2
 1539              		.global	Can_Bms_Error_Test
 1540              		.code	16
 1541              		.thumb_func
 1542              		.type	Can_Bms_Error_Test, %function
 1543              	Can_Bms_Error_Test:
 1544              	.LFB13:
 278:../MY17/lib/MY17_Can_Library/MY17_Can_Library_Test.c **** 
 279:../MY17/lib/MY17_Can_Library/MY17_Can_Library_Test.c **** void Can_Bms_Error_Test(PRINT print) {
 1545              		.loc 1 279 0
 1546              		.cfi_startproc
 1547              	.LVL106:
 1548 0000 30B5     		push	{r4, r5, lr}	@
 1549              		.cfi_def_cfa_offset 12
 1550              		.cfi_offset 4, -12
 1551              		.cfi_offset 5, -8
 1552              		.cfi_offset 14, -4
 1553 0002 89B0     		sub	sp, sp, #36	@,,
 1554              		.cfi_def_cfa_offset 48
 280:../MY17/lib/MY17_Can_Library/MY17_Can_Library_Test.c ****   Can_Bms_Error_T begin;
 281:../MY17/lib/MY17_Can_Library/MY17_Can_Library_Test.c ****   begin.type = CAN_BMS_ERROR_CONFLICTING_MODE_REQUESTS;
 1555              		.loc 1 281 0
 1556 0004 0B23     		mov	r3, #11	@ tmp115,
 1557 0006 6A46     		mov	r2, sp	@ tmp129,
 282:../MY17/lib/MY17_Can_Library/MY17_Can_Library_Test.c **** 
 283:../MY17/lib/MY17_Can_Library/MY17_Can_Library_Test.c ****   BOILERPLATE(Can_Bms_Error);
 1558              		.loc 1 283 0
 1559 0008 05A9     		add	r1, sp, #20	@ tmp130,,
 279:../MY17/lib/MY17_Can_Library/MY17_Can_Library_Test.c ****   Can_Bms_Error_T begin;
 1560              		.loc 1 279 0
 1561 000a 051C     		mov	r5, r0	@ print, print
 1562              		.loc 1 283 0
 1563 000c 6846     		mov	r0, sp	@,
 1564              	.LVL107:
 281:../MY17/lib/MY17_Can_Library/MY17_Can_Library_Test.c **** 
 1565              		.loc 1 281 0
 1566 000e 1370     		strb	r3, [r2]	@ tmp115, begin.type
 1567              		.loc 1 283 0
 1568 0010 FFF7FEFF 		bl	Can_Bms_Error_ToCan	@
 1569              	.LVL108:
 1570 0014 1720     		mov	r0, #23	@ tmp131,
 1571 0016 0022     		mov	r2, #0	@ tmp119,
 1572 0018 0023     		mov	r3, #0	@,
 1573 001a 6844     		add	r0, r0, sp	@ tmp131,
 1574 001c 02A9     		add	r1, sp, #8	@,,
 1575 001e 01AC     		add	r4, sp, #4	@ tmp124,,
 1576 0020 0292     		str	r2, [sp, #8]	@ tmp119, end_bitstring
 1577 0022 0393     		str	r3, [sp, #12]	@ tmp119,
 1578 0024 FFF7FEFF 		bl	to_bitstring	@
 1579              	.LVL109:
 1580 0028 05A8     		add	r0, sp, #20	@ tmp132,,
 1581 002a 211C     		mov	r1, r4	@, tmp124
 1582 002c FFF7FEFF 		bl	Can_Bms_Error_FromCan	@
 1583              	.LVL110:
 284:../MY17/lib/MY17_Can_Library/MY17_Can_Library_Test.c **** 
ARM GAS  /var/folders/9j/_txx49hn253_s3mnzkyxlj8m0000gp/T//ccxigpJH.s 			page 36


 285:../MY17/lib/MY17_Can_Library/MY17_Can_Library_Test.c ****   bool equal = begin.type == end.type;
 286:../MY17/lib/MY17_Can_Library/MY17_Can_Library_Test.c ****   print(equal ? "Bms_Error_PASS\r\n" : "Bms_Error_FAIL!!!!!!!!!!!!!!!!\r\n");
 1584              		.loc 1 286 0
 1585 0030 6B46     		mov	r3, sp	@ tmp133,
 1586 0032 1A78     		ldrb	r2, [r3]	@ begin, begin
 1587 0034 2378     		ldrb	r3, [r4]	@ end, end
 1588 0036 9A42     		cmp	r2, r3	@ begin, end
 1589 0038 03D0     		beq	.L123	@,
 1590 003a 0348     		ldr	r0, .L124	@ D.5468,
 1591              	.L122:
 1592              		.loc 1 286 0 is_stmt 0 discriminator 4
 1593 003c A847     		blx	r5	@ print
 1594              	.LVL111:
 287:../MY17/lib/MY17_Can_Library/MY17_Can_Library_Test.c **** }
 1595              		.loc 1 287 0 is_stmt 1 discriminator 4
 1596 003e 09B0     		add	sp, sp, #36	@,,
 1597              		@ sp needed	@
 1598              	.LVL112:
 1599 0040 30BD     		pop	{r4, r5, pc}
 1600              	.LVL113:
 1601              	.L123:
 286:../MY17/lib/MY17_Can_Library/MY17_Can_Library_Test.c **** }
 1602              		.loc 1 286 0
 1603 0042 0248     		ldr	r0, .L124+4	@ D.5468,
 1604 0044 FAE7     		b	.L122	@
 1605              	.L125:
 1606 0046 C046     		.align	2
 1607              	.L124:
 1608 0048 74030000 		.word	.LC54
 1609 004c 60030000 		.word	.LC52
 1610              		.cfi_endproc
 1611              	.LFE13:
 1612              		.size	Can_Bms_Error_Test, .-Can_Bms_Error_Test
 1613              		.section	.text.Can_Dash_Heartbeat_Test,"ax",%progbits
 1614              		.align	2
 1615              		.global	Can_Dash_Heartbeat_Test
 1616              		.code	16
 1617              		.thumb_func
 1618              		.type	Can_Dash_Heartbeat_Test, %function
 1619              	Can_Dash_Heartbeat_Test:
 1620              	.LFB14:
 288:../MY17/lib/MY17_Can_Library/MY17_Can_Library_Test.c **** 
 289:../MY17/lib/MY17_Can_Library/MY17_Can_Library_Test.c **** void Can_Dash_Heartbeat_Test(PRINT print) {
 1621              		.loc 1 289 0
 1622              		.cfi_startproc
 1623              	.LVL114:
 1624 0000 30B5     		push	{r4, r5, lr}	@
 1625              		.cfi_def_cfa_offset 12
 1626              		.cfi_offset 4, -12
 1627              		.cfi_offset 5, -8
 1628              		.cfi_offset 14, -4
 1629 0002 89B0     		sub	sp, sp, #36	@,,
 1630              		.cfi_def_cfa_offset 48
 290:../MY17/lib/MY17_Can_Library/MY17_Can_Library_Test.c ****   Can_Dash_Heartbeat_T begin;
 291:../MY17/lib/MY17_Can_Library/MY17_Can_Library_Test.c ****   begin.ok = true;
 1631              		.loc 1 291 0
 1632 0004 0123     		mov	r3, #1	@ tmp115,
ARM GAS  /var/folders/9j/_txx49hn253_s3mnzkyxlj8m0000gp/T//ccxigpJH.s 			page 37


 1633 0006 6A46     		mov	r2, sp	@ tmp129,
 292:../MY17/lib/MY17_Can_Library/MY17_Can_Library_Test.c **** 
 293:../MY17/lib/MY17_Can_Library/MY17_Can_Library_Test.c ****   BOILERPLATE(Can_Dash_Heartbeat);
 1634              		.loc 1 293 0
 1635 0008 05A9     		add	r1, sp, #20	@ tmp130,,
 289:../MY17/lib/MY17_Can_Library/MY17_Can_Library_Test.c ****   Can_Dash_Heartbeat_T begin;
 1636              		.loc 1 289 0
 1637 000a 051C     		mov	r5, r0	@ print, print
 1638              		.loc 1 293 0
 1639 000c 6846     		mov	r0, sp	@,
 1640              	.LVL115:
 291:../MY17/lib/MY17_Can_Library/MY17_Can_Library_Test.c **** 
 1641              		.loc 1 291 0
 1642 000e 1370     		strb	r3, [r2]	@ tmp115, begin.ok
 1643              		.loc 1 293 0
 1644 0010 FFF7FEFF 		bl	Can_Dash_Heartbeat_ToCan	@
 1645              	.LVL116:
 1646 0014 1720     		mov	r0, #23	@ tmp131,
 1647 0016 0022     		mov	r2, #0	@ tmp119,
 1648 0018 0023     		mov	r3, #0	@,
 1649 001a 6844     		add	r0, r0, sp	@ tmp131,
 1650 001c 02A9     		add	r1, sp, #8	@,,
 1651 001e 01AC     		add	r4, sp, #4	@ tmp124,,
 1652 0020 0292     		str	r2, [sp, #8]	@ tmp119, end_bitstring
 1653 0022 0393     		str	r3, [sp, #12]	@ tmp119,
 1654 0024 FFF7FEFF 		bl	to_bitstring	@
 1655              	.LVL117:
 1656 0028 05A8     		add	r0, sp, #20	@ tmp132,,
 1657 002a 211C     		mov	r1, r4	@, tmp124
 1658 002c FFF7FEFF 		bl	Can_Dash_Heartbeat_FromCan	@
 1659              	.LVL118:
 294:../MY17/lib/MY17_Can_Library/MY17_Can_Library_Test.c **** 
 295:../MY17/lib/MY17_Can_Library/MY17_Can_Library_Test.c ****   bool equal = begin.ok == end.ok;
 296:../MY17/lib/MY17_Can_Library/MY17_Can_Library_Test.c ****   print(equal ? "Dash_Heartbeat_PASS\r\n" : "Dash_Heartbeat_FAIL!!!!!!!!!!!!!!!!\r\n");
 1660              		.loc 1 296 0
 1661 0030 6B46     		mov	r3, sp	@ tmp133,
 1662 0032 1A78     		ldrb	r2, [r3]	@ begin, begin
 1663 0034 2378     		ldrb	r3, [r4]	@ end, end
 1664 0036 9A42     		cmp	r2, r3	@ begin, end
 1665 0038 03D0     		beq	.L128	@,
 1666 003a 0348     		ldr	r0, .L129	@ D.5474,
 1667              	.L127:
 1668              		.loc 1 296 0 is_stmt 0 discriminator 4
 1669 003c A847     		blx	r5	@ print
 1670              	.LVL119:
 297:../MY17/lib/MY17_Can_Library/MY17_Can_Library_Test.c **** }
 1671              		.loc 1 297 0 is_stmt 1 discriminator 4
 1672 003e 09B0     		add	sp, sp, #36	@,,
 1673              		@ sp needed	@
 1674              	.LVL120:
 1675 0040 30BD     		pop	{r4, r5, pc}
 1676              	.LVL121:
 1677              	.L128:
 296:../MY17/lib/MY17_Can_Library/MY17_Can_Library_Test.c **** }
 1678              		.loc 1 296 0
 1679 0042 0248     		ldr	r0, .L129+4	@ D.5474,
 1680 0044 FAE7     		b	.L127	@
ARM GAS  /var/folders/9j/_txx49hn253_s3mnzkyxlj8m0000gp/T//ccxigpJH.s 			page 38


 1681              	.L130:
 1682 0046 C046     		.align	2
 1683              	.L129:
 1684 0048 B0030000 		.word	.LC58
 1685 004c 98030000 		.word	.LC56
 1686              		.cfi_endproc
 1687              	.LFE14:
 1688              		.size	Can_Dash_Heartbeat_Test, .-Can_Dash_Heartbeat_Test
 1689              		.section	.text.Can_Dash_Request_Test,"ax",%progbits
 1690              		.align	2
 1691              		.global	Can_Dash_Request_Test
 1692              		.code	16
 1693              		.thumb_func
 1694              		.type	Can_Dash_Request_Test, %function
 1695              	Can_Dash_Request_Test:
 1696              	.LFB15:
 298:../MY17/lib/MY17_Can_Library/MY17_Can_Library_Test.c **** 
 299:../MY17/lib/MY17_Can_Library/MY17_Can_Library_Test.c **** void Can_Dash_Request_Test(PRINT print) {
 1697              		.loc 1 299 0
 1698              		.cfi_startproc
 1699              	.LVL122:
 1700 0000 30B5     		push	{r4, r5, lr}	@
 1701              		.cfi_def_cfa_offset 12
 1702              		.cfi_offset 4, -12
 1703              		.cfi_offset 5, -8
 1704              		.cfi_offset 14, -4
 1705 0002 89B0     		sub	sp, sp, #36	@,,
 1706              		.cfi_def_cfa_offset 48
 300:../MY17/lib/MY17_Can_Library/MY17_Can_Library_Test.c ****   Can_Dash_Request_T begin;
 301:../MY17/lib/MY17_Can_Library/MY17_Can_Library_Test.c ****   begin.type = CAN_DASH_REQUEST_DATA_FLAG;
 1707              		.loc 1 301 0
 1708 0004 0523     		mov	r3, #5	@ tmp115,
 1709 0006 6A46     		mov	r2, sp	@ tmp129,
 302:../MY17/lib/MY17_Can_Library/MY17_Can_Library_Test.c **** 
 303:../MY17/lib/MY17_Can_Library/MY17_Can_Library_Test.c ****   BOILERPLATE(Can_Dash_Request);
 1710              		.loc 1 303 0
 1711 0008 05A9     		add	r1, sp, #20	@ tmp130,,
 299:../MY17/lib/MY17_Can_Library/MY17_Can_Library_Test.c ****   Can_Dash_Request_T begin;
 1712              		.loc 1 299 0
 1713 000a 051C     		mov	r5, r0	@ print, print
 1714              		.loc 1 303 0
 1715 000c 6846     		mov	r0, sp	@,
 1716              	.LVL123:
 301:../MY17/lib/MY17_Can_Library/MY17_Can_Library_Test.c **** 
 1717              		.loc 1 301 0
 1718 000e 1370     		strb	r3, [r2]	@ tmp115, begin.type
 1719              		.loc 1 303 0
 1720 0010 FFF7FEFF 		bl	Can_Dash_Request_ToCan	@
 1721              	.LVL124:
 1722 0014 1720     		mov	r0, #23	@ tmp131,
 1723 0016 0022     		mov	r2, #0	@ tmp119,
 1724 0018 0023     		mov	r3, #0	@,
 1725 001a 6844     		add	r0, r0, sp	@ tmp131,
 1726 001c 02A9     		add	r1, sp, #8	@,,
 1727 001e 01AC     		add	r4, sp, #4	@ tmp124,,
 1728 0020 0292     		str	r2, [sp, #8]	@ tmp119, end_bitstring
 1729 0022 0393     		str	r3, [sp, #12]	@ tmp119,
ARM GAS  /var/folders/9j/_txx49hn253_s3mnzkyxlj8m0000gp/T//ccxigpJH.s 			page 39


 1730 0024 FFF7FEFF 		bl	to_bitstring	@
 1731              	.LVL125:
 1732 0028 05A8     		add	r0, sp, #20	@ tmp132,,
 1733 002a 211C     		mov	r1, r4	@, tmp124
 1734 002c FFF7FEFF 		bl	Can_Dash_Request_FromCan	@
 1735              	.LVL126:
 304:../MY17/lib/MY17_Can_Library/MY17_Can_Library_Test.c **** 
 305:../MY17/lib/MY17_Can_Library/MY17_Can_Library_Test.c ****   bool equal = begin.type == end.type;
 306:../MY17/lib/MY17_Can_Library/MY17_Can_Library_Test.c ****   print(equal ? "Dash_Request_PASS\r\n" : "Dash_Request_FAIL!!!!!!!!!!!!!!!!\r\n");
 1736              		.loc 1 306 0
 1737 0030 6B46     		mov	r3, sp	@ tmp133,
 1738 0032 1A78     		ldrb	r2, [r3]	@ begin, begin
 1739 0034 2378     		ldrb	r3, [r4]	@ end, end
 1740 0036 9A42     		cmp	r2, r3	@ begin, end
 1741 0038 03D0     		beq	.L133	@,
 1742 003a 0348     		ldr	r0, .L134	@ D.5480,
 1743              	.L132:
 1744              		.loc 1 306 0 is_stmt 0 discriminator 4
 1745 003c A847     		blx	r5	@ print
 1746              	.LVL127:
 307:../MY17/lib/MY17_Can_Library/MY17_Can_Library_Test.c **** }
 1747              		.loc 1 307 0 is_stmt 1 discriminator 4
 1748 003e 09B0     		add	sp, sp, #36	@,,
 1749              		@ sp needed	@
 1750              	.LVL128:
 1751 0040 30BD     		pop	{r4, r5, pc}
 1752              	.LVL129:
 1753              	.L133:
 306:../MY17/lib/MY17_Can_Library/MY17_Can_Library_Test.c **** }
 1754              		.loc 1 306 0
 1755 0042 0248     		ldr	r0, .L134+4	@ D.5480,
 1756 0044 FAE7     		b	.L132	@
 1757              	.L135:
 1758 0046 C046     		.align	2
 1759              	.L134:
 1760 0048 EC030000 		.word	.LC62
 1761 004c D8030000 		.word	.LC60
 1762              		.cfi_endproc
 1763              	.LFE15:
 1764              		.size	Can_Dash_Request_Test, .-Can_Dash_Request_Test
 1765              		.section	.text.Can_MC_DataReading_Test,"ax",%progbits
 1766              		.align	2
 1767              		.global	Can_MC_DataReading_Test
 1768              		.code	16
 1769              		.thumb_func
 1770              		.type	Can_MC_DataReading_Test, %function
 1771              	Can_MC_DataReading_Test:
 1772              	.LFB16:
 308:../MY17/lib/MY17_Can_Library/MY17_Can_Library_Test.c **** 
 309:../MY17/lib/MY17_Can_Library/MY17_Can_Library_Test.c **** void Can_MC_DataReading_Test(PRINT print) {
 1773              		.loc 1 309 0
 1774              		.cfi_startproc
 1775              	.LVL130:
 1776 0000 10B5     		push	{r4, lr}	@
 1777              		.cfi_def_cfa_offset 8
 1778              		.cfi_offset 4, -8
 1779              		.cfi_offset 14, -4
ARM GAS  /var/folders/9j/_txx49hn253_s3mnzkyxlj8m0000gp/T//ccxigpJH.s 			page 40


 1780 0002 88B0     		sub	sp, sp, #32	@,,
 1781              		.cfi_def_cfa_offset 40
 310:../MY17/lib/MY17_Can_Library/MY17_Can_Library_Test.c ****   Can_MC_DataReading_T begin;
 311:../MY17/lib/MY17_Can_Library/MY17_Can_Library_Test.c ****   begin.type = CAN_MC_REG_CURRENT_LIMIT_ACTUAL;
 1782              		.loc 1 311 0
 1783 0004 6A46     		mov	r2, sp	@ tmp140,
 1784 0006 4823     		mov	r3, #72	@ tmp117,
 1785 0008 1370     		strb	r3, [r2]	@ tmp117, begin.type
 312:../MY17/lib/MY17_Can_Library/MY17_Can_Library_Test.c ****   begin.value = -6000;
 1786              		.loc 1 312 0
 1787 000a 134B     		ldr	r3, .L141	@ tmp120,
 313:../MY17/lib/MY17_Can_Library/MY17_Can_Library_Test.c **** 
 314:../MY17/lib/MY17_Can_Library/MY17_Can_Library_Test.c ****   BOILERPLATE(Can_MC_DataReading);
 1788              		.loc 1 314 0
 1789 000c 05A9     		add	r1, sp, #20	@ tmp142,,
 309:../MY17/lib/MY17_Can_Library/MY17_Can_Library_Test.c ****   Can_MC_DataReading_T begin;
 1790              		.loc 1 309 0
 1791 000e 041C     		mov	r4, r0	@ print, print
 1792              		.loc 1 314 0
 1793 0010 6846     		mov	r0, sp	@,
 1794              	.LVL131:
 312:../MY17/lib/MY17_Can_Library/MY17_Can_Library_Test.c ****   begin.value = -6000;
 1795              		.loc 1 312 0
 1796 0012 5380     		strh	r3, [r2, #2]	@ tmp120, begin.value
 1797              		.loc 1 314 0
 1798 0014 FFF7FEFF 		bl	Can_MC_DataReading_ToCan	@
 1799              	.LVL132:
 1800 0018 1720     		mov	r0, #23	@ tmp143,
 1801 001a 0022     		mov	r2, #0	@ tmp124,
 1802 001c 0023     		mov	r3, #0	@,
 1803 001e 6844     		add	r0, r0, sp	@ tmp143,
 1804 0020 02A9     		add	r1, sp, #8	@,,
 1805 0022 0292     		str	r2, [sp, #8]	@ tmp124, end_bitstring
 1806 0024 0393     		str	r3, [sp, #12]	@ tmp124,
 1807 0026 FFF7FEFF 		bl	to_bitstring	@
 1808              	.LVL133:
 1809 002a 05A8     		add	r0, sp, #20	@ tmp144,,
 1810 002c 01A9     		add	r1, sp, #4	@ tmp145,,
 1811 002e FFF7FEFF 		bl	Can_MC_DataReading_FromCan	@
 1812              	.LVL134:
 315:../MY17/lib/MY17_Can_Library/MY17_Can_Library_Test.c **** 
 316:../MY17/lib/MY17_Can_Library/MY17_Can_Library_Test.c ****   bool equal = (
 317:../MY17/lib/MY17_Can_Library/MY17_Can_Library_Test.c ****       begin.type == end.type &&
 1813              		.loc 1 317 0
 1814 0032 6B46     		mov	r3, sp	@ tmp146,
 1815 0034 1A78     		ldrb	r2, [r3]	@ begin, begin
 1816 0036 1B79     		ldrb	r3, [r3, #4]	@ end, end
 1817 0038 9A42     		cmp	r2, r3	@ begin, end
 1818 003a 03D0     		beq	.L140	@,
 1819              	.L139:
 318:../MY17/lib/MY17_Can_Library/MY17_Can_Library_Test.c ****       begin.value == end.value);
 319:../MY17/lib/MY17_Can_Library/MY17_Can_Library_Test.c ****   print(equal ? "MC_DataReading_PASS\r\n" : "MC_DataReading_FAIL!!!!!!!!!!!!!!!!\r\n");
 1820              		.loc 1 319 0
 1821 003c 0748     		ldr	r0, .L141+4	@ D.5486,
 1822              	.L137:
 1823              		.loc 1 319 0 is_stmt 0 discriminator 4
 1824 003e A047     		blx	r4	@ print
ARM GAS  /var/folders/9j/_txx49hn253_s3mnzkyxlj8m0000gp/T//ccxigpJH.s 			page 41


 1825              	.LVL135:
 320:../MY17/lib/MY17_Can_Library/MY17_Can_Library_Test.c **** }
 1826              		.loc 1 320 0 is_stmt 1 discriminator 4
 1827 0040 08B0     		add	sp, sp, #32	@,,
 1828              		@ sp needed	@
 1829              	.LVL136:
 1830 0042 10BD     		pop	{r4, pc}
 1831              	.LVL137:
 1832              	.L140:
 317:../MY17/lib/MY17_Can_Library/MY17_Can_Library_Test.c ****       begin.value == end.value);
 1833              		.loc 1 317 0 discriminator 1
 1834 0044 6B46     		mov	r3, sp	@ tmp148,
 1835 0046 0222     		mov	r2, #2	@ tmp136,
 1836 0048 9A5E     		ldrsh	r2, [r3, r2]	@ tmp136, tmp148, tmp136
 1837 004a 6B46     		mov	r3, sp	@ tmp149,
 1838 004c 0621     		mov	r1, #6	@ tmp139,
 1839 004e 5B5E     		ldrsh	r3, [r3, r1]	@ tmp137, tmp149, tmp139
 1840 0050 9A42     		cmp	r2, r3	@ tmp136, tmp137
 1841 0052 F3D1     		bne	.L139	@,
 319:../MY17/lib/MY17_Can_Library/MY17_Can_Library_Test.c **** }
 1842              		.loc 1 319 0
 1843 0054 0248     		ldr	r0, .L141+8	@ D.5486,
 1844 0056 F2E7     		b	.L137	@
 1845              	.L142:
 1846              		.align	2
 1847              	.L141:
 1848 0058 90E8FFFF 		.word	-6000
 1849 005c 10040000 		.word	.LC64
 1850 0060 38040000 		.word	.LC66
 1851              		.cfi_endproc
 1852              	.LFE16:
 1853              		.size	Can_MC_DataReading_Test, .-Can_MC_DataReading_Test
 1854              		.section	.text.Can_MC_ErrorAndWarning_Test,"ax",%progbits
 1855              		.align	2
 1856              		.global	Can_MC_ErrorAndWarning_Test
 1857              		.code	16
 1858              		.thumb_func
 1859              		.type	Can_MC_ErrorAndWarning_Test, %function
 1860              	Can_MC_ErrorAndWarning_Test:
 1861              	.LFB17:
 321:../MY17/lib/MY17_Can_Library/MY17_Can_Library_Test.c **** 
 322:../MY17/lib/MY17_Can_Library/MY17_Can_Library_Test.c **** void Can_MC_ErrorAndWarning_Test(PRINT print) {
 1862              		.loc 1 322 0
 1863              		.cfi_startproc
 1864              	.LVL138:
 323:../MY17/lib/MY17_Can_Library/MY17_Can_Library_Test.c ****   Can_MC_ErrorAndWarning_T begin;
 324:../MY17/lib/MY17_Can_Library/MY17_Can_Library_Test.c **** 
 325:../MY17/lib/MY17_Can_Library/MY17_Can_Library_Test.c ****   begin.error_parameter_damaged = true;
 1865              		.loc 1 325 0
 1866 0000 0123     		mov	r3, #1	@ tmp161,
 326:../MY17/lib/MY17_Can_Library/MY17_Can_Library_Test.c ****   begin.error_output_stage_fault = true;
 327:../MY17/lib/MY17_Can_Library/MY17_Can_Library_Test.c ****   begin.error_rfe_fault = true;
 328:../MY17/lib/MY17_Can_Library/MY17_Can_Library_Test.c ****   begin.error_bus_fault = false;
 1867              		.loc 1 328 0
 1868 0002 0022     		mov	r2, #0	@ tmp170,
 322:../MY17/lib/MY17_Can_Library/MY17_Can_Library_Test.c ****   Can_MC_ErrorAndWarning_T begin;
 1869              		.loc 1 322 0
ARM GAS  /var/folders/9j/_txx49hn253_s3mnzkyxlj8m0000gp/T//ccxigpJH.s 			page 42


 1870 0004 30B5     		push	{r4, r5, lr}	@
 1871              		.cfi_def_cfa_offset 12
 1872              		.cfi_offset 4, -12
 1873              		.cfi_offset 5, -8
 1874              		.cfi_offset 14, -4
 1875 0006 95B0     		sub	sp, sp, #84	@,,
 1876              		.cfi_def_cfa_offset 96
 325:../MY17/lib/MY17_Can_Library/MY17_Can_Library_Test.c ****   begin.error_output_stage_fault = true;
 1877              		.loc 1 325 0
 1878 0008 06AC     		add	r4, sp, #24	@ tmp336,,
 329:../MY17/lib/MY17_Can_Library/MY17_Can_Library_Test.c ****   begin.error_faulty_encoder = false;
 330:../MY17/lib/MY17_Can_Library/MY17_Can_Library_Test.c ****   begin.error_power_voltage_missing = true;
 331:../MY17/lib/MY17_Can_Library/MY17_Can_Library_Test.c ****   begin.error_motor_temp_high = false;
 332:../MY17/lib/MY17_Can_Library/MY17_Can_Library_Test.c ****   begin.error_device_temp_high = false;
 333:../MY17/lib/MY17_Can_Library/MY17_Can_Library_Test.c ****   begin.error_over_voltage = true;
 334:../MY17/lib/MY17_Can_Library/MY17_Can_Library_Test.c ****   begin.error_over_current = false;
 335:../MY17/lib/MY17_Can_Library/MY17_Can_Library_Test.c ****   begin.error_raceaway = true;
 336:../MY17/lib/MY17_Can_Library/MY17_Can_Library_Test.c ****   begin.error_user_selected_fault = false;
 337:../MY17/lib/MY17_Can_Library/MY17_Can_Library_Test.c ****   begin.error_i2r_overload = false;
 338:../MY17/lib/MY17_Can_Library/MY17_Can_Library_Test.c ****   begin.error_incompatible_firmware = true;
 339:../MY17/lib/MY17_Can_Library/MY17_Can_Library_Test.c ****   begin.error_ballast_overload = false;
 340:../MY17/lib/MY17_Can_Library/MY17_Can_Library_Test.c **** 
 341:../MY17/lib/MY17_Can_Library/MY17_Can_Library_Test.c ****   begin.warning_inconsistent_device = true;
 342:../MY17/lib/MY17_Can_Library/MY17_Can_Library_Test.c ****   begin.warning_illegal_status_emi = false;
 343:../MY17/lib/MY17_Can_Library/MY17_Can_Library_Test.c ****   begin.warning_rfe_signal_inactive = true;
 344:../MY17/lib/MY17_Can_Library/MY17_Can_Library_Test.c ****   begin.warning_power_voltage_low = true;
 345:../MY17/lib/MY17_Can_Library/MY17_Can_Library_Test.c ****   begin.warning_device_temp_high = false;
 346:../MY17/lib/MY17_Can_Library/MY17_Can_Library_Test.c ****   begin.warning_over_voltage = true;
 347:../MY17/lib/MY17_Can_Library/MY17_Can_Library_Test.c ****   begin.warning_over_current = false;
 348:../MY17/lib/MY17_Can_Library/MY17_Can_Library_Test.c ****   begin.warning_i2r_overload = false;
 349:../MY17/lib/MY17_Can_Library/MY17_Can_Library_Test.c ****   begin.warning_ballast_overload = true;
 350:../MY17/lib/MY17_Can_Library/MY17_Can_Library_Test.c **** 
 351:../MY17/lib/MY17_Can_Library/MY17_Can_Library_Test.c ****   BOILERPLATE(Can_MC_ErrorAndWarning);
 1879              		.loc 1 351 0
 1880 000a 03A9     		add	r1, sp, #12	@ tmp338,,
 322:../MY17/lib/MY17_Can_Library/MY17_Can_Library_Test.c ****   Can_MC_ErrorAndWarning_T begin;
 1881              		.loc 1 322 0
 1882 000c 051C     		mov	r5, r0	@ print, print
 1883              		.loc 1 351 0
 1884 000e 201C     		mov	r0, r4	@, tmp336
 1885              	.LVL139:
 325:../MY17/lib/MY17_Can_Library/MY17_Can_Library_Test.c ****   begin.error_output_stage_fault = true;
 1886              		.loc 1 325 0
 1887 0010 2370     		strb	r3, [r4]	@ tmp161, begin.error_parameter_damaged
 326:../MY17/lib/MY17_Can_Library/MY17_Can_Library_Test.c ****   begin.error_rfe_fault = true;
 1888              		.loc 1 326 0
 1889 0012 6370     		strb	r3, [r4, #1]	@ tmp161, begin.error_output_stage_fault
 327:../MY17/lib/MY17_Can_Library/MY17_Can_Library_Test.c ****   begin.error_bus_fault = false;
 1890              		.loc 1 327 0
 1891 0014 A370     		strb	r3, [r4, #2]	@ tmp161, begin.error_rfe_fault
 328:../MY17/lib/MY17_Can_Library/MY17_Can_Library_Test.c ****   begin.error_faulty_encoder = false;
 1892              		.loc 1 328 0
 1893 0016 E270     		strb	r2, [r4, #3]	@ tmp170, begin.error_bus_fault
 329:../MY17/lib/MY17_Can_Library/MY17_Can_Library_Test.c ****   begin.error_power_voltage_missing = true;
 1894              		.loc 1 329 0
 1895 0018 2271     		strb	r2, [r4, #4]	@ tmp170, begin.error_faulty_encoder
 330:../MY17/lib/MY17_Can_Library/MY17_Can_Library_Test.c ****   begin.error_motor_temp_high = false;
ARM GAS  /var/folders/9j/_txx49hn253_s3mnzkyxlj8m0000gp/T//ccxigpJH.s 			page 43


 1896              		.loc 1 330 0
 1897 001a 6371     		strb	r3, [r4, #5]	@ tmp161, begin.error_power_voltage_missing
 331:../MY17/lib/MY17_Can_Library/MY17_Can_Library_Test.c ****   begin.error_device_temp_high = false;
 1898              		.loc 1 331 0
 1899 001c A271     		strb	r2, [r4, #6]	@ tmp170, begin.error_motor_temp_high
 332:../MY17/lib/MY17_Can_Library/MY17_Can_Library_Test.c ****   begin.error_over_voltage = true;
 1900              		.loc 1 332 0
 1901 001e E271     		strb	r2, [r4, #7]	@ tmp170, begin.error_device_temp_high
 333:../MY17/lib/MY17_Can_Library/MY17_Can_Library_Test.c ****   begin.error_over_current = false;
 1902              		.loc 1 333 0
 1903 0020 2372     		strb	r3, [r4, #8]	@ tmp161, begin.error_over_voltage
 334:../MY17/lib/MY17_Can_Library/MY17_Can_Library_Test.c ****   begin.error_raceaway = true;
 1904              		.loc 1 334 0
 1905 0022 6272     		strb	r2, [r4, #9]	@ tmp170, begin.error_over_current
 335:../MY17/lib/MY17_Can_Library/MY17_Can_Library_Test.c ****   begin.error_user_selected_fault = false;
 1906              		.loc 1 335 0
 1907 0024 A372     		strb	r3, [r4, #10]	@ tmp161, begin.error_raceaway
 336:../MY17/lib/MY17_Can_Library/MY17_Can_Library_Test.c ****   begin.error_i2r_overload = false;
 1908              		.loc 1 336 0
 1909 0026 E272     		strb	r2, [r4, #11]	@ tmp170, begin.error_user_selected_fault
 337:../MY17/lib/MY17_Can_Library/MY17_Can_Library_Test.c ****   begin.error_incompatible_firmware = true;
 1910              		.loc 1 337 0
 1911 0028 2273     		strb	r2, [r4, #12]	@ tmp170, begin.error_i2r_overload
 338:../MY17/lib/MY17_Can_Library/MY17_Can_Library_Test.c ****   begin.error_ballast_overload = false;
 1912              		.loc 1 338 0
 1913 002a 6373     		strb	r3, [r4, #13]	@ tmp161, begin.error_incompatible_firmware
 339:../MY17/lib/MY17_Can_Library/MY17_Can_Library_Test.c **** 
 1914              		.loc 1 339 0
 1915 002c A273     		strb	r2, [r4, #14]	@ tmp170, begin.error_ballast_overload
 341:../MY17/lib/MY17_Can_Library/MY17_Can_Library_Test.c ****   begin.warning_illegal_status_emi = false;
 1916              		.loc 1 341 0
 1917 002e E373     		strb	r3, [r4, #15]	@ tmp161, begin.warning_inconsistent_device
 342:../MY17/lib/MY17_Can_Library/MY17_Can_Library_Test.c ****   begin.warning_rfe_signal_inactive = true;
 1918              		.loc 1 342 0
 1919 0030 2274     		strb	r2, [r4, #16]	@ tmp170, begin.warning_illegal_status_emi
 343:../MY17/lib/MY17_Can_Library/MY17_Can_Library_Test.c ****   begin.warning_power_voltage_low = true;
 1920              		.loc 1 343 0
 1921 0032 6374     		strb	r3, [r4, #17]	@ tmp161, begin.warning_rfe_signal_inactive
 344:../MY17/lib/MY17_Can_Library/MY17_Can_Library_Test.c ****   begin.warning_device_temp_high = false;
 1922              		.loc 1 344 0
 1923 0034 A374     		strb	r3, [r4, #18]	@ tmp161, begin.warning_power_voltage_low
 345:../MY17/lib/MY17_Can_Library/MY17_Can_Library_Test.c ****   begin.warning_over_voltage = true;
 1924              		.loc 1 345 0
 1925 0036 2275     		strb	r2, [r4, #20]	@ tmp170, begin.warning_device_temp_high
 346:../MY17/lib/MY17_Can_Library/MY17_Can_Library_Test.c ****   begin.warning_over_current = false;
 1926              		.loc 1 346 0
 1927 0038 6375     		strb	r3, [r4, #21]	@ tmp161, begin.warning_over_voltage
 347:../MY17/lib/MY17_Can_Library/MY17_Can_Library_Test.c ****   begin.warning_i2r_overload = false;
 1928              		.loc 1 347 0
 1929 003a A275     		strb	r2, [r4, #22]	@ tmp170, begin.warning_over_current
 348:../MY17/lib/MY17_Can_Library/MY17_Can_Library_Test.c ****   begin.warning_ballast_overload = true;
 1930              		.loc 1 348 0
 1931 003c E275     		strb	r2, [r4, #23]	@ tmp170, begin.warning_i2r_overload
 349:../MY17/lib/MY17_Can_Library/MY17_Can_Library_Test.c **** 
 1932              		.loc 1 349 0
 1933 003e 2376     		strb	r3, [r4, #24]	@ tmp161, begin.warning_ballast_overload
 1934              		.loc 1 351 0
ARM GAS  /var/folders/9j/_txx49hn253_s3mnzkyxlj8m0000gp/T//ccxigpJH.s 			page 44


 1935 0040 FFF7FEFF 		bl	Can_MC_ErrorAndWarning_ToCan	@
 1936              	.LVL140:
 1937 0044 0F20     		mov	r0, #15	@ tmp339,
 1938 0046 0022     		mov	r2, #0	@ tmp234,
 1939 0048 0023     		mov	r3, #0	@,
 1940 004a 6844     		add	r0, r0, sp	@ tmp339,
 1941 004c 6946     		mov	r1, sp	@,
 1942 004e 0092     		str	r2, [sp]	@ tmp234, end_bitstring
 1943 0050 0193     		str	r3, [sp, #4]	@ tmp234,
 1944 0052 FFF7FEFF 		bl	to_bitstring	@
 1945              	.LVL141:
 1946 0056 0DA9     		add	r1, sp, #52	@ tmp341,,
 1947 0058 03A8     		add	r0, sp, #12	@ tmp340,,
 1948 005a FFF7FEFF 		bl	Can_MC_ErrorAndWarning_FromCan	@
 1949              	.LVL142:
 352:../MY17/lib/MY17_Can_Library/MY17_Can_Library_Test.c **** 
 353:../MY17/lib/MY17_Can_Library/MY17_Can_Library_Test.c ****   bool equal = (
 354:../MY17/lib/MY17_Can_Library/MY17_Can_Library_Test.c ****       begin.error_parameter_damaged == end.error_parameter_damaged &&
 355:../MY17/lib/MY17_Can_Library/MY17_Can_Library_Test.c ****       begin.error_output_stage_fault == end.error_output_stage_fault &&
 356:../MY17/lib/MY17_Can_Library/MY17_Can_Library_Test.c ****       begin.error_rfe_fault == end.error_rfe_fault &&
 357:../MY17/lib/MY17_Can_Library/MY17_Can_Library_Test.c ****       begin.error_bus_fault == end.error_bus_fault &&
 358:../MY17/lib/MY17_Can_Library/MY17_Can_Library_Test.c ****       begin.error_faulty_encoder == end.error_faulty_encoder &&
 359:../MY17/lib/MY17_Can_Library/MY17_Can_Library_Test.c ****       begin.error_power_voltage_missing == end.error_power_voltage_missing &&
 360:../MY17/lib/MY17_Can_Library/MY17_Can_Library_Test.c ****       begin.error_motor_temp_high == end.error_motor_temp_high &&
 361:../MY17/lib/MY17_Can_Library/MY17_Can_Library_Test.c ****       begin.error_device_temp_high == end.error_device_temp_high &&
 362:../MY17/lib/MY17_Can_Library/MY17_Can_Library_Test.c ****       begin.error_over_voltage == end.error_over_voltage &&
 363:../MY17/lib/MY17_Can_Library/MY17_Can_Library_Test.c ****       begin.error_over_current == end.error_over_current &&
 364:../MY17/lib/MY17_Can_Library/MY17_Can_Library_Test.c ****       begin.error_raceaway == end.error_raceaway &&
 365:../MY17/lib/MY17_Can_Library/MY17_Can_Library_Test.c ****       begin.error_user_selected_fault == end.error_user_selected_fault &&
 366:../MY17/lib/MY17_Can_Library/MY17_Can_Library_Test.c ****       begin.error_i2r_overload == end.error_i2r_overload &&
 367:../MY17/lib/MY17_Can_Library/MY17_Can_Library_Test.c ****       begin.error_incompatible_firmware == end.error_incompatible_firmware &&
 368:../MY17/lib/MY17_Can_Library/MY17_Can_Library_Test.c ****       begin.error_ballast_overload == end.error_ballast_overload &&
 369:../MY17/lib/MY17_Can_Library/MY17_Can_Library_Test.c **** 
 370:../MY17/lib/MY17_Can_Library/MY17_Can_Library_Test.c ****       begin.warning_inconsistent_device == end.warning_inconsistent_device &&
 371:../MY17/lib/MY17_Can_Library/MY17_Can_Library_Test.c ****       begin.warning_illegal_status_emi == end.warning_illegal_status_emi &&
 372:../MY17/lib/MY17_Can_Library/MY17_Can_Library_Test.c ****       begin.warning_rfe_signal_inactive == end.warning_rfe_signal_inactive &&
 373:../MY17/lib/MY17_Can_Library/MY17_Can_Library_Test.c ****       begin.warning_power_voltage_low == end.warning_power_voltage_low &&
 374:../MY17/lib/MY17_Can_Library/MY17_Can_Library_Test.c ****       begin.warning_device_temp_high == end.warning_device_temp_high &&
 375:../MY17/lib/MY17_Can_Library/MY17_Can_Library_Test.c ****       begin.warning_over_voltage == end.warning_over_voltage &&
 376:../MY17/lib/MY17_Can_Library/MY17_Can_Library_Test.c ****       begin.warning_over_current == end.warning_over_current &&
 377:../MY17/lib/MY17_Can_Library/MY17_Can_Library_Test.c ****       begin.warning_i2r_overload == end.warning_i2r_overload &&
 1950              		.loc 1 377 0
 1951 005e 6B46     		mov	r3, sp	@ tmp342,
 1952 0060 3421     		mov	r1, #52	@ tmp344,
 1953 0062 5B18     		add	r3, r3, r1	@ tmp343, tmp342, tmp344
 1954 0064 2278     		ldrb	r2, [r4]	@ begin, begin
 1955 0066 1B78     		ldrb	r3, [r3]	@ end, end
 1956 0068 9A42     		cmp	r2, r3	@ begin, end
 1957 006a 03D0     		beq	.L169	@,
 1958              	.L150:
 378:../MY17/lib/MY17_Can_Library/MY17_Can_Library_Test.c ****       begin.warning_ballast_overload == end.warning_ballast_overload);
 379:../MY17/lib/MY17_Can_Library/MY17_Can_Library_Test.c ****   print(equal ? "MC_ErrorAndWarning_PASS\r\n" : "MC_ErrorAndWarning_FAIL!!!!!!!!!!!!!!!!\r\n");
 1959              		.loc 1 379 0
 1960 006c 5848     		ldr	r0, .L170	@ D.5493,
 1961              	.L144:
 1962              		.loc 1 379 0 is_stmt 0 discriminator 4
 1963 006e A847     		blx	r5	@ print
ARM GAS  /var/folders/9j/_txx49hn253_s3mnzkyxlj8m0000gp/T//ccxigpJH.s 			page 45


 1964              	.LVL143:
 380:../MY17/lib/MY17_Can_Library/MY17_Can_Library_Test.c **** }
 1965              		.loc 1 380 0 is_stmt 1 discriminator 4
 1966 0070 15B0     		add	sp, sp, #84	@,,
 1967              		@ sp needed	@
 1968              	.LVL144:
 1969 0072 30BD     		pop	{r4, r5, pc}
 1970              	.LVL145:
 1971              	.L169:
 354:../MY17/lib/MY17_Can_Library/MY17_Can_Library_Test.c ****       begin.error_output_stage_fault == end.error_output_stage_fault &&
 1972              		.loc 1 354 0
 1973 0074 6B46     		mov	r3, sp	@ tmp345,
 1974 0076 0131     		add	r1, r1, #1	@ tmp347,
 1975 0078 5B18     		add	r3, r3, r1	@ tmp346, tmp345, tmp347
 1976 007a 6278     		ldrb	r2, [r4, #1]	@ tmp246,
 1977 007c 1B78     		ldrb	r3, [r3]	@ tmp247,
 1978 007e 9A42     		cmp	r2, r3	@ tmp246, tmp247
 1979 0080 F4D1     		bne	.L150	@,
 355:../MY17/lib/MY17_Can_Library/MY17_Can_Library_Test.c ****       begin.error_rfe_fault == end.error_rfe_fault &&
 1980              		.loc 1 355 0
 1981 0082 6B46     		mov	r3, sp	@ tmp348,
 1982 0084 0131     		add	r1, r1, #1	@ tmp350,
 1983 0086 5B18     		add	r3, r3, r1	@ tmp349, tmp348, tmp350
 1984 0088 A278     		ldrb	r2, [r4, #2]	@ tmp250,
 1985 008a 1B78     		ldrb	r3, [r3]	@ tmp251,
 1986 008c 9A42     		cmp	r2, r3	@ tmp250, tmp251
 1987 008e EDD1     		bne	.L150	@,
 356:../MY17/lib/MY17_Can_Library/MY17_Can_Library_Test.c ****       begin.error_bus_fault == end.error_bus_fault &&
 1988              		.loc 1 356 0
 1989 0090 6B46     		mov	r3, sp	@ tmp351,
 1990 0092 0131     		add	r1, r1, #1	@ tmp353,
 1991 0094 5B18     		add	r3, r3, r1	@ tmp352, tmp351, tmp353
 1992 0096 E278     		ldrb	r2, [r4, #3]	@ tmp254,
 1993 0098 1B78     		ldrb	r3, [r3]	@ tmp255,
 1994 009a 9A42     		cmp	r2, r3	@ tmp254, tmp255
 1995 009c E6D1     		bne	.L150	@,
 357:../MY17/lib/MY17_Can_Library/MY17_Can_Library_Test.c ****       begin.error_faulty_encoder == end.error_faulty_encoder &&
 1996              		.loc 1 357 0
 1997 009e 6B46     		mov	r3, sp	@ tmp354,
 1998 00a0 0131     		add	r1, r1, #1	@ tmp356,
 1999 00a2 5B18     		add	r3, r3, r1	@ tmp355, tmp354, tmp356
 2000 00a4 2279     		ldrb	r2, [r4, #4]	@ tmp258,
 2001 00a6 1B78     		ldrb	r3, [r3]	@ tmp259,
 2002 00a8 9A42     		cmp	r2, r3	@ tmp258, tmp259
 2003 00aa DFD1     		bne	.L150	@,
 358:../MY17/lib/MY17_Can_Library/MY17_Can_Library_Test.c ****       begin.error_power_voltage_missing == end.error_power_voltage_missing &&
 2004              		.loc 1 358 0
 2005 00ac 6B46     		mov	r3, sp	@ tmp357,
 2006 00ae 0131     		add	r1, r1, #1	@ tmp359,
 2007 00b0 5B18     		add	r3, r3, r1	@ tmp358, tmp357, tmp359
 2008 00b2 6279     		ldrb	r2, [r4, #5]	@ tmp262,
 2009 00b4 1B78     		ldrb	r3, [r3]	@ tmp263,
 2010 00b6 9A42     		cmp	r2, r3	@ tmp262, tmp263
 2011 00b8 D8D1     		bne	.L150	@,
 359:../MY17/lib/MY17_Can_Library/MY17_Can_Library_Test.c ****       begin.error_motor_temp_high == end.error_motor_temp_high &&
 2012              		.loc 1 359 0
 2013 00ba 6B46     		mov	r3, sp	@ tmp360,
ARM GAS  /var/folders/9j/_txx49hn253_s3mnzkyxlj8m0000gp/T//ccxigpJH.s 			page 46


 2014 00bc 0131     		add	r1, r1, #1	@ tmp362,
 2015 00be 5B18     		add	r3, r3, r1	@ tmp361, tmp360, tmp362
 2016 00c0 A279     		ldrb	r2, [r4, #6]	@ tmp266,
 2017 00c2 1B78     		ldrb	r3, [r3]	@ tmp267,
 379:../MY17/lib/MY17_Can_Library/MY17_Can_Library_Test.c **** }
 2018              		.loc 1 379 0
 2019 00c4 4248     		ldr	r0, .L170	@ D.5493,
 359:../MY17/lib/MY17_Can_Library/MY17_Can_Library_Test.c ****       begin.error_motor_temp_high == end.error_motor_temp_high &&
 2020              		.loc 1 359 0
 2021 00c6 9A42     		cmp	r2, r3	@ tmp266, tmp267
 2022 00c8 D1D1     		bne	.L144	@,
 360:../MY17/lib/MY17_Can_Library/MY17_Can_Library_Test.c ****       begin.error_device_temp_high == end.error_device_temp_high &&
 2023              		.loc 1 360 0
 2024 00ca 6B46     		mov	r3, sp	@ tmp363,
 2025 00cc 0131     		add	r1, r1, #1	@ tmp365,
 2026 00ce 5B18     		add	r3, r3, r1	@ tmp364, tmp363, tmp365
 2027 00d0 E279     		ldrb	r2, [r4, #7]	@ tmp270,
 2028 00d2 1B78     		ldrb	r3, [r3]	@ tmp271,
 2029 00d4 9A42     		cmp	r2, r3	@ tmp270, tmp271
 2030 00d6 CAD1     		bne	.L144	@,
 361:../MY17/lib/MY17_Can_Library/MY17_Can_Library_Test.c ****       begin.error_over_voltage == end.error_over_voltage &&
 2031              		.loc 1 361 0
 2032 00d8 6B46     		mov	r3, sp	@ tmp366,
 2033 00da 0131     		add	r1, r1, #1	@ tmp368,
 2034 00dc 5B18     		add	r3, r3, r1	@ tmp367, tmp366, tmp368
 2035 00de 227A     		ldrb	r2, [r4, #8]	@ tmp274,
 2036 00e0 1B78     		ldrb	r3, [r3]	@ tmp275,
 2037 00e2 9A42     		cmp	r2, r3	@ tmp274, tmp275
 2038 00e4 C3D1     		bne	.L144	@,
 362:../MY17/lib/MY17_Can_Library/MY17_Can_Library_Test.c ****       begin.error_over_current == end.error_over_current &&
 2039              		.loc 1 362 0
 2040 00e6 6B46     		mov	r3, sp	@ tmp369,
 2041 00e8 0131     		add	r1, r1, #1	@ tmp371,
 2042 00ea 5B18     		add	r3, r3, r1	@ tmp370, tmp369, tmp371
 2043 00ec 627A     		ldrb	r2, [r4, #9]	@ tmp278,
 2044 00ee 1B78     		ldrb	r3, [r3]	@ tmp279,
 2045 00f0 9A42     		cmp	r2, r3	@ tmp278, tmp279
 2046 00f2 BCD1     		bne	.L144	@,
 363:../MY17/lib/MY17_Can_Library/MY17_Can_Library_Test.c ****       begin.error_raceaway == end.error_raceaway &&
 2047              		.loc 1 363 0
 2048 00f4 6B46     		mov	r3, sp	@ tmp372,
 2049 00f6 0131     		add	r1, r1, #1	@ tmp374,
 2050 00f8 5B18     		add	r3, r3, r1	@ tmp373, tmp372, tmp374
 2051 00fa A27A     		ldrb	r2, [r4, #10]	@ tmp282,
 2052 00fc 1B78     		ldrb	r3, [r3]	@ tmp283,
 2053 00fe 9A42     		cmp	r2, r3	@ tmp282, tmp283
 2054 0100 B5D1     		bne	.L144	@,
 364:../MY17/lib/MY17_Can_Library/MY17_Can_Library_Test.c ****       begin.error_user_selected_fault == end.error_user_selected_fault &&
 2055              		.loc 1 364 0
 2056 0102 6B46     		mov	r3, sp	@ tmp375,
 2057 0104 0131     		add	r1, r1, #1	@ tmp377,
 2058 0106 5B18     		add	r3, r3, r1	@ tmp376, tmp375, tmp377
 2059 0108 E27A     		ldrb	r2, [r4, #11]	@ tmp286,
 2060 010a 1B78     		ldrb	r3, [r3]	@ tmp287,
 2061 010c 9A42     		cmp	r2, r3	@ tmp286, tmp287
 2062 010e AED1     		bne	.L144	@,
 365:../MY17/lib/MY17_Can_Library/MY17_Can_Library_Test.c ****       begin.error_i2r_overload == end.error_i2r_overload &&
ARM GAS  /var/folders/9j/_txx49hn253_s3mnzkyxlj8m0000gp/T//ccxigpJH.s 			page 47


 2063              		.loc 1 365 0
 2064 0110 6B46     		mov	r3, sp	@ tmp378,
 2065 0112 0131     		add	r1, r1, #1	@ tmp380,
 2066 0114 5B18     		add	r3, r3, r1	@ tmp379, tmp378, tmp380
 2067 0116 227B     		ldrb	r2, [r4, #12]	@ tmp290,
 2068 0118 1B78     		ldrb	r3, [r3]	@ tmp291,
 2069 011a 9A42     		cmp	r2, r3	@ tmp290, tmp291
 2070 011c A7D1     		bne	.L144	@,
 366:../MY17/lib/MY17_Can_Library/MY17_Can_Library_Test.c ****       begin.error_incompatible_firmware == end.error_incompatible_firmware &&
 2071              		.loc 1 366 0
 2072 011e 6B46     		mov	r3, sp	@ tmp381,
 2073 0120 0131     		add	r1, r1, #1	@ tmp383,
 2074 0122 5B18     		add	r3, r3, r1	@ tmp382, tmp381, tmp383
 2075 0124 627B     		ldrb	r2, [r4, #13]	@ tmp294,
 2076 0126 1B78     		ldrb	r3, [r3]	@ tmp295,
 2077 0128 9A42     		cmp	r2, r3	@ tmp294, tmp295
 2078 012a A0D1     		bne	.L144	@,
 367:../MY17/lib/MY17_Can_Library/MY17_Can_Library_Test.c ****       begin.error_ballast_overload == end.error_ballast_overload &&
 2079              		.loc 1 367 0
 2080 012c 6B46     		mov	r3, sp	@ tmp384,
 2081 012e 0131     		add	r1, r1, #1	@ tmp386,
 2082 0130 5B18     		add	r3, r3, r1	@ tmp385, tmp384, tmp386
 2083 0132 A27B     		ldrb	r2, [r4, #14]	@ tmp298,
 2084 0134 1B78     		ldrb	r3, [r3]	@ tmp299,
 2085 0136 9A42     		cmp	r2, r3	@ tmp298, tmp299
 2086 0138 99D1     		bne	.L144	@,
 368:../MY17/lib/MY17_Can_Library/MY17_Can_Library_Test.c **** 
 2087              		.loc 1 368 0
 2088 013a 6B46     		mov	r3, sp	@ tmp387,
 2089 013c 0131     		add	r1, r1, #1	@ tmp389,
 2090 013e 5B18     		add	r3, r3, r1	@ tmp388, tmp387, tmp389
 2091 0140 E27B     		ldrb	r2, [r4, #15]	@ tmp302,
 2092 0142 1B78     		ldrb	r3, [r3]	@ tmp303,
 2093 0144 9A42     		cmp	r2, r3	@ tmp302, tmp303
 2094 0146 00D0     		beq	.LCB1748	@
 2095 0148 91E7     		b	.L144	@long jump	@
 2096              	.LCB1748:
 370:../MY17/lib/MY17_Can_Library/MY17_Can_Library_Test.c ****       begin.warning_illegal_status_emi == end.warning_illegal_status_emi &&
 2097              		.loc 1 370 0
 2098 014a 6B46     		mov	r3, sp	@ tmp390,
 2099 014c 0131     		add	r1, r1, #1	@ tmp392,
 2100 014e 5B18     		add	r3, r3, r1	@ tmp391, tmp390, tmp392
 2101 0150 227C     		ldrb	r2, [r4, #16]	@ tmp306,
 2102 0152 1B78     		ldrb	r3, [r3]	@ tmp307,
 2103 0154 9A42     		cmp	r2, r3	@ tmp306, tmp307
 2104 0156 00D0     		beq	.LCB1755	@
 2105 0158 89E7     		b	.L144	@long jump	@
 2106              	.LCB1755:
 371:../MY17/lib/MY17_Can_Library/MY17_Can_Library_Test.c ****       begin.warning_rfe_signal_inactive == end.warning_rfe_signal_inactive &&
 2107              		.loc 1 371 0
 2108 015a 6B46     		mov	r3, sp	@ tmp393,
 2109 015c 0131     		add	r1, r1, #1	@ tmp395,
 2110 015e 5B18     		add	r3, r3, r1	@ tmp394, tmp393, tmp395
 2111 0160 627C     		ldrb	r2, [r4, #17]	@ tmp310,
 2112 0162 1B78     		ldrb	r3, [r3]	@ tmp311,
 2113 0164 9A42     		cmp	r2, r3	@ tmp310, tmp311
 2114 0166 00D0     		beq	.LCB1762	@
ARM GAS  /var/folders/9j/_txx49hn253_s3mnzkyxlj8m0000gp/T//ccxigpJH.s 			page 48


 2115 0168 81E7     		b	.L144	@long jump	@
 2116              	.LCB1762:
 372:../MY17/lib/MY17_Can_Library/MY17_Can_Library_Test.c ****       begin.warning_power_voltage_low == end.warning_power_voltage_low &&
 2117              		.loc 1 372 0
 2118 016a 6B46     		mov	r3, sp	@ tmp396,
 2119 016c 0131     		add	r1, r1, #1	@ tmp398,
 2120 016e 5B18     		add	r3, r3, r1	@ tmp397, tmp396, tmp398
 2121 0170 A27C     		ldrb	r2, [r4, #18]	@ tmp314,
 2122 0172 1B78     		ldrb	r3, [r3]	@ tmp315,
 2123 0174 9A42     		cmp	r2, r3	@ tmp314, tmp315
 2124 0176 00D0     		beq	.LCB1769	@
 2125 0178 79E7     		b	.L144	@long jump	@
 2126              	.LCB1769:
 373:../MY17/lib/MY17_Can_Library/MY17_Can_Library_Test.c ****       begin.warning_device_temp_high == end.warning_device_temp_high &&
 2127              		.loc 1 373 0
 2128 017a 6B46     		mov	r3, sp	@ tmp399,
 2129 017c 0231     		add	r1, r1, #2	@ tmp401,
 2130 017e 5B18     		add	r3, r3, r1	@ tmp400, tmp399, tmp401
 2131 0180 227D     		ldrb	r2, [r4, #20]	@ tmp318,
 2132 0182 1B78     		ldrb	r3, [r3]	@ tmp319,
 2133 0184 9A42     		cmp	r2, r3	@ tmp318, tmp319
 2134 0186 00D0     		beq	.LCB1776	@
 2135 0188 71E7     		b	.L144	@long jump	@
 2136              	.LCB1776:
 374:../MY17/lib/MY17_Can_Library/MY17_Can_Library_Test.c ****       begin.warning_over_voltage == end.warning_over_voltage &&
 2137              		.loc 1 374 0
 2138 018a 6B46     		mov	r3, sp	@ tmp402,
 2139 018c 0131     		add	r1, r1, #1	@ tmp404,
 2140 018e 5B18     		add	r3, r3, r1	@ tmp403, tmp402, tmp404
 2141 0190 627D     		ldrb	r2, [r4, #21]	@ tmp322,
 2142 0192 1B78     		ldrb	r3, [r3]	@ tmp323,
 2143 0194 9A42     		cmp	r2, r3	@ tmp322, tmp323
 2144 0196 00D0     		beq	.LCB1783	@
 2145 0198 69E7     		b	.L144	@long jump	@
 2146              	.LCB1783:
 375:../MY17/lib/MY17_Can_Library/MY17_Can_Library_Test.c ****       begin.warning_over_current == end.warning_over_current &&
 2147              		.loc 1 375 0
 2148 019a 6B46     		mov	r3, sp	@ tmp405,
 2149 019c 0131     		add	r1, r1, #1	@ tmp407,
 2150 019e 5B18     		add	r3, r3, r1	@ tmp406, tmp405, tmp407
 2151 01a0 A27D     		ldrb	r2, [r4, #22]	@ tmp326,
 2152 01a2 1B78     		ldrb	r3, [r3]	@ tmp327,
 2153 01a4 9A42     		cmp	r2, r3	@ tmp326, tmp327
 2154 01a6 00D0     		beq	.LCB1790	@
 2155 01a8 61E7     		b	.L144	@long jump	@
 2156              	.LCB1790:
 376:../MY17/lib/MY17_Can_Library/MY17_Can_Library_Test.c ****       begin.warning_i2r_overload == end.warning_i2r_overload &&
 2157              		.loc 1 376 0
 2158 01aa 6B46     		mov	r3, sp	@ tmp408,
 2159 01ac 0131     		add	r1, r1, #1	@ tmp410,
 2160 01ae 5B18     		add	r3, r3, r1	@ tmp409, tmp408, tmp410
 2161 01b0 E27D     		ldrb	r2, [r4, #23]	@ tmp330,
 2162 01b2 1B78     		ldrb	r3, [r3]	@ tmp331,
 2163 01b4 9A42     		cmp	r2, r3	@ tmp330, tmp331
 2164 01b6 00D0     		beq	.LCB1797	@
 2165 01b8 59E7     		b	.L144	@long jump	@
 2166              	.LCB1797:
ARM GAS  /var/folders/9j/_txx49hn253_s3mnzkyxlj8m0000gp/T//ccxigpJH.s 			page 49


 377:../MY17/lib/MY17_Can_Library/MY17_Can_Library_Test.c ****       begin.warning_ballast_overload == end.warning_ballast_overload);
 2167              		.loc 1 377 0 discriminator 3
 2168 01ba 6B46     		mov	r3, sp	@ tmp411,
 2169 01bc 0131     		add	r1, r1, #1	@ tmp413,
 2170 01be 5B18     		add	r3, r3, r1	@ tmp412, tmp411, tmp413
 2171 01c0 227E     		ldrb	r2, [r4, #24]	@ tmp334,
 2172 01c2 1B78     		ldrb	r3, [r3]	@ tmp335,
 2173 01c4 9A42     		cmp	r2, r3	@ tmp334, tmp335
 2174 01c6 00D0     		beq	.LCB1804	@
 2175 01c8 51E7     		b	.L144	@long jump	@
 2176              	.LCB1804:
 379:../MY17/lib/MY17_Can_Library/MY17_Can_Library_Test.c **** }
 2177              		.loc 1 379 0
 2178 01ca 0248     		ldr	r0, .L170+4	@ D.5493,
 2179 01cc 4FE7     		b	.L144	@
 2180              	.L171:
 2181 01ce C046     		.align	2
 2182              	.L170:
 2183 01d0 50040000 		.word	.LC68
 2184 01d4 7C040000 		.word	.LC70
 2185              		.cfi_endproc
 2186              	.LFE17:
 2187              		.size	Can_MC_ErrorAndWarning_Test, .-Can_MC_ErrorAndWarning_Test
 2188              		.section	.text.Can_MC_State_Test,"ax",%progbits
 2189              		.align	2
 2190              		.global	Can_MC_State_Test
 2191              		.code	16
 2192              		.thumb_func
 2193              		.type	Can_MC_State_Test, %function
 2194              	Can_MC_State_Test:
 2195              	.LFB18:
 381:../MY17/lib/MY17_Can_Library/MY17_Can_Library_Test.c **** 
 382:../MY17/lib/MY17_Can_Library/MY17_Can_Library_Test.c **** void Can_MC_State_Test(PRINT print) {
 2196              		.loc 1 382 0
 2197              		.cfi_startproc
 2198              	.LVL146:
 383:../MY17/lib/MY17_Can_Library/MY17_Can_Library_Test.c ****   Can_MC_State_T begin;
 384:../MY17/lib/MY17_Can_Library/MY17_Can_Library_Test.c **** 
 385:../MY17/lib/MY17_Can_Library/MY17_Can_Library_Test.c ****       begin.hardware_enable = true;
 2199              		.loc 1 385 0
 2200 0000 0123     		mov	r3, #1	@ tmp157,
 386:../MY17/lib/MY17_Can_Library/MY17_Can_Library_Test.c ****       begin.drive_stopped = false;
 2201              		.loc 1 386 0
 2202 0002 0022     		mov	r2, #0	@ tmp160,
 382:../MY17/lib/MY17_Can_Library/MY17_Can_Library_Test.c ****   Can_MC_State_T begin;
 2203              		.loc 1 382 0
 2204 0004 30B5     		push	{r4, r5, lr}	@
 2205              		.cfi_def_cfa_offset 12
 2206              		.cfi_offset 4, -12
 2207              		.cfi_offset 5, -8
 2208              		.cfi_offset 14, -4
 2209 0006 93B0     		sub	sp, sp, #76	@,,
 2210              		.cfi_def_cfa_offset 88
 385:../MY17/lib/MY17_Can_Library/MY17_Can_Library_Test.c ****       begin.drive_stopped = false;
 2211              		.loc 1 385 0
 2212 0008 06AC     		add	r4, sp, #24	@ tmp318,,
 387:../MY17/lib/MY17_Can_Library/MY17_Can_Library_Test.c ****       begin.lim_plus_assigned = true;
ARM GAS  /var/folders/9j/_txx49hn253_s3mnzkyxlj8m0000gp/T//ccxigpJH.s 			page 50


 388:../MY17/lib/MY17_Can_Library/MY17_Can_Library_Test.c ****       begin.lim_minus_assigned = false;
 389:../MY17/lib/MY17_Can_Library/MY17_Can_Library_Test.c ****       begin.drive_ok = false;
 390:../MY17/lib/MY17_Can_Library/MY17_Can_Library_Test.c ****       begin.current_limit_to_continuous = true;
 391:../MY17/lib/MY17_Can_Library/MY17_Can_Library_Test.c ****       begin.speed_limited_torque_mode = false;
 392:../MY17/lib/MY17_Can_Library/MY17_Can_Library_Test.c ****       begin.position_control_mode = true;
 393:../MY17/lib/MY17_Can_Library/MY17_Can_Library_Test.c ****       begin.speed_control_mode = true;
 394:../MY17/lib/MY17_Can_Library/MY17_Can_Library_Test.c ****       begin.low_speed = false;
 395:../MY17/lib/MY17_Can_Library/MY17_Can_Library_Test.c ****       begin.btb_rdy = true;
 396:../MY17/lib/MY17_Can_Library/MY17_Can_Library_Test.c ****       begin.regen_active = false;
 397:../MY17/lib/MY17_Can_Library/MY17_Can_Library_Test.c ****       begin.inverted_command = true;
 398:../MY17/lib/MY17_Can_Library/MY17_Can_Library_Test.c ****       begin.speed_limited_via_switch = false;
 399:../MY17/lib/MY17_Can_Library/MY17_Can_Library_Test.c ****       begin.current_limited_via_switch = false;
 400:../MY17/lib/MY17_Can_Library/MY17_Can_Library_Test.c ****       begin.active_current_reduction = true;
 401:../MY17/lib/MY17_Can_Library/MY17_Can_Library_Test.c ****       begin.current_limited_via_speed = false;
 402:../MY17/lib/MY17_Can_Library/MY17_Can_Library_Test.c ****       begin.current_limited_via_igbt_temp = true;
 403:../MY17/lib/MY17_Can_Library/MY17_Can_Library_Test.c ****       begin.current_reduction_low_frequency = true;
 404:../MY17/lib/MY17_Can_Library/MY17_Can_Library_Test.c ****       begin.current_reduction_via_motor_temp = false;
 405:../MY17/lib/MY17_Can_Library/MY17_Can_Library_Test.c ****       begin.current_reduction_via_analog_input = false;
 406:../MY17/lib/MY17_Can_Library/MY17_Can_Library_Test.c ****       begin.handwheel_input_selected = true;
 407:../MY17/lib/MY17_Can_Library/MY17_Can_Library_Test.c **** 
 408:../MY17/lib/MY17_Can_Library/MY17_Can_Library_Test.c ****   BOILERPLATE(Can_MC_State);
 2213              		.loc 1 408 0
 2214 000a 03A9     		add	r1, sp, #12	@ tmp320,,
 382:../MY17/lib/MY17_Can_Library/MY17_Can_Library_Test.c ****   Can_MC_State_T begin;
 2215              		.loc 1 382 0
 2216 000c 051C     		mov	r5, r0	@ print, print
 2217              		.loc 1 408 0
 2218 000e 201C     		mov	r0, r4	@, tmp318
 2219              	.LVL147:
 385:../MY17/lib/MY17_Can_Library/MY17_Can_Library_Test.c ****       begin.drive_stopped = false;
 2220              		.loc 1 385 0
 2221 0010 2370     		strb	r3, [r4]	@ tmp157, begin.hardware_enable
 386:../MY17/lib/MY17_Can_Library/MY17_Can_Library_Test.c ****       begin.lim_plus_assigned = true;
 2222              		.loc 1 386 0
 2223 0012 6270     		strb	r2, [r4, #1]	@ tmp160, begin.drive_stopped
 387:../MY17/lib/MY17_Can_Library/MY17_Can_Library_Test.c ****       begin.lim_plus_assigned = true;
 2224              		.loc 1 387 0
 2225 0014 A370     		strb	r3, [r4, #2]	@ tmp157, begin.lim_plus_assigned
 388:../MY17/lib/MY17_Can_Library/MY17_Can_Library_Test.c ****       begin.drive_ok = false;
 2226              		.loc 1 388 0
 2227 0016 E270     		strb	r2, [r4, #3]	@ tmp160, begin.lim_minus_assigned
 389:../MY17/lib/MY17_Can_Library/MY17_Can_Library_Test.c ****       begin.current_limit_to_continuous = true;
 2228              		.loc 1 389 0
 2229 0018 2271     		strb	r2, [r4, #4]	@ tmp160, begin.drive_ok
 390:../MY17/lib/MY17_Can_Library/MY17_Can_Library_Test.c ****       begin.speed_limited_torque_mode = false;
 2230              		.loc 1 390 0
 2231 001a 6371     		strb	r3, [r4, #5]	@ tmp157, begin.current_limit_to_continuous
 391:../MY17/lib/MY17_Can_Library/MY17_Can_Library_Test.c ****       begin.position_control_mode = true;
 2232              		.loc 1 391 0
 2233 001c A271     		strb	r2, [r4, #6]	@ tmp160, begin.speed_limited_torque_mode
 392:../MY17/lib/MY17_Can_Library/MY17_Can_Library_Test.c ****       begin.speed_control_mode = true;
 2234              		.loc 1 392 0
 2235 001e E371     		strb	r3, [r4, #7]	@ tmp157, begin.position_control_mode
 393:../MY17/lib/MY17_Can_Library/MY17_Can_Library_Test.c ****       begin.low_speed = false;
 2236              		.loc 1 393 0
 2237 0020 2372     		strb	r3, [r4, #8]	@ tmp157, begin.speed_control_mode
 394:../MY17/lib/MY17_Can_Library/MY17_Can_Library_Test.c ****       begin.btb_rdy = true;
ARM GAS  /var/folders/9j/_txx49hn253_s3mnzkyxlj8m0000gp/T//ccxigpJH.s 			page 51


 2238              		.loc 1 394 0
 2239 0022 6272     		strb	r2, [r4, #9]	@ tmp160, begin.low_speed
 395:../MY17/lib/MY17_Can_Library/MY17_Can_Library_Test.c ****       begin.regen_active = false;
 2240              		.loc 1 395 0
 2241 0024 A372     		strb	r3, [r4, #10]	@ tmp157, begin.btb_rdy
 396:../MY17/lib/MY17_Can_Library/MY17_Can_Library_Test.c ****       begin.inverted_command = true;
 2242              		.loc 1 396 0
 2243 0026 E272     		strb	r2, [r4, #11]	@ tmp160, begin.regen_active
 397:../MY17/lib/MY17_Can_Library/MY17_Can_Library_Test.c ****       begin.speed_limited_via_switch = false;
 2244              		.loc 1 397 0
 2245 0028 2373     		strb	r3, [r4, #12]	@ tmp157, begin.inverted_command
 398:../MY17/lib/MY17_Can_Library/MY17_Can_Library_Test.c ****       begin.current_limited_via_switch = false;
 2246              		.loc 1 398 0
 2247 002a 6273     		strb	r2, [r4, #13]	@ tmp160, begin.speed_limited_via_switch
 399:../MY17/lib/MY17_Can_Library/MY17_Can_Library_Test.c ****       begin.active_current_reduction = true;
 2248              		.loc 1 399 0
 2249 002c A273     		strb	r2, [r4, #14]	@ tmp160, begin.current_limited_via_switch
 400:../MY17/lib/MY17_Can_Library/MY17_Can_Library_Test.c ****       begin.current_limited_via_speed = false;
 2250              		.loc 1 400 0
 2251 002e E373     		strb	r3, [r4, #15]	@ tmp157, begin.active_current_reduction
 401:../MY17/lib/MY17_Can_Library/MY17_Can_Library_Test.c ****       begin.current_limited_via_igbt_temp = true;
 2252              		.loc 1 401 0
 2253 0030 2274     		strb	r2, [r4, #16]	@ tmp160, begin.current_limited_via_speed
 402:../MY17/lib/MY17_Can_Library/MY17_Can_Library_Test.c ****       begin.current_reduction_low_frequency = true;
 2254              		.loc 1 402 0
 2255 0032 6374     		strb	r3, [r4, #17]	@ tmp157, begin.current_limited_via_igbt_temp
 403:../MY17/lib/MY17_Can_Library/MY17_Can_Library_Test.c ****       begin.current_reduction_via_motor_temp = false;
 2256              		.loc 1 403 0
 2257 0034 A374     		strb	r3, [r4, #18]	@ tmp157, begin.current_reduction_low_frequency
 404:../MY17/lib/MY17_Can_Library/MY17_Can_Library_Test.c ****       begin.current_reduction_via_analog_input = false;
 2258              		.loc 1 404 0
 2259 0036 E274     		strb	r2, [r4, #19]	@ tmp160, begin.current_reduction_via_motor_temp
 405:../MY17/lib/MY17_Can_Library/MY17_Can_Library_Test.c ****       begin.handwheel_input_selected = true;
 2260              		.loc 1 405 0
 2261 0038 2275     		strb	r2, [r4, #20]	@ tmp160, begin.current_reduction_via_analog_input
 406:../MY17/lib/MY17_Can_Library/MY17_Can_Library_Test.c **** 
 2262              		.loc 1 406 0
 2263 003a 6375     		strb	r3, [r4, #21]	@ tmp157, begin.handwheel_input_selected
 2264              		.loc 1 408 0
 2265 003c FFF7FEFF 		bl	Can_MC_State_ToCan	@
 2266              	.LVL148:
 2267 0040 0F20     		mov	r0, #15	@ tmp321,
 2268 0042 0022     		mov	r2, #0	@ tmp224,
 2269 0044 0023     		mov	r3, #0	@,
 2270 0046 6844     		add	r0, r0, sp	@ tmp321,
 2271 0048 6946     		mov	r1, sp	@,
 2272 004a 0092     		str	r2, [sp]	@ tmp224, end_bitstring
 2273 004c 0193     		str	r3, [sp, #4]	@ tmp224,
 2274 004e FFF7FEFF 		bl	to_bitstring	@
 2275              	.LVL149:
 2276 0052 0CA9     		add	r1, sp, #48	@ tmp323,,
 2277 0054 03A8     		add	r0, sp, #12	@ tmp322,,
 2278 0056 FFF7FEFF 		bl	Can_MC_State_FromCan	@
 2279              	.LVL150:
 409:../MY17/lib/MY17_Can_Library/MY17_Can_Library_Test.c **** 
 410:../MY17/lib/MY17_Can_Library/MY17_Can_Library_Test.c ****   bool equal = (
 411:../MY17/lib/MY17_Can_Library/MY17_Can_Library_Test.c ****       begin.hardware_enable == end.hardware_enable &&
ARM GAS  /var/folders/9j/_txx49hn253_s3mnzkyxlj8m0000gp/T//ccxigpJH.s 			page 52


 412:../MY17/lib/MY17_Can_Library/MY17_Can_Library_Test.c ****       begin.drive_stopped == end.drive_stopped &&
 413:../MY17/lib/MY17_Can_Library/MY17_Can_Library_Test.c ****       begin.lim_plus_assigned == end.lim_plus_assigned &&
 414:../MY17/lib/MY17_Can_Library/MY17_Can_Library_Test.c ****       begin.lim_minus_assigned == end.lim_minus_assigned &&
 415:../MY17/lib/MY17_Can_Library/MY17_Can_Library_Test.c ****       begin.drive_ok == end.drive_ok &&
 416:../MY17/lib/MY17_Can_Library/MY17_Can_Library_Test.c ****       begin.current_limit_to_continuous == end.current_limit_to_continuous &&
 417:../MY17/lib/MY17_Can_Library/MY17_Can_Library_Test.c ****       begin.speed_limited_torque_mode == end.speed_limited_torque_mode &&
 418:../MY17/lib/MY17_Can_Library/MY17_Can_Library_Test.c ****       begin.position_control_mode == end.position_control_mode &&
 419:../MY17/lib/MY17_Can_Library/MY17_Can_Library_Test.c ****       begin.speed_control_mode == end.speed_control_mode &&
 420:../MY17/lib/MY17_Can_Library/MY17_Can_Library_Test.c ****       begin.low_speed == end.low_speed &&
 421:../MY17/lib/MY17_Can_Library/MY17_Can_Library_Test.c ****       begin.btb_rdy == end.btb_rdy &&
 422:../MY17/lib/MY17_Can_Library/MY17_Can_Library_Test.c ****       begin.regen_active == end.regen_active &&
 423:../MY17/lib/MY17_Can_Library/MY17_Can_Library_Test.c ****       begin.inverted_command == end.inverted_command &&
 424:../MY17/lib/MY17_Can_Library/MY17_Can_Library_Test.c ****       begin.speed_limited_via_switch == end.speed_limited_via_switch &&
 425:../MY17/lib/MY17_Can_Library/MY17_Can_Library_Test.c ****       begin.current_limited_via_switch == end.current_limited_via_switch &&
 426:../MY17/lib/MY17_Can_Library/MY17_Can_Library_Test.c ****       begin.active_current_reduction == end.active_current_reduction &&
 427:../MY17/lib/MY17_Can_Library/MY17_Can_Library_Test.c ****       begin.current_limited_via_speed == end.current_limited_via_speed &&
 428:../MY17/lib/MY17_Can_Library/MY17_Can_Library_Test.c ****       begin.current_limited_via_igbt_temp
 429:../MY17/lib/MY17_Can_Library/MY17_Can_Library_Test.c ****         == end.current_limited_via_igbt_temp &&
 430:../MY17/lib/MY17_Can_Library/MY17_Can_Library_Test.c ****       begin.current_reduction_low_frequency
 431:../MY17/lib/MY17_Can_Library/MY17_Can_Library_Test.c ****         == end.current_reduction_low_frequency &&
 432:../MY17/lib/MY17_Can_Library/MY17_Can_Library_Test.c ****       begin.current_reduction_via_motor_temp
 433:../MY17/lib/MY17_Can_Library/MY17_Can_Library_Test.c ****         == end.current_reduction_via_motor_temp &&
 434:../MY17/lib/MY17_Can_Library/MY17_Can_Library_Test.c ****       begin.current_reduction_via_analog_input
 435:../MY17/lib/MY17_Can_Library/MY17_Can_Library_Test.c ****         == end.current_reduction_via_analog_input &&
 2280              		.loc 1 435 0
 2281 005a 6B46     		mov	r3, sp	@ tmp324,
 2282 005c 3021     		mov	r1, #48	@ tmp326,
 2283 005e 5B18     		add	r3, r3, r1	@ tmp325, tmp324, tmp326
 2284 0060 2278     		ldrb	r2, [r4]	@ begin, begin
 2285 0062 1B78     		ldrb	r3, [r3]	@ end, end
 2286 0064 9A42     		cmp	r2, r3	@ begin, end
 2287 0066 03D0     		beq	.L196	@,
 2288              	.L179:
 436:../MY17/lib/MY17_Can_Library/MY17_Can_Library_Test.c ****       begin.handwheel_input_selected == end.handwheel_input_selected);
 437:../MY17/lib/MY17_Can_Library/MY17_Can_Library_Test.c **** 
 438:../MY17/lib/MY17_Can_Library/MY17_Can_Library_Test.c ****   print(equal ? "MC_State_PASS\r\n" : "MC_State_FAIL!!!!!!!!!!!!!!!!\r\n");
 2289              		.loc 1 438 0
 2290 0068 5048     		ldr	r0, .L197	@ D.5499,
 2291              	.L173:
 2292              		.loc 1 438 0 is_stmt 0 discriminator 4
 2293 006a A847     		blx	r5	@ print
 2294              	.LVL151:
 439:../MY17/lib/MY17_Can_Library/MY17_Can_Library_Test.c **** }
 2295              		.loc 1 439 0 is_stmt 1 discriminator 4
 2296 006c 13B0     		add	sp, sp, #76	@,,
 2297              		@ sp needed	@
 2298              	.LVL152:
 2299 006e 30BD     		pop	{r4, r5, pc}
 2300              	.LVL153:
 2301              	.L196:
 411:../MY17/lib/MY17_Can_Library/MY17_Can_Library_Test.c ****       begin.drive_stopped == end.drive_stopped &&
 2302              		.loc 1 411 0
 2303 0070 6B46     		mov	r3, sp	@ tmp327,
 2304 0072 0131     		add	r1, r1, #1	@ tmp329,
 2305 0074 5B18     		add	r3, r3, r1	@ tmp328, tmp327, tmp329
 2306 0076 6278     		ldrb	r2, [r4, #1]	@ tmp236,
 2307 0078 1B78     		ldrb	r3, [r3]	@ tmp237,
ARM GAS  /var/folders/9j/_txx49hn253_s3mnzkyxlj8m0000gp/T//ccxigpJH.s 			page 53


 2308 007a 9A42     		cmp	r2, r3	@ tmp236, tmp237
 2309 007c F4D1     		bne	.L179	@,
 412:../MY17/lib/MY17_Can_Library/MY17_Can_Library_Test.c ****       begin.lim_plus_assigned == end.lim_plus_assigned &&
 2310              		.loc 1 412 0
 2311 007e 6B46     		mov	r3, sp	@ tmp330,
 2312 0080 0131     		add	r1, r1, #1	@ tmp332,
 2313 0082 5B18     		add	r3, r3, r1	@ tmp331, tmp330, tmp332
 2314 0084 A278     		ldrb	r2, [r4, #2]	@ tmp240,
 2315 0086 1B78     		ldrb	r3, [r3]	@ tmp241,
 2316 0088 9A42     		cmp	r2, r3	@ tmp240, tmp241
 2317 008a EDD1     		bne	.L179	@,
 413:../MY17/lib/MY17_Can_Library/MY17_Can_Library_Test.c ****       begin.lim_minus_assigned == end.lim_minus_assigned &&
 2318              		.loc 1 413 0
 2319 008c 6B46     		mov	r3, sp	@ tmp333,
 2320 008e 0131     		add	r1, r1, #1	@ tmp335,
 2321 0090 5B18     		add	r3, r3, r1	@ tmp334, tmp333, tmp335
 2322 0092 E278     		ldrb	r2, [r4, #3]	@ tmp244,
 2323 0094 1B78     		ldrb	r3, [r3]	@ tmp245,
 2324 0096 9A42     		cmp	r2, r3	@ tmp244, tmp245
 2325 0098 E6D1     		bne	.L179	@,
 414:../MY17/lib/MY17_Can_Library/MY17_Can_Library_Test.c ****       begin.drive_ok == end.drive_ok &&
 2326              		.loc 1 414 0
 2327 009a 6B46     		mov	r3, sp	@ tmp336,
 2328 009c 0131     		add	r1, r1, #1	@ tmp338,
 2329 009e 5B18     		add	r3, r3, r1	@ tmp337, tmp336, tmp338
 2330 00a0 2279     		ldrb	r2, [r4, #4]	@ tmp248,
 2331 00a2 1B78     		ldrb	r3, [r3]	@ tmp249,
 2332 00a4 9A42     		cmp	r2, r3	@ tmp248, tmp249
 2333 00a6 DFD1     		bne	.L179	@,
 415:../MY17/lib/MY17_Can_Library/MY17_Can_Library_Test.c ****       begin.current_limit_to_continuous == end.current_limit_to_continuous &&
 2334              		.loc 1 415 0
 2335 00a8 6B46     		mov	r3, sp	@ tmp339,
 2336 00aa 0131     		add	r1, r1, #1	@ tmp341,
 2337 00ac 5B18     		add	r3, r3, r1	@ tmp340, tmp339, tmp341
 2338 00ae 6279     		ldrb	r2, [r4, #5]	@ tmp252,
 2339 00b0 1B78     		ldrb	r3, [r3]	@ tmp253,
 2340 00b2 9A42     		cmp	r2, r3	@ tmp252, tmp253
 2341 00b4 D8D1     		bne	.L179	@,
 416:../MY17/lib/MY17_Can_Library/MY17_Can_Library_Test.c ****       begin.speed_limited_torque_mode == end.speed_limited_torque_mode &&
 2342              		.loc 1 416 0
 2343 00b6 6B46     		mov	r3, sp	@ tmp342,
 2344 00b8 0131     		add	r1, r1, #1	@ tmp344,
 2345 00ba 5B18     		add	r3, r3, r1	@ tmp343, tmp342, tmp344
 2346 00bc A279     		ldrb	r2, [r4, #6]	@ tmp256,
 2347 00be 1B78     		ldrb	r3, [r3]	@ tmp257,
 438:../MY17/lib/MY17_Can_Library/MY17_Can_Library_Test.c **** }
 2348              		.loc 1 438 0
 2349 00c0 3A48     		ldr	r0, .L197	@ D.5499,
 416:../MY17/lib/MY17_Can_Library/MY17_Can_Library_Test.c ****       begin.speed_limited_torque_mode == end.speed_limited_torque_mode &&
 2350              		.loc 1 416 0
 2351 00c2 9A42     		cmp	r2, r3	@ tmp256, tmp257
 2352 00c4 D1D1     		bne	.L173	@,
 417:../MY17/lib/MY17_Can_Library/MY17_Can_Library_Test.c ****       begin.position_control_mode == end.position_control_mode &&
 2353              		.loc 1 417 0
 2354 00c6 6B46     		mov	r3, sp	@ tmp345,
 2355 00c8 0131     		add	r1, r1, #1	@ tmp347,
 2356 00ca 5B18     		add	r3, r3, r1	@ tmp346, tmp345, tmp347
ARM GAS  /var/folders/9j/_txx49hn253_s3mnzkyxlj8m0000gp/T//ccxigpJH.s 			page 54


 2357 00cc E279     		ldrb	r2, [r4, #7]	@ tmp260,
 2358 00ce 1B78     		ldrb	r3, [r3]	@ tmp261,
 2359 00d0 9A42     		cmp	r2, r3	@ tmp260, tmp261
 2360 00d2 CAD1     		bne	.L173	@,
 418:../MY17/lib/MY17_Can_Library/MY17_Can_Library_Test.c ****       begin.speed_control_mode == end.speed_control_mode &&
 2361              		.loc 1 418 0
 2362 00d4 6B46     		mov	r3, sp	@ tmp348,
 2363 00d6 0131     		add	r1, r1, #1	@ tmp350,
 2364 00d8 5B18     		add	r3, r3, r1	@ tmp349, tmp348, tmp350
 2365 00da 227A     		ldrb	r2, [r4, #8]	@ tmp264,
 2366 00dc 1B78     		ldrb	r3, [r3]	@ tmp265,
 2367 00de 9A42     		cmp	r2, r3	@ tmp264, tmp265
 2368 00e0 C3D1     		bne	.L173	@,
 419:../MY17/lib/MY17_Can_Library/MY17_Can_Library_Test.c ****       begin.low_speed == end.low_speed &&
 2369              		.loc 1 419 0
 2370 00e2 6B46     		mov	r3, sp	@ tmp351,
 2371 00e4 0131     		add	r1, r1, #1	@ tmp353,
 2372 00e6 5B18     		add	r3, r3, r1	@ tmp352, tmp351, tmp353
 2373 00e8 627A     		ldrb	r2, [r4, #9]	@ tmp268,
 2374 00ea 1B78     		ldrb	r3, [r3]	@ tmp269,
 2375 00ec 9A42     		cmp	r2, r3	@ tmp268, tmp269
 2376 00ee BCD1     		bne	.L173	@,
 420:../MY17/lib/MY17_Can_Library/MY17_Can_Library_Test.c ****       begin.btb_rdy == end.btb_rdy &&
 2377              		.loc 1 420 0
 2378 00f0 6B46     		mov	r3, sp	@ tmp354,
 2379 00f2 0131     		add	r1, r1, #1	@ tmp356,
 2380 00f4 5B18     		add	r3, r3, r1	@ tmp355, tmp354, tmp356
 2381 00f6 A27A     		ldrb	r2, [r4, #10]	@ tmp272,
 2382 00f8 1B78     		ldrb	r3, [r3]	@ tmp273,
 2383 00fa 9A42     		cmp	r2, r3	@ tmp272, tmp273
 2384 00fc B5D1     		bne	.L173	@,
 421:../MY17/lib/MY17_Can_Library/MY17_Can_Library_Test.c ****       begin.regen_active == end.regen_active &&
 2385              		.loc 1 421 0
 2386 00fe 6B46     		mov	r3, sp	@ tmp357,
 2387 0100 0131     		add	r1, r1, #1	@ tmp359,
 2388 0102 5B18     		add	r3, r3, r1	@ tmp358, tmp357, tmp359
 2389 0104 E27A     		ldrb	r2, [r4, #11]	@ tmp276,
 2390 0106 1B78     		ldrb	r3, [r3]	@ tmp277,
 2391 0108 9A42     		cmp	r2, r3	@ tmp276, tmp277
 2392 010a AED1     		bne	.L173	@,
 422:../MY17/lib/MY17_Can_Library/MY17_Can_Library_Test.c ****       begin.inverted_command == end.inverted_command &&
 2393              		.loc 1 422 0
 2394 010c 6B46     		mov	r3, sp	@ tmp360,
 2395 010e 0131     		add	r1, r1, #1	@ tmp362,
 2396 0110 5B18     		add	r3, r3, r1	@ tmp361, tmp360, tmp362
 2397 0112 227B     		ldrb	r2, [r4, #12]	@ tmp280,
 2398 0114 1B78     		ldrb	r3, [r3]	@ tmp281,
 2399 0116 9A42     		cmp	r2, r3	@ tmp280, tmp281
 2400 0118 A7D1     		bne	.L173	@,
 423:../MY17/lib/MY17_Can_Library/MY17_Can_Library_Test.c ****       begin.speed_limited_via_switch == end.speed_limited_via_switch &&
 2401              		.loc 1 423 0
 2402 011a 6B46     		mov	r3, sp	@ tmp363,
 2403 011c 0131     		add	r1, r1, #1	@ tmp365,
 2404 011e 5B18     		add	r3, r3, r1	@ tmp364, tmp363, tmp365
 2405 0120 627B     		ldrb	r2, [r4, #13]	@ tmp284,
 2406 0122 1B78     		ldrb	r3, [r3]	@ tmp285,
 2407 0124 9A42     		cmp	r2, r3	@ tmp284, tmp285
ARM GAS  /var/folders/9j/_txx49hn253_s3mnzkyxlj8m0000gp/T//ccxigpJH.s 			page 55


 2408 0126 A0D1     		bne	.L173	@,
 424:../MY17/lib/MY17_Can_Library/MY17_Can_Library_Test.c ****       begin.current_limited_via_switch == end.current_limited_via_switch &&
 2409              		.loc 1 424 0
 2410 0128 6B46     		mov	r3, sp	@ tmp366,
 2411 012a 0131     		add	r1, r1, #1	@ tmp368,
 2412 012c 5B18     		add	r3, r3, r1	@ tmp367, tmp366, tmp368
 2413 012e A27B     		ldrb	r2, [r4, #14]	@ tmp288,
 2414 0130 1B78     		ldrb	r3, [r3]	@ tmp289,
 2415 0132 9A42     		cmp	r2, r3	@ tmp288, tmp289
 2416 0134 99D1     		bne	.L173	@,
 425:../MY17/lib/MY17_Can_Library/MY17_Can_Library_Test.c ****       begin.active_current_reduction == end.active_current_reduction &&
 2417              		.loc 1 425 0
 2418 0136 6B46     		mov	r3, sp	@ tmp369,
 2419 0138 0131     		add	r1, r1, #1	@ tmp371,
 2420 013a 5B18     		add	r3, r3, r1	@ tmp370, tmp369, tmp371
 2421 013c E27B     		ldrb	r2, [r4, #15]	@ tmp292,
 2422 013e 1B78     		ldrb	r3, [r3]	@ tmp293,
 2423 0140 9A42     		cmp	r2, r3	@ tmp292, tmp293
 2424 0142 00D0     		beq	.LCB2003	@
 2425 0144 91E7     		b	.L173	@long jump	@
 2426              	.LCB2003:
 426:../MY17/lib/MY17_Can_Library/MY17_Can_Library_Test.c ****       begin.current_limited_via_speed == end.current_limited_via_speed &&
 2427              		.loc 1 426 0
 2428 0146 6B46     		mov	r3, sp	@ tmp372,
 2429 0148 0131     		add	r1, r1, #1	@ tmp374,
 2430 014a 5B18     		add	r3, r3, r1	@ tmp373, tmp372, tmp374
 2431 014c 227C     		ldrb	r2, [r4, #16]	@ tmp296,
 2432 014e 1B78     		ldrb	r3, [r3]	@ tmp297,
 2433 0150 9A42     		cmp	r2, r3	@ tmp296, tmp297
 2434 0152 00D0     		beq	.LCB2010	@
 2435 0154 89E7     		b	.L173	@long jump	@
 2436              	.LCB2010:
 427:../MY17/lib/MY17_Can_Library/MY17_Can_Library_Test.c ****       begin.current_limited_via_igbt_temp
 2437              		.loc 1 427 0
 2438 0156 6B46     		mov	r3, sp	@ tmp375,
 2439 0158 0131     		add	r1, r1, #1	@ tmp377,
 2440 015a 5B18     		add	r3, r3, r1	@ tmp376, tmp375, tmp377
 2441 015c 627C     		ldrb	r2, [r4, #17]	@ tmp300,
 2442 015e 1B78     		ldrb	r3, [r3]	@ tmp301,
 2443 0160 9A42     		cmp	r2, r3	@ tmp300, tmp301
 2444 0162 00D0     		beq	.LCB2017	@
 2445 0164 81E7     		b	.L173	@long jump	@
 2446              	.LCB2017:
 429:../MY17/lib/MY17_Can_Library/MY17_Can_Library_Test.c ****       begin.current_reduction_low_frequency
 2447              		.loc 1 429 0
 2448 0166 6B46     		mov	r3, sp	@ tmp378,
 2449 0168 0131     		add	r1, r1, #1	@ tmp380,
 2450 016a 5B18     		add	r3, r3, r1	@ tmp379, tmp378, tmp380
 2451 016c A27C     		ldrb	r2, [r4, #18]	@ tmp304,
 2452 016e 1B78     		ldrb	r3, [r3]	@ tmp305,
 2453 0170 9A42     		cmp	r2, r3	@ tmp304, tmp305
 2454 0172 00D0     		beq	.LCB2024	@
 2455 0174 79E7     		b	.L173	@long jump	@
 2456              	.LCB2024:
 431:../MY17/lib/MY17_Can_Library/MY17_Can_Library_Test.c ****       begin.current_reduction_via_motor_temp
 2457              		.loc 1 431 0
 2458 0176 6B46     		mov	r3, sp	@ tmp381,
ARM GAS  /var/folders/9j/_txx49hn253_s3mnzkyxlj8m0000gp/T//ccxigpJH.s 			page 56


 2459 0178 0131     		add	r1, r1, #1	@ tmp383,
 2460 017a 5B18     		add	r3, r3, r1	@ tmp382, tmp381, tmp383
 2461 017c E27C     		ldrb	r2, [r4, #19]	@ tmp308,
 2462 017e 1B78     		ldrb	r3, [r3]	@ tmp309,
 2463 0180 9A42     		cmp	r2, r3	@ tmp308, tmp309
 2464 0182 00D0     		beq	.LCB2031	@
 2465 0184 71E7     		b	.L173	@long jump	@
 2466              	.LCB2031:
 433:../MY17/lib/MY17_Can_Library/MY17_Can_Library_Test.c ****       begin.current_reduction_via_analog_input
 2467              		.loc 1 433 0
 2468 0186 6B46     		mov	r3, sp	@ tmp384,
 2469 0188 0131     		add	r1, r1, #1	@ tmp386,
 2470 018a 5B18     		add	r3, r3, r1	@ tmp385, tmp384, tmp386
 2471 018c 227D     		ldrb	r2, [r4, #20]	@ tmp312,
 2472 018e 1B78     		ldrb	r3, [r3]	@ tmp313,
 2473 0190 9A42     		cmp	r2, r3	@ tmp312, tmp313
 2474 0192 00D0     		beq	.LCB2038	@
 2475 0194 69E7     		b	.L173	@long jump	@
 2476              	.LCB2038:
 435:../MY17/lib/MY17_Can_Library/MY17_Can_Library_Test.c ****       begin.handwheel_input_selected == end.handwheel_input_selected);
 2477              		.loc 1 435 0 discriminator 3
 2478 0196 6B46     		mov	r3, sp	@ tmp387,
 2479 0198 0131     		add	r1, r1, #1	@ tmp389,
 2480 019a 5B18     		add	r3, r3, r1	@ tmp388, tmp387, tmp389
 2481 019c 627D     		ldrb	r2, [r4, #21]	@ tmp316,
 2482 019e 1B78     		ldrb	r3, [r3]	@ tmp317,
 2483 01a0 9A42     		cmp	r2, r3	@ tmp316, tmp317
 2484 01a2 00D0     		beq	.LCB2045	@
 2485 01a4 61E7     		b	.L173	@long jump	@
 2486              	.LCB2045:
 438:../MY17/lib/MY17_Can_Library/MY17_Can_Library_Test.c **** }
 2487              		.loc 1 438 0
 2488 01a6 0248     		ldr	r0, .L197+4	@ D.5499,
 2489 01a8 5FE7     		b	.L173	@
 2490              	.L198:
 2491 01aa C046     		.align	2
 2492              	.L197:
 2493 01ac A8040000 		.word	.LC74
 2494 01b0 98040000 		.word	.LC72
 2495              		.cfi_endproc
 2496              	.LFE18:
 2497              		.size	Can_MC_State_Test, .-Can_MC_State_Test
 2498              		.section	.text.Can_CurrentSensor_Current_Test,"ax",%progbits
 2499              		.align	2
 2500              		.global	Can_CurrentSensor_Current_Test
 2501              		.code	16
 2502              		.thumb_func
 2503              		.type	Can_CurrentSensor_Current_Test, %function
 2504              	Can_CurrentSensor_Current_Test:
 2505              	.LFB19:
 440:../MY17/lib/MY17_Can_Library/MY17_Can_Library_Test.c **** 
 441:../MY17/lib/MY17_Can_Library/MY17_Can_Library_Test.c **** void Can_CurrentSensor_Current_Test(PRINT print) {
 2506              		.loc 1 441 0
 2507              		.cfi_startproc
 2508              	.LVL154:
 2509 0000 10B5     		push	{r4, lr}	@
 2510              		.cfi_def_cfa_offset 8
ARM GAS  /var/folders/9j/_txx49hn253_s3mnzkyxlj8m0000gp/T//ccxigpJH.s 			page 57


 2511              		.cfi_offset 4, -8
 2512              		.cfi_offset 14, -4
 442:../MY17/lib/MY17_Can_Library/MY17_Can_Library_Test.c ****   Can_CurrentSensor_Current_T begin;
 443:../MY17/lib/MY17_Can_Library/MY17_Can_Library_Test.c ****   begin.current_mA = -15000;
 2513              		.loc 1 443 0
 2514 0002 0F4B     		ldr	r3, .L202	@ tmp114,
 441:../MY17/lib/MY17_Can_Library/MY17_Can_Library_Test.c ****   Can_CurrentSensor_Current_T begin;
 2515              		.loc 1 441 0
 2516 0004 88B0     		sub	sp, sp, #32	@,,
 2517              		.cfi_def_cfa_offset 40
 444:../MY17/lib/MY17_Can_Library/MY17_Can_Library_Test.c **** 
 445:../MY17/lib/MY17_Can_Library/MY17_Can_Library_Test.c ****   BOILERPLATE(Can_CurrentSensor_Current);
 2518              		.loc 1 445 0
 2519 0006 05A9     		add	r1, sp, #20	@ tmp125,,
 441:../MY17/lib/MY17_Can_Library/MY17_Can_Library_Test.c ****   Can_CurrentSensor_Current_T begin;
 2520              		.loc 1 441 0
 2521 0008 041C     		mov	r4, r0	@ print, print
 2522              		.loc 1 445 0
 2523 000a 6846     		mov	r0, sp	@,
 2524              	.LVL155:
 443:../MY17/lib/MY17_Can_Library/MY17_Can_Library_Test.c **** 
 2525              		.loc 1 443 0
 2526 000c 0093     		str	r3, [sp]	@ tmp114, begin.current_mA
 2527              		.loc 1 445 0
 2528 000e FFF7FEFF 		bl	Can_CurrentSensor_Current_ToCan	@
 2529              	.LVL156:
 2530 0012 1720     		mov	r0, #23	@ tmp126,
 2531 0014 0022     		mov	r2, #0	@ tmp117,
 2532 0016 0023     		mov	r3, #0	@,
 2533 0018 6844     		add	r0, r0, sp	@ tmp126,
 2534 001a 02A9     		add	r1, sp, #8	@,,
 2535 001c 0292     		str	r2, [sp, #8]	@ tmp117, end_bitstring
 2536 001e 0393     		str	r3, [sp, #12]	@ tmp117,
 2537 0020 FFF7FEFF 		bl	to_bitstring	@
 2538              	.LVL157:
 2539 0024 05A8     		add	r0, sp, #20	@ tmp127,,
 2540 0026 01A9     		add	r1, sp, #4	@,,
 2541 0028 FFF7FEFF 		bl	Can_CurrentSensor_Current_FromCan	@
 2542              	.LVL158:
 446:../MY17/lib/MY17_Can_Library/MY17_Can_Library_Test.c **** 
 447:../MY17/lib/MY17_Can_Library/MY17_Can_Library_Test.c ****   bool equal = begin.current_mA == end.current_mA;
 448:../MY17/lib/MY17_Can_Library/MY17_Can_Library_Test.c ****   print(equal ? "CurrentSensor_Current_PASS\r\n" : "CurrentSensor_Current_FAIL!!!!!!!!!!!!!!!!\r\n"
 2543              		.loc 1 448 0
 2544 002c 009B     		ldr	r3, [sp]	@ tmp128, begin.current_mA
 2545 002e 019A     		ldr	r2, [sp, #4]	@ tmp129, end.current_mA
 2546 0030 9342     		cmp	r3, r2	@ tmp128, tmp129
 2547 0032 03D0     		beq	.L201	@,
 2548 0034 0348     		ldr	r0, .L202+4	@ D.5505,
 2549              	.L200:
 2550              		.loc 1 448 0 is_stmt 0 discriminator 4
 2551 0036 A047     		blx	r4	@ print
 2552              	.LVL159:
 449:../MY17/lib/MY17_Can_Library/MY17_Can_Library_Test.c **** }
 2553              		.loc 1 449 0 is_stmt 1 discriminator 4
 2554 0038 08B0     		add	sp, sp, #32	@,,
 2555              		@ sp needed	@
 2556              	.LVL160:
ARM GAS  /var/folders/9j/_txx49hn253_s3mnzkyxlj8m0000gp/T//ccxigpJH.s 			page 58


 2557 003a 10BD     		pop	{r4, pc}
 2558              	.LVL161:
 2559              	.L201:
 448:../MY17/lib/MY17_Can_Library/MY17_Can_Library_Test.c **** }
 2560              		.loc 1 448 0
 2561 003c 0248     		ldr	r0, .L202+8	@ D.5505,
 2562 003e FAE7     		b	.L200	@
 2563              	.L203:
 2564              		.align	2
 2565              	.L202:
 2566 0040 68C5FFFF 		.word	-15000
 2567 0044 E8040000 		.word	.LC78
 2568 0048 C8040000 		.word	.LC76
 2569              		.cfi_endproc
 2570              	.LFE19:
 2571              		.size	Can_CurrentSensor_Current_Test, .-Can_CurrentSensor_Current_Test
 2572              		.section	.text.Can_CurrentSensor_Voltage_Test,"ax",%progbits
 2573              		.align	2
 2574              		.global	Can_CurrentSensor_Voltage_Test
 2575              		.code	16
 2576              		.thumb_func
 2577              		.type	Can_CurrentSensor_Voltage_Test, %function
 2578              	Can_CurrentSensor_Voltage_Test:
 2579              	.LFB20:
 450:../MY17/lib/MY17_Can_Library/MY17_Can_Library_Test.c **** 
 451:../MY17/lib/MY17_Can_Library/MY17_Can_Library_Test.c **** 
 452:../MY17/lib/MY17_Can_Library/MY17_Can_Library_Test.c **** void Can_CurrentSensor_Voltage_Test(PRINT print) {
 2580              		.loc 1 452 0
 2581              		.cfi_startproc
 2582              	.LVL162:
 2583 0000 10B5     		push	{r4, lr}	@
 2584              		.cfi_def_cfa_offset 8
 2585              		.cfi_offset 4, -8
 2586              		.cfi_offset 14, -4
 453:../MY17/lib/MY17_Can_Library/MY17_Can_Library_Test.c ****   Can_CurrentSensor_Voltage_T begin;
 454:../MY17/lib/MY17_Can_Library/MY17_Can_Library_Test.c ****   begin.voltage_mV = 300000;
 2587              		.loc 1 454 0
 2588 0002 0F4B     		ldr	r3, .L207	@ tmp114,
 452:../MY17/lib/MY17_Can_Library/MY17_Can_Library_Test.c ****   Can_CurrentSensor_Voltage_T begin;
 2589              		.loc 1 452 0
 2590 0004 88B0     		sub	sp, sp, #32	@,,
 2591              		.cfi_def_cfa_offset 40
 455:../MY17/lib/MY17_Can_Library/MY17_Can_Library_Test.c **** 
 456:../MY17/lib/MY17_Can_Library/MY17_Can_Library_Test.c ****   BOILERPLATE(Can_CurrentSensor_Voltage);
 2592              		.loc 1 456 0
 2593 0006 05A9     		add	r1, sp, #20	@ tmp125,,
 452:../MY17/lib/MY17_Can_Library/MY17_Can_Library_Test.c ****   Can_CurrentSensor_Voltage_T begin;
 2594              		.loc 1 452 0
 2595 0008 041C     		mov	r4, r0	@ print, print
 2596              		.loc 1 456 0
 2597 000a 6846     		mov	r0, sp	@,
 2598              	.LVL163:
 454:../MY17/lib/MY17_Can_Library/MY17_Can_Library_Test.c **** 
 2599              		.loc 1 454 0
 2600 000c 0093     		str	r3, [sp]	@ tmp114, begin.voltage_mV
 2601              		.loc 1 456 0
 2602 000e FFF7FEFF 		bl	Can_CurrentSensor_Voltage_ToCan	@
ARM GAS  /var/folders/9j/_txx49hn253_s3mnzkyxlj8m0000gp/T//ccxigpJH.s 			page 59


 2603              	.LVL164:
 2604 0012 1720     		mov	r0, #23	@ tmp126,
 2605 0014 0022     		mov	r2, #0	@ tmp117,
 2606 0016 0023     		mov	r3, #0	@,
 2607 0018 6844     		add	r0, r0, sp	@ tmp126,
 2608 001a 02A9     		add	r1, sp, #8	@,,
 2609 001c 0292     		str	r2, [sp, #8]	@ tmp117, end_bitstring
 2610 001e 0393     		str	r3, [sp, #12]	@ tmp117,
 2611 0020 FFF7FEFF 		bl	to_bitstring	@
 2612              	.LVL165:
 2613 0024 05A8     		add	r0, sp, #20	@ tmp127,,
 2614 0026 01A9     		add	r1, sp, #4	@,,
 2615 0028 FFF7FEFF 		bl	Can_CurrentSensor_Voltage_FromCan	@
 2616              	.LVL166:
 457:../MY17/lib/MY17_Can_Library/MY17_Can_Library_Test.c **** 
 458:../MY17/lib/MY17_Can_Library/MY17_Can_Library_Test.c ****   bool equal = begin.voltage_mV == end.voltage_mV;
 459:../MY17/lib/MY17_Can_Library/MY17_Can_Library_Test.c ****   print(equal ? "CurrentSensor_Voltage_PASS\r\n" : "CurrentSensor_Voltage_FAIL!!!!!!!!!!!!!!!!\r\n"
 2617              		.loc 1 459 0
 2618 002c 009B     		ldr	r3, [sp]	@ tmp128, begin.voltage_mV
 2619 002e 019A     		ldr	r2, [sp, #4]	@ tmp129, end.voltage_mV
 2620 0030 9342     		cmp	r3, r2	@ tmp128, tmp129
 2621 0032 03D0     		beq	.L206	@,
 2622 0034 0348     		ldr	r0, .L207+4	@ D.5511,
 2623              	.L205:
 2624              		.loc 1 459 0 is_stmt 0 discriminator 4
 2625 0036 A047     		blx	r4	@ print
 2626              	.LVL167:
 460:../MY17/lib/MY17_Can_Library/MY17_Can_Library_Test.c **** }
 2627              		.loc 1 460 0 is_stmt 1 discriminator 4
 2628 0038 08B0     		add	sp, sp, #32	@,,
 2629              		@ sp needed	@
 2630              	.LVL168:
 2631 003a 10BD     		pop	{r4, pc}
 2632              	.LVL169:
 2633              	.L206:
 459:../MY17/lib/MY17_Can_Library/MY17_Can_Library_Test.c **** }
 2634              		.loc 1 459 0
 2635 003c 0248     		ldr	r0, .L207+8	@ D.5511,
 2636 003e FAE7     		b	.L205	@
 2637              	.L208:
 2638              		.align	2
 2639              	.L207:
 2640 0040 E0930400 		.word	300000
 2641 0044 38050000 		.word	.LC82
 2642 0048 18050000 		.word	.LC80
 2643              		.cfi_endproc
 2644              	.LFE20:
 2645              		.size	Can_CurrentSensor_Voltage_Test, .-Can_CurrentSensor_Voltage_Test
 2646              		.section	.text.Can_CurrentSensor_Power_Test,"ax",%progbits
 2647              		.align	2
 2648              		.global	Can_CurrentSensor_Power_Test
 2649              		.code	16
 2650              		.thumb_func
 2651              		.type	Can_CurrentSensor_Power_Test, %function
 2652              	Can_CurrentSensor_Power_Test:
 2653              	.LFB21:
 461:../MY17/lib/MY17_Can_Library/MY17_Can_Library_Test.c **** 
ARM GAS  /var/folders/9j/_txx49hn253_s3mnzkyxlj8m0000gp/T//ccxigpJH.s 			page 60


 462:../MY17/lib/MY17_Can_Library/MY17_Can_Library_Test.c **** void Can_CurrentSensor_Power_Test(PRINT print) {
 2654              		.loc 1 462 0
 2655              		.cfi_startproc
 2656              	.LVL170:
 2657 0000 10B5     		push	{r4, lr}	@
 2658              		.cfi_def_cfa_offset 8
 2659              		.cfi_offset 4, -8
 2660              		.cfi_offset 14, -4
 463:../MY17/lib/MY17_Can_Library/MY17_Can_Library_Test.c ****   Can_CurrentSensor_Power_T begin;
 464:../MY17/lib/MY17_Can_Library/MY17_Can_Library_Test.c ****   begin.power_W = 80000;
 2661              		.loc 1 464 0
 2662 0002 0F4B     		ldr	r3, .L212	@ tmp114,
 462:../MY17/lib/MY17_Can_Library/MY17_Can_Library_Test.c ****   Can_CurrentSensor_Power_T begin;
 2663              		.loc 1 462 0
 2664 0004 88B0     		sub	sp, sp, #32	@,,
 2665              		.cfi_def_cfa_offset 40
 465:../MY17/lib/MY17_Can_Library/MY17_Can_Library_Test.c **** 
 466:../MY17/lib/MY17_Can_Library/MY17_Can_Library_Test.c ****   BOILERPLATE(Can_CurrentSensor_Power);
 2666              		.loc 1 466 0
 2667 0006 05A9     		add	r1, sp, #20	@ tmp125,,
 462:../MY17/lib/MY17_Can_Library/MY17_Can_Library_Test.c ****   Can_CurrentSensor_Power_T begin;
 2668              		.loc 1 462 0
 2669 0008 041C     		mov	r4, r0	@ print, print
 2670              		.loc 1 466 0
 2671 000a 6846     		mov	r0, sp	@,
 2672              	.LVL171:
 464:../MY17/lib/MY17_Can_Library/MY17_Can_Library_Test.c **** 
 2673              		.loc 1 464 0
 2674 000c 0093     		str	r3, [sp]	@ tmp114, begin.power_W
 2675              		.loc 1 466 0
 2676 000e FFF7FEFF 		bl	Can_CurrentSensor_Power_ToCan	@
 2677              	.LVL172:
 2678 0012 1720     		mov	r0, #23	@ tmp126,
 2679 0014 0022     		mov	r2, #0	@ tmp117,
 2680 0016 0023     		mov	r3, #0	@,
 2681 0018 6844     		add	r0, r0, sp	@ tmp126,
 2682 001a 02A9     		add	r1, sp, #8	@,,
 2683 001c 0292     		str	r2, [sp, #8]	@ tmp117, end_bitstring
 2684 001e 0393     		str	r3, [sp, #12]	@ tmp117,
 2685 0020 FFF7FEFF 		bl	to_bitstring	@
 2686              	.LVL173:
 2687 0024 05A8     		add	r0, sp, #20	@ tmp127,,
 2688 0026 01A9     		add	r1, sp, #4	@,,
 2689 0028 FFF7FEFF 		bl	Can_CurrentSensor_Power_FromCan	@
 2690              	.LVL174:
 467:../MY17/lib/MY17_Can_Library/MY17_Can_Library_Test.c **** 
 468:../MY17/lib/MY17_Can_Library/MY17_Can_Library_Test.c ****   bool equal = begin.power_W == end.power_W;
 469:../MY17/lib/MY17_Can_Library/MY17_Can_Library_Test.c ****   print(equal ? "CurrentSensor_Power_PASS\r\n" : "CurrentSensor_Power_FAIL!!!!!!!!!!!!!!!!\r\n");
 2691              		.loc 1 469 0
 2692 002c 009B     		ldr	r3, [sp]	@ tmp128, begin.power_W
 2693 002e 019A     		ldr	r2, [sp, #4]	@ tmp129, end.power_W
 2694 0030 9342     		cmp	r3, r2	@ tmp128, tmp129
 2695 0032 03D0     		beq	.L211	@,
 2696 0034 0348     		ldr	r0, .L212+4	@ D.5517,
 2697              	.L210:
 2698              		.loc 1 469 0 is_stmt 0 discriminator 4
 2699 0036 A047     		blx	r4	@ print
ARM GAS  /var/folders/9j/_txx49hn253_s3mnzkyxlj8m0000gp/T//ccxigpJH.s 			page 61


 2700              	.LVL175:
 470:../MY17/lib/MY17_Can_Library/MY17_Can_Library_Test.c **** }
 2701              		.loc 1 470 0 is_stmt 1 discriminator 4
 2702 0038 08B0     		add	sp, sp, #32	@,,
 2703              		@ sp needed	@
 2704              	.LVL176:
 2705 003a 10BD     		pop	{r4, pc}
 2706              	.LVL177:
 2707              	.L211:
 469:../MY17/lib/MY17_Can_Library/MY17_Can_Library_Test.c **** }
 2708              		.loc 1 469 0
 2709 003c 0248     		ldr	r0, .L212+8	@ D.5517,
 2710 003e FAE7     		b	.L210	@
 2711              	.L213:
 2712              		.align	2
 2713              	.L212:
 2714 0040 80380100 		.word	80000
 2715 0044 84050000 		.word	.LC86
 2716 0048 68050000 		.word	.LC84
 2717              		.cfi_endproc
 2718              	.LFE21:
 2719              		.size	Can_CurrentSensor_Power_Test, .-Can_CurrentSensor_Power_Test
 2720              		.section	.text.Can_CurrentSensor_Energy_Test,"ax",%progbits
 2721              		.align	2
 2722              		.global	Can_CurrentSensor_Energy_Test
 2723              		.code	16
 2724              		.thumb_func
 2725              		.type	Can_CurrentSensor_Energy_Test, %function
 2726              	Can_CurrentSensor_Energy_Test:
 2727              	.LFB22:
 471:../MY17/lib/MY17_Can_Library/MY17_Can_Library_Test.c **** 
 472:../MY17/lib/MY17_Can_Library/MY17_Can_Library_Test.c **** void Can_CurrentSensor_Energy_Test(PRINT print) {
 2728              		.loc 1 472 0
 2729              		.cfi_startproc
 2730              	.LVL178:
 2731 0000 10B5     		push	{r4, lr}	@
 2732              		.cfi_def_cfa_offset 8
 2733              		.cfi_offset 4, -8
 2734              		.cfi_offset 14, -4
 473:../MY17/lib/MY17_Can_Library/MY17_Can_Library_Test.c ****   Can_CurrentSensor_Energy_T begin;
 474:../MY17/lib/MY17_Can_Library/MY17_Can_Library_Test.c ****   begin.energy_Wh = 10000;
 2735              		.loc 1 474 0
 2736 0002 0F4B     		ldr	r3, .L217	@ tmp114,
 472:../MY17/lib/MY17_Can_Library/MY17_Can_Library_Test.c ****   Can_CurrentSensor_Energy_T begin;
 2737              		.loc 1 472 0
 2738 0004 88B0     		sub	sp, sp, #32	@,,
 2739              		.cfi_def_cfa_offset 40
 475:../MY17/lib/MY17_Can_Library/MY17_Can_Library_Test.c **** 
 476:../MY17/lib/MY17_Can_Library/MY17_Can_Library_Test.c ****   BOILERPLATE(Can_CurrentSensor_Energy);
 2740              		.loc 1 476 0
 2741 0006 05A9     		add	r1, sp, #20	@ tmp125,,
 472:../MY17/lib/MY17_Can_Library/MY17_Can_Library_Test.c ****   Can_CurrentSensor_Energy_T begin;
 2742              		.loc 1 472 0
 2743 0008 041C     		mov	r4, r0	@ print, print
 2744              		.loc 1 476 0
 2745 000a 6846     		mov	r0, sp	@,
 2746              	.LVL179:
ARM GAS  /var/folders/9j/_txx49hn253_s3mnzkyxlj8m0000gp/T//ccxigpJH.s 			page 62


 474:../MY17/lib/MY17_Can_Library/MY17_Can_Library_Test.c **** 
 2747              		.loc 1 474 0
 2748 000c 0093     		str	r3, [sp]	@ tmp114, begin.energy_Wh
 2749              		.loc 1 476 0
 2750 000e FFF7FEFF 		bl	Can_CurrentSensor_Energy_ToCan	@
 2751              	.LVL180:
 2752 0012 1720     		mov	r0, #23	@ tmp126,
 2753 0014 0022     		mov	r2, #0	@ tmp117,
 2754 0016 0023     		mov	r3, #0	@,
 2755 0018 6844     		add	r0, r0, sp	@ tmp126,
 2756 001a 02A9     		add	r1, sp, #8	@,,
 2757 001c 0292     		str	r2, [sp, #8]	@ tmp117, end_bitstring
 2758 001e 0393     		str	r3, [sp, #12]	@ tmp117,
 2759 0020 FFF7FEFF 		bl	to_bitstring	@
 2760              	.LVL181:
 2761 0024 05A8     		add	r0, sp, #20	@ tmp127,,
 2762 0026 01A9     		add	r1, sp, #4	@,,
 2763 0028 FFF7FEFF 		bl	Can_CurrentSensor_Energy_FromCan	@
 2764              	.LVL182:
 477:../MY17/lib/MY17_Can_Library/MY17_Can_Library_Test.c **** 
 478:../MY17/lib/MY17_Can_Library/MY17_Can_Library_Test.c ****   bool equal = begin.energy_Wh == end.energy_Wh;
 479:../MY17/lib/MY17_Can_Library/MY17_Can_Library_Test.c ****   print(equal ? "CurrentSensor_Energy_PASS\r\n" : "CurrentSensor_Energy_FAIL!!!!!!!!!!!!!!!!\r\n");
 2765              		.loc 1 479 0
 2766 002c 009B     		ldr	r3, [sp]	@ tmp128, begin.energy_Wh
 2767 002e 019A     		ldr	r2, [sp, #4]	@ tmp129, end.energy_Wh
 2768 0030 9342     		cmp	r3, r2	@ tmp128, tmp129
 2769 0032 03D0     		beq	.L216	@,
 2770 0034 0348     		ldr	r0, .L217+4	@ D.5523,
 2771              	.L215:
 2772              		.loc 1 479 0 is_stmt 0 discriminator 4
 2773 0036 A047     		blx	r4	@ print
 2774              	.LVL183:
 480:../MY17/lib/MY17_Can_Library/MY17_Can_Library_Test.c **** }
 2775              		.loc 1 480 0 is_stmt 1 discriminator 4
 2776 0038 08B0     		add	sp, sp, #32	@,,
 2777              		@ sp needed	@
 2778              	.LVL184:
 2779 003a 10BD     		pop	{r4, pc}
 2780              	.LVL185:
 2781              	.L216:
 479:../MY17/lib/MY17_Can_Library/MY17_Can_Library_Test.c **** }
 2782              		.loc 1 479 0
 2783 003c 0248     		ldr	r0, .L217+8	@ D.5523,
 2784 003e FAE7     		b	.L215	@
 2785              	.L218:
 2786              		.align	2
 2787              	.L217:
 2788 0040 10270000 		.word	10000
 2789 0044 CC050000 		.word	.LC90
 2790 0048 B0050000 		.word	.LC88
 2791              		.cfi_endproc
 2792              	.LFE22:
 2793              		.size	Can_CurrentSensor_Energy_Test, .-Can_CurrentSensor_Energy_Test
 2794              		.section	.text.Can_All_Tests,"ax",%progbits
 2795              		.align	2
 2796              		.global	Can_All_Tests
 2797              		.code	16
ARM GAS  /var/folders/9j/_txx49hn253_s3mnzkyxlj8m0000gp/T//ccxigpJH.s 			page 63


 2798              		.thumb_func
 2799              		.type	Can_All_Tests, %function
 2800              	Can_All_Tests:
 2801              	.LFB23:
 481:../MY17/lib/MY17_Can_Library/MY17_Can_Library_Test.c **** 
 482:../MY17/lib/MY17_Can_Library/MY17_Can_Library_Test.c **** void Can_All_Tests(PRINT print) {
 2802              		.loc 1 482 0
 2803              		.cfi_startproc
 2804              	.LVL186:
 2805 0000 10B5     		push	{r4, lr}	@
 2806              		.cfi_def_cfa_offset 8
 2807              		.cfi_offset 4, -8
 2808              		.cfi_offset 14, -4
 2809              		.loc 1 482 0
 2810 0002 041C     		mov	r4, r0	@ print, print
 483:../MY17/lib/MY17_Can_Library/MY17_Can_Library_Test.c ****   print("\n*********TEST RESULTS **************\n\n");
 2811              		.loc 1 483 0
 2812 0004 2248     		ldr	r0, .L220	@,
 2813              	.LVL187:
 2814 0006 A047     		blx	r4	@ print
 2815              	.LVL188:
 484:../MY17/lib/MY17_Can_Library/MY17_Can_Library_Test.c **** 
 485:../MY17/lib/MY17_Can_Library/MY17_Can_Library_Test.c ****   Can_FrontCanNode_DriverOutput_Test(print);
 2816              		.loc 1 485 0
 2817 0008 201C     		mov	r0, r4	@, print
 2818 000a FFF7FEFF 		bl	Can_FrontCanNode_DriverOutput_Test	@
 2819              	.LVL189:
 486:../MY17/lib/MY17_Can_Library/MY17_Can_Library_Test.c ****   Can_FrontCanNode_RawValues_Test(print);
 2820              		.loc 1 486 0
 2821 000e 201C     		mov	r0, r4	@, print
 2822 0010 FFF7FEFF 		bl	Can_FrontCanNode_RawValues_Test	@
 2823              	.LVL190:
 487:../MY17/lib/MY17_Can_Library/MY17_Can_Library_Test.c ****   Can_FrontCanNode_WheelSpeed_Test(print);
 2824              		.loc 1 487 0
 2825 0014 201C     		mov	r0, r4	@, print
 2826 0016 FFF7FEFF 		bl	Can_FrontCanNode_WheelSpeed_Test	@
 2827              	.LVL191:
 488:../MY17/lib/MY17_Can_Library/MY17_Can_Library_Test.c ****   Can_RearCanNode_Heartbeat_Test(print);
 2828              		.loc 1 488 0
 2829 001a 201C     		mov	r0, r4	@, print
 2830 001c FFF7FEFF 		bl	Can_RearCanNode_Heartbeat_Test	@
 2831              	.LVL192:
 489:../MY17/lib/MY17_Can_Library/MY17_Can_Library_Test.c ****   Can_RearCanNode_WheelSpeed_Test(print);
 2832              		.loc 1 489 0
 2833 0020 201C     		mov	r0, r4	@, print
 2834 0022 FFF7FEFF 		bl	Can_RearCanNode_WheelSpeed_Test	@
 2835              	.LVL193:
 490:../MY17/lib/MY17_Can_Library/MY17_Can_Library_Test.c **** 
 491:../MY17/lib/MY17_Can_Library/MY17_Can_Library_Test.c ****   Can_Vcu_BmsHeartbeat_Test(print);
 2836              		.loc 1 491 0
 2837 0026 201C     		mov	r0, r4	@, print
 2838 0028 FFF7FEFF 		bl	Can_Vcu_BmsHeartbeat_Test	@
 2839              	.LVL194:
 492:../MY17/lib/MY17_Can_Library/MY17_Can_Library_Test.c ****   Can_Vcu_DashHeartbeat_Test(print);
 2840              		.loc 1 492 0
 2841 002c 201C     		mov	r0, r4	@, print
 2842 002e FFF7FEFF 		bl	Can_Vcu_DashHeartbeat_Test	@
ARM GAS  /var/folders/9j/_txx49hn253_s3mnzkyxlj8m0000gp/T//ccxigpJH.s 			page 64


 2843              	.LVL195:
 493:../MY17/lib/MY17_Can_Library/MY17_Can_Library_Test.c ****   Can_Vcu_MCRequest_Test(print);
 2844              		.loc 1 493 0
 2845 0032 201C     		mov	r0, r4	@, print
 2846 0034 FFF7FEFF 		bl	Can_Vcu_MCRequest_Test	@
 2847              	.LVL196:
 494:../MY17/lib/MY17_Can_Library/MY17_Can_Library_Test.c ****   Can_Vcu_MCTorque_Test(print);
 2848              		.loc 1 494 0
 2849 0038 201C     		mov	r0, r4	@, print
 2850 003a FFF7FEFF 		bl	Can_Vcu_MCTorque_Test	@
 2851              	.LVL197:
 495:../MY17/lib/MY17_Can_Library/MY17_Can_Library_Test.c **** 
 496:../MY17/lib/MY17_Can_Library/MY17_Can_Library_Test.c ****   Can_Bms_Heartbeat_Test(print);
 2852              		.loc 1 496 0
 2853 003e 201C     		mov	r0, r4	@, print
 2854 0040 FFF7FEFF 		bl	Can_Bms_Heartbeat_Test	@
 2855              	.LVL198:
 497:../MY17/lib/MY17_Can_Library/MY17_Can_Library_Test.c ****   Can_Bms_CellTemps_Test(print);
 2856              		.loc 1 497 0
 2857 0044 201C     		mov	r0, r4	@, print
 2858 0046 FFF7FEFF 		bl	Can_Bms_CellTemps_Test	@
 2859              	.LVL199:
 498:../MY17/lib/MY17_Can_Library/MY17_Can_Library_Test.c ****   Can_Bms_PackStatus_Test(print);
 2860              		.loc 1 498 0
 2861 004a 201C     		mov	r0, r4	@, print
 2862 004c FFF7FEFF 		bl	Can_Bms_PackStatus_Test	@
 2863              	.LVL200:
 499:../MY17/lib/MY17_Can_Library/MY17_Can_Library_Test.c ****   Can_Bms_Error_Test(print);
 2864              		.loc 1 499 0
 2865 0050 201C     		mov	r0, r4	@, print
 2866 0052 FFF7FEFF 		bl	Can_Bms_Error_Test	@
 2867              	.LVL201:
 500:../MY17/lib/MY17_Can_Library/MY17_Can_Library_Test.c **** 
 501:../MY17/lib/MY17_Can_Library/MY17_Can_Library_Test.c ****   Can_Dash_Heartbeat_Test(print);
 2868              		.loc 1 501 0
 2869 0056 201C     		mov	r0, r4	@, print
 2870 0058 FFF7FEFF 		bl	Can_Dash_Heartbeat_Test	@
 2871              	.LVL202:
 502:../MY17/lib/MY17_Can_Library/MY17_Can_Library_Test.c ****   Can_Dash_Request_Test(print);
 2872              		.loc 1 502 0
 2873 005c 201C     		mov	r0, r4	@, print
 2874 005e FFF7FEFF 		bl	Can_Dash_Request_Test	@
 2875              	.LVL203:
 503:../MY17/lib/MY17_Can_Library/MY17_Can_Library_Test.c **** 
 504:../MY17/lib/MY17_Can_Library/MY17_Can_Library_Test.c ****   Can_MC_DataReading_Test(print);
 2876              		.loc 1 504 0
 2877 0062 201C     		mov	r0, r4	@, print
 2878 0064 FFF7FEFF 		bl	Can_MC_DataReading_Test	@
 2879              	.LVL204:
 505:../MY17/lib/MY17_Can_Library/MY17_Can_Library_Test.c ****   Can_MC_ErrorAndWarning_Test(print);
 2880              		.loc 1 505 0
 2881 0068 201C     		mov	r0, r4	@, print
 2882 006a FFF7FEFF 		bl	Can_MC_ErrorAndWarning_Test	@
 2883              	.LVL205:
 506:../MY17/lib/MY17_Can_Library/MY17_Can_Library_Test.c ****   Can_MC_State_Test(print);
 2884              		.loc 1 506 0
 2885 006e 201C     		mov	r0, r4	@, print
ARM GAS  /var/folders/9j/_txx49hn253_s3mnzkyxlj8m0000gp/T//ccxigpJH.s 			page 65


 2886 0070 FFF7FEFF 		bl	Can_MC_State_Test	@
 2887              	.LVL206:
 507:../MY17/lib/MY17_Can_Library/MY17_Can_Library_Test.c **** 
 508:../MY17/lib/MY17_Can_Library/MY17_Can_Library_Test.c ****   Can_CurrentSensor_Current_Test(print);
 2888              		.loc 1 508 0
 2889 0074 201C     		mov	r0, r4	@, print
 2890 0076 FFF7FEFF 		bl	Can_CurrentSensor_Current_Test	@
 2891              	.LVL207:
 509:../MY17/lib/MY17_Can_Library/MY17_Can_Library_Test.c ****   Can_CurrentSensor_Voltage_Test(print);
 2892              		.loc 1 509 0
 2893 007a 201C     		mov	r0, r4	@, print
 2894 007c FFF7FEFF 		bl	Can_CurrentSensor_Voltage_Test	@
 2895              	.LVL208:
 510:../MY17/lib/MY17_Can_Library/MY17_Can_Library_Test.c ****   Can_CurrentSensor_Power_Test(print);
 2896              		.loc 1 510 0
 2897 0080 201C     		mov	r0, r4	@, print
 2898 0082 FFF7FEFF 		bl	Can_CurrentSensor_Power_Test	@
 2899              	.LVL209:
 511:../MY17/lib/MY17_Can_Library/MY17_Can_Library_Test.c ****   Can_CurrentSensor_Energy_Test(print);
 2900              		.loc 1 511 0
 2901 0086 201C     		mov	r0, r4	@, print
 2902 0088 FFF7FEFF 		bl	Can_CurrentSensor_Energy_Test	@
 2903              	.LVL210:
 512:../MY17/lib/MY17_Can_Library/MY17_Can_Library_Test.c **** }
 2904              		.loc 1 512 0
 2905              		@ sp needed	@
 2906              	.LVL211:
 2907 008c 10BD     		pop	{r4, pc}
 2908              	.L221:
 2909 008e C046     		.align	2
 2910              	.L220:
 2911 0090 F8050000 		.word	.LC92
 2912              		.cfi_endproc
 2913              	.LFE23:
 2914              		.size	Can_All_Tests, .-Can_All_Tests
 2915              		.section	.rodata.str1.4,"aMS",%progbits,1
 2916              		.align	2
 2917              	.LC0:
 2918 0000 3100     		.ascii	"1\000"
 2919 0002 0000     		.space	2
 2920              	.LC2:
 2921 0004 3000     		.ascii	"0\000"
 2922 0006 0000     		.space	2
 2923              	.LC4:
 2924 0008 46726F6E 		.ascii	"FrontCanNode_DriverOutput_PASS\015\012\000"
 2924      7443616E 
 2924      4E6F6465 
 2924      5F447269 
 2924      7665724F 
 2925 0029 000000   		.space	3
 2926              	.LC6:
 2927 002c 46726F6E 		.ascii	"FrontCanNode_DriverOutput_FAIL!!!!!!!!!!!!!!!!\015\012"
 2927      7443616E 
 2927      4E6F6465 
 2927      5F447269 
 2927      7665724F 
 2928 005c 00       		.ascii	"\000"
ARM GAS  /var/folders/9j/_txx49hn253_s3mnzkyxlj8m0000gp/T//ccxigpJH.s 			page 66


 2929 005d 000000   		.space	3
 2930              	.LC8:
 2931 0060 46726F6E 		.ascii	"FrontCanNode_RawValues_FAIL!!!!!!!!!!!!!!!!\015\012"
 2931      7443616E 
 2931      4E6F6465 
 2931      5F526177 
 2931      56616C75 
 2932 008d 00       		.ascii	"\000"
 2933 008e 0000     		.space	2
 2934              	.LC10:
 2935 0090 46726F6E 		.ascii	"FrontCanNode_RawValues_PASS\015\012\000"
 2935      7443616E 
 2935      4E6F6465 
 2935      5F526177 
 2935      56616C75 
 2936 00ae 0000     		.space	2
 2937              	.LC12:
 2938 00b0 46726F6E 		.ascii	"FrontCanNode_WheelSpeed_FAIL!!!!!!!!!!!!!!!!\015\012"
 2938      7443616E 
 2938      4E6F6465 
 2938      5F576865 
 2938      656C5370 
 2939 00de 00       		.ascii	"\000"
 2940 00df 00       		.space	1
 2941              	.LC14:
 2942 00e0 46726F6E 		.ascii	"FrontCanNode_WheelSpeed_PASS\015\012\000"
 2942      7443616E 
 2942      4E6F6465 
 2942      5F576865 
 2942      656C5370 
 2943 00ff 00       		.space	1
 2944              	.LC16:
 2945 0100 52656172 		.ascii	"RearCanNode_Heartbeat_PASS\015\012\000"
 2945      43616E4E 
 2945      6F64655F 
 2945      48656172 
 2945      74626561 
 2946 011d 000000   		.space	3
 2947              	.LC18:
 2948 0120 52656172 		.ascii	"RearCanNode_Heartbeat_FAIL!!!!!!!!!!!!!!!!\015\012\000"
 2948      43616E4E 
 2948      6F64655F 
 2948      48656172 
 2948      74626561 
 2949 014d 000000   		.space	3
 2950              	.LC20:
 2951 0150 52656172 		.ascii	"RearCanNode_WheelSpeed_FAIL!!!!!!!!!!!!!!!!\015\012"
 2951      43616E4E 
 2951      6F64655F 
 2951      57686565 
 2951      6C537065 
 2952 017d 00       		.ascii	"\000"
 2953 017e 0000     		.space	2
 2954              	.LC22:
 2955 0180 52656172 		.ascii	"RearCanNode_WheelSpeed_PASS\015\012\000"
 2955      43616E4E 
 2955      6F64655F 
ARM GAS  /var/folders/9j/_txx49hn253_s3mnzkyxlj8m0000gp/T//ccxigpJH.s 			page 67


 2955      57686565 
 2955      6C537065 
 2956 019e 0000     		.space	2
 2957              	.LC24:
 2958 01a0 5663755F 		.ascii	"Vcu_BmsHeartbeat_PASS\015\012\000"
 2958      426D7348 
 2958      65617274 
 2958      62656174 
 2958      5F504153 
 2959              	.LC26:
 2960 01b8 5663755F 		.ascii	"Vcu_BmsHeartbeat_FAIL!!!!!!!!!!!!!!!!\015\012\000"
 2960      426D7348 
 2960      65617274 
 2960      62656174 
 2960      5F464149 
 2961              	.LC28:
 2962 01e0 5663755F 		.ascii	"Vcu_DashHeartbeat_PASS\015\012\000"
 2962      44617368 
 2962      48656172 
 2962      74626561 
 2962      745F5041 
 2963 01f9 000000   		.space	3
 2964              	.LC30:
 2965 01fc 5663755F 		.ascii	"Vcu_DashHeartbeat_FAIL!!!!!!!!!!!!!!!!\015\012\000"
 2965      44617368 
 2965      48656172 
 2965      74626561 
 2965      745F4641 
 2966 0225 000000   		.space	3
 2967              	.LC32:
 2968 0228 5663755F 		.ascii	"Vcu_MCRequest_FAIL!!!!!!!!!!!!!!!!\015\012\000"
 2968      4D435265 
 2968      71756573 
 2968      745F4641 
 2968      494C2121 
 2969 024d 000000   		.space	3
 2970              	.LC34:
 2971 0250 5663755F 		.ascii	"Vcu_MCRequest_PASS\015\012\000"
 2971      4D435265 
 2971      71756573 
 2971      745F5041 
 2971      53530D0A 
 2972 0265 000000   		.space	3
 2973              	.LC36:
 2974 0268 5663755F 		.ascii	"Vcu_MCTorque_PASS\015\012\000"
 2974      4D43546F 
 2974      72717565 
 2974      5F504153 
 2974      530D0A00 
 2975              	.LC38:
 2976 027c 5663755F 		.ascii	"Vcu_MCTorque_FAIL!!!!!!!!!!!!!!!!\015\012\000"
 2976      4D43546F 
 2976      72717565 
 2976      5F464149 
 2976      4C212121 
 2977              	.LC40:
 2978 02a0 426D735F 		.ascii	"Bms_Heartbeat_PASS\015\012\000"
ARM GAS  /var/folders/9j/_txx49hn253_s3mnzkyxlj8m0000gp/T//ccxigpJH.s 			page 68


 2978      48656172 
 2978      74626561 
 2978      745F5041 
 2978      53530D0A 
 2979 02b5 000000   		.space	3
 2980              	.LC42:
 2981 02b8 426D735F 		.ascii	"Bms_Heartbeat_FAIL!!!!!!!!!!!!!!!!\015\012\000"
 2981      48656172 
 2981      74626561 
 2981      745F4641 
 2981      494C2121 
 2982 02dd 000000   		.space	3
 2983              	.LC44:
 2984 02e0 426D735F 		.ascii	"Bms_CellTemps_FAIL!!!!!!!!!!!!!!!!\015\012\000"
 2984      43656C6C 
 2984      54656D70 
 2984      735F4641 
 2984      494C2121 
 2985 0305 000000   		.space	3
 2986              	.LC46:
 2987 0308 426D735F 		.ascii	"Bms_CellTemps_PASS\015\012\000"
 2987      43656C6C 
 2987      54656D70 
 2987      735F5041 
 2987      53530D0A 
 2988 031d 000000   		.space	3
 2989              	.LC48:
 2990 0320 426D735F 		.ascii	"Bms_PackStatus_PASS\015\012\000"
 2990      5061636B 
 2990      53746174 
 2990      75735F50 
 2990      4153530D 
 2991 0336 0000     		.space	2
 2992              	.LC50:
 2993 0338 426D735F 		.ascii	"Bms_PackStatus_FAIL!!!!!!!!!!!!!!!!\015\012\000"
 2993      5061636B 
 2993      53746174 
 2993      75735F46 
 2993      41494C21 
 2994 035e 0000     		.space	2
 2995              	.LC52:
 2996 0360 426D735F 		.ascii	"Bms_Error_PASS\015\012\000"
 2996      4572726F 
 2996      725F5041 
 2996      53530D0A 
 2996      00
 2997 0371 000000   		.space	3
 2998              	.LC54:
 2999 0374 426D735F 		.ascii	"Bms_Error_FAIL!!!!!!!!!!!!!!!!\015\012\000"
 2999      4572726F 
 2999      725F4641 
 2999      494C2121 
 2999      21212121 
 3000 0395 000000   		.space	3
 3001              	.LC56:
 3002 0398 44617368 		.ascii	"Dash_Heartbeat_PASS\015\012\000"
 3002      5F486561 
ARM GAS  /var/folders/9j/_txx49hn253_s3mnzkyxlj8m0000gp/T//ccxigpJH.s 			page 69


 3002      72746265 
 3002      61745F50 
 3002      4153530D 
 3003 03ae 0000     		.space	2
 3004              	.LC58:
 3005 03b0 44617368 		.ascii	"Dash_Heartbeat_FAIL!!!!!!!!!!!!!!!!\015\012\000"
 3005      5F486561 
 3005      72746265 
 3005      61745F46 
 3005      41494C21 
 3006 03d6 0000     		.space	2
 3007              	.LC60:
 3008 03d8 44617368 		.ascii	"Dash_Request_PASS\015\012\000"
 3008      5F526571 
 3008      75657374 
 3008      5F504153 
 3008      530D0A00 
 3009              	.LC62:
 3010 03ec 44617368 		.ascii	"Dash_Request_FAIL!!!!!!!!!!!!!!!!\015\012\000"
 3010      5F526571 
 3010      75657374 
 3010      5F464149 
 3010      4C212121 
 3011              	.LC64:
 3012 0410 4D435F44 		.ascii	"MC_DataReading_FAIL!!!!!!!!!!!!!!!!\015\012\000"
 3012      61746152 
 3012      65616469 
 3012      6E675F46 
 3012      41494C21 
 3013 0436 0000     		.space	2
 3014              	.LC66:
 3015 0438 4D435F44 		.ascii	"MC_DataReading_PASS\015\012\000"
 3015      61746152 
 3015      65616469 
 3015      6E675F50 
 3015      4153530D 
 3016 044e 0000     		.space	2
 3017              	.LC68:
 3018 0450 4D435F45 		.ascii	"MC_ErrorAndWarning_FAIL!!!!!!!!!!!!!!!!\015\012\000"
 3018      72726F72 
 3018      416E6457 
 3018      61726E69 
 3018      6E675F46 
 3019 047a 0000     		.space	2
 3020              	.LC70:
 3021 047c 4D435F45 		.ascii	"MC_ErrorAndWarning_PASS\015\012\000"
 3021      72726F72 
 3021      416E6457 
 3021      61726E69 
 3021      6E675F50 
 3022 0496 0000     		.space	2
 3023              	.LC72:
 3024 0498 4D435F53 		.ascii	"MC_State_PASS\015\012\000"
 3024      74617465 
 3024      5F504153 
 3024      530D0A00 
 3025              	.LC74:
ARM GAS  /var/folders/9j/_txx49hn253_s3mnzkyxlj8m0000gp/T//ccxigpJH.s 			page 70


 3026 04a8 4D435F53 		.ascii	"MC_State_FAIL!!!!!!!!!!!!!!!!\015\012\000"
 3026      74617465 
 3026      5F464149 
 3026      4C212121 
 3026      21212121 
 3027              	.LC76:
 3028 04c8 43757272 		.ascii	"CurrentSensor_Current_PASS\015\012\000"
 3028      656E7453 
 3028      656E736F 
 3028      725F4375 
 3028      7272656E 
 3029 04e5 000000   		.space	3
 3030              	.LC78:
 3031 04e8 43757272 		.ascii	"CurrentSensor_Current_FAIL!!!!!!!!!!!!!!!!\015\012\000"
 3031      656E7453 
 3031      656E736F 
 3031      725F4375 
 3031      7272656E 
 3032 0515 000000   		.space	3
 3033              	.LC80:
 3034 0518 43757272 		.ascii	"CurrentSensor_Voltage_PASS\015\012\000"
 3034      656E7453 
 3034      656E736F 
 3034      725F566F 
 3034      6C746167 
 3035 0535 000000   		.space	3
 3036              	.LC82:
 3037 0538 43757272 		.ascii	"CurrentSensor_Voltage_FAIL!!!!!!!!!!!!!!!!\015\012\000"
 3037      656E7453 
 3037      656E736F 
 3037      725F566F 
 3037      6C746167 
 3038 0565 000000   		.space	3
 3039              	.LC84:
 3040 0568 43757272 		.ascii	"CurrentSensor_Power_PASS\015\012\000"
 3040      656E7453 
 3040      656E736F 
 3040      725F506F 
 3040      7765725F 
 3041 0583 00       		.space	1
 3042              	.LC86:
 3043 0584 43757272 		.ascii	"CurrentSensor_Power_FAIL!!!!!!!!!!!!!!!!\015\012\000"
 3043      656E7453 
 3043      656E736F 
 3043      725F506F 
 3043      7765725F 
 3044 05af 00       		.space	1
 3045              	.LC88:
 3046 05b0 43757272 		.ascii	"CurrentSensor_Energy_PASS\015\012\000"
 3046      656E7453 
 3046      656E736F 
 3046      725F456E 
 3046      65726779 
 3047              	.LC90:
 3048 05cc 43757272 		.ascii	"CurrentSensor_Energy_FAIL!!!!!!!!!!!!!!!!\015\012\000"
 3048      656E7453 
 3048      656E736F 
ARM GAS  /var/folders/9j/_txx49hn253_s3mnzkyxlj8m0000gp/T//ccxigpJH.s 			page 71


 3048      725F456E 
 3048      65726779 
 3049              	.LC92:
 3050 05f8 0A2A2A2A 		.ascii	"\012*********TEST RESULTS **************\012\012\000"
 3050      2A2A2A2A 
 3050      2A2A5445 
 3050      53542052 
 3050      4553554C 
 3051              		.text
 3052              	.Letext0:
 3053              		.file 2 "/usr/local/Cellar/gcc-arm-none-eabi/20150925/arm-none-eabi/include/machine/_default_types
 3054              		.file 3 "/usr/local/Cellar/gcc-arm-none-eabi/20150925/arm-none-eabi/include/sys/_stdint.h"
 3055              		.file 4 "../MY17/lib/MY17_Can_Library/can_raw.h"
 3056              		.file 5 "../MY17/lib/MY17_Can_Library/ids.h"
 3057              		.file 6 "../MY17/lib/MY17_Can_Library/can_node.h"
 3058              		.file 7 "../MY17/lib/MY17_Can_Library/vcu.h"
 3059              		.file 8 "../MY17/lib/MY17_Can_Library/bms.h"
 3060              		.file 9 "../MY17/lib/MY17_Can_Library/dash.h"
 3061              		.file 10 "../MY17/lib/MY17_Can_Library/mc.h"
 3062              		.file 11 "../MY17/lib/MY17_Can_Library/current_sensor.h"
 3063              		.file 12 "../MY17/lib/MY17_Can_Library/MY17_Can_Library.h"
 3064              		.section	.debug_info,"",%progbits
 3065              	.Ldebug_info0:
 3066 0000 FF200000 		.4byte	0x20ff
 3067 0004 0400     		.2byte	0x4
 3068 0006 00000000 		.4byte	.Ldebug_abbrev0
 3069 000a 04       		.byte	0x4
 3070 000b 01       		.uleb128 0x1
 3071 000c 50880000 		.4byte	.LASF1209
 3072 0010 01       		.byte	0x1
 3073 0011 34750000 		.4byte	.LASF1210
 3074 0015 6B1D0000 		.4byte	.LASF1211
 3075 0019 18000000 		.4byte	.Ldebug_ranges0+0x18
 3076 001d 00000000 		.4byte	0
 3077 0021 00000000 		.4byte	.Ldebug_line0
 3078 0025 00000000 		.4byte	.Ldebug_macro0
 3079 0029 02       		.uleb128 0x2
 3080 002a 08       		.byte	0x8
 3081 002b 07       		.byte	0x7
 3082 002c 65670000 		.4byte	.LASF917
 3083 0030 03       		.uleb128 0x3
 3084 0031 FC660000 		.4byte	.LASF919
 3085 0035 02       		.byte	0x2
 3086 0036 1B       		.byte	0x1b
 3087 0037 3B000000 		.4byte	0x3b
 3088 003b 02       		.uleb128 0x2
 3089 003c 01       		.byte	0x1
 3090 003d 06       		.byte	0x6
 3091 003e 88320000 		.4byte	.LASF918
 3092 0042 03       		.uleb128 0x3
 3093 0043 D8110000 		.4byte	.LASF920
 3094 0047 02       		.byte	0x2
 3095 0048 1D       		.byte	0x1d
 3096 0049 4D000000 		.4byte	0x4d
 3097 004d 02       		.uleb128 0x2
 3098 004e 01       		.byte	0x1
 3099 004f 08       		.byte	0x8
ARM GAS  /var/folders/9j/_txx49hn253_s3mnzkyxlj8m0000gp/T//ccxigpJH.s 			page 72


 3100 0050 AE000000 		.4byte	.LASF921
 3101 0054 03       		.uleb128 0x3
 3102 0055 45710000 		.4byte	.LASF922
 3103 0059 02       		.byte	0x2
 3104 005a 29       		.byte	0x29
 3105 005b 5F000000 		.4byte	0x5f
 3106 005f 02       		.uleb128 0x2
 3107 0060 02       		.byte	0x2
 3108 0061 05       		.byte	0x5
 3109 0062 877E0000 		.4byte	.LASF923
 3110 0066 03       		.uleb128 0x3
 3111 0067 BC280000 		.4byte	.LASF924
 3112 006b 02       		.byte	0x2
 3113 006c 2B       		.byte	0x2b
 3114 006d 71000000 		.4byte	0x71
 3115 0071 02       		.uleb128 0x2
 3116 0072 02       		.byte	0x2
 3117 0073 07       		.byte	0x7
 3118 0074 65900000 		.4byte	.LASF925
 3119 0078 03       		.uleb128 0x3
 3120 0079 A2930000 		.4byte	.LASF926
 3121 007d 02       		.byte	0x2
 3122 007e 3F       		.byte	0x3f
 3123 007f 83000000 		.4byte	0x83
 3124 0083 02       		.uleb128 0x2
 3125 0084 04       		.byte	0x4
 3126 0085 05       		.byte	0x5
 3127 0086 E55B0000 		.4byte	.LASF927
 3128 008a 03       		.uleb128 0x3
 3129 008b 2F3D0000 		.4byte	.LASF928
 3130 008f 02       		.byte	0x2
 3131 0090 41       		.byte	0x41
 3132 0091 95000000 		.4byte	0x95
 3133 0095 02       		.uleb128 0x2
 3134 0096 04       		.byte	0x4
 3135 0097 07       		.byte	0x7
 3136 0098 2B3C0000 		.4byte	.LASF929
 3137 009c 02       		.uleb128 0x2
 3138 009d 08       		.byte	0x8
 3139 009e 05       		.byte	0x5
 3140 009f AA490000 		.4byte	.LASF930
 3141 00a3 03       		.uleb128 0x3
 3142 00a4 333B0000 		.4byte	.LASF931
 3143 00a8 02       		.byte	0x2
 3144 00a9 5B       		.byte	0x5b
 3145 00aa 29000000 		.4byte	0x29
 3146 00ae 04       		.uleb128 0x4
 3147 00af 04       		.byte	0x4
 3148 00b0 05       		.byte	0x5
 3149 00b1 696E7400 		.ascii	"int\000"
 3150 00b5 02       		.uleb128 0x2
 3151 00b6 04       		.byte	0x4
 3152 00b7 07       		.byte	0x7
 3153 00b8 83530000 		.4byte	.LASF932
 3154 00bc 03       		.uleb128 0x3
 3155 00bd 76000000 		.4byte	.LASF933
 3156 00c1 03       		.byte	0x3
ARM GAS  /var/folders/9j/_txx49hn253_s3mnzkyxlj8m0000gp/T//ccxigpJH.s 			page 73


 3157 00c2 13       		.byte	0x13
 3158 00c3 30000000 		.4byte	0x30
 3159 00c7 03       		.uleb128 0x3
 3160 00c8 671E0000 		.4byte	.LASF934
 3161 00cc 03       		.byte	0x3
 3162 00cd 14       		.byte	0x14
 3163 00ce 42000000 		.4byte	0x42
 3164 00d2 03       		.uleb128 0x3
 3165 00d3 E8800000 		.4byte	.LASF935
 3166 00d7 03       		.byte	0x3
 3167 00d8 19       		.byte	0x19
 3168 00d9 54000000 		.4byte	0x54
 3169 00dd 03       		.uleb128 0x3
 3170 00de BD680000 		.4byte	.LASF936
 3171 00e2 03       		.byte	0x3
 3172 00e3 1A       		.byte	0x1a
 3173 00e4 66000000 		.4byte	0x66
 3174 00e8 03       		.uleb128 0x3
 3175 00e9 58050000 		.4byte	.LASF937
 3176 00ed 03       		.byte	0x3
 3177 00ee 1F       		.byte	0x1f
 3178 00ef 78000000 		.4byte	0x78
 3179 00f3 03       		.uleb128 0x3
 3180 00f4 B38C0000 		.4byte	.LASF938
 3181 00f8 03       		.byte	0x3
 3182 00f9 20       		.byte	0x20
 3183 00fa 8A000000 		.4byte	0x8a
 3184 00fe 03       		.uleb128 0x3
 3185 00ff D81F0000 		.4byte	.LASF939
 3186 0103 03       		.byte	0x3
 3187 0104 26       		.byte	0x26
 3188 0105 A3000000 		.4byte	0xa3
 3189 0109 05       		.uleb128 0x5
 3190 010a 04       		.byte	0x4
 3191 010b 0F010000 		.4byte	0x10f
 3192 010f 06       		.uleb128 0x6
 3193 0110 1A010000 		.4byte	0x11a
 3194 0114 07       		.uleb128 0x7
 3195 0115 1A010000 		.4byte	0x11a
 3196 0119 00       		.byte	0
 3197 011a 05       		.uleb128 0x5
 3198 011b 04       		.byte	0x4
 3199 011c 20010000 		.4byte	0x120
 3200 0120 08       		.uleb128 0x8
 3201 0121 25010000 		.4byte	0x125
 3202 0125 02       		.uleb128 0x2
 3203 0126 01       		.byte	0x1
 3204 0127 08       		.byte	0x8
 3205 0128 17260000 		.4byte	.LASF372
 3206 012c 09       		.uleb128 0x9
 3207 012d 0C       		.byte	0xc
 3208 012e 04       		.byte	0x4
 3209 012f 07       		.byte	0x7
 3210 0130 58010000 		.4byte	0x158
 3211 0134 0A       		.uleb128 0xa
 3212 0135 696400   		.ascii	"id\000"
 3213 0138 04       		.byte	0x4
ARM GAS  /var/folders/9j/_txx49hn253_s3mnzkyxlj8m0000gp/T//ccxigpJH.s 			page 74


 3214 0139 08       		.byte	0x8
 3215 013a DD000000 		.4byte	0xdd
 3216 013e 00       		.byte	0
 3217 013f 0A       		.uleb128 0xa
 3218 0140 6C656E00 		.ascii	"len\000"
 3219 0144 04       		.byte	0x4
 3220 0145 09       		.byte	0x9
 3221 0146 C7000000 		.4byte	0xc7
 3222 014a 02       		.byte	0x2
 3223 014b 0B       		.uleb128 0xb
 3224 014c 27970000 		.4byte	.LASF940
 3225 0150 04       		.byte	0x4
 3226 0151 0A       		.byte	0xa
 3227 0152 58010000 		.4byte	0x158
 3228 0156 03       		.byte	0x3
 3229 0157 00       		.byte	0
 3230 0158 0C       		.uleb128 0xc
 3231 0159 C7000000 		.4byte	0xc7
 3232 015d 68010000 		.4byte	0x168
 3233 0161 0D       		.uleb128 0xd
 3234 0162 68010000 		.4byte	0x168
 3235 0166 07       		.byte	0x7
 3236 0167 00       		.byte	0
 3237 0168 02       		.uleb128 0x2
 3238 0169 04       		.byte	0x4
 3239 016a 07       		.byte	0x7
 3240 016b E9010000 		.4byte	.LASF941
 3241 016f 03       		.uleb128 0x3
 3242 0170 DA470000 		.4byte	.LASF942
 3243 0174 04       		.byte	0x4
 3244 0175 0B       		.byte	0xb
 3245 0176 2C010000 		.4byte	0x12c
 3246 017a 0E       		.uleb128 0xe
 3247 017b 01       		.byte	0x1
 3248 017c 05       		.byte	0x5
 3249 017d 06       		.byte	0x6
 3250 017e AD010000 		.4byte	0x1ad
 3251 0182 0F       		.uleb128 0xf
 3252 0183 F8990000 		.4byte	.LASF943
 3253 0187 00       		.sleb128 0
 3254 0188 0F       		.uleb128 0xf
 3255 0189 C03F0000 		.4byte	.LASF944
 3256 018d 01       		.sleb128 1
 3257 018e 0F       		.uleb128 0xf
 3258 018f DB7D0000 		.4byte	.LASF945
 3259 0193 02       		.sleb128 2
 3260 0194 0F       		.uleb128 0xf
 3261 0195 36130000 		.4byte	.LASF946
 3262 0199 04       		.sleb128 4
 3263 019a 0F       		.uleb128 0xf
 3264 019b A43E0000 		.4byte	.LASF947
 3265 019f 03       		.sleb128 3
 3266 01a0 0F       		.uleb128 0xf
 3267 01a1 8C250000 		.4byte	.LASF948
 3268 01a5 05       		.sleb128 5
 3269 01a6 0F       		.uleb128 0xf
 3270 01a7 9F450000 		.4byte	.LASF949
ARM GAS  /var/folders/9j/_txx49hn253_s3mnzkyxlj8m0000gp/T//ccxigpJH.s 			page 75


 3271 01ab 06       		.sleb128 6
 3272 01ac 00       		.byte	0
 3273 01ad 03       		.uleb128 0x3
 3274 01ae 44510000 		.4byte	.LASF950
 3275 01b2 05       		.byte	0x5
 3276 01b3 0E       		.byte	0xe
 3277 01b4 7A010000 		.4byte	0x17a
 3278 01b8 0E       		.uleb128 0xe
 3279 01b9 01       		.byte	0x1
 3280 01ba 05       		.byte	0x5
 3281 01bb 10       		.byte	0x10
 3282 01bc 1B020000 		.4byte	0x21b
 3283 01c0 0F       		.uleb128 0xf
 3284 01c1 B97B0000 		.4byte	.LASF951
 3285 01c5 00       		.sleb128 0
 3286 01c6 0F       		.uleb128 0xf
 3287 01c7 E1810000 		.4byte	.LASF952
 3288 01cb 01       		.sleb128 1
 3289 01cc 0F       		.uleb128 0xf
 3290 01cd F73F0000 		.4byte	.LASF953
 3291 01d1 02       		.sleb128 2
 3292 01d2 0F       		.uleb128 0xf
 3293 01d3 27220000 		.4byte	.LASF954
 3294 01d7 03       		.sleb128 3
 3295 01d8 0F       		.uleb128 0xf
 3296 01d9 4C3C0000 		.4byte	.LASF955
 3297 01dd 04       		.sleb128 4
 3298 01de 0F       		.uleb128 0xf
 3299 01df 59840000 		.4byte	.LASF956
 3300 01e3 05       		.sleb128 5
 3301 01e4 0F       		.uleb128 0xf
 3302 01e5 28430000 		.4byte	.LASF957
 3303 01e9 06       		.sleb128 6
 3304 01ea 0F       		.uleb128 0xf
 3305 01eb A3340000 		.4byte	.LASF958
 3306 01ef 07       		.sleb128 7
 3307 01f0 0F       		.uleb128 0xf
 3308 01f1 632E0000 		.4byte	.LASF959
 3309 01f5 08       		.sleb128 8
 3310 01f6 0F       		.uleb128 0xf
 3311 01f7 587A0000 		.4byte	.LASF960
 3312 01fb 09       		.sleb128 9
 3313 01fc 0F       		.uleb128 0xf
 3314 01fd 11850000 		.4byte	.LASF961
 3315 0201 0A       		.sleb128 10
 3316 0202 0F       		.uleb128 0xf
 3317 0203 EA430000 		.4byte	.LASF962
 3318 0207 0B       		.sleb128 11
 3319 0208 0F       		.uleb128 0xf
 3320 0209 E3840000 		.4byte	.LASF963
 3321 020d 0C       		.sleb128 12
 3322 020e 0F       		.uleb128 0xf
 3323 020f 7C290000 		.4byte	.LASF964
 3324 0213 0D       		.sleb128 13
 3325 0214 0F       		.uleb128 0xf
 3326 0215 74520000 		.4byte	.LASF965
 3327 0219 0E       		.sleb128 14
ARM GAS  /var/folders/9j/_txx49hn253_s3mnzkyxlj8m0000gp/T//ccxigpJH.s 			page 76


 3328 021a 00       		.byte	0
 3329 021b 03       		.uleb128 0x3
 3330 021c 6B5B0000 		.4byte	.LASF966
 3331 0220 05       		.byte	0x5
 3332 0221 20       		.byte	0x20
 3333 0222 B8010000 		.4byte	0x1b8
 3334 0226 0E       		.uleb128 0xe
 3335 0227 01       		.byte	0x1
 3336 0228 05       		.byte	0x5
 3337 0229 22       		.byte	0x22
 3338 022a B4020000 		.4byte	0x2b4
 3339 022e 0F       		.uleb128 0xf
 3340 022f B7450000 		.4byte	.LASF967
 3341 0233 26       		.sleb128 38
 3342 0234 0F       		.uleb128 0xf
 3343 0235 51620000 		.4byte	.LASF968
 3344 0239 22       		.sleb128 34
 3345 023a 0F       		.uleb128 0xf
 3346 023b 47600000 		.4byte	.LASF969
 3347 023f 20       		.sleb128 32
 3348 0240 0F       		.uleb128 0xf
 3349 0241 DA3D0000 		.4byte	.LASF970
 3350 0245 C800     		.sleb128 72
 3351 0247 0F       		.uleb128 0xf
 3352 0248 576C0000 		.4byte	.LASF971
 3353 024c A201     		.sleb128 162
 3354 024e 0F       		.uleb128 0xf
 3355 024f 12880000 		.4byte	.LASF972
 3356 0253 D800     		.sleb128 88
 3357 0255 0F       		.uleb128 0xf
 3358 0256 8A550000 		.4byte	.LASF973
 3359 025a 31       		.sleb128 49
 3360 025b 0F       		.uleb128 0xf
 3361 025c 93180000 		.4byte	.LASF974
 3362 0260 32       		.sleb128 50
 3363 0261 0F       		.uleb128 0xf
 3364 0262 4D980000 		.4byte	.LASF975
 3365 0266 30       		.sleb128 48
 3366 0267 0F       		.uleb128 0xf
 3367 0268 580E0000 		.4byte	.LASF976
 3368 026c C801     		.sleb128 200
 3369 026e 0F       		.uleb128 0xf
 3370 026f 5B3D0000 		.4byte	.LASF977
 3371 0273 8A01     		.sleb128 138
 3372 0275 0F       		.uleb128 0xf
 3373 0276 72910000 		.4byte	.LASF978
 3374 027a 8B01     		.sleb128 139
 3375 027c 0F       		.uleb128 0xf
 3376 027d 6D0F0000 		.4byte	.LASF979
 3377 0281 C900     		.sleb128 73
 3378 0283 0F       		.uleb128 0xf
 3379 0284 388C0000 		.4byte	.LASF980
 3380 0288 CA00     		.sleb128 74
 3381 028a 0F       		.uleb128 0xf
 3382 028b 44570000 		.4byte	.LASF981
 3383 028f CB00     		.sleb128 75
 3384 0291 0F       		.uleb128 0xf
ARM GAS  /var/folders/9j/_txx49hn253_s3mnzkyxlj8m0000gp/T//ccxigpJH.s 			page 77


 3385 0292 F0800000 		.4byte	.LASF982
 3386 0296 9001     		.sleb128 144
 3387 0298 0F       		.uleb128 0xf
 3388 0299 464B0000 		.4byte	.LASF983
 3389 029d C000     		.sleb128 64
 3390 029f 0F       		.uleb128 0xf
 3391 02a0 E21A0000 		.4byte	.LASF984
 3392 02a4 8F01     		.sleb128 143
 3393 02a6 0F       		.uleb128 0xf
 3394 02a7 96190000 		.4byte	.LASF985
 3395 02ab D100     		.sleb128 81
 3396 02ad 0F       		.uleb128 0xf
 3397 02ae A9810000 		.4byte	.LASF986
 3398 02b2 3D       		.sleb128 61
 3399 02b3 00       		.byte	0
 3400 02b4 03       		.uleb128 0x3
 3401 02b5 581E0000 		.4byte	.LASF987
 3402 02b9 05       		.byte	0x5
 3403 02ba 3D       		.byte	0x3d
 3404 02bb 26020000 		.4byte	0x226
 3405 02bf 0E       		.uleb128 0xe
 3406 02c0 01       		.byte	0x1
 3407 02c1 05       		.byte	0x5
 3408 02c2 3F       		.byte	0x3f
 3409 02c3 EC020000 		.4byte	0x2ec
 3410 02c7 0F       		.uleb128 0xf
 3411 02c8 BD610000 		.4byte	.LASF988
 3412 02cc 00       		.sleb128 0
 3413 02cd 0F       		.uleb128 0xf
 3414 02ce 6D810000 		.4byte	.LASF989
 3415 02d2 01       		.sleb128 1
 3416 02d3 0F       		.uleb128 0xf
 3417 02d4 8D820000 		.4byte	.LASF990
 3418 02d8 02       		.sleb128 2
 3419 02d9 0F       		.uleb128 0xf
 3420 02da ED310000 		.4byte	.LASF991
 3421 02de 03       		.sleb128 3
 3422 02df 0F       		.uleb128 0xf
 3423 02e0 66830000 		.4byte	.LASF992
 3424 02e4 04       		.sleb128 4
 3425 02e5 0F       		.uleb128 0xf
 3426 02e6 C07D0000 		.4byte	.LASF993
 3427 02ea 05       		.sleb128 5
 3428 02eb 00       		.byte	0
 3429 02ec 03       		.uleb128 0x3
 3430 02ed D9610000 		.4byte	.LASF994
 3431 02f1 05       		.byte	0x5
 3432 02f2 46       		.byte	0x46
 3433 02f3 BF020000 		.4byte	0x2bf
 3434 02f7 09       		.uleb128 0x9
 3435 02f8 08       		.byte	0x8
 3436 02f9 06       		.byte	0x6
 3437 02fa 0B       		.byte	0xb
 3438 02fb 48030000 		.4byte	0x348
 3439 02ff 0B       		.uleb128 0xb
 3440 0300 1B7A0000 		.4byte	.LASF995
 3441 0304 06       		.byte	0x6
ARM GAS  /var/folders/9j/_txx49hn253_s3mnzkyxlj8m0000gp/T//ccxigpJH.s 			page 78


 3442 0305 0C       		.byte	0xc
 3443 0306 D2000000 		.4byte	0xd2
 3444 030a 00       		.byte	0
 3445 030b 0B       		.uleb128 0xb
 3446 030c 1B3F0000 		.4byte	.LASF996
 3447 0310 06       		.byte	0x6
 3448 0311 0D       		.byte	0xd
 3449 0312 C7000000 		.4byte	0xc7
 3450 0316 02       		.byte	0x2
 3451 0317 0B       		.uleb128 0xb
 3452 0318 F12B0000 		.4byte	.LASF997
 3453 031c 06       		.byte	0x6
 3454 031d 0E       		.byte	0xe
 3455 031e C7000000 		.4byte	0xc7
 3456 0322 03       		.byte	0x3
 3457 0323 0B       		.uleb128 0xb
 3458 0324 B3190000 		.4byte	.LASF998
 3459 0328 06       		.byte	0x6
 3460 0329 0F       		.byte	0xf
 3461 032a 48030000 		.4byte	0x348
 3462 032e 04       		.byte	0x4
 3463 032f 0B       		.uleb128 0xb
 3464 0330 74700000 		.4byte	.LASF999
 3465 0334 06       		.byte	0x6
 3466 0335 10       		.byte	0x10
 3467 0336 48030000 		.4byte	0x348
 3468 033a 05       		.byte	0x5
 3469 033b 0B       		.uleb128 0xb
 3470 033c D6500000 		.4byte	.LASF1000
 3471 0340 06       		.byte	0x6
 3472 0341 11       		.byte	0x11
 3473 0342 48030000 		.4byte	0x348
 3474 0346 06       		.byte	0x6
 3475 0347 00       		.byte	0
 3476 0348 02       		.uleb128 0x2
 3477 0349 01       		.byte	0x1
 3478 034a 02       		.byte	0x2
 3479 034b 36240000 		.4byte	.LASF1001
 3480 034f 03       		.uleb128 0x3
 3481 0350 4D810000 		.4byte	.LASF1002
 3482 0354 06       		.byte	0x6
 3483 0355 12       		.byte	0x12
 3484 0356 F7020000 		.4byte	0x2f7
 3485 035a 09       		.uleb128 0x9
 3486 035b 0A       		.byte	0xa
 3487 035c 06       		.byte	0x6
 3488 035d 14       		.byte	0x14
 3489 035e 9F030000 		.4byte	0x39f
 3490 0362 0B       		.uleb128 0xb
 3491 0363 013B0000 		.4byte	.LASF1003
 3492 0367 06       		.byte	0x6
 3493 0368 15       		.byte	0x15
 3494 0369 DD000000 		.4byte	0xdd
 3495 036d 00       		.byte	0
 3496 036e 0B       		.uleb128 0xb
 3497 036f 02240000 		.4byte	.LASF1004
 3498 0373 06       		.byte	0x6
ARM GAS  /var/folders/9j/_txx49hn253_s3mnzkyxlj8m0000gp/T//ccxigpJH.s 			page 79


 3499 0374 16       		.byte	0x16
 3500 0375 DD000000 		.4byte	0xdd
 3501 0379 02       		.byte	0x2
 3502 037a 0B       		.uleb128 0xb
 3503 037b DC370000 		.4byte	.LASF1005
 3504 037f 06       		.byte	0x6
 3505 0380 17       		.byte	0x17
 3506 0381 DD000000 		.4byte	0xdd
 3507 0385 04       		.byte	0x4
 3508 0386 0B       		.uleb128 0xb
 3509 0387 98210000 		.4byte	.LASF1006
 3510 038b 06       		.byte	0x6
 3511 038c 18       		.byte	0x18
 3512 038d DD000000 		.4byte	0xdd
 3513 0391 06       		.byte	0x6
 3514 0392 0B       		.uleb128 0xb
 3515 0393 D4810000 		.4byte	.LASF1007
 3516 0397 06       		.byte	0x6
 3517 0398 19       		.byte	0x19
 3518 0399 DD000000 		.4byte	0xdd
 3519 039d 08       		.byte	0x8
 3520 039e 00       		.byte	0
 3521 039f 03       		.uleb128 0x3
 3522 03a0 641F0000 		.4byte	.LASF1008
 3523 03a4 06       		.byte	0x6
 3524 03a5 1A       		.byte	0x1a
 3525 03a6 5A030000 		.4byte	0x35a
 3526 03aa 09       		.uleb128 0x9
 3527 03ab 08       		.byte	0x8
 3528 03ac 06       		.byte	0x6
 3529 03ad 1C       		.byte	0x1c
 3530 03ae CB030000 		.4byte	0x3cb
 3531 03b2 0B       		.uleb128 0xb
 3532 03b3 35650000 		.4byte	.LASF1009
 3533 03b7 06       		.byte	0x6
 3534 03b8 1D       		.byte	0x1d
 3535 03b9 F3000000 		.4byte	0xf3
 3536 03bd 00       		.byte	0
 3537 03be 0B       		.uleb128 0xb
 3538 03bf F67F0000 		.4byte	.LASF1010
 3539 03c3 06       		.byte	0x6
 3540 03c4 1E       		.byte	0x1e
 3541 03c5 F3000000 		.4byte	0xf3
 3542 03c9 04       		.byte	0x4
 3543 03ca 00       		.byte	0
 3544 03cb 03       		.uleb128 0x3
 3545 03cc 7C260000 		.4byte	.LASF1011
 3546 03d0 06       		.byte	0x6
 3547 03d1 1F       		.byte	0x1f
 3548 03d2 AA030000 		.4byte	0x3aa
 3549 03d6 09       		.uleb128 0x9
 3550 03d7 01       		.byte	0x1
 3551 03d8 06       		.byte	0x6
 3552 03d9 21       		.byte	0x21
 3553 03da EB030000 		.4byte	0x3eb
 3554 03de 0B       		.uleb128 0xb
 3555 03df 10210000 		.4byte	.LASF1012
ARM GAS  /var/folders/9j/_txx49hn253_s3mnzkyxlj8m0000gp/T//ccxigpJH.s 			page 80


 3556 03e3 06       		.byte	0x6
 3557 03e4 22       		.byte	0x22
 3558 03e5 48030000 		.4byte	0x348
 3559 03e9 00       		.byte	0
 3560 03ea 00       		.byte	0
 3561 03eb 03       		.uleb128 0x3
 3562 03ec 878A0000 		.4byte	.LASF1013
 3563 03f0 06       		.byte	0x6
 3564 03f1 23       		.byte	0x23
 3565 03f2 D6030000 		.4byte	0x3d6
 3566 03f6 09       		.uleb128 0x9
 3567 03f7 08       		.byte	0x8
 3568 03f8 06       		.byte	0x6
 3569 03f9 25       		.byte	0x25
 3570 03fa 17040000 		.4byte	0x417
 3571 03fe 0B       		.uleb128 0xb
 3572 03ff 27540000 		.4byte	.LASF1014
 3573 0403 06       		.byte	0x6
 3574 0404 26       		.byte	0x26
 3575 0405 F3000000 		.4byte	0xf3
 3576 0409 00       		.byte	0
 3577 040a 0B       		.uleb128 0xb
 3578 040b 9A260000 		.4byte	.LASF1015
 3579 040f 06       		.byte	0x6
 3580 0410 27       		.byte	0x27
 3581 0411 F3000000 		.4byte	0xf3
 3582 0415 04       		.byte	0x4
 3583 0416 00       		.byte	0
 3584 0417 03       		.uleb128 0x3
 3585 0418 DC650000 		.4byte	.LASF1016
 3586 041c 06       		.byte	0x6
 3587 041d 28       		.byte	0x28
 3588 041e F6030000 		.4byte	0x3f6
 3589 0422 09       		.uleb128 0x9
 3590 0423 01       		.byte	0x1
 3591 0424 07       		.byte	0x7
 3592 0425 0B       		.byte	0xb
 3593 0426 37040000 		.4byte	0x437
 3594 042a 0B       		.uleb128 0xb
 3595 042b D3090000 		.4byte	.LASF1017
 3596 042f 07       		.byte	0x7
 3597 0430 0C       		.byte	0xc
 3598 0431 48030000 		.4byte	0x348
 3599 0435 00       		.byte	0
 3600 0436 00       		.byte	0
 3601 0437 03       		.uleb128 0x3
 3602 0438 C7140000 		.4byte	.LASF1018
 3603 043c 07       		.byte	0x7
 3604 043d 0D       		.byte	0xd
 3605 043e 22040000 		.4byte	0x422
 3606 0442 09       		.uleb128 0x9
 3607 0443 1E       		.byte	0x1e
 3608 0444 07       		.byte	0x7
 3609 0445 0F       		.byte	0xf
 3610 0446 A7050000 		.4byte	0x5a7
 3611 044a 0B       		.uleb128 0xb
 3612 044b 23290000 		.4byte	.LASF1019
ARM GAS  /var/folders/9j/_txx49hn253_s3mnzkyxlj8m0000gp/T//ccxigpJH.s 			page 81


 3613 044f 07       		.byte	0x7
 3614 0450 10       		.byte	0x10
 3615 0451 48030000 		.4byte	0x348
 3616 0455 00       		.byte	0
 3617 0456 0B       		.uleb128 0xb
 3618 0457 710E0000 		.4byte	.LASF1020
 3619 045b 07       		.byte	0x7
 3620 045c 11       		.byte	0x11
 3621 045d 48030000 		.4byte	0x348
 3622 0461 01       		.byte	0x1
 3623 0462 0B       		.uleb128 0xb
 3624 0463 42100000 		.4byte	.LASF1021
 3625 0467 07       		.byte	0x7
 3626 0468 12       		.byte	0x12
 3627 0469 48030000 		.4byte	0x348
 3628 046d 02       		.byte	0x2
 3629 046e 0B       		.uleb128 0xb
 3630 046f 1F5B0000 		.4byte	.LASF1022
 3631 0473 07       		.byte	0x7
 3632 0474 13       		.byte	0x13
 3633 0475 48030000 		.4byte	0x348
 3634 0479 03       		.byte	0x3
 3635 047a 0B       		.uleb128 0xb
 3636 047b 01880000 		.4byte	.LASF1023
 3637 047f 07       		.byte	0x7
 3638 0480 14       		.byte	0x14
 3639 0481 48030000 		.4byte	0x348
 3640 0485 04       		.byte	0x4
 3641 0486 0B       		.uleb128 0xb
 3642 0487 45270000 		.4byte	.LASF1024
 3643 048b 07       		.byte	0x7
 3644 048c 15       		.byte	0x15
 3645 048d 48030000 		.4byte	0x348
 3646 0491 05       		.byte	0x5
 3647 0492 0B       		.uleb128 0xb
 3648 0493 CA310000 		.4byte	.LASF1025
 3649 0497 07       		.byte	0x7
 3650 0498 16       		.byte	0x16
 3651 0499 48030000 		.4byte	0x348
 3652 049d 06       		.byte	0x6
 3653 049e 0B       		.uleb128 0xb
 3654 049f F9670000 		.4byte	.LASF1026
 3655 04a3 07       		.byte	0x7
 3656 04a4 17       		.byte	0x17
 3657 04a5 48030000 		.4byte	0x348
 3658 04a9 07       		.byte	0x7
 3659 04aa 0B       		.uleb128 0xb
 3660 04ab 0C350000 		.4byte	.LASF1027
 3661 04af 07       		.byte	0x7
 3662 04b0 18       		.byte	0x18
 3663 04b1 48030000 		.4byte	0x348
 3664 04b5 08       		.byte	0x8
 3665 04b6 0B       		.uleb128 0xb
 3666 04b7 574B0000 		.4byte	.LASF1028
 3667 04bb 07       		.byte	0x7
 3668 04bc 19       		.byte	0x19
 3669 04bd 48030000 		.4byte	0x348
ARM GAS  /var/folders/9j/_txx49hn253_s3mnzkyxlj8m0000gp/T//ccxigpJH.s 			page 82


 3670 04c1 09       		.byte	0x9
 3671 04c2 0B       		.uleb128 0xb
 3672 04c3 41220000 		.4byte	.LASF1029
 3673 04c7 07       		.byte	0x7
 3674 04c8 1A       		.byte	0x1a
 3675 04c9 48030000 		.4byte	0x348
 3676 04cd 0A       		.byte	0xa
 3677 04ce 0B       		.uleb128 0xb
 3678 04cf 54610000 		.4byte	.LASF1030
 3679 04d3 07       		.byte	0x7
 3680 04d4 1B       		.byte	0x1b
 3681 04d5 48030000 		.4byte	0x348
 3682 04d9 0B       		.byte	0xb
 3683 04da 0B       		.uleb128 0xb
 3684 04db 4B840000 		.4byte	.LASF1031
 3685 04df 07       		.byte	0x7
 3686 04e0 1C       		.byte	0x1c
 3687 04e1 48030000 		.4byte	0x348
 3688 04e5 0C       		.byte	0xc
 3689 04e6 0B       		.uleb128 0xb
 3690 04e7 EB910000 		.4byte	.LASF1032
 3691 04eb 07       		.byte	0x7
 3692 04ec 1D       		.byte	0x1d
 3693 04ed 48030000 		.4byte	0x348
 3694 04f1 0D       		.byte	0xd
 3695 04f2 0B       		.uleb128 0xb
 3696 04f3 F9280000 		.4byte	.LASF1033
 3697 04f7 07       		.byte	0x7
 3698 04f8 1E       		.byte	0x1e
 3699 04f9 48030000 		.4byte	0x348
 3700 04fd 0E       		.byte	0xe
 3701 04fe 0B       		.uleb128 0xb
 3702 04ff 89330000 		.4byte	.LASF1034
 3703 0503 07       		.byte	0x7
 3704 0504 1F       		.byte	0x1f
 3705 0505 48030000 		.4byte	0x348
 3706 0509 0F       		.byte	0xf
 3707 050a 0B       		.uleb128 0xb
 3708 050b 1A950000 		.4byte	.LASF1035
 3709 050f 07       		.byte	0x7
 3710 0510 20       		.byte	0x20
 3711 0511 48030000 		.4byte	0x348
 3712 0515 10       		.byte	0x10
 3713 0516 0B       		.uleb128 0xb
 3714 0517 CE1C0000 		.4byte	.LASF1036
 3715 051b 07       		.byte	0x7
 3716 051c 21       		.byte	0x21
 3717 051d 48030000 		.4byte	0x348
 3718 0521 11       		.byte	0x11
 3719 0522 0B       		.uleb128 0xb
 3720 0523 CE3C0000 		.4byte	.LASF1037
 3721 0527 07       		.byte	0x7
 3722 0528 22       		.byte	0x22
 3723 0529 48030000 		.4byte	0x348
 3724 052d 12       		.byte	0x12
 3725 052e 0B       		.uleb128 0xb
 3726 052f 641A0000 		.4byte	.LASF1038
ARM GAS  /var/folders/9j/_txx49hn253_s3mnzkyxlj8m0000gp/T//ccxigpJH.s 			page 83


 3727 0533 07       		.byte	0x7
 3728 0534 23       		.byte	0x23
 3729 0535 48030000 		.4byte	0x348
 3730 0539 13       		.byte	0x13
 3731 053a 0B       		.uleb128 0xb
 3732 053b 6D300000 		.4byte	.LASF1039
 3733 053f 07       		.byte	0x7
 3734 0540 24       		.byte	0x24
 3735 0541 48030000 		.4byte	0x348
 3736 0545 14       		.byte	0x14
 3737 0546 0B       		.uleb128 0xb
 3738 0547 6C6D0000 		.4byte	.LASF1040
 3739 054b 07       		.byte	0x7
 3740 054c 25       		.byte	0x25
 3741 054d 48030000 		.4byte	0x348
 3742 0551 15       		.byte	0x15
 3743 0552 0B       		.uleb128 0xb
 3744 0553 FE0A0000 		.4byte	.LASF1041
 3745 0557 07       		.byte	0x7
 3746 0558 26       		.byte	0x26
 3747 0559 48030000 		.4byte	0x348
 3748 055d 16       		.byte	0x16
 3749 055e 0B       		.uleb128 0xb
 3750 055f 0D080000 		.4byte	.LASF1042
 3751 0563 07       		.byte	0x7
 3752 0564 27       		.byte	0x27
 3753 0565 48030000 		.4byte	0x348
 3754 0569 17       		.byte	0x17
 3755 056a 0B       		.uleb128 0xb
 3756 056b D93A0000 		.4byte	.LASF1043
 3757 056f 07       		.byte	0x7
 3758 0570 28       		.byte	0x28
 3759 0571 48030000 		.4byte	0x348
 3760 0575 18       		.byte	0x18
 3761 0576 0B       		.uleb128 0xb
 3762 0577 3E470000 		.4byte	.LASF1044
 3763 057b 07       		.byte	0x7
 3764 057c 29       		.byte	0x29
 3765 057d 48030000 		.4byte	0x348
 3766 0581 19       		.byte	0x19
 3767 0582 0B       		.uleb128 0xb
 3768 0583 3C4F0000 		.4byte	.LASF1045
 3769 0587 07       		.byte	0x7
 3770 0588 2A       		.byte	0x2a
 3771 0589 48030000 		.4byte	0x348
 3772 058d 1A       		.byte	0x1a
 3773 058e 0B       		.uleb128 0xb
 3774 058f BA7F0000 		.4byte	.LASF1046
 3775 0593 07       		.byte	0x7
 3776 0594 2B       		.byte	0x2b
 3777 0595 48030000 		.4byte	0x348
 3778 0599 1B       		.byte	0x1b
 3779 059a 0B       		.uleb128 0xb
 3780 059b 5C100000 		.4byte	.LASF1047
 3781 059f 07       		.byte	0x7
 3782 05a0 2C       		.byte	0x2c
 3783 05a1 DD000000 		.4byte	0xdd
ARM GAS  /var/folders/9j/_txx49hn253_s3mnzkyxlj8m0000gp/T//ccxigpJH.s 			page 84


 3784 05a5 1C       		.byte	0x1c
 3785 05a6 00       		.byte	0
 3786 05a7 03       		.uleb128 0x3
 3787 05a8 CD670000 		.4byte	.LASF1048
 3788 05ac 07       		.byte	0x7
 3789 05ad 2D       		.byte	0x2d
 3790 05ae 42040000 		.4byte	0x442
 3791 05b2 09       		.uleb128 0x9
 3792 05b3 02       		.byte	0x2
 3793 05b4 07       		.byte	0x7
 3794 05b5 2F       		.byte	0x2f
 3795 05b6 D3050000 		.4byte	0x5d3
 3796 05ba 0B       		.uleb128 0xb
 3797 05bb C10F0000 		.4byte	.LASF1049
 3798 05bf 07       		.byte	0x7
 3799 05c0 30       		.byte	0x30
 3800 05c1 B4020000 		.4byte	0x2b4
 3801 05c5 00       		.byte	0
 3802 05c6 0B       		.uleb128 0xb
 3803 05c7 B96F0000 		.4byte	.LASF1050
 3804 05cb 07       		.byte	0x7
 3805 05cc 31       		.byte	0x31
 3806 05cd C7000000 		.4byte	0xc7
 3807 05d1 01       		.byte	0x1
 3808 05d2 00       		.byte	0
 3809 05d3 03       		.uleb128 0x3
 3810 05d4 A2270000 		.4byte	.LASF1051
 3811 05d8 07       		.byte	0x7
 3812 05d9 32       		.byte	0x32
 3813 05da B2050000 		.4byte	0x5b2
 3814 05de 09       		.uleb128 0x9
 3815 05df 02       		.byte	0x2
 3816 05e0 07       		.byte	0x7
 3817 05e1 34       		.byte	0x34
 3818 05e2 F3050000 		.4byte	0x5f3
 3819 05e6 0B       		.uleb128 0xb
 3820 05e7 A0230000 		.4byte	.LASF1052
 3821 05eb 07       		.byte	0x7
 3822 05ec 35       		.byte	0x35
 3823 05ed D2000000 		.4byte	0xd2
 3824 05f1 00       		.byte	0
 3825 05f2 00       		.byte	0
 3826 05f3 03       		.uleb128 0x3
 3827 05f4 3A980000 		.4byte	.LASF1053
 3828 05f8 07       		.byte	0x7
 3829 05f9 36       		.byte	0x36
 3830 05fa DE050000 		.4byte	0x5de
 3831 05fe 09       		.uleb128 0x9
 3832 05ff 08       		.byte	0x8
 3833 0600 08       		.byte	0x8
 3834 0601 0B       		.byte	0xb
 3835 0602 43060000 		.4byte	0x643
 3836 0606 0B       		.uleb128 0xb
 3837 0607 9F0A0000 		.4byte	.LASF1054
 3838 060b 08       		.byte	0x8
 3839 060c 0C       		.byte	0xc
 3840 060d AD010000 		.4byte	0x1ad
ARM GAS  /var/folders/9j/_txx49hn253_s3mnzkyxlj8m0000gp/T//ccxigpJH.s 			page 85


 3841 0611 00       		.byte	0
 3842 0612 0A       		.uleb128 0xa
 3843 0613 736F6300 		.ascii	"soc\000"
 3844 0617 08       		.byte	0x8
 3845 0618 0D       		.byte	0xd
 3846 0619 DD000000 		.4byte	0xdd
 3847 061d 02       		.byte	0x2
 3848 061e 0B       		.uleb128 0xb
 3849 061f 377F0000 		.4byte	.LASF1055
 3850 0623 08       		.byte	0x8
 3851 0624 0E       		.byte	0xe
 3852 0625 48030000 		.4byte	0x348
 3853 0629 04       		.byte	0x4
 3854 062a 0B       		.uleb128 0xb
 3855 062b 92650000 		.4byte	.LASF1056
 3856 062f 08       		.byte	0x8
 3857 0630 0F       		.byte	0xf
 3858 0631 48030000 		.4byte	0x348
 3859 0635 05       		.byte	0x5
 3860 0636 0B       		.uleb128 0xb
 3861 0637 D2870000 		.4byte	.LASF1057
 3862 063b 08       		.byte	0x8
 3863 063c 10       		.byte	0x10
 3864 063d 48030000 		.4byte	0x348
 3865 0641 06       		.byte	0x6
 3866 0642 00       		.byte	0
 3867 0643 03       		.uleb128 0x3
 3868 0644 70720000 		.4byte	.LASF1058
 3869 0648 08       		.byte	0x8
 3870 0649 11       		.byte	0x11
 3871 064a FE050000 		.4byte	0x5fe
 3872 064e 09       		.uleb128 0x9
 3873 064f 0A       		.byte	0xa
 3874 0650 08       		.byte	0x8
 3875 0651 13       		.byte	0x13
 3876 0652 93060000 		.4byte	0x693
 3877 0656 0B       		.uleb128 0xb
 3878 0657 3B6E0000 		.4byte	.LASF1059
 3879 065b 08       		.byte	0x8
 3880 065c 14       		.byte	0x14
 3881 065d D2000000 		.4byte	0xd2
 3882 0661 00       		.byte	0
 3883 0662 0B       		.uleb128 0xb
 3884 0663 A58C0000 		.4byte	.LASF1060
 3885 0667 08       		.byte	0x8
 3886 0668 15       		.byte	0x15
 3887 0669 D2000000 		.4byte	0xd2
 3888 066d 02       		.byte	0x2
 3889 066e 0B       		.uleb128 0xb
 3890 066f 3D850000 		.4byte	.LASF1061
 3891 0673 08       		.byte	0x8
 3892 0674 16       		.byte	0x16
 3893 0675 D2000000 		.4byte	0xd2
 3894 0679 04       		.byte	0x4
 3895 067a 0B       		.uleb128 0xb
 3896 067b 0B530000 		.4byte	.LASF1062
 3897 067f 08       		.byte	0x8
ARM GAS  /var/folders/9j/_txx49hn253_s3mnzkyxlj8m0000gp/T//ccxigpJH.s 			page 86


 3898 0680 17       		.byte	0x17
 3899 0681 DD000000 		.4byte	0xdd
 3900 0685 06       		.byte	0x6
 3901 0686 0B       		.uleb128 0xb
 3902 0687 881B0000 		.4byte	.LASF1063
 3903 068b 08       		.byte	0x8
 3904 068c 18       		.byte	0x18
 3905 068d DD000000 		.4byte	0xdd
 3906 0691 08       		.byte	0x8
 3907 0692 00       		.byte	0
 3908 0693 03       		.uleb128 0x3
 3909 0694 61940000 		.4byte	.LASF1064
 3910 0698 08       		.byte	0x8
 3911 0699 19       		.byte	0x19
 3912 069a 4E060000 		.4byte	0x64e
 3913 069e 09       		.uleb128 0x9
 3914 069f 0E       		.byte	0xe
 3915 06a0 08       		.byte	0x8
 3916 06a1 1B       		.byte	0x1b
 3917 06a2 FB060000 		.4byte	0x6fb
 3918 06a6 0B       		.uleb128 0xb
 3919 06a7 CB110000 		.4byte	.LASF1065
 3920 06ab 08       		.byte	0x8
 3921 06ac 1C       		.byte	0x1c
 3922 06ad DD000000 		.4byte	0xdd
 3923 06b1 00       		.byte	0
 3924 06b2 0B       		.uleb128 0xb
 3925 06b3 A6290000 		.4byte	.LASF1066
 3926 06b7 08       		.byte	0x8
 3927 06b8 1D       		.byte	0x1d
 3928 06b9 D2000000 		.4byte	0xd2
 3929 06bd 02       		.byte	0x2
 3930 06be 0B       		.uleb128 0xb
 3931 06bf A2050000 		.4byte	.LASF1067
 3932 06c3 08       		.byte	0x8
 3933 06c4 1E       		.byte	0x1e
 3934 06c5 DD000000 		.4byte	0xdd
 3935 06c9 04       		.byte	0x4
 3936 06ca 0B       		.uleb128 0xb
 3937 06cb 476B0000 		.4byte	.LASF1068
 3938 06cf 08       		.byte	0x8
 3939 06d0 1F       		.byte	0x1f
 3940 06d1 DD000000 		.4byte	0xdd
 3941 06d5 06       		.byte	0x6
 3942 06d6 0B       		.uleb128 0xb
 3943 06d7 1C0B0000 		.4byte	.LASF1069
 3944 06db 08       		.byte	0x8
 3945 06dc 20       		.byte	0x20
 3946 06dd C7000000 		.4byte	0xc7
 3947 06e1 08       		.byte	0x8
 3948 06e2 0B       		.uleb128 0xb
 3949 06e3 4C970000 		.4byte	.LASF1070
 3950 06e7 08       		.byte	0x8
 3951 06e8 21       		.byte	0x21
 3952 06e9 DD000000 		.4byte	0xdd
 3953 06ed 0A       		.byte	0xa
 3954 06ee 0B       		.uleb128 0xb
ARM GAS  /var/folders/9j/_txx49hn253_s3mnzkyxlj8m0000gp/T//ccxigpJH.s 			page 87


 3955 06ef BF630000 		.4byte	.LASF1071
 3956 06f3 08       		.byte	0x8
 3957 06f4 22       		.byte	0x22
 3958 06f5 C7000000 		.4byte	0xc7
 3959 06f9 0C       		.byte	0xc
 3960 06fa 00       		.byte	0
 3961 06fb 03       		.uleb128 0x3
 3962 06fc 92910000 		.4byte	.LASF1072
 3963 0700 08       		.byte	0x8
 3964 0701 23       		.byte	0x23
 3965 0702 9E060000 		.4byte	0x69e
 3966 0706 09       		.uleb128 0x9
 3967 0707 01       		.byte	0x1
 3968 0708 08       		.byte	0x8
 3969 0709 25       		.byte	0x25
 3970 070a 1B070000 		.4byte	0x71b
 3971 070e 0B       		.uleb128 0xb
 3972 070f E30D0000 		.4byte	.LASF1073
 3973 0713 08       		.byte	0x8
 3974 0714 26       		.byte	0x26
 3975 0715 1B020000 		.4byte	0x21b
 3976 0719 00       		.byte	0
 3977 071a 00       		.byte	0
 3978 071b 03       		.uleb128 0x3
 3979 071c 8F0A0000 		.4byte	.LASF1074
 3980 0720 08       		.byte	0x8
 3981 0721 27       		.byte	0x27
 3982 0722 06070000 		.4byte	0x706
 3983 0726 09       		.uleb128 0x9
 3984 0727 01       		.byte	0x1
 3985 0728 09       		.byte	0x9
 3986 0729 0B       		.byte	0xb
 3987 072a 3A070000 		.4byte	0x73a
 3988 072e 0A       		.uleb128 0xa
 3989 072f 6F6B00   		.ascii	"ok\000"
 3990 0732 09       		.byte	0x9
 3991 0733 0C       		.byte	0xc
 3992 0734 48030000 		.4byte	0x348
 3993 0738 00       		.byte	0
 3994 0739 00       		.byte	0
 3995 073a 03       		.uleb128 0x3
 3996 073b B0860000 		.4byte	.LASF1075
 3997 073f 09       		.byte	0x9
 3998 0740 0D       		.byte	0xd
 3999 0741 26070000 		.4byte	0x726
 4000 0745 09       		.uleb128 0x9
 4001 0746 01       		.byte	0x1
 4002 0747 09       		.byte	0x9
 4003 0748 0F       		.byte	0xf
 4004 0749 5A070000 		.4byte	0x75a
 4005 074d 0B       		.uleb128 0xb
 4006 074e E30D0000 		.4byte	.LASF1073
 4007 0752 09       		.byte	0x9
 4008 0753 10       		.byte	0x10
 4009 0754 EC020000 		.4byte	0x2ec
 4010 0758 00       		.byte	0
 4011 0759 00       		.byte	0
ARM GAS  /var/folders/9j/_txx49hn253_s3mnzkyxlj8m0000gp/T//ccxigpJH.s 			page 88


 4012 075a 03       		.uleb128 0x3
 4013 075b 3F1B0000 		.4byte	.LASF1076
 4014 075f 09       		.byte	0x9
 4015 0760 11       		.byte	0x11
 4016 0761 45070000 		.4byte	0x745
 4017 0765 09       		.uleb128 0x9
 4018 0766 04       		.byte	0x4
 4019 0767 0A       		.byte	0xa
 4020 0768 0B       		.byte	0xb
 4021 0769 86070000 		.4byte	0x786
 4022 076d 0B       		.uleb128 0xb
 4023 076e E30D0000 		.4byte	.LASF1073
 4024 0772 0A       		.byte	0xa
 4025 0773 0C       		.byte	0xc
 4026 0774 B4020000 		.4byte	0x2b4
 4027 0778 00       		.byte	0
 4028 0779 0B       		.uleb128 0xb
 4029 077a 12250000 		.4byte	.LASF1077
 4030 077e 0A       		.byte	0xa
 4031 077f 0D       		.byte	0xd
 4032 0780 D2000000 		.4byte	0xd2
 4033 0784 02       		.byte	0x2
 4034 0785 00       		.byte	0
 4035 0786 03       		.uleb128 0x3
 4036 0787 77250000 		.4byte	.LASF1078
 4037 078b 0A       		.byte	0xa
 4038 078c 0E       		.byte	0xe
 4039 078d 65070000 		.4byte	0x765
 4040 0791 09       		.uleb128 0x9
 4041 0792 19       		.byte	0x19
 4042 0793 0A       		.byte	0xa
 4043 0794 10       		.byte	0x10
 4044 0795 C6080000 		.4byte	0x8c6
 4045 0799 0B       		.uleb128 0xb
 4046 079a 3A530000 		.4byte	.LASF1079
 4047 079e 0A       		.byte	0xa
 4048 079f 11       		.byte	0x11
 4049 07a0 48030000 		.4byte	0x348
 4050 07a4 00       		.byte	0
 4051 07a5 0B       		.uleb128 0xb
 4052 07a6 94540000 		.4byte	.LASF1080
 4053 07aa 0A       		.byte	0xa
 4054 07ab 12       		.byte	0x12
 4055 07ac 48030000 		.4byte	0x348
 4056 07b0 01       		.byte	0x1
 4057 07b1 0B       		.uleb128 0xb
 4058 07b2 B94F0000 		.4byte	.LASF1081
 4059 07b6 0A       		.byte	0xa
 4060 07b7 13       		.byte	0x13
 4061 07b8 48030000 		.4byte	0x348
 4062 07bc 02       		.byte	0x2
 4063 07bd 0B       		.uleb128 0xb
 4064 07be EF1D0000 		.4byte	.LASF1082
 4065 07c2 0A       		.byte	0xa
 4066 07c3 14       		.byte	0x14
 4067 07c4 48030000 		.4byte	0x348
 4068 07c8 03       		.byte	0x3
ARM GAS  /var/folders/9j/_txx49hn253_s3mnzkyxlj8m0000gp/T//ccxigpJH.s 			page 89


 4069 07c9 0B       		.uleb128 0xb
 4070 07ca 5F390000 		.4byte	.LASF1083
 4071 07ce 0A       		.byte	0xa
 4072 07cf 15       		.byte	0x15
 4073 07d0 48030000 		.4byte	0x348
 4074 07d4 04       		.byte	0x4
 4075 07d5 0B       		.uleb128 0xb
 4076 07d6 73860000 		.4byte	.LASF1084
 4077 07da 0A       		.byte	0xa
 4078 07db 16       		.byte	0x16
 4079 07dc 48030000 		.4byte	0x348
 4080 07e0 05       		.byte	0x5
 4081 07e1 0B       		.uleb128 0xb
 4082 07e2 76280000 		.4byte	.LASF1085
 4083 07e6 0A       		.byte	0xa
 4084 07e7 17       		.byte	0x17
 4085 07e8 48030000 		.4byte	0x348
 4086 07ec 06       		.byte	0x6
 4087 07ed 0B       		.uleb128 0xb
 4088 07ee A0780000 		.4byte	.LASF1086
 4089 07f2 0A       		.byte	0xa
 4090 07f3 18       		.byte	0x18
 4091 07f4 48030000 		.4byte	0x348
 4092 07f8 07       		.byte	0x7
 4093 07f9 0B       		.uleb128 0xb
 4094 07fa B4470000 		.4byte	.LASF1087
 4095 07fe 0A       		.byte	0xa
 4096 07ff 19       		.byte	0x19
 4097 0800 48030000 		.4byte	0x348
 4098 0804 08       		.byte	0x8
 4099 0805 0B       		.uleb128 0xb
 4100 0806 4F630000 		.4byte	.LASF1088
 4101 080a 0A       		.byte	0xa
 4102 080b 1A       		.byte	0x1a
 4103 080c 48030000 		.4byte	0x348
 4104 0810 09       		.byte	0x9
 4105 0811 0B       		.uleb128 0xb
 4106 0812 97290000 		.4byte	.LASF1089
 4107 0816 0A       		.byte	0xa
 4108 0817 1B       		.byte	0x1b
 4109 0818 48030000 		.4byte	0x348
 4110 081c 0A       		.byte	0xa
 4111 081d 0B       		.uleb128 0xb
 4112 081e 78650000 		.4byte	.LASF1090
 4113 0822 0A       		.byte	0xa
 4114 0823 1C       		.byte	0x1c
 4115 0824 48030000 		.4byte	0x348
 4116 0828 0B       		.byte	0xb
 4117 0829 0B       		.uleb128 0xb
 4118 082a A1280000 		.4byte	.LASF1091
 4119 082e 0A       		.byte	0xa
 4120 082f 1D       		.byte	0x1d
 4121 0830 48030000 		.4byte	0x348
 4122 0834 0C       		.byte	0xc
 4123 0835 0B       		.uleb128 0xb
 4124 0836 13650000 		.4byte	.LASF1092
 4125 083a 0A       		.byte	0xa
ARM GAS  /var/folders/9j/_txx49hn253_s3mnzkyxlj8m0000gp/T//ccxigpJH.s 			page 90


 4126 083b 1E       		.byte	0x1e
 4127 083c 48030000 		.4byte	0x348
 4128 0840 0D       		.byte	0xd
 4129 0841 0B       		.uleb128 0xb
 4130 0842 9D590000 		.4byte	.LASF1093
 4131 0846 0A       		.byte	0xa
 4132 0847 1F       		.byte	0x1f
 4133 0848 48030000 		.4byte	0x348
 4134 084c 0E       		.byte	0xe
 4135 084d 0B       		.uleb128 0xb
 4136 084e 151E0000 		.4byte	.LASF1094
 4137 0852 0A       		.byte	0xa
 4138 0853 21       		.byte	0x21
 4139 0854 48030000 		.4byte	0x348
 4140 0858 0F       		.byte	0xf
 4141 0859 0B       		.uleb128 0xb
 4142 085a B6800000 		.4byte	.LASF1095
 4143 085e 0A       		.byte	0xa
 4144 085f 22       		.byte	0x22
 4145 0860 48030000 		.4byte	0x348
 4146 0864 10       		.byte	0x10
 4147 0865 0B       		.uleb128 0xb
 4148 0866 04230000 		.4byte	.LASF1096
 4149 086a 0A       		.byte	0xa
 4150 086b 23       		.byte	0x23
 4151 086c 48030000 		.4byte	0x348
 4152 0870 11       		.byte	0x11
 4153 0871 0B       		.uleb128 0xb
 4154 0872 3C240000 		.4byte	.LASF1097
 4155 0876 0A       		.byte	0xa
 4156 0877 24       		.byte	0x24
 4157 0878 48030000 		.4byte	0x348
 4158 087c 12       		.byte	0x12
 4159 087d 0B       		.uleb128 0xb
 4160 087e 0E820000 		.4byte	.LASF1098
 4161 0882 0A       		.byte	0xa
 4162 0883 25       		.byte	0x25
 4163 0884 48030000 		.4byte	0x348
 4164 0888 13       		.byte	0x13
 4165 0889 0B       		.uleb128 0xb
 4166 088a 8B310000 		.4byte	.LASF1099
 4167 088e 0A       		.byte	0xa
 4168 088f 26       		.byte	0x26
 4169 0890 48030000 		.4byte	0x348
 4170 0894 14       		.byte	0x14
 4171 0895 0B       		.uleb128 0xb
 4172 0896 92640000 		.4byte	.LASF1100
 4173 089a 0A       		.byte	0xa
 4174 089b 27       		.byte	0x27
 4175 089c 48030000 		.4byte	0x348
 4176 08a0 15       		.byte	0x15
 4177 08a1 0B       		.uleb128 0xb
 4178 08a2 7B210000 		.4byte	.LASF1101
 4179 08a6 0A       		.byte	0xa
 4180 08a7 28       		.byte	0x28
 4181 08a8 48030000 		.4byte	0x348
 4182 08ac 16       		.byte	0x16
ARM GAS  /var/folders/9j/_txx49hn253_s3mnzkyxlj8m0000gp/T//ccxigpJH.s 			page 91


 4183 08ad 0B       		.uleb128 0xb
 4184 08ae 063F0000 		.4byte	.LASF1102
 4185 08b2 0A       		.byte	0xa
 4186 08b3 29       		.byte	0x29
 4187 08b4 48030000 		.4byte	0x348
 4188 08b8 17       		.byte	0x17
 4189 08b9 0B       		.uleb128 0xb
 4190 08ba B65F0000 		.4byte	.LASF1103
 4191 08be 0A       		.byte	0xa
 4192 08bf 2A       		.byte	0x2a
 4193 08c0 48030000 		.4byte	0x348
 4194 08c4 18       		.byte	0x18
 4195 08c5 00       		.byte	0
 4196 08c6 03       		.uleb128 0x3
 4197 08c7 30930000 		.4byte	.LASF1104
 4198 08cb 0A       		.byte	0xa
 4199 08cc 2B       		.byte	0x2b
 4200 08cd 91070000 		.4byte	0x791
 4201 08d1 09       		.uleb128 0x9
 4202 08d2 16       		.byte	0x16
 4203 08d3 0A       		.byte	0xa
 4204 08d4 2D       		.byte	0x2d
 4205 08d5 E2090000 		.4byte	0x9e2
 4206 08d9 0B       		.uleb128 0xb
 4207 08da 9E650000 		.4byte	.LASF1105
 4208 08de 0A       		.byte	0xa
 4209 08df 2E       		.byte	0x2e
 4210 08e0 48030000 		.4byte	0x348
 4211 08e4 00       		.byte	0
 4212 08e5 0B       		.uleb128 0xb
 4213 08e6 F6040000 		.4byte	.LASF1106
 4214 08ea 0A       		.byte	0xa
 4215 08eb 2F       		.byte	0x2f
 4216 08ec 48030000 		.4byte	0x348
 4217 08f0 01       		.byte	0x1
 4218 08f1 0B       		.uleb128 0xb
 4219 08f2 338B0000 		.4byte	.LASF1107
 4220 08f6 0A       		.byte	0xa
 4221 08f7 30       		.byte	0x30
 4222 08f8 48030000 		.4byte	0x348
 4223 08fc 02       		.byte	0x2
 4224 08fd 0B       		.uleb128 0xb
 4225 08fe FD200000 		.4byte	.LASF1108
 4226 0902 0A       		.byte	0xa
 4227 0903 31       		.byte	0x31
 4228 0904 48030000 		.4byte	0x348
 4229 0908 03       		.byte	0x3
 4230 0909 0B       		.uleb128 0xb
 4231 090a 8C030000 		.4byte	.LASF1109
 4232 090e 0A       		.byte	0xa
 4233 090f 32       		.byte	0x32
 4234 0910 48030000 		.4byte	0x348
 4235 0914 04       		.byte	0x4
 4236 0915 0B       		.uleb128 0xb
 4237 0916 B4590000 		.4byte	.LASF1110
 4238 091a 0A       		.byte	0xa
 4239 091b 33       		.byte	0x33
ARM GAS  /var/folders/9j/_txx49hn253_s3mnzkyxlj8m0000gp/T//ccxigpJH.s 			page 92


 4240 091c 48030000 		.4byte	0x348
 4241 0920 05       		.byte	0x5
 4242 0921 0B       		.uleb128 0xb
 4243 0922 C8210000 		.4byte	.LASF1111
 4244 0926 0A       		.byte	0xa
 4245 0927 34       		.byte	0x34
 4246 0928 48030000 		.4byte	0x348
 4247 092c 06       		.byte	0x6
 4248 092d 0B       		.uleb128 0xb
 4249 092e 82960000 		.4byte	.LASF1112
 4250 0932 0A       		.byte	0xa
 4251 0933 35       		.byte	0x35
 4252 0934 48030000 		.4byte	0x348
 4253 0938 07       		.byte	0x7
 4254 0939 0B       		.uleb128 0xb
 4255 093a A66F0000 		.4byte	.LASF1113
 4256 093e 0A       		.byte	0xa
 4257 093f 36       		.byte	0x36
 4258 0940 48030000 		.4byte	0x348
 4259 0944 08       		.byte	0x8
 4260 0945 0B       		.uleb128 0xb
 4261 0946 18250000 		.4byte	.LASF1114
 4262 094a 0A       		.byte	0xa
 4263 094b 37       		.byte	0x37
 4264 094c 48030000 		.4byte	0x348
 4265 0950 09       		.byte	0x9
 4266 0951 0B       		.uleb128 0xb
 4267 0952 C01B0000 		.4byte	.LASF1115
 4268 0956 0A       		.byte	0xa
 4269 0957 38       		.byte	0x38
 4270 0958 48030000 		.4byte	0x348
 4271 095c 0A       		.byte	0xa
 4272 095d 0B       		.uleb128 0xb
 4273 095e 39180000 		.4byte	.LASF1116
 4274 0962 0A       		.byte	0xa
 4275 0963 39       		.byte	0x39
 4276 0964 48030000 		.4byte	0x348
 4277 0968 0B       		.byte	0xb
 4278 0969 0B       		.uleb128 0xb
 4279 096a 42230000 		.4byte	.LASF1117
 4280 096e 0A       		.byte	0xa
 4281 096f 3A       		.byte	0x3a
 4282 0970 48030000 		.4byte	0x348
 4283 0974 0C       		.byte	0xc
 4284 0975 0B       		.uleb128 0xb
 4285 0976 4E6F0000 		.4byte	.LASF1118
 4286 097a 0A       		.byte	0xa
 4287 097b 3B       		.byte	0x3b
 4288 097c 48030000 		.4byte	0x348
 4289 0980 0D       		.byte	0xd
 4290 0981 0B       		.uleb128 0xb
 4291 0982 35880000 		.4byte	.LASF1119
 4292 0986 0A       		.byte	0xa
 4293 0987 3C       		.byte	0x3c
 4294 0988 48030000 		.4byte	0x348
 4295 098c 0E       		.byte	0xe
 4296 098d 0B       		.uleb128 0xb
ARM GAS  /var/folders/9j/_txx49hn253_s3mnzkyxlj8m0000gp/T//ccxigpJH.s 			page 93


 4297 098e 79130000 		.4byte	.LASF1120
 4298 0992 0A       		.byte	0xa
 4299 0993 3D       		.byte	0x3d
 4300 0994 48030000 		.4byte	0x348
 4301 0998 0F       		.byte	0xf
 4302 0999 0B       		.uleb128 0xb
 4303 099a C6360000 		.4byte	.LASF1121
 4304 099e 0A       		.byte	0xa
 4305 099f 3E       		.byte	0x3e
 4306 09a0 48030000 		.4byte	0x348
 4307 09a4 10       		.byte	0x10
 4308 09a5 0B       		.uleb128 0xb
 4309 09a6 A7640000 		.4byte	.LASF1122
 4310 09aa 0A       		.byte	0xa
 4311 09ab 3F       		.byte	0x3f
 4312 09ac 48030000 		.4byte	0x348
 4313 09b0 11       		.byte	0x11
 4314 09b1 0B       		.uleb128 0xb
 4315 09b2 0C6C0000 		.4byte	.LASF1123
 4316 09b6 0A       		.byte	0xa
 4317 09b7 40       		.byte	0x40
 4318 09b8 48030000 		.4byte	0x348
 4319 09bc 12       		.byte	0x12
 4320 09bd 0B       		.uleb128 0xb
 4321 09be 10460000 		.4byte	.LASF1124
 4322 09c2 0A       		.byte	0xa
 4323 09c3 41       		.byte	0x41
 4324 09c4 48030000 		.4byte	0x348
 4325 09c8 13       		.byte	0x13
 4326 09c9 0B       		.uleb128 0xb
 4327 09ca 07490000 		.4byte	.LASF1125
 4328 09ce 0A       		.byte	0xa
 4329 09cf 42       		.byte	0x42
 4330 09d0 48030000 		.4byte	0x348
 4331 09d4 14       		.byte	0x14
 4332 09d5 0B       		.uleb128 0xb
 4333 09d6 3F660000 		.4byte	.LASF1126
 4334 09da 0A       		.byte	0xa
 4335 09db 43       		.byte	0x43
 4336 09dc 48030000 		.4byte	0x348
 4337 09e0 15       		.byte	0x15
 4338 09e1 00       		.byte	0
 4339 09e2 03       		.uleb128 0x3
 4340 09e3 9B3B0000 		.4byte	.LASF1127
 4341 09e7 0A       		.byte	0xa
 4342 09e8 44       		.byte	0x44
 4343 09e9 D1080000 		.4byte	0x8d1
 4344 09ed 09       		.uleb128 0x9
 4345 09ee 04       		.byte	0x4
 4346 09ef 0B       		.byte	0xb
 4347 09f0 0B       		.byte	0xb
 4348 09f1 020A0000 		.4byte	0xa02
 4349 09f5 0B       		.uleb128 0xb
 4350 09f6 EA900000 		.4byte	.LASF1128
 4351 09fa 0B       		.byte	0xb
 4352 09fb 0C       		.byte	0xc
 4353 09fc E8000000 		.4byte	0xe8
ARM GAS  /var/folders/9j/_txx49hn253_s3mnzkyxlj8m0000gp/T//ccxigpJH.s 			page 94


 4354 0a00 00       		.byte	0
 4355 0a01 00       		.byte	0
 4356 0a02 03       		.uleb128 0x3
 4357 0a03 CE450000 		.4byte	.LASF1129
 4358 0a07 0B       		.byte	0xb
 4359 0a08 0D       		.byte	0xd
 4360 0a09 ED090000 		.4byte	0x9ed
 4361 0a0d 09       		.uleb128 0x9
 4362 0a0e 04       		.byte	0x4
 4363 0a0f 0B       		.byte	0xb
 4364 0a10 0F       		.byte	0xf
 4365 0a11 220A0000 		.4byte	0xa22
 4366 0a15 0B       		.uleb128 0xb
 4367 0a16 BD510000 		.4byte	.LASF1130
 4368 0a1a 0B       		.byte	0xb
 4369 0a1b 10       		.byte	0x10
 4370 0a1c E8000000 		.4byte	0xe8
 4371 0a20 00       		.byte	0
 4372 0a21 00       		.byte	0
 4373 0a22 03       		.uleb128 0x3
 4374 0a23 3C500000 		.4byte	.LASF1131
 4375 0a27 0B       		.byte	0xb
 4376 0a28 11       		.byte	0x11
 4377 0a29 0D0A0000 		.4byte	0xa0d
 4378 0a2d 09       		.uleb128 0x9
 4379 0a2e 04       		.byte	0x4
 4380 0a2f 0B       		.byte	0xb
 4381 0a30 13       		.byte	0x13
 4382 0a31 420A0000 		.4byte	0xa42
 4383 0a35 0B       		.uleb128 0xb
 4384 0a36 90210000 		.4byte	.LASF1132
 4385 0a3a 0B       		.byte	0xb
 4386 0a3b 14       		.byte	0x14
 4387 0a3c E8000000 		.4byte	0xe8
 4388 0a40 00       		.byte	0
 4389 0a41 00       		.byte	0
 4390 0a42 03       		.uleb128 0x3
 4391 0a43 30950000 		.4byte	.LASF1133
 4392 0a47 0B       		.byte	0xb
 4393 0a48 15       		.byte	0x15
 4394 0a49 2D0A0000 		.4byte	0xa2d
 4395 0a4d 09       		.uleb128 0x9
 4396 0a4e 04       		.byte	0x4
 4397 0a4f 0B       		.byte	0xb
 4398 0a50 17       		.byte	0x17
 4399 0a51 620A0000 		.4byte	0xa62
 4400 0a55 0B       		.uleb128 0xb
 4401 0a56 E2210000 		.4byte	.LASF1134
 4402 0a5a 0B       		.byte	0xb
 4403 0a5b 18       		.byte	0x18
 4404 0a5c E8000000 		.4byte	0xe8
 4405 0a60 00       		.byte	0
 4406 0a61 00       		.byte	0
 4407 0a62 03       		.uleb128 0x3
 4408 0a63 974C0000 		.4byte	.LASF1135
 4409 0a67 0B       		.byte	0xb
 4410 0a68 19       		.byte	0x19
ARM GAS  /var/folders/9j/_txx49hn253_s3mnzkyxlj8m0000gp/T//ccxigpJH.s 			page 95


 4411 0a69 4D0A0000 		.4byte	0xa4d
 4412 0a6d 10       		.uleb128 0x10
 4413 0a6e B85C0000 		.4byte	.LASF1137
 4414 0a72 01       		.byte	0x1
 4415 0a73 10       		.byte	0x10
 4416 0a74 00000000 		.4byte	.LFB0
 4417 0a78 70000000 		.4byte	.LFE0-.LFB0
 4418 0a7c 01       		.uleb128 0x1
 4419 0a7d 9C       		.byte	0x9c
 4420 0a7e CE0A0000 		.4byte	0xace
 4421 0a82 11       		.uleb128 0x11
 4422 0a83 7D5F0000 		.4byte	.LASF1136
 4423 0a87 01       		.byte	0x1
 4424 0a88 10       		.byte	0x10
 4425 0a89 09010000 		.4byte	0x109
 4426 0a8d 00000000 		.4byte	.LLST0
 4427 0a91 12       		.uleb128 0x12
 4428 0a92 6F757400 		.ascii	"out\000"
 4429 0a96 01       		.byte	0x1
 4430 0a97 10       		.byte	0x10
 4431 0a98 FE000000 		.4byte	0xfe
 4432 0a9c 2C000000 		.4byte	.LLST1
 4433 0aa0 12       		.uleb128 0x12
 4434 0aa1 6C656E00 		.ascii	"len\000"
 4435 0aa5 01       		.byte	0x1
 4436 0aa6 10       		.byte	0x10
 4437 0aa7 C7000000 		.4byte	0xc7
 4438 0aab 54000000 		.4byte	.LLST2
 4439 0aaf 13       		.uleb128 0x13
 4440 0ab0 6900     		.ascii	"i\000"
 4441 0ab2 01       		.byte	0x1
 4442 0ab3 11       		.byte	0x11
 4443 0ab4 BC000000 		.4byte	0xbc
 4444 0ab8 80000000 		.4byte	.LLST3
 4445 0abc 14       		.uleb128 0x14
 4446 0abd 00000000 		.4byte	.Ldebug_ranges0+0
 4447 0ac1 15       		.uleb128 0x15
 4448 0ac2 2F130000 		.4byte	.LASF1141
 4449 0ac6 01       		.byte	0x1
 4450 0ac7 13       		.byte	0x13
 4451 0ac8 48030000 		.4byte	0x348
 4452 0acc 00       		.byte	0
 4453 0acd 00       		.byte	0
 4454 0ace 10       		.uleb128 0x10
 4455 0acf F3620000 		.4byte	.LASF1138
 4456 0ad3 01       		.byte	0x1
 4457 0ad4 18       		.byte	0x18
 4458 0ad5 00000000 		.4byte	.LFB1
 4459 0ad9 84000000 		.4byte	.LFE1-.LFB1
 4460 0add 01       		.uleb128 0x1
 4461 0ade 9C       		.byte	0x9c
 4462 0adf 800B0000 		.4byte	0xb80
 4463 0ae3 11       		.uleb128 0x11
 4464 0ae4 7D5F0000 		.4byte	.LASF1136
 4465 0ae8 01       		.byte	0x1
 4466 0ae9 18       		.byte	0x18
 4467 0aea 09010000 		.4byte	0x109
ARM GAS  /var/folders/9j/_txx49hn253_s3mnzkyxlj8m0000gp/T//ccxigpJH.s 			page 96


 4468 0aee 9E000000 		.4byte	.LLST4
 4469 0af2 16       		.uleb128 0x16
 4470 0af3 D3630000 		.4byte	.LASF1139
 4471 0af7 01       		.byte	0x1
 4472 0af8 19       		.byte	0x19
 4473 0af9 4F030000 		.4byte	0x34f
 4474 0afd 02       		.uleb128 0x2
 4475 0afe 91       		.byte	0x91
 4476 0aff 54       		.sleb128 -44
 4477 0b00 17       		.uleb128 0x17
 4478 0b01 6D696400 		.ascii	"mid\000"
 4479 0b05 01       		.byte	0x1
 4480 0b06 21       		.byte	0x21
 4481 0b07 6F010000 		.4byte	0x16f
 4482 0b0b 02       		.uleb128 0x2
 4483 0b0c 91       		.byte	0x91
 4484 0b0d 64       		.sleb128 -28
 4485 0b0e 16       		.uleb128 0x16
 4486 0b0f 34310000 		.4byte	.LASF1140
 4487 0b13 01       		.byte	0x1
 4488 0b14 21       		.byte	0x21
 4489 0b15 FE000000 		.4byte	0xfe
 4490 0b19 02       		.uleb128 0x2
 4491 0b1a 91       		.byte	0x91
 4492 0b1b 48       		.sleb128 -56
 4493 0b1c 17       		.uleb128 0x17
 4494 0b1d 656E6400 		.ascii	"end\000"
 4495 0b21 01       		.byte	0x1
 4496 0b22 21       		.byte	0x21
 4497 0b23 4F030000 		.4byte	0x34f
 4498 0b27 02       		.uleb128 0x2
 4499 0b28 91       		.byte	0x91
 4500 0b29 5C       		.sleb128 -36
 4501 0b2a 15       		.uleb128 0x15
 4502 0b2b A4310000 		.4byte	.LASF1142
 4503 0b2f 01       		.byte	0x1
 4504 0b30 23       		.byte	0x23
 4505 0b31 48030000 		.4byte	0x348
 4506 0b35 18       		.uleb128 0x18
 4507 0b36 26000000 		.4byte	.LVL12
 4508 0b3a 921C0000 		.4byte	0x1c92
 4509 0b3e 4F0B0000 		.4byte	0xb4f
 4510 0b42 19       		.uleb128 0x19
 4511 0b43 01       		.uleb128 0x1
 4512 0b44 51       		.byte	0x51
 4513 0b45 02       		.uleb128 0x2
 4514 0b46 91       		.byte	0x91
 4515 0b47 64       		.sleb128 -28
 4516 0b48 19       		.uleb128 0x19
 4517 0b49 01       		.uleb128 0x1
 4518 0b4a 50       		.byte	0x50
 4519 0b4b 02       		.uleb128 0x2
 4520 0b4c 74       		.byte	0x74
 4521 0b4d 00       		.sleb128 0
 4522 0b4e 00       		.byte	0
 4523 0b4f 18       		.uleb128 0x18
 4524 0b50 38000000 		.4byte	.LVL13
ARM GAS  /var/folders/9j/_txx49hn253_s3mnzkyxlj8m0000gp/T//ccxigpJH.s 			page 97


 4525 0b54 B41C0000 		.4byte	0x1cb4
 4526 0b58 690B0000 		.4byte	0xb69
 4527 0b5c 19       		.uleb128 0x19
 4528 0b5d 01       		.uleb128 0x1
 4529 0b5e 51       		.byte	0x51
 4530 0b5f 02       		.uleb128 0x2
 4531 0b60 7D       		.byte	0x7d
 4532 0b61 00       		.sleb128 0
 4533 0b62 19       		.uleb128 0x19
 4534 0b63 01       		.uleb128 0x1
 4535 0b64 50       		.byte	0x50
 4536 0b65 02       		.uleb128 0x2
 4537 0b66 91       		.byte	0x91
 4538 0b67 67       		.sleb128 -25
 4539 0b68 00       		.byte	0
 4540 0b69 1A       		.uleb128 0x1a
 4541 0b6a 40000000 		.4byte	.LVL14
 4542 0b6e D61C0000 		.4byte	0x1cd6
 4543 0b72 19       		.uleb128 0x19
 4544 0b73 01       		.uleb128 0x1
 4545 0b74 51       		.byte	0x51
 4546 0b75 02       		.uleb128 0x2
 4547 0b76 91       		.byte	0x91
 4548 0b77 5C       		.sleb128 -36
 4549 0b78 19       		.uleb128 0x19
 4550 0b79 01       		.uleb128 0x1
 4551 0b7a 50       		.byte	0x50
 4552 0b7b 02       		.uleb128 0x2
 4553 0b7c 91       		.byte	0x91
 4554 0b7d 64       		.sleb128 -28
 4555 0b7e 00       		.byte	0
 4556 0b7f 00       		.byte	0
 4557 0b80 10       		.uleb128 0x10
 4558 0b81 64180000 		.4byte	.LASF1143
 4559 0b85 01       		.byte	0x1
 4560 0b86 2D       		.byte	0x2d
 4561 0b87 00000000 		.4byte	.LFB2
 4562 0b8b 84000000 		.4byte	.LFE2-.LFB2
 4563 0b8f 01       		.uleb128 0x1
 4564 0b90 9C       		.byte	0x9c
 4565 0b91 320C0000 		.4byte	0xc32
 4566 0b95 11       		.uleb128 0x11
 4567 0b96 7D5F0000 		.4byte	.LASF1136
 4568 0b9a 01       		.byte	0x1
 4569 0b9b 2D       		.byte	0x2d
 4570 0b9c 09010000 		.4byte	0x109
 4571 0ba0 D5000000 		.4byte	.LLST5
 4572 0ba4 16       		.uleb128 0x16
 4573 0ba5 D3630000 		.4byte	.LASF1139
 4574 0ba9 01       		.byte	0x1
 4575 0baa 2E       		.byte	0x2e
 4576 0bab 9F030000 		.4byte	0x39f
 4577 0baf 02       		.uleb128 0x2
 4578 0bb0 91       		.byte	0x91
 4579 0bb1 4C       		.sleb128 -52
 4580 0bb2 17       		.uleb128 0x17
 4581 0bb3 6D696400 		.ascii	"mid\000"
ARM GAS  /var/folders/9j/_txx49hn253_s3mnzkyxlj8m0000gp/T//ccxigpJH.s 			page 98


 4582 0bb7 01       		.byte	0x1
 4583 0bb8 35       		.byte	0x35
 4584 0bb9 6F010000 		.4byte	0x16f
 4585 0bbd 02       		.uleb128 0x2
 4586 0bbe 91       		.byte	0x91
 4587 0bbf 64       		.sleb128 -28
 4588 0bc0 16       		.uleb128 0x16
 4589 0bc1 34310000 		.4byte	.LASF1140
 4590 0bc5 01       		.byte	0x1
 4591 0bc6 35       		.byte	0x35
 4592 0bc7 FE000000 		.4byte	0xfe
 4593 0bcb 02       		.uleb128 0x2
 4594 0bcc 91       		.byte	0x91
 4595 0bcd 40       		.sleb128 -64
 4596 0bce 17       		.uleb128 0x17
 4597 0bcf 656E6400 		.ascii	"end\000"
 4598 0bd3 01       		.byte	0x1
 4599 0bd4 35       		.byte	0x35
 4600 0bd5 9F030000 		.4byte	0x39f
 4601 0bd9 02       		.uleb128 0x2
 4602 0bda 91       		.byte	0x91
 4603 0bdb 58       		.sleb128 -40
 4604 0bdc 15       		.uleb128 0x15
 4605 0bdd A4310000 		.4byte	.LASF1142
 4606 0be1 01       		.byte	0x1
 4607 0be2 37       		.byte	0x37
 4608 0be3 48030000 		.4byte	0x348
 4609 0be7 18       		.uleb128 0x18
 4610 0be8 24000000 		.4byte	.LVL20
 4611 0bec EC1C0000 		.4byte	0x1cec
 4612 0bf0 010C0000 		.4byte	0xc01
 4613 0bf4 19       		.uleb128 0x19
 4614 0bf5 01       		.uleb128 0x1
 4615 0bf6 51       		.byte	0x51
 4616 0bf7 02       		.uleb128 0x2
 4617 0bf8 91       		.byte	0x91
 4618 0bf9 64       		.sleb128 -28
 4619 0bfa 19       		.uleb128 0x19
 4620 0bfb 01       		.uleb128 0x1
 4621 0bfc 50       		.byte	0x50
 4622 0bfd 02       		.uleb128 0x2
 4623 0bfe 74       		.byte	0x74
 4624 0bff 00       		.sleb128 0
 4625 0c00 00       		.byte	0
 4626 0c01 18       		.uleb128 0x18
 4627 0c02 36000000 		.4byte	.LVL21
 4628 0c06 B41C0000 		.4byte	0x1cb4
 4629 0c0a 1B0C0000 		.4byte	0xc1b
 4630 0c0e 19       		.uleb128 0x19
 4631 0c0f 01       		.uleb128 0x1
 4632 0c10 51       		.byte	0x51
 4633 0c11 02       		.uleb128 0x2
 4634 0c12 7D       		.byte	0x7d
 4635 0c13 00       		.sleb128 0
 4636 0c14 19       		.uleb128 0x19
 4637 0c15 01       		.uleb128 0x1
 4638 0c16 50       		.byte	0x50
ARM GAS  /var/folders/9j/_txx49hn253_s3mnzkyxlj8m0000gp/T//ccxigpJH.s 			page 99


 4639 0c17 02       		.uleb128 0x2
 4640 0c18 91       		.byte	0x91
 4641 0c19 67       		.sleb128 -25
 4642 0c1a 00       		.byte	0
 4643 0c1b 1A       		.uleb128 0x1a
 4644 0c1c 3E000000 		.4byte	.LVL22
 4645 0c20 081D0000 		.4byte	0x1d08
 4646 0c24 19       		.uleb128 0x19
 4647 0c25 01       		.uleb128 0x1
 4648 0c26 51       		.byte	0x51
 4649 0c27 02       		.uleb128 0x2
 4650 0c28 91       		.byte	0x91
 4651 0c29 58       		.sleb128 -40
 4652 0c2a 19       		.uleb128 0x19
 4653 0c2b 01       		.uleb128 0x1
 4654 0c2c 50       		.byte	0x50
 4655 0c2d 02       		.uleb128 0x2
 4656 0c2e 91       		.byte	0x91
 4657 0c2f 64       		.sleb128 -28
 4658 0c30 00       		.byte	0
 4659 0c31 00       		.byte	0
 4660 0c32 10       		.uleb128 0x10
 4661 0c33 0E130000 		.4byte	.LASF1144
 4662 0c37 01       		.byte	0x1
 4663 0c38 40       		.byte	0x40
 4664 0c39 00000000 		.4byte	.LFB3
 4665 0c3d 5C000000 		.4byte	.LFE3-.LFB3
 4666 0c41 01       		.uleb128 0x1
 4667 0c42 9C       		.byte	0x9c
 4668 0c43 E40C0000 		.4byte	0xce4
 4669 0c47 11       		.uleb128 0x11
 4670 0c48 7D5F0000 		.4byte	.LASF1136
 4671 0c4c 01       		.byte	0x1
 4672 0c4d 40       		.byte	0x40
 4673 0c4e 09010000 		.4byte	0x109
 4674 0c52 0C010000 		.4byte	.LLST6
 4675 0c56 16       		.uleb128 0x16
 4676 0c57 D3630000 		.4byte	.LASF1139
 4677 0c5b 01       		.byte	0x1
 4678 0c5c 41       		.byte	0x41
 4679 0c5d CB030000 		.4byte	0x3cb
 4680 0c61 02       		.uleb128 0x2
 4681 0c62 91       		.byte	0x91
 4682 0c63 5C       		.sleb128 -36
 4683 0c64 17       		.uleb128 0x17
 4684 0c65 6D696400 		.ascii	"mid\000"
 4685 0c69 01       		.byte	0x1
 4686 0c6a 45       		.byte	0x45
 4687 0c6b 6F010000 		.4byte	0x16f
 4688 0c6f 02       		.uleb128 0x2
 4689 0c70 91       		.byte	0x91
 4690 0c71 6C       		.sleb128 -20
 4691 0c72 16       		.uleb128 0x16
 4692 0c73 34310000 		.4byte	.LASF1140
 4693 0c77 01       		.byte	0x1
 4694 0c78 45       		.byte	0x45
 4695 0c79 FE000000 		.4byte	0xfe
ARM GAS  /var/folders/9j/_txx49hn253_s3mnzkyxlj8m0000gp/T//ccxigpJH.s 			page 100


 4696 0c7d 02       		.uleb128 0x2
 4697 0c7e 91       		.byte	0x91
 4698 0c7f 50       		.sleb128 -48
 4699 0c80 17       		.uleb128 0x17
 4700 0c81 656E6400 		.ascii	"end\000"
 4701 0c85 01       		.byte	0x1
 4702 0c86 45       		.byte	0x45
 4703 0c87 CB030000 		.4byte	0x3cb
 4704 0c8b 02       		.uleb128 0x2
 4705 0c8c 91       		.byte	0x91
 4706 0c8d 64       		.sleb128 -28
 4707 0c8e 15       		.uleb128 0x15
 4708 0c8f A4310000 		.4byte	.LASF1142
 4709 0c93 01       		.byte	0x1
 4710 0c94 47       		.byte	0x47
 4711 0c95 48030000 		.4byte	0x348
 4712 0c99 18       		.uleb128 0x18
 4713 0c9a 16000000 		.4byte	.LVL28
 4714 0c9e 1E1D0000 		.4byte	0x1d1e
 4715 0ca2 B30C0000 		.4byte	0xcb3
 4716 0ca6 19       		.uleb128 0x19
 4717 0ca7 01       		.uleb128 0x1
 4718 0ca8 51       		.byte	0x51
 4719 0ca9 02       		.uleb128 0x2
 4720 0caa 91       		.byte	0x91
 4721 0cab 6C       		.sleb128 -20
 4722 0cac 19       		.uleb128 0x19
 4723 0cad 01       		.uleb128 0x1
 4724 0cae 50       		.byte	0x50
 4725 0caf 02       		.uleb128 0x2
 4726 0cb0 91       		.byte	0x91
 4727 0cb1 5C       		.sleb128 -36
 4728 0cb2 00       		.byte	0
 4729 0cb3 18       		.uleb128 0x18
 4730 0cb4 28000000 		.4byte	.LVL29
 4731 0cb8 B41C0000 		.4byte	0x1cb4
 4732 0cbc CD0C0000 		.4byte	0xccd
 4733 0cc0 19       		.uleb128 0x19
 4734 0cc1 01       		.uleb128 0x1
 4735 0cc2 51       		.byte	0x51
 4736 0cc3 02       		.uleb128 0x2
 4737 0cc4 7D       		.byte	0x7d
 4738 0cc5 00       		.sleb128 0
 4739 0cc6 19       		.uleb128 0x19
 4740 0cc7 01       		.uleb128 0x1
 4741 0cc8 50       		.byte	0x50
 4742 0cc9 02       		.uleb128 0x2
 4743 0cca 91       		.byte	0x91
 4744 0ccb 6F       		.sleb128 -17
 4745 0ccc 00       		.byte	0
 4746 0ccd 1A       		.uleb128 0x1a
 4747 0cce 30000000 		.4byte	.LVL30
 4748 0cd2 3A1D0000 		.4byte	0x1d3a
 4749 0cd6 19       		.uleb128 0x19
 4750 0cd7 01       		.uleb128 0x1
 4751 0cd8 51       		.byte	0x51
 4752 0cd9 02       		.uleb128 0x2
ARM GAS  /var/folders/9j/_txx49hn253_s3mnzkyxlj8m0000gp/T//ccxigpJH.s 			page 101


 4753 0cda 91       		.byte	0x91
 4754 0cdb 64       		.sleb128 -28
 4755 0cdc 19       		.uleb128 0x19
 4756 0cdd 01       		.uleb128 0x1
 4757 0cde 50       		.byte	0x50
 4758 0cdf 02       		.uleb128 0x2
 4759 0ce0 91       		.byte	0x91
 4760 0ce1 6C       		.sleb128 -20
 4761 0ce2 00       		.byte	0
 4762 0ce3 00       		.byte	0
 4763 0ce4 10       		.uleb128 0x10
 4764 0ce5 B07E0000 		.4byte	.LASF1145
 4765 0ce9 01       		.byte	0x1
 4766 0cea 4F       		.byte	0x4f
 4767 0ceb 00000000 		.4byte	.LFB4
 4768 0cef 50000000 		.4byte	.LFE4-.LFB4
 4769 0cf3 01       		.uleb128 0x1
 4770 0cf4 9C       		.byte	0x9c
 4771 0cf5 9A0D0000 		.4byte	0xd9a
 4772 0cf9 11       		.uleb128 0x11
 4773 0cfa 7D5F0000 		.4byte	.LASF1136
 4774 0cfe 01       		.byte	0x1
 4775 0cff 4F       		.byte	0x4f
 4776 0d00 09010000 		.4byte	0x109
 4777 0d04 43010000 		.4byte	.LLST7
 4778 0d08 16       		.uleb128 0x16
 4779 0d09 D3630000 		.4byte	.LASF1139
 4780 0d0d 01       		.byte	0x1
 4781 0d0e 50       		.byte	0x50
 4782 0d0f EB030000 		.4byte	0x3eb
 4783 0d13 02       		.uleb128 0x2
 4784 0d14 91       		.byte	0x91
 4785 0d15 50       		.sleb128 -48
 4786 0d16 17       		.uleb128 0x17
 4787 0d17 6D696400 		.ascii	"mid\000"
 4788 0d1b 01       		.byte	0x1
 4789 0d1c 53       		.byte	0x53
 4790 0d1d 6F010000 		.4byte	0x16f
 4791 0d21 02       		.uleb128 0x2
 4792 0d22 91       		.byte	0x91
 4793 0d23 64       		.sleb128 -28
 4794 0d24 16       		.uleb128 0x16
 4795 0d25 34310000 		.4byte	.LASF1140
 4796 0d29 01       		.byte	0x1
 4797 0d2a 53       		.byte	0x53
 4798 0d2b FE000000 		.4byte	0xfe
 4799 0d2f 02       		.uleb128 0x2
 4800 0d30 91       		.byte	0x91
 4801 0d31 58       		.sleb128 -40
 4802 0d32 17       		.uleb128 0x17
 4803 0d33 656E6400 		.ascii	"end\000"
 4804 0d37 01       		.byte	0x1
 4805 0d38 53       		.byte	0x53
 4806 0d39 EB030000 		.4byte	0x3eb
 4807 0d3d 02       		.uleb128 0x2
 4808 0d3e 91       		.byte	0x91
 4809 0d3f 54       		.sleb128 -44
ARM GAS  /var/folders/9j/_txx49hn253_s3mnzkyxlj8m0000gp/T//ccxigpJH.s 			page 102


 4810 0d40 1B       		.uleb128 0x1b
 4811 0d41 A4310000 		.4byte	.LASF1142
 4812 0d45 01       		.byte	0x1
 4813 0d46 55       		.byte	0x55
 4814 0d47 48030000 		.4byte	0x348
 4815 0d4b 7A010000 		.4byte	.LLST8
 4816 0d4f 18       		.uleb128 0x18
 4817 0d50 14000000 		.4byte	.LVL36
 4818 0d54 501D0000 		.4byte	0x1d50
 4819 0d58 690D0000 		.4byte	0xd69
 4820 0d5c 19       		.uleb128 0x19
 4821 0d5d 01       		.uleb128 0x1
 4822 0d5e 51       		.byte	0x51
 4823 0d5f 02       		.uleb128 0x2
 4824 0d60 91       		.byte	0x91
 4825 0d61 64       		.sleb128 -28
 4826 0d62 19       		.uleb128 0x19
 4827 0d63 01       		.uleb128 0x1
 4828 0d64 50       		.byte	0x50
 4829 0d65 02       		.uleb128 0x2
 4830 0d66 7D       		.byte	0x7d
 4831 0d67 00       		.sleb128 0
 4832 0d68 00       		.byte	0
 4833 0d69 18       		.uleb128 0x18
 4834 0d6a 28000000 		.4byte	.LVL37
 4835 0d6e B41C0000 		.4byte	0x1cb4
 4836 0d72 830D0000 		.4byte	0xd83
 4837 0d76 19       		.uleb128 0x19
 4838 0d77 01       		.uleb128 0x1
 4839 0d78 51       		.byte	0x51
 4840 0d79 02       		.uleb128 0x2
 4841 0d7a 91       		.byte	0x91
 4842 0d7b 58       		.sleb128 -40
 4843 0d7c 19       		.uleb128 0x19
 4844 0d7d 01       		.uleb128 0x1
 4845 0d7e 50       		.byte	0x50
 4846 0d7f 02       		.uleb128 0x2
 4847 0d80 91       		.byte	0x91
 4848 0d81 67       		.sleb128 -25
 4849 0d82 00       		.byte	0
 4850 0d83 1A       		.uleb128 0x1a
 4851 0d84 30000000 		.4byte	.LVL38
 4852 0d88 6C1D0000 		.4byte	0x1d6c
 4853 0d8c 19       		.uleb128 0x19
 4854 0d8d 01       		.uleb128 0x1
 4855 0d8e 51       		.byte	0x51
 4856 0d8f 02       		.uleb128 0x2
 4857 0d90 74       		.byte	0x74
 4858 0d91 00       		.sleb128 0
 4859 0d92 19       		.uleb128 0x19
 4860 0d93 01       		.uleb128 0x1
 4861 0d94 50       		.byte	0x50
 4862 0d95 02       		.uleb128 0x2
 4863 0d96 91       		.byte	0x91
 4864 0d97 64       		.sleb128 -28
 4865 0d98 00       		.byte	0
 4866 0d99 00       		.byte	0
ARM GAS  /var/folders/9j/_txx49hn253_s3mnzkyxlj8m0000gp/T//ccxigpJH.s 			page 103


 4867 0d9a 10       		.uleb128 0x10
 4868 0d9b E7980000 		.4byte	.LASF1146
 4869 0d9f 01       		.byte	0x1
 4870 0da0 5B       		.byte	0x5b
 4871 0da1 00000000 		.4byte	.LFB5
 4872 0da5 5C000000 		.4byte	.LFE5-.LFB5
 4873 0da9 01       		.uleb128 0x1
 4874 0daa 9C       		.byte	0x9c
 4875 0dab 4C0E0000 		.4byte	0xe4c
 4876 0daf 11       		.uleb128 0x11
 4877 0db0 7D5F0000 		.4byte	.LASF1136
 4878 0db4 01       		.byte	0x1
 4879 0db5 5B       		.byte	0x5b
 4880 0db6 09010000 		.4byte	0x109
 4881 0dba AA010000 		.4byte	.LLST9
 4882 0dbe 16       		.uleb128 0x16
 4883 0dbf D3630000 		.4byte	.LASF1139
 4884 0dc3 01       		.byte	0x1
 4885 0dc4 5C       		.byte	0x5c
 4886 0dc5 17040000 		.4byte	0x417
 4887 0dc9 02       		.uleb128 0x2
 4888 0dca 91       		.byte	0x91
 4889 0dcb 5C       		.sleb128 -36
 4890 0dcc 17       		.uleb128 0x17
 4891 0dcd 6D696400 		.ascii	"mid\000"
 4892 0dd1 01       		.byte	0x1
 4893 0dd2 60       		.byte	0x60
 4894 0dd3 6F010000 		.4byte	0x16f
 4895 0dd7 02       		.uleb128 0x2
 4896 0dd8 91       		.byte	0x91
 4897 0dd9 6C       		.sleb128 -20
 4898 0dda 16       		.uleb128 0x16
 4899 0ddb 34310000 		.4byte	.LASF1140
 4900 0ddf 01       		.byte	0x1
 4901 0de0 60       		.byte	0x60
 4902 0de1 FE000000 		.4byte	0xfe
 4903 0de5 02       		.uleb128 0x2
 4904 0de6 91       		.byte	0x91
 4905 0de7 50       		.sleb128 -48
 4906 0de8 17       		.uleb128 0x17
 4907 0de9 656E6400 		.ascii	"end\000"
 4908 0ded 01       		.byte	0x1
 4909 0dee 60       		.byte	0x60
 4910 0def 17040000 		.4byte	0x417
 4911 0df3 02       		.uleb128 0x2
 4912 0df4 91       		.byte	0x91
 4913 0df5 64       		.sleb128 -28
 4914 0df6 15       		.uleb128 0x15
 4915 0df7 A4310000 		.4byte	.LASF1142
 4916 0dfb 01       		.byte	0x1
 4917 0dfc 62       		.byte	0x62
 4918 0dfd 48030000 		.4byte	0x348
 4919 0e01 18       		.uleb128 0x18
 4920 0e02 16000000 		.4byte	.LVL44
 4921 0e06 821D0000 		.4byte	0x1d82
 4922 0e0a 1B0E0000 		.4byte	0xe1b
 4923 0e0e 19       		.uleb128 0x19
ARM GAS  /var/folders/9j/_txx49hn253_s3mnzkyxlj8m0000gp/T//ccxigpJH.s 			page 104


 4924 0e0f 01       		.uleb128 0x1
 4925 0e10 51       		.byte	0x51
 4926 0e11 02       		.uleb128 0x2
 4927 0e12 91       		.byte	0x91
 4928 0e13 6C       		.sleb128 -20
 4929 0e14 19       		.uleb128 0x19
 4930 0e15 01       		.uleb128 0x1
 4931 0e16 50       		.byte	0x50
 4932 0e17 02       		.uleb128 0x2
 4933 0e18 91       		.byte	0x91
 4934 0e19 5C       		.sleb128 -36
 4935 0e1a 00       		.byte	0
 4936 0e1b 18       		.uleb128 0x18
 4937 0e1c 28000000 		.4byte	.LVL45
 4938 0e20 B41C0000 		.4byte	0x1cb4
 4939 0e24 350E0000 		.4byte	0xe35
 4940 0e28 19       		.uleb128 0x19
 4941 0e29 01       		.uleb128 0x1
 4942 0e2a 51       		.byte	0x51
 4943 0e2b 02       		.uleb128 0x2
 4944 0e2c 7D       		.byte	0x7d
 4945 0e2d 00       		.sleb128 0
 4946 0e2e 19       		.uleb128 0x19
 4947 0e2f 01       		.uleb128 0x1
 4948 0e30 50       		.byte	0x50
 4949 0e31 02       		.uleb128 0x2
 4950 0e32 91       		.byte	0x91
 4951 0e33 6F       		.sleb128 -17
 4952 0e34 00       		.byte	0
 4953 0e35 1A       		.uleb128 0x1a
 4954 0e36 30000000 		.4byte	.LVL46
 4955 0e3a 9E1D0000 		.4byte	0x1d9e
 4956 0e3e 19       		.uleb128 0x19
 4957 0e3f 01       		.uleb128 0x1
 4958 0e40 51       		.byte	0x51
 4959 0e41 02       		.uleb128 0x2
 4960 0e42 91       		.byte	0x91
 4961 0e43 64       		.sleb128 -28
 4962 0e44 19       		.uleb128 0x19
 4963 0e45 01       		.uleb128 0x1
 4964 0e46 50       		.byte	0x50
 4965 0e47 02       		.uleb128 0x2
 4966 0e48 91       		.byte	0x91
 4967 0e49 6C       		.sleb128 -20
 4968 0e4a 00       		.byte	0
 4969 0e4b 00       		.byte	0
 4970 0e4c 10       		.uleb128 0x10
 4971 0e4d 2D6A0000 		.4byte	.LASF1147
 4972 0e51 01       		.byte	0x1
 4973 0e52 6A       		.byte	0x6a
 4974 0e53 00000000 		.4byte	.LFB6
 4975 0e57 50000000 		.4byte	.LFE6-.LFB6
 4976 0e5b 01       		.uleb128 0x1
 4977 0e5c 9C       		.byte	0x9c
 4978 0e5d 020F0000 		.4byte	0xf02
 4979 0e61 11       		.uleb128 0x11
 4980 0e62 7D5F0000 		.4byte	.LASF1136
ARM GAS  /var/folders/9j/_txx49hn253_s3mnzkyxlj8m0000gp/T//ccxigpJH.s 			page 105


 4981 0e66 01       		.byte	0x1
 4982 0e67 6A       		.byte	0x6a
 4983 0e68 09010000 		.4byte	0x109
 4984 0e6c E1010000 		.4byte	.LLST10
 4985 0e70 16       		.uleb128 0x16
 4986 0e71 D3630000 		.4byte	.LASF1139
 4987 0e75 01       		.byte	0x1
 4988 0e76 6B       		.byte	0x6b
 4989 0e77 37040000 		.4byte	0x437
 4990 0e7b 02       		.uleb128 0x2
 4991 0e7c 91       		.byte	0x91
 4992 0e7d 50       		.sleb128 -48
 4993 0e7e 17       		.uleb128 0x17
 4994 0e7f 6D696400 		.ascii	"mid\000"
 4995 0e83 01       		.byte	0x1
 4996 0e84 6E       		.byte	0x6e
 4997 0e85 6F010000 		.4byte	0x16f
 4998 0e89 02       		.uleb128 0x2
 4999 0e8a 91       		.byte	0x91
 5000 0e8b 64       		.sleb128 -28
 5001 0e8c 16       		.uleb128 0x16
 5002 0e8d 34310000 		.4byte	.LASF1140
 5003 0e91 01       		.byte	0x1
 5004 0e92 6E       		.byte	0x6e
 5005 0e93 FE000000 		.4byte	0xfe
 5006 0e97 02       		.uleb128 0x2
 5007 0e98 91       		.byte	0x91
 5008 0e99 58       		.sleb128 -40
 5009 0e9a 17       		.uleb128 0x17
 5010 0e9b 656E6400 		.ascii	"end\000"
 5011 0e9f 01       		.byte	0x1
 5012 0ea0 6E       		.byte	0x6e
 5013 0ea1 37040000 		.4byte	0x437
 5014 0ea5 02       		.uleb128 0x2
 5015 0ea6 91       		.byte	0x91
 5016 0ea7 54       		.sleb128 -44
 5017 0ea8 1B       		.uleb128 0x1b
 5018 0ea9 A4310000 		.4byte	.LASF1142
 5019 0ead 01       		.byte	0x1
 5020 0eae 70       		.byte	0x70
 5021 0eaf 48030000 		.4byte	0x348
 5022 0eb3 18020000 		.4byte	.LLST11
 5023 0eb7 18       		.uleb128 0x18
 5024 0eb8 14000000 		.4byte	.LVL52
 5025 0ebc B41D0000 		.4byte	0x1db4
 5026 0ec0 D10E0000 		.4byte	0xed1
 5027 0ec4 19       		.uleb128 0x19
 5028 0ec5 01       		.uleb128 0x1
 5029 0ec6 51       		.byte	0x51
 5030 0ec7 02       		.uleb128 0x2
 5031 0ec8 91       		.byte	0x91
 5032 0ec9 64       		.sleb128 -28
 5033 0eca 19       		.uleb128 0x19
 5034 0ecb 01       		.uleb128 0x1
 5035 0ecc 50       		.byte	0x50
 5036 0ecd 02       		.uleb128 0x2
 5037 0ece 7D       		.byte	0x7d
ARM GAS  /var/folders/9j/_txx49hn253_s3mnzkyxlj8m0000gp/T//ccxigpJH.s 			page 106


 5038 0ecf 00       		.sleb128 0
 5039 0ed0 00       		.byte	0
 5040 0ed1 18       		.uleb128 0x18
 5041 0ed2 28000000 		.4byte	.LVL53
 5042 0ed6 B41C0000 		.4byte	0x1cb4
 5043 0eda EB0E0000 		.4byte	0xeeb
 5044 0ede 19       		.uleb128 0x19
 5045 0edf 01       		.uleb128 0x1
 5046 0ee0 51       		.byte	0x51
 5047 0ee1 02       		.uleb128 0x2
 5048 0ee2 91       		.byte	0x91
 5049 0ee3 58       		.sleb128 -40
 5050 0ee4 19       		.uleb128 0x19
 5051 0ee5 01       		.uleb128 0x1
 5052 0ee6 50       		.byte	0x50
 5053 0ee7 02       		.uleb128 0x2
 5054 0ee8 91       		.byte	0x91
 5055 0ee9 67       		.sleb128 -25
 5056 0eea 00       		.byte	0
 5057 0eeb 1A       		.uleb128 0x1a
 5058 0eec 30000000 		.4byte	.LVL54
 5059 0ef0 D01D0000 		.4byte	0x1dd0
 5060 0ef4 19       		.uleb128 0x19
 5061 0ef5 01       		.uleb128 0x1
 5062 0ef6 51       		.byte	0x51
 5063 0ef7 02       		.uleb128 0x2
 5064 0ef8 74       		.byte	0x74
 5065 0ef9 00       		.sleb128 0
 5066 0efa 19       		.uleb128 0x19
 5067 0efb 01       		.uleb128 0x1
 5068 0efc 50       		.byte	0x50
 5069 0efd 02       		.uleb128 0x2
 5070 0efe 91       		.byte	0x91
 5071 0eff 64       		.sleb128 -28
 5072 0f00 00       		.byte	0
 5073 0f01 00       		.byte	0
 5074 0f02 10       		.uleb128 0x10
 5075 0f03 6A2A0000 		.4byte	.LASF1148
 5076 0f07 01       		.byte	0x1
 5077 0f08 75       		.byte	0x75
 5078 0f09 00000000 		.4byte	.LFB7
 5079 0f0d 4C010000 		.4byte	.LFE7-.LFB7
 5080 0f11 01       		.uleb128 0x1
 5081 0f12 9C       		.byte	0x9c
 5082 0f13 BA0F0000 		.4byte	0xfba
 5083 0f17 11       		.uleb128 0x11
 5084 0f18 7D5F0000 		.4byte	.LASF1136
 5085 0f1c 01       		.byte	0x1
 5086 0f1d 75       		.byte	0x75
 5087 0f1e 09010000 		.4byte	0x109
 5088 0f22 48020000 		.4byte	.LLST12
 5089 0f26 16       		.uleb128 0x16
 5090 0f27 D3630000 		.4byte	.LASF1139
 5091 0f2b 01       		.byte	0x1
 5092 0f2c 76       		.byte	0x76
 5093 0f2d A7050000 		.4byte	0x5a7
 5094 0f31 03       		.uleb128 0x3
ARM GAS  /var/folders/9j/_txx49hn253_s3mnzkyxlj8m0000gp/T//ccxigpJH.s 			page 107


 5095 0f32 91       		.byte	0x91
 5096 0f33 B07F     		.sleb128 -80
 5097 0f35 17       		.uleb128 0x17
 5098 0f36 6D696400 		.ascii	"mid\000"
 5099 0f3a 01       		.byte	0x1
 5100 0f3b 9E       		.byte	0x9e
 5101 0f3c 6F010000 		.4byte	0x16f
 5102 0f40 03       		.uleb128 0x3
 5103 0f41 91       		.byte	0x91
 5104 0f42 A47F     		.sleb128 -92
 5105 0f44 16       		.uleb128 0x16
 5106 0f45 34310000 		.4byte	.LASF1140
 5107 0f49 01       		.byte	0x1
 5108 0f4a 9E       		.byte	0x9e
 5109 0f4b FE000000 		.4byte	0xfe
 5110 0f4f 03       		.uleb128 0x3
 5111 0f50 91       		.byte	0x91
 5112 0f51 987F     		.sleb128 -104
 5113 0f53 17       		.uleb128 0x17
 5114 0f54 656E6400 		.ascii	"end\000"
 5115 0f58 01       		.byte	0x1
 5116 0f59 9E       		.byte	0x9e
 5117 0f5a A7050000 		.4byte	0x5a7
 5118 0f5e 02       		.uleb128 0x2
 5119 0f5f 91       		.byte	0x91
 5120 0f60 50       		.sleb128 -48
 5121 0f61 15       		.uleb128 0x15
 5122 0f62 A4310000 		.4byte	.LASF1142
 5123 0f66 01       		.byte	0x1
 5124 0f67 A0       		.byte	0xa0
 5125 0f68 48030000 		.4byte	0x348
 5126 0f6c 18       		.uleb128 0x18
 5127 0f6d 50000000 		.4byte	.LVL60
 5128 0f71 E61D0000 		.4byte	0x1de6
 5129 0f75 870F0000 		.4byte	0xf87
 5130 0f79 19       		.uleb128 0x19
 5131 0f7a 01       		.uleb128 0x1
 5132 0f7b 51       		.byte	0x51
 5133 0f7c 03       		.uleb128 0x3
 5134 0f7d 91       		.byte	0x91
 5135 0f7e A47F     		.sleb128 -92
 5136 0f80 19       		.uleb128 0x19
 5137 0f81 01       		.uleb128 0x1
 5138 0f82 50       		.byte	0x50
 5139 0f83 02       		.uleb128 0x2
 5140 0f84 74       		.byte	0x74
 5141 0f85 00       		.sleb128 0
 5142 0f86 00       		.byte	0
 5143 0f87 18       		.uleb128 0x18
 5144 0f88 62000000 		.4byte	.LVL61
 5145 0f8c B41C0000 		.4byte	0x1cb4
 5146 0f90 A20F0000 		.4byte	0xfa2
 5147 0f94 19       		.uleb128 0x19
 5148 0f95 01       		.uleb128 0x1
 5149 0f96 51       		.byte	0x51
 5150 0f97 02       		.uleb128 0x2
 5151 0f98 7D       		.byte	0x7d
ARM GAS  /var/folders/9j/_txx49hn253_s3mnzkyxlj8m0000gp/T//ccxigpJH.s 			page 108


 5152 0f99 00       		.sleb128 0
 5153 0f9a 19       		.uleb128 0x19
 5154 0f9b 01       		.uleb128 0x1
 5155 0f9c 50       		.byte	0x50
 5156 0f9d 03       		.uleb128 0x3
 5157 0f9e 91       		.byte	0x91
 5158 0f9f A77F     		.sleb128 -89
 5159 0fa1 00       		.byte	0
 5160 0fa2 1A       		.uleb128 0x1a
 5161 0fa3 6A000000 		.4byte	.LVL62
 5162 0fa7 021E0000 		.4byte	0x1e02
 5163 0fab 19       		.uleb128 0x19
 5164 0fac 01       		.uleb128 0x1
 5165 0fad 51       		.byte	0x51
 5166 0fae 02       		.uleb128 0x2
 5167 0faf 91       		.byte	0x91
 5168 0fb0 50       		.sleb128 -48
 5169 0fb1 19       		.uleb128 0x19
 5170 0fb2 01       		.uleb128 0x1
 5171 0fb3 50       		.byte	0x50
 5172 0fb4 03       		.uleb128 0x3
 5173 0fb5 91       		.byte	0x91
 5174 0fb6 A47F     		.sleb128 -92
 5175 0fb8 00       		.byte	0
 5176 0fb9 00       		.byte	0
 5177 0fba 10       		.uleb128 0x10
 5178 0fbb E78D0000 		.4byte	.LASF1149
 5179 0fbf 01       		.byte	0x1
 5180 0fc0 C3       		.byte	0xc3
 5181 0fc1 00000000 		.4byte	.LFB8
 5182 0fc5 5C000000 		.4byte	.LFE8-.LFB8
 5183 0fc9 01       		.uleb128 0x1
 5184 0fca 9C       		.byte	0x9c
 5185 0fcb 6C100000 		.4byte	0x106c
 5186 0fcf 11       		.uleb128 0x11
 5187 0fd0 7D5F0000 		.4byte	.LASF1136
 5188 0fd4 01       		.byte	0x1
 5189 0fd5 C3       		.byte	0xc3
 5190 0fd6 09010000 		.4byte	0x109
 5191 0fda 7F020000 		.4byte	.LLST13
 5192 0fde 16       		.uleb128 0x16
 5193 0fdf D3630000 		.4byte	.LASF1139
 5194 0fe3 01       		.byte	0x1
 5195 0fe4 C4       		.byte	0xc4
 5196 0fe5 D3050000 		.4byte	0x5d3
 5197 0fe9 02       		.uleb128 0x2
 5198 0fea 91       		.byte	0x91
 5199 0feb 58       		.sleb128 -40
 5200 0fec 17       		.uleb128 0x17
 5201 0fed 6D696400 		.ascii	"mid\000"
 5202 0ff1 01       		.byte	0x1
 5203 0ff2 C8       		.byte	0xc8
 5204 0ff3 6F010000 		.4byte	0x16f
 5205 0ff7 02       		.uleb128 0x2
 5206 0ff8 91       		.byte	0x91
 5207 0ff9 6C       		.sleb128 -20
 5208 0ffa 16       		.uleb128 0x16
ARM GAS  /var/folders/9j/_txx49hn253_s3mnzkyxlj8m0000gp/T//ccxigpJH.s 			page 109


 5209 0ffb 34310000 		.4byte	.LASF1140
 5210 0fff 01       		.byte	0x1
 5211 1000 C8       		.byte	0xc8
 5212 1001 FE000000 		.4byte	0xfe
 5213 1005 02       		.uleb128 0x2
 5214 1006 91       		.byte	0x91
 5215 1007 60       		.sleb128 -32
 5216 1008 17       		.uleb128 0x17
 5217 1009 656E6400 		.ascii	"end\000"
 5218 100d 01       		.byte	0x1
 5219 100e C8       		.byte	0xc8
 5220 100f D3050000 		.4byte	0x5d3
 5221 1013 02       		.uleb128 0x2
 5222 1014 91       		.byte	0x91
 5223 1015 5C       		.sleb128 -36
 5224 1016 15       		.uleb128 0x15
 5225 1017 A4310000 		.4byte	.LASF1142
 5226 101b 01       		.byte	0x1
 5227 101c CA       		.byte	0xca
 5228 101d 48030000 		.4byte	0x348
 5229 1021 18       		.uleb128 0x18
 5230 1022 18000000 		.4byte	.LVL68
 5231 1026 181E0000 		.4byte	0x1e18
 5232 102a 3B100000 		.4byte	0x103b
 5233 102e 19       		.uleb128 0x19
 5234 102f 01       		.uleb128 0x1
 5235 1030 51       		.byte	0x51
 5236 1031 02       		.uleb128 0x2
 5237 1032 91       		.byte	0x91
 5238 1033 6C       		.sleb128 -20
 5239 1034 19       		.uleb128 0x19
 5240 1035 01       		.uleb128 0x1
 5241 1036 50       		.byte	0x50
 5242 1037 02       		.uleb128 0x2
 5243 1038 7D       		.byte	0x7d
 5244 1039 00       		.sleb128 0
 5245 103a 00       		.byte	0
 5246 103b 18       		.uleb128 0x18
 5247 103c 2A000000 		.4byte	.LVL69
 5248 1040 B41C0000 		.4byte	0x1cb4
 5249 1044 55100000 		.4byte	0x1055
 5250 1048 19       		.uleb128 0x19
 5251 1049 01       		.uleb128 0x1
 5252 104a 51       		.byte	0x51
 5253 104b 02       		.uleb128 0x2
 5254 104c 91       		.byte	0x91
 5255 104d 60       		.sleb128 -32
 5256 104e 19       		.uleb128 0x19
 5257 104f 01       		.uleb128 0x1
 5258 1050 50       		.byte	0x50
 5259 1051 02       		.uleb128 0x2
 5260 1052 91       		.byte	0x91
 5261 1053 6F       		.sleb128 -17
 5262 1054 00       		.byte	0
 5263 1055 1A       		.uleb128 0x1a
 5264 1056 32000000 		.4byte	.LVL70
 5265 105a 341E0000 		.4byte	0x1e34
ARM GAS  /var/folders/9j/_txx49hn253_s3mnzkyxlj8m0000gp/T//ccxigpJH.s 			page 110


 5266 105e 19       		.uleb128 0x19
 5267 105f 01       		.uleb128 0x1
 5268 1060 51       		.byte	0x51
 5269 1061 02       		.uleb128 0x2
 5270 1062 91       		.byte	0x91
 5271 1063 5C       		.sleb128 -36
 5272 1064 19       		.uleb128 0x19
 5273 1065 01       		.uleb128 0x1
 5274 1066 50       		.byte	0x50
 5275 1067 02       		.uleb128 0x2
 5276 1068 91       		.byte	0x91
 5277 1069 6C       		.sleb128 -20
 5278 106a 00       		.byte	0
 5279 106b 00       		.byte	0
 5280 106c 10       		.uleb128 0x10
 5281 106d 17200000 		.4byte	.LASF1150
 5282 1071 01       		.byte	0x1
 5283 1072 D0       		.byte	0xd0
 5284 1073 00000000 		.4byte	.LFB9
 5285 1077 58000000 		.4byte	.LFE9-.LFB9
 5286 107b 01       		.uleb128 0x1
 5287 107c 9C       		.byte	0x9c
 5288 107d 22110000 		.4byte	0x1122
 5289 1081 11       		.uleb128 0x11
 5290 1082 7D5F0000 		.4byte	.LASF1136
 5291 1086 01       		.byte	0x1
 5292 1087 D0       		.byte	0xd0
 5293 1088 09010000 		.4byte	0x109
 5294 108c B6020000 		.4byte	.LLST14
 5295 1090 16       		.uleb128 0x16
 5296 1091 D3630000 		.4byte	.LASF1139
 5297 1095 01       		.byte	0x1
 5298 1096 D1       		.byte	0xd1
 5299 1097 F3050000 		.4byte	0x5f3
 5300 109b 02       		.uleb128 0x2
 5301 109c 91       		.byte	0x91
 5302 109d 50       		.sleb128 -48
 5303 109e 17       		.uleb128 0x17
 5304 109f 6D696400 		.ascii	"mid\000"
 5305 10a3 01       		.byte	0x1
 5306 10a4 D4       		.byte	0xd4
 5307 10a5 6F010000 		.4byte	0x16f
 5308 10a9 02       		.uleb128 0x2
 5309 10aa 91       		.byte	0x91
 5310 10ab 64       		.sleb128 -28
 5311 10ac 16       		.uleb128 0x16
 5312 10ad 34310000 		.4byte	.LASF1140
 5313 10b1 01       		.byte	0x1
 5314 10b2 D4       		.byte	0xd4
 5315 10b3 FE000000 		.4byte	0xfe
 5316 10b7 02       		.uleb128 0x2
 5317 10b8 91       		.byte	0x91
 5318 10b9 58       		.sleb128 -40
 5319 10ba 17       		.uleb128 0x17
 5320 10bb 656E6400 		.ascii	"end\000"
 5321 10bf 01       		.byte	0x1
 5322 10c0 D4       		.byte	0xd4
ARM GAS  /var/folders/9j/_txx49hn253_s3mnzkyxlj8m0000gp/T//ccxigpJH.s 			page 111


 5323 10c1 F3050000 		.4byte	0x5f3
 5324 10c5 02       		.uleb128 0x2
 5325 10c6 91       		.byte	0x91
 5326 10c7 54       		.sleb128 -44
 5327 10c8 1B       		.uleb128 0x1b
 5328 10c9 A4310000 		.4byte	.LASF1142
 5329 10cd 01       		.byte	0x1
 5330 10ce D6       		.byte	0xd6
 5331 10cf 48030000 		.4byte	0x348
 5332 10d3 ED020000 		.4byte	.LLST15
 5333 10d7 18       		.uleb128 0x18
 5334 10d8 14000000 		.4byte	.LVL76
 5335 10dc 4A1E0000 		.4byte	0x1e4a
 5336 10e0 F1100000 		.4byte	0x10f1
 5337 10e4 19       		.uleb128 0x19
 5338 10e5 01       		.uleb128 0x1
 5339 10e6 51       		.byte	0x51
 5340 10e7 02       		.uleb128 0x2
 5341 10e8 91       		.byte	0x91
 5342 10e9 64       		.sleb128 -28
 5343 10ea 19       		.uleb128 0x19
 5344 10eb 01       		.uleb128 0x1
 5345 10ec 50       		.byte	0x50
 5346 10ed 02       		.uleb128 0x2
 5347 10ee 7D       		.byte	0x7d
 5348 10ef 00       		.sleb128 0
 5349 10f0 00       		.byte	0
 5350 10f1 18       		.uleb128 0x18
 5351 10f2 28000000 		.4byte	.LVL77
 5352 10f6 B41C0000 		.4byte	0x1cb4
 5353 10fa 0B110000 		.4byte	0x110b
 5354 10fe 19       		.uleb128 0x19
 5355 10ff 01       		.uleb128 0x1
 5356 1100 51       		.byte	0x51
 5357 1101 02       		.uleb128 0x2
 5358 1102 91       		.byte	0x91
 5359 1103 58       		.sleb128 -40
 5360 1104 19       		.uleb128 0x19
 5361 1105 01       		.uleb128 0x1
 5362 1106 50       		.byte	0x50
 5363 1107 02       		.uleb128 0x2
 5364 1108 91       		.byte	0x91
 5365 1109 67       		.sleb128 -25
 5366 110a 00       		.byte	0
 5367 110b 1A       		.uleb128 0x1a
 5368 110c 30000000 		.4byte	.LVL78
 5369 1110 661E0000 		.4byte	0x1e66
 5370 1114 19       		.uleb128 0x19
 5371 1115 01       		.uleb128 0x1
 5372 1116 51       		.byte	0x51
 5373 1117 02       		.uleb128 0x2
 5374 1118 74       		.byte	0x74
 5375 1119 00       		.sleb128 0
 5376 111a 19       		.uleb128 0x19
 5377 111b 01       		.uleb128 0x1
 5378 111c 50       		.byte	0x50
 5379 111d 02       		.uleb128 0x2
ARM GAS  /var/folders/9j/_txx49hn253_s3mnzkyxlj8m0000gp/T//ccxigpJH.s 			page 112


 5380 111e 91       		.byte	0x91
 5381 111f 64       		.sleb128 -28
 5382 1120 00       		.byte	0
 5383 1121 00       		.byte	0
 5384 1122 10       		.uleb128 0x10
 5385 1123 706E0000 		.4byte	.LASF1151
 5386 1127 01       		.byte	0x1
 5387 1128 DA       		.byte	0xda
 5388 1129 00000000 		.4byte	.LFB10
 5389 112d 78000000 		.4byte	.LFE10-.LFB10
 5390 1131 01       		.uleb128 0x1
 5391 1132 9C       		.byte	0x9c
 5392 1133 D4110000 		.4byte	0x11d4
 5393 1137 11       		.uleb128 0x11
 5394 1138 7D5F0000 		.4byte	.LASF1136
 5395 113c 01       		.byte	0x1
 5396 113d DA       		.byte	0xda
 5397 113e 09010000 		.4byte	0x109
 5398 1142 1D030000 		.4byte	.LLST16
 5399 1146 16       		.uleb128 0x16
 5400 1147 D3630000 		.4byte	.LASF1139
 5401 114b 01       		.byte	0x1
 5402 114c DB       		.byte	0xdb
 5403 114d 43060000 		.4byte	0x643
 5404 1151 02       		.uleb128 0x2
 5405 1152 91       		.byte	0x91
 5406 1153 54       		.sleb128 -44
 5407 1154 17       		.uleb128 0x17
 5408 1155 6D696400 		.ascii	"mid\000"
 5409 1159 01       		.byte	0x1
 5410 115a E2       		.byte	0xe2
 5411 115b 6F010000 		.4byte	0x16f
 5412 115f 02       		.uleb128 0x2
 5413 1160 91       		.byte	0x91
 5414 1161 64       		.sleb128 -28
 5415 1162 16       		.uleb128 0x16
 5416 1163 34310000 		.4byte	.LASF1140
 5417 1167 01       		.byte	0x1
 5418 1168 E2       		.byte	0xe2
 5419 1169 FE000000 		.4byte	0xfe
 5420 116d 02       		.uleb128 0x2
 5421 116e 91       		.byte	0x91
 5422 116f 48       		.sleb128 -56
 5423 1170 17       		.uleb128 0x17
 5424 1171 656E6400 		.ascii	"end\000"
 5425 1175 01       		.byte	0x1
 5426 1176 E2       		.byte	0xe2
 5427 1177 43060000 		.4byte	0x643
 5428 117b 02       		.uleb128 0x2
 5429 117c 91       		.byte	0x91
 5430 117d 5C       		.sleb128 -36
 5431 117e 15       		.uleb128 0x15
 5432 117f A4310000 		.4byte	.LASF1142
 5433 1183 01       		.byte	0x1
 5434 1184 E4       		.byte	0xe4
 5435 1185 48030000 		.4byte	0x348
 5436 1189 18       		.uleb128 0x18
ARM GAS  /var/folders/9j/_txx49hn253_s3mnzkyxlj8m0000gp/T//ccxigpJH.s 			page 113


 5437 118a 22000000 		.4byte	.LVL84
 5438 118e 7C1E0000 		.4byte	0x1e7c
 5439 1192 A3110000 		.4byte	0x11a3
 5440 1196 19       		.uleb128 0x19
 5441 1197 01       		.uleb128 0x1
 5442 1198 51       		.byte	0x51
 5443 1199 02       		.uleb128 0x2
 5444 119a 91       		.byte	0x91
 5445 119b 64       		.sleb128 -28
 5446 119c 19       		.uleb128 0x19
 5447 119d 01       		.uleb128 0x1
 5448 119e 50       		.byte	0x50
 5449 119f 02       		.uleb128 0x2
 5450 11a0 74       		.byte	0x74
 5451 11a1 00       		.sleb128 0
 5452 11a2 00       		.byte	0
 5453 11a3 18       		.uleb128 0x18
 5454 11a4 34000000 		.4byte	.LVL85
 5455 11a8 B41C0000 		.4byte	0x1cb4
 5456 11ac BD110000 		.4byte	0x11bd
 5457 11b0 19       		.uleb128 0x19
 5458 11b1 01       		.uleb128 0x1
 5459 11b2 51       		.byte	0x51
 5460 11b3 02       		.uleb128 0x2
 5461 11b4 7D       		.byte	0x7d
 5462 11b5 00       		.sleb128 0
 5463 11b6 19       		.uleb128 0x19
 5464 11b7 01       		.uleb128 0x1
 5465 11b8 50       		.byte	0x50
 5466 11b9 02       		.uleb128 0x2
 5467 11ba 91       		.byte	0x91
 5468 11bb 67       		.sleb128 -25
 5469 11bc 00       		.byte	0
 5470 11bd 1A       		.uleb128 0x1a
 5471 11be 3C000000 		.4byte	.LVL86
 5472 11c2 981E0000 		.4byte	0x1e98
 5473 11c6 19       		.uleb128 0x19
 5474 11c7 01       		.uleb128 0x1
 5475 11c8 51       		.byte	0x51
 5476 11c9 02       		.uleb128 0x2
 5477 11ca 91       		.byte	0x91
 5478 11cb 5C       		.sleb128 -36
 5479 11cc 19       		.uleb128 0x19
 5480 11cd 01       		.uleb128 0x1
 5481 11ce 50       		.byte	0x50
 5482 11cf 02       		.uleb128 0x2
 5483 11d0 91       		.byte	0x91
 5484 11d1 64       		.sleb128 -28
 5485 11d2 00       		.byte	0
 5486 11d3 00       		.byte	0
 5487 11d4 10       		.uleb128 0x10
 5488 11d5 7E6D0000 		.4byte	.LASF1152
 5489 11d9 01       		.byte	0x1
 5490 11da ED       		.byte	0xed
 5491 11db 00000000 		.4byte	.LFB11
 5492 11df 9C000000 		.4byte	.LFE11-.LFB11
 5493 11e3 01       		.uleb128 0x1
ARM GAS  /var/folders/9j/_txx49hn253_s3mnzkyxlj8m0000gp/T//ccxigpJH.s 			page 114


 5494 11e4 9C       		.byte	0x9c
 5495 11e5 86120000 		.4byte	0x1286
 5496 11e9 11       		.uleb128 0x11
 5497 11ea 7D5F0000 		.4byte	.LASF1136
 5498 11ee 01       		.byte	0x1
 5499 11ef ED       		.byte	0xed
 5500 11f0 09010000 		.4byte	0x109
 5501 11f4 54030000 		.4byte	.LLST17
 5502 11f8 16       		.uleb128 0x16
 5503 11f9 D3630000 		.4byte	.LASF1139
 5504 11fd 01       		.byte	0x1
 5505 11fe EE       		.byte	0xee
 5506 11ff 93060000 		.4byte	0x693
 5507 1203 02       		.uleb128 0x2
 5508 1204 91       		.byte	0x91
 5509 1205 4C       		.sleb128 -52
 5510 1206 17       		.uleb128 0x17
 5511 1207 6D696400 		.ascii	"mid\000"
 5512 120b 01       		.byte	0x1
 5513 120c F5       		.byte	0xf5
 5514 120d 6F010000 		.4byte	0x16f
 5515 1211 02       		.uleb128 0x2
 5516 1212 91       		.byte	0x91
 5517 1213 64       		.sleb128 -28
 5518 1214 16       		.uleb128 0x16
 5519 1215 34310000 		.4byte	.LASF1140
 5520 1219 01       		.byte	0x1
 5521 121a F5       		.byte	0xf5
 5522 121b FE000000 		.4byte	0xfe
 5523 121f 02       		.uleb128 0x2
 5524 1220 91       		.byte	0x91
 5525 1221 40       		.sleb128 -64
 5526 1222 17       		.uleb128 0x17
 5527 1223 656E6400 		.ascii	"end\000"
 5528 1227 01       		.byte	0x1
 5529 1228 F5       		.byte	0xf5
 5530 1229 93060000 		.4byte	0x693
 5531 122d 02       		.uleb128 0x2
 5532 122e 91       		.byte	0x91
 5533 122f 58       		.sleb128 -40
 5534 1230 15       		.uleb128 0x15
 5535 1231 A4310000 		.4byte	.LASF1142
 5536 1235 01       		.byte	0x1
 5537 1236 F7       		.byte	0xf7
 5538 1237 48030000 		.4byte	0x348
 5539 123b 18       		.uleb128 0x18
 5540 123c 28000000 		.4byte	.LVL92
 5541 1240 AE1E0000 		.4byte	0x1eae
 5542 1244 55120000 		.4byte	0x1255
 5543 1248 19       		.uleb128 0x19
 5544 1249 01       		.uleb128 0x1
 5545 124a 51       		.byte	0x51
 5546 124b 02       		.uleb128 0x2
 5547 124c 91       		.byte	0x91
 5548 124d 64       		.sleb128 -28
 5549 124e 19       		.uleb128 0x19
 5550 124f 01       		.uleb128 0x1
ARM GAS  /var/folders/9j/_txx49hn253_s3mnzkyxlj8m0000gp/T//ccxigpJH.s 			page 115


 5551 1250 50       		.byte	0x50
 5552 1251 02       		.uleb128 0x2
 5553 1252 74       		.byte	0x74
 5554 1253 00       		.sleb128 0
 5555 1254 00       		.byte	0
 5556 1255 18       		.uleb128 0x18
 5557 1256 3A000000 		.4byte	.LVL93
 5558 125a B41C0000 		.4byte	0x1cb4
 5559 125e 6F120000 		.4byte	0x126f
 5560 1262 19       		.uleb128 0x19
 5561 1263 01       		.uleb128 0x1
 5562 1264 51       		.byte	0x51
 5563 1265 02       		.uleb128 0x2
 5564 1266 7D       		.byte	0x7d
 5565 1267 00       		.sleb128 0
 5566 1268 19       		.uleb128 0x19
 5567 1269 01       		.uleb128 0x1
 5568 126a 50       		.byte	0x50
 5569 126b 02       		.uleb128 0x2
 5570 126c 91       		.byte	0x91
 5571 126d 67       		.sleb128 -25
 5572 126e 00       		.byte	0
 5573 126f 1A       		.uleb128 0x1a
 5574 1270 42000000 		.4byte	.LVL94
 5575 1274 CA1E0000 		.4byte	0x1eca
 5576 1278 19       		.uleb128 0x19
 5577 1279 01       		.uleb128 0x1
 5578 127a 51       		.byte	0x51
 5579 127b 02       		.uleb128 0x2
 5580 127c 91       		.byte	0x91
 5581 127d 58       		.sleb128 -40
 5582 127e 19       		.uleb128 0x19
 5583 127f 01       		.uleb128 0x1
 5584 1280 50       		.byte	0x50
 5585 1281 02       		.uleb128 0x2
 5586 1282 91       		.byte	0x91
 5587 1283 64       		.sleb128 -28
 5588 1284 00       		.byte	0
 5589 1285 00       		.byte	0
 5590 1286 1C       		.uleb128 0x1c
 5591 1287 D5310000 		.4byte	.LASF1153
 5592 128b 01       		.byte	0x1
 5593 128c 0001     		.2byte	0x100
 5594 128e 00000000 		.4byte	.LFB12
 5595 1292 BC000000 		.4byte	.LFE12-.LFB12
 5596 1296 01       		.uleb128 0x1
 5597 1297 9C       		.byte	0x9c
 5598 1298 40130000 		.4byte	0x1340
 5599 129c 1D       		.uleb128 0x1d
 5600 129d 7D5F0000 		.4byte	.LASF1136
 5601 12a1 01       		.byte	0x1
 5602 12a2 0001     		.2byte	0x100
 5603 12a4 09010000 		.4byte	0x109
 5604 12a8 8B030000 		.4byte	.LLST18
 5605 12ac 1E       		.uleb128 0x1e
 5606 12ad D3630000 		.4byte	.LASF1139
 5607 12b1 01       		.byte	0x1
ARM GAS  /var/folders/9j/_txx49hn253_s3mnzkyxlj8m0000gp/T//ccxigpJH.s 			page 116


 5608 12b2 0101     		.2byte	0x101
 5609 12b4 FB060000 		.4byte	0x6fb
 5610 12b8 02       		.uleb128 0x2
 5611 12b9 91       		.byte	0x91
 5612 12ba 50       		.sleb128 -48
 5613 12bb 1F       		.uleb128 0x1f
 5614 12bc 6D696400 		.ascii	"mid\000"
 5615 12c0 01       		.byte	0x1
 5616 12c1 0A01     		.2byte	0x10a
 5617 12c3 6F010000 		.4byte	0x16f
 5618 12c7 02       		.uleb128 0x2
 5619 12c8 91       		.byte	0x91
 5620 12c9 44       		.sleb128 -60
 5621 12ca 1E       		.uleb128 0x1e
 5622 12cb 34310000 		.4byte	.LASF1140
 5623 12cf 01       		.byte	0x1
 5624 12d0 0A01     		.2byte	0x10a
 5625 12d2 FE000000 		.4byte	0xfe
 5626 12d6 03       		.uleb128 0x3
 5627 12d7 91       		.byte	0x91
 5628 12d8 B87F     		.sleb128 -72
 5629 12da 1F       		.uleb128 0x1f
 5630 12db 656E6400 		.ascii	"end\000"
 5631 12df 01       		.byte	0x1
 5632 12e0 0A01     		.2byte	0x10a
 5633 12e2 FB060000 		.4byte	0x6fb
 5634 12e6 02       		.uleb128 0x2
 5635 12e7 91       		.byte	0x91
 5636 12e8 60       		.sleb128 -32
 5637 12e9 20       		.uleb128 0x20
 5638 12ea A4310000 		.4byte	.LASF1142
 5639 12ee 01       		.byte	0x1
 5640 12ef 0C01     		.2byte	0x10c
 5641 12f1 48030000 		.4byte	0x348
 5642 12f5 18       		.uleb128 0x18
 5643 12f6 34000000 		.4byte	.LVL100
 5644 12fa E01E0000 		.4byte	0x1ee0
 5645 12fe 0F130000 		.4byte	0x130f
 5646 1302 19       		.uleb128 0x19
 5647 1303 01       		.uleb128 0x1
 5648 1304 51       		.byte	0x51
 5649 1305 02       		.uleb128 0x2
 5650 1306 91       		.byte	0x91
 5651 1307 44       		.sleb128 -60
 5652 1308 19       		.uleb128 0x19
 5653 1309 01       		.uleb128 0x1
 5654 130a 50       		.byte	0x50
 5655 130b 02       		.uleb128 0x2
 5656 130c 74       		.byte	0x74
 5657 130d 00       		.sleb128 0
 5658 130e 00       		.byte	0
 5659 130f 18       		.uleb128 0x18
 5660 1310 46000000 		.4byte	.LVL101
 5661 1314 B41C0000 		.4byte	0x1cb4
 5662 1318 29130000 		.4byte	0x1329
 5663 131c 19       		.uleb128 0x19
 5664 131d 01       		.uleb128 0x1
ARM GAS  /var/folders/9j/_txx49hn253_s3mnzkyxlj8m0000gp/T//ccxigpJH.s 			page 117


 5665 131e 51       		.byte	0x51
 5666 131f 02       		.uleb128 0x2
 5667 1320 7D       		.byte	0x7d
 5668 1321 00       		.sleb128 0
 5669 1322 19       		.uleb128 0x19
 5670 1323 01       		.uleb128 0x1
 5671 1324 50       		.byte	0x50
 5672 1325 02       		.uleb128 0x2
 5673 1326 91       		.byte	0x91
 5674 1327 47       		.sleb128 -57
 5675 1328 00       		.byte	0
 5676 1329 1A       		.uleb128 0x1a
 5677 132a 4E000000 		.4byte	.LVL102
 5678 132e FC1E0000 		.4byte	0x1efc
 5679 1332 19       		.uleb128 0x19
 5680 1333 01       		.uleb128 0x1
 5681 1334 51       		.byte	0x51
 5682 1335 02       		.uleb128 0x2
 5683 1336 91       		.byte	0x91
 5684 1337 60       		.sleb128 -32
 5685 1338 19       		.uleb128 0x19
 5686 1339 01       		.uleb128 0x1
 5687 133a 50       		.byte	0x50
 5688 133b 02       		.uleb128 0x2
 5689 133c 91       		.byte	0x91
 5690 133d 44       		.sleb128 -60
 5691 133e 00       		.byte	0
 5692 133f 00       		.byte	0
 5693 1340 1C       		.uleb128 0x1c
 5694 1341 6A440000 		.4byte	.LASF1154
 5695 1345 01       		.byte	0x1
 5696 1346 1701     		.2byte	0x117
 5697 1348 00000000 		.4byte	.LFB13
 5698 134c 50000000 		.4byte	.LFE13-.LFB13
 5699 1350 01       		.uleb128 0x1
 5700 1351 9C       		.byte	0x9c
 5701 1352 FD130000 		.4byte	0x13fd
 5702 1356 1D       		.uleb128 0x1d
 5703 1357 7D5F0000 		.4byte	.LASF1136
 5704 135b 01       		.byte	0x1
 5705 135c 1701     		.2byte	0x117
 5706 135e 09010000 		.4byte	0x109
 5707 1362 C2030000 		.4byte	.LLST19
 5708 1366 1E       		.uleb128 0x1e
 5709 1367 D3630000 		.4byte	.LASF1139
 5710 136b 01       		.byte	0x1
 5711 136c 1801     		.2byte	0x118
 5712 136e 1B070000 		.4byte	0x71b
 5713 1372 02       		.uleb128 0x2
 5714 1373 91       		.byte	0x91
 5715 1374 50       		.sleb128 -48
 5716 1375 1F       		.uleb128 0x1f
 5717 1376 6D696400 		.ascii	"mid\000"
 5718 137a 01       		.byte	0x1
 5719 137b 1B01     		.2byte	0x11b
 5720 137d 6F010000 		.4byte	0x16f
 5721 1381 02       		.uleb128 0x2
ARM GAS  /var/folders/9j/_txx49hn253_s3mnzkyxlj8m0000gp/T//ccxigpJH.s 			page 118


 5722 1382 91       		.byte	0x91
 5723 1383 64       		.sleb128 -28
 5724 1384 1E       		.uleb128 0x1e
 5725 1385 34310000 		.4byte	.LASF1140
 5726 1389 01       		.byte	0x1
 5727 138a 1B01     		.2byte	0x11b
 5728 138c FE000000 		.4byte	0xfe
 5729 1390 02       		.uleb128 0x2
 5730 1391 91       		.byte	0x91
 5731 1392 58       		.sleb128 -40
 5732 1393 1F       		.uleb128 0x1f
 5733 1394 656E6400 		.ascii	"end\000"
 5734 1398 01       		.byte	0x1
 5735 1399 1B01     		.2byte	0x11b
 5736 139b 1B070000 		.4byte	0x71b
 5737 139f 02       		.uleb128 0x2
 5738 13a0 91       		.byte	0x91
 5739 13a1 54       		.sleb128 -44
 5740 13a2 21       		.uleb128 0x21
 5741 13a3 A4310000 		.4byte	.LASF1142
 5742 13a7 01       		.byte	0x1
 5743 13a8 1D01     		.2byte	0x11d
 5744 13aa 48030000 		.4byte	0x348
 5745 13ae F9030000 		.4byte	.LLST20
 5746 13b2 18       		.uleb128 0x18
 5747 13b3 14000000 		.4byte	.LVL108
 5748 13b7 121F0000 		.4byte	0x1f12
 5749 13bb CC130000 		.4byte	0x13cc
 5750 13bf 19       		.uleb128 0x19
 5751 13c0 01       		.uleb128 0x1
 5752 13c1 51       		.byte	0x51
 5753 13c2 02       		.uleb128 0x2
 5754 13c3 91       		.byte	0x91
 5755 13c4 64       		.sleb128 -28
 5756 13c5 19       		.uleb128 0x19
 5757 13c6 01       		.uleb128 0x1
 5758 13c7 50       		.byte	0x50
 5759 13c8 02       		.uleb128 0x2
 5760 13c9 7D       		.byte	0x7d
 5761 13ca 00       		.sleb128 0
 5762 13cb 00       		.byte	0
 5763 13cc 18       		.uleb128 0x18
 5764 13cd 28000000 		.4byte	.LVL109
 5765 13d1 B41C0000 		.4byte	0x1cb4
 5766 13d5 E6130000 		.4byte	0x13e6
 5767 13d9 19       		.uleb128 0x19
 5768 13da 01       		.uleb128 0x1
 5769 13db 51       		.byte	0x51
 5770 13dc 02       		.uleb128 0x2
 5771 13dd 91       		.byte	0x91
 5772 13de 58       		.sleb128 -40
 5773 13df 19       		.uleb128 0x19
 5774 13e0 01       		.uleb128 0x1
 5775 13e1 50       		.byte	0x50
 5776 13e2 02       		.uleb128 0x2
 5777 13e3 91       		.byte	0x91
 5778 13e4 67       		.sleb128 -25
ARM GAS  /var/folders/9j/_txx49hn253_s3mnzkyxlj8m0000gp/T//ccxigpJH.s 			page 119


 5779 13e5 00       		.byte	0
 5780 13e6 1A       		.uleb128 0x1a
 5781 13e7 30000000 		.4byte	.LVL110
 5782 13eb 2E1F0000 		.4byte	0x1f2e
 5783 13ef 19       		.uleb128 0x19
 5784 13f0 01       		.uleb128 0x1
 5785 13f1 51       		.byte	0x51
 5786 13f2 02       		.uleb128 0x2
 5787 13f3 74       		.byte	0x74
 5788 13f4 00       		.sleb128 0
 5789 13f5 19       		.uleb128 0x19
 5790 13f6 01       		.uleb128 0x1
 5791 13f7 50       		.byte	0x50
 5792 13f8 02       		.uleb128 0x2
 5793 13f9 91       		.byte	0x91
 5794 13fa 64       		.sleb128 -28
 5795 13fb 00       		.byte	0
 5796 13fc 00       		.byte	0
 5797 13fd 1C       		.uleb128 0x1c
 5798 13fe 802E0000 		.4byte	.LASF1155
 5799 1402 01       		.byte	0x1
 5800 1403 2101     		.2byte	0x121
 5801 1405 00000000 		.4byte	.LFB14
 5802 1409 50000000 		.4byte	.LFE14-.LFB14
 5803 140d 01       		.uleb128 0x1
 5804 140e 9C       		.byte	0x9c
 5805 140f BA140000 		.4byte	0x14ba
 5806 1413 1D       		.uleb128 0x1d
 5807 1414 7D5F0000 		.4byte	.LASF1136
 5808 1418 01       		.byte	0x1
 5809 1419 2101     		.2byte	0x121
 5810 141b 09010000 		.4byte	0x109
 5811 141f 29040000 		.4byte	.LLST21
 5812 1423 1E       		.uleb128 0x1e
 5813 1424 D3630000 		.4byte	.LASF1139
 5814 1428 01       		.byte	0x1
 5815 1429 2201     		.2byte	0x122
 5816 142b 3A070000 		.4byte	0x73a
 5817 142f 02       		.uleb128 0x2
 5818 1430 91       		.byte	0x91
 5819 1431 50       		.sleb128 -48
 5820 1432 1F       		.uleb128 0x1f
 5821 1433 6D696400 		.ascii	"mid\000"
 5822 1437 01       		.byte	0x1
 5823 1438 2501     		.2byte	0x125
 5824 143a 6F010000 		.4byte	0x16f
 5825 143e 02       		.uleb128 0x2
 5826 143f 91       		.byte	0x91
 5827 1440 64       		.sleb128 -28
 5828 1441 1E       		.uleb128 0x1e
 5829 1442 34310000 		.4byte	.LASF1140
 5830 1446 01       		.byte	0x1
 5831 1447 2501     		.2byte	0x125
 5832 1449 FE000000 		.4byte	0xfe
 5833 144d 02       		.uleb128 0x2
 5834 144e 91       		.byte	0x91
 5835 144f 58       		.sleb128 -40
ARM GAS  /var/folders/9j/_txx49hn253_s3mnzkyxlj8m0000gp/T//ccxigpJH.s 			page 120


 5836 1450 1F       		.uleb128 0x1f
 5837 1451 656E6400 		.ascii	"end\000"
 5838 1455 01       		.byte	0x1
 5839 1456 2501     		.2byte	0x125
 5840 1458 3A070000 		.4byte	0x73a
 5841 145c 02       		.uleb128 0x2
 5842 145d 91       		.byte	0x91
 5843 145e 54       		.sleb128 -44
 5844 145f 21       		.uleb128 0x21
 5845 1460 A4310000 		.4byte	.LASF1142
 5846 1464 01       		.byte	0x1
 5847 1465 2701     		.2byte	0x127
 5848 1467 48030000 		.4byte	0x348
 5849 146b 60040000 		.4byte	.LLST22
 5850 146f 18       		.uleb128 0x18
 5851 1470 14000000 		.4byte	.LVL116
 5852 1474 441F0000 		.4byte	0x1f44
 5853 1478 89140000 		.4byte	0x1489
 5854 147c 19       		.uleb128 0x19
 5855 147d 01       		.uleb128 0x1
 5856 147e 51       		.byte	0x51
 5857 147f 02       		.uleb128 0x2
 5858 1480 91       		.byte	0x91
 5859 1481 64       		.sleb128 -28
 5860 1482 19       		.uleb128 0x19
 5861 1483 01       		.uleb128 0x1
 5862 1484 50       		.byte	0x50
 5863 1485 02       		.uleb128 0x2
 5864 1486 7D       		.byte	0x7d
 5865 1487 00       		.sleb128 0
 5866 1488 00       		.byte	0
 5867 1489 18       		.uleb128 0x18
 5868 148a 28000000 		.4byte	.LVL117
 5869 148e B41C0000 		.4byte	0x1cb4
 5870 1492 A3140000 		.4byte	0x14a3
 5871 1496 19       		.uleb128 0x19
 5872 1497 01       		.uleb128 0x1
 5873 1498 51       		.byte	0x51
 5874 1499 02       		.uleb128 0x2
 5875 149a 91       		.byte	0x91
 5876 149b 58       		.sleb128 -40
 5877 149c 19       		.uleb128 0x19
 5878 149d 01       		.uleb128 0x1
 5879 149e 50       		.byte	0x50
 5880 149f 02       		.uleb128 0x2
 5881 14a0 91       		.byte	0x91
 5882 14a1 67       		.sleb128 -25
 5883 14a2 00       		.byte	0
 5884 14a3 1A       		.uleb128 0x1a
 5885 14a4 30000000 		.4byte	.LVL118
 5886 14a8 601F0000 		.4byte	0x1f60
 5887 14ac 19       		.uleb128 0x19
 5888 14ad 01       		.uleb128 0x1
 5889 14ae 51       		.byte	0x51
 5890 14af 02       		.uleb128 0x2
 5891 14b0 74       		.byte	0x74
 5892 14b1 00       		.sleb128 0
ARM GAS  /var/folders/9j/_txx49hn253_s3mnzkyxlj8m0000gp/T//ccxigpJH.s 			page 121


 5893 14b2 19       		.uleb128 0x19
 5894 14b3 01       		.uleb128 0x1
 5895 14b4 50       		.byte	0x50
 5896 14b5 02       		.uleb128 0x2
 5897 14b6 91       		.byte	0x91
 5898 14b7 64       		.sleb128 -28
 5899 14b8 00       		.byte	0
 5900 14b9 00       		.byte	0
 5901 14ba 1C       		.uleb128 0x1c
 5902 14bb FF150000 		.4byte	.LASF1156
 5903 14bf 01       		.byte	0x1
 5904 14c0 2B01     		.2byte	0x12b
 5905 14c2 00000000 		.4byte	.LFB15
 5906 14c6 50000000 		.4byte	.LFE15-.LFB15
 5907 14ca 01       		.uleb128 0x1
 5908 14cb 9C       		.byte	0x9c
 5909 14cc 77150000 		.4byte	0x1577
 5910 14d0 1D       		.uleb128 0x1d
 5911 14d1 7D5F0000 		.4byte	.LASF1136
 5912 14d5 01       		.byte	0x1
 5913 14d6 2B01     		.2byte	0x12b
 5914 14d8 09010000 		.4byte	0x109
 5915 14dc 90040000 		.4byte	.LLST23
 5916 14e0 1E       		.uleb128 0x1e
 5917 14e1 D3630000 		.4byte	.LASF1139
 5918 14e5 01       		.byte	0x1
 5919 14e6 2C01     		.2byte	0x12c
 5920 14e8 5A070000 		.4byte	0x75a
 5921 14ec 02       		.uleb128 0x2
 5922 14ed 91       		.byte	0x91
 5923 14ee 50       		.sleb128 -48
 5924 14ef 1F       		.uleb128 0x1f
 5925 14f0 6D696400 		.ascii	"mid\000"
 5926 14f4 01       		.byte	0x1
 5927 14f5 2F01     		.2byte	0x12f
 5928 14f7 6F010000 		.4byte	0x16f
 5929 14fb 02       		.uleb128 0x2
 5930 14fc 91       		.byte	0x91
 5931 14fd 64       		.sleb128 -28
 5932 14fe 1E       		.uleb128 0x1e
 5933 14ff 34310000 		.4byte	.LASF1140
 5934 1503 01       		.byte	0x1
 5935 1504 2F01     		.2byte	0x12f
 5936 1506 FE000000 		.4byte	0xfe
 5937 150a 02       		.uleb128 0x2
 5938 150b 91       		.byte	0x91
 5939 150c 58       		.sleb128 -40
 5940 150d 1F       		.uleb128 0x1f
 5941 150e 656E6400 		.ascii	"end\000"
 5942 1512 01       		.byte	0x1
 5943 1513 2F01     		.2byte	0x12f
 5944 1515 5A070000 		.4byte	0x75a
 5945 1519 02       		.uleb128 0x2
 5946 151a 91       		.byte	0x91
 5947 151b 54       		.sleb128 -44
 5948 151c 21       		.uleb128 0x21
 5949 151d A4310000 		.4byte	.LASF1142
ARM GAS  /var/folders/9j/_txx49hn253_s3mnzkyxlj8m0000gp/T//ccxigpJH.s 			page 122


 5950 1521 01       		.byte	0x1
 5951 1522 3101     		.2byte	0x131
 5952 1524 48030000 		.4byte	0x348
 5953 1528 C7040000 		.4byte	.LLST24
 5954 152c 18       		.uleb128 0x18
 5955 152d 14000000 		.4byte	.LVL124
 5956 1531 761F0000 		.4byte	0x1f76
 5957 1535 46150000 		.4byte	0x1546
 5958 1539 19       		.uleb128 0x19
 5959 153a 01       		.uleb128 0x1
 5960 153b 51       		.byte	0x51
 5961 153c 02       		.uleb128 0x2
 5962 153d 91       		.byte	0x91
 5963 153e 64       		.sleb128 -28
 5964 153f 19       		.uleb128 0x19
 5965 1540 01       		.uleb128 0x1
 5966 1541 50       		.byte	0x50
 5967 1542 02       		.uleb128 0x2
 5968 1543 7D       		.byte	0x7d
 5969 1544 00       		.sleb128 0
 5970 1545 00       		.byte	0
 5971 1546 18       		.uleb128 0x18
 5972 1547 28000000 		.4byte	.LVL125
 5973 154b B41C0000 		.4byte	0x1cb4
 5974 154f 60150000 		.4byte	0x1560
 5975 1553 19       		.uleb128 0x19
 5976 1554 01       		.uleb128 0x1
 5977 1555 51       		.byte	0x51
 5978 1556 02       		.uleb128 0x2
 5979 1557 91       		.byte	0x91
 5980 1558 58       		.sleb128 -40
 5981 1559 19       		.uleb128 0x19
 5982 155a 01       		.uleb128 0x1
 5983 155b 50       		.byte	0x50
 5984 155c 02       		.uleb128 0x2
 5985 155d 91       		.byte	0x91
 5986 155e 67       		.sleb128 -25
 5987 155f 00       		.byte	0
 5988 1560 1A       		.uleb128 0x1a
 5989 1561 30000000 		.4byte	.LVL126
 5990 1565 921F0000 		.4byte	0x1f92
 5991 1569 19       		.uleb128 0x19
 5992 156a 01       		.uleb128 0x1
 5993 156b 51       		.byte	0x51
 5994 156c 02       		.uleb128 0x2
 5995 156d 74       		.byte	0x74
 5996 156e 00       		.sleb128 0
 5997 156f 19       		.uleb128 0x19
 5998 1570 01       		.uleb128 0x1
 5999 1571 50       		.byte	0x50
 6000 1572 02       		.uleb128 0x2
 6001 1573 91       		.byte	0x91
 6002 1574 64       		.sleb128 -28
 6003 1575 00       		.byte	0
 6004 1576 00       		.byte	0
 6005 1577 1C       		.uleb128 0x1c
 6006 1578 C06F0000 		.4byte	.LASF1157
ARM GAS  /var/folders/9j/_txx49hn253_s3mnzkyxlj8m0000gp/T//ccxigpJH.s 			page 123


 6007 157c 01       		.byte	0x1
 6008 157d 3501     		.2byte	0x135
 6009 157f 00000000 		.4byte	.LFB16
 6010 1583 64000000 		.4byte	.LFE16-.LFB16
 6011 1587 01       		.uleb128 0x1
 6012 1588 9C       		.byte	0x9c
 6013 1589 30160000 		.4byte	0x1630
 6014 158d 1D       		.uleb128 0x1d
 6015 158e 7D5F0000 		.4byte	.LASF1136
 6016 1592 01       		.byte	0x1
 6017 1593 3501     		.2byte	0x135
 6018 1595 09010000 		.4byte	0x109
 6019 1599 F7040000 		.4byte	.LLST25
 6020 159d 1E       		.uleb128 0x1e
 6021 159e D3630000 		.4byte	.LASF1139
 6022 15a2 01       		.byte	0x1
 6023 15a3 3601     		.2byte	0x136
 6024 15a5 86070000 		.4byte	0x786
 6025 15a9 02       		.uleb128 0x2
 6026 15aa 91       		.byte	0x91
 6027 15ab 58       		.sleb128 -40
 6028 15ac 1F       		.uleb128 0x1f
 6029 15ad 6D696400 		.ascii	"mid\000"
 6030 15b1 01       		.byte	0x1
 6031 15b2 3A01     		.2byte	0x13a
 6032 15b4 6F010000 		.4byte	0x16f
 6033 15b8 02       		.uleb128 0x2
 6034 15b9 91       		.byte	0x91
 6035 15ba 6C       		.sleb128 -20
 6036 15bb 1E       		.uleb128 0x1e
 6037 15bc 34310000 		.4byte	.LASF1140
 6038 15c0 01       		.byte	0x1
 6039 15c1 3A01     		.2byte	0x13a
 6040 15c3 FE000000 		.4byte	0xfe
 6041 15c7 02       		.uleb128 0x2
 6042 15c8 91       		.byte	0x91
 6043 15c9 60       		.sleb128 -32
 6044 15ca 1F       		.uleb128 0x1f
 6045 15cb 656E6400 		.ascii	"end\000"
 6046 15cf 01       		.byte	0x1
 6047 15d0 3A01     		.2byte	0x13a
 6048 15d2 86070000 		.4byte	0x786
 6049 15d6 02       		.uleb128 0x2
 6050 15d7 91       		.byte	0x91
 6051 15d8 5C       		.sleb128 -36
 6052 15d9 20       		.uleb128 0x20
 6053 15da A4310000 		.4byte	.LASF1142
 6054 15de 01       		.byte	0x1
 6055 15df 3C01     		.2byte	0x13c
 6056 15e1 48030000 		.4byte	0x348
 6057 15e5 18       		.uleb128 0x18
 6058 15e6 18000000 		.4byte	.LVL132
 6059 15ea A81F0000 		.4byte	0x1fa8
 6060 15ee FF150000 		.4byte	0x15ff
 6061 15f2 19       		.uleb128 0x19
 6062 15f3 01       		.uleb128 0x1
 6063 15f4 51       		.byte	0x51
ARM GAS  /var/folders/9j/_txx49hn253_s3mnzkyxlj8m0000gp/T//ccxigpJH.s 			page 124


 6064 15f5 02       		.uleb128 0x2
 6065 15f6 91       		.byte	0x91
 6066 15f7 6C       		.sleb128 -20
 6067 15f8 19       		.uleb128 0x19
 6068 15f9 01       		.uleb128 0x1
 6069 15fa 50       		.byte	0x50
 6070 15fb 02       		.uleb128 0x2
 6071 15fc 7D       		.byte	0x7d
 6072 15fd 00       		.sleb128 0
 6073 15fe 00       		.byte	0
 6074 15ff 18       		.uleb128 0x18
 6075 1600 2A000000 		.4byte	.LVL133
 6076 1604 B41C0000 		.4byte	0x1cb4
 6077 1608 19160000 		.4byte	0x1619
 6078 160c 19       		.uleb128 0x19
 6079 160d 01       		.uleb128 0x1
 6080 160e 51       		.byte	0x51
 6081 160f 02       		.uleb128 0x2
 6082 1610 91       		.byte	0x91
 6083 1611 60       		.sleb128 -32
 6084 1612 19       		.uleb128 0x19
 6085 1613 01       		.uleb128 0x1
 6086 1614 50       		.byte	0x50
 6087 1615 02       		.uleb128 0x2
 6088 1616 91       		.byte	0x91
 6089 1617 6F       		.sleb128 -17
 6090 1618 00       		.byte	0
 6091 1619 1A       		.uleb128 0x1a
 6092 161a 32000000 		.4byte	.LVL134
 6093 161e C41F0000 		.4byte	0x1fc4
 6094 1622 19       		.uleb128 0x19
 6095 1623 01       		.uleb128 0x1
 6096 1624 51       		.byte	0x51
 6097 1625 02       		.uleb128 0x2
 6098 1626 91       		.byte	0x91
 6099 1627 5C       		.sleb128 -36
 6100 1628 19       		.uleb128 0x19
 6101 1629 01       		.uleb128 0x1
 6102 162a 50       		.byte	0x50
 6103 162b 02       		.uleb128 0x2
 6104 162c 91       		.byte	0x91
 6105 162d 6C       		.sleb128 -20
 6106 162e 00       		.byte	0
 6107 162f 00       		.byte	0
 6108 1630 1C       		.uleb128 0x1c
 6109 1631 F32C0000 		.4byte	.LASF1158
 6110 1635 01       		.byte	0x1
 6111 1636 4201     		.2byte	0x142
 6112 1638 00000000 		.4byte	.LFB17
 6113 163c D8010000 		.4byte	.LFE17-.LFB17
 6114 1640 01       		.uleb128 0x1
 6115 1641 9C       		.byte	0x9c
 6116 1642 EF160000 		.4byte	0x16ef
 6117 1646 1D       		.uleb128 0x1d
 6118 1647 7D5F0000 		.4byte	.LASF1136
 6119 164b 01       		.byte	0x1
 6120 164c 4201     		.2byte	0x142
ARM GAS  /var/folders/9j/_txx49hn253_s3mnzkyxlj8m0000gp/T//ccxigpJH.s 			page 125


 6121 164e 09010000 		.4byte	0x109
 6122 1652 2E050000 		.4byte	.LLST26
 6123 1656 1E       		.uleb128 0x1e
 6124 1657 D3630000 		.4byte	.LASF1139
 6125 165b 01       		.byte	0x1
 6126 165c 4301     		.2byte	0x143
 6127 165e C6080000 		.4byte	0x8c6
 6128 1662 03       		.uleb128 0x3
 6129 1663 91       		.byte	0x91
 6130 1664 B87F     		.sleb128 -72
 6131 1666 1F       		.uleb128 0x1f
 6132 1667 6D696400 		.ascii	"mid\000"
 6133 166b 01       		.byte	0x1
 6134 166c 5F01     		.2byte	0x15f
 6135 166e 6F010000 		.4byte	0x16f
 6136 1672 03       		.uleb128 0x3
 6137 1673 91       		.byte	0x91
 6138 1674 AC7F     		.sleb128 -84
 6139 1676 1E       		.uleb128 0x1e
 6140 1677 34310000 		.4byte	.LASF1140
 6141 167b 01       		.byte	0x1
 6142 167c 5F01     		.2byte	0x15f
 6143 167e FE000000 		.4byte	0xfe
 6144 1682 03       		.uleb128 0x3
 6145 1683 91       		.byte	0x91
 6146 1684 A07F     		.sleb128 -96
 6147 1686 1F       		.uleb128 0x1f
 6148 1687 656E6400 		.ascii	"end\000"
 6149 168b 01       		.byte	0x1
 6150 168c 5F01     		.2byte	0x15f
 6151 168e C6080000 		.4byte	0x8c6
 6152 1692 02       		.uleb128 0x2
 6153 1693 91       		.byte	0x91
 6154 1694 54       		.sleb128 -44
 6155 1695 20       		.uleb128 0x20
 6156 1696 A4310000 		.4byte	.LASF1142
 6157 169a 01       		.byte	0x1
 6158 169b 6101     		.2byte	0x161
 6159 169d 48030000 		.4byte	0x348
 6160 16a1 18       		.uleb128 0x18
 6161 16a2 44000000 		.4byte	.LVL140
 6162 16a6 DA1F0000 		.4byte	0x1fda
 6163 16aa BC160000 		.4byte	0x16bc
 6164 16ae 19       		.uleb128 0x19
 6165 16af 01       		.uleb128 0x1
 6166 16b0 51       		.byte	0x51
 6167 16b1 03       		.uleb128 0x3
 6168 16b2 91       		.byte	0x91
 6169 16b3 AC7F     		.sleb128 -84
 6170 16b5 19       		.uleb128 0x19
 6171 16b6 01       		.uleb128 0x1
 6172 16b7 50       		.byte	0x50
 6173 16b8 02       		.uleb128 0x2
 6174 16b9 74       		.byte	0x74
 6175 16ba 00       		.sleb128 0
 6176 16bb 00       		.byte	0
 6177 16bc 18       		.uleb128 0x18
ARM GAS  /var/folders/9j/_txx49hn253_s3mnzkyxlj8m0000gp/T//ccxigpJH.s 			page 126


 6178 16bd 56000000 		.4byte	.LVL141
 6179 16c1 B41C0000 		.4byte	0x1cb4
 6180 16c5 D7160000 		.4byte	0x16d7
 6181 16c9 19       		.uleb128 0x19
 6182 16ca 01       		.uleb128 0x1
 6183 16cb 51       		.byte	0x51
 6184 16cc 02       		.uleb128 0x2
 6185 16cd 7D       		.byte	0x7d
 6186 16ce 00       		.sleb128 0
 6187 16cf 19       		.uleb128 0x19
 6188 16d0 01       		.uleb128 0x1
 6189 16d1 50       		.byte	0x50
 6190 16d2 03       		.uleb128 0x3
 6191 16d3 91       		.byte	0x91
 6192 16d4 AF7F     		.sleb128 -81
 6193 16d6 00       		.byte	0
 6194 16d7 1A       		.uleb128 0x1a
 6195 16d8 5E000000 		.4byte	.LVL142
 6196 16dc F61F0000 		.4byte	0x1ff6
 6197 16e0 19       		.uleb128 0x19
 6198 16e1 01       		.uleb128 0x1
 6199 16e2 51       		.byte	0x51
 6200 16e3 02       		.uleb128 0x2
 6201 16e4 91       		.byte	0x91
 6202 16e5 54       		.sleb128 -44
 6203 16e6 19       		.uleb128 0x19
 6204 16e7 01       		.uleb128 0x1
 6205 16e8 50       		.byte	0x50
 6206 16e9 03       		.uleb128 0x3
 6207 16ea 91       		.byte	0x91
 6208 16eb AC7F     		.sleb128 -84
 6209 16ed 00       		.byte	0
 6210 16ee 00       		.byte	0
 6211 16ef 1C       		.uleb128 0x1c
 6212 16f0 555D0000 		.4byte	.LASF1159
 6213 16f4 01       		.byte	0x1
 6214 16f5 7E01     		.2byte	0x17e
 6215 16f7 00000000 		.4byte	.LFB18
 6216 16fb B4010000 		.4byte	.LFE18-.LFB18
 6217 16ff 01       		.uleb128 0x1
 6218 1700 9C       		.byte	0x9c
 6219 1701 AD170000 		.4byte	0x17ad
 6220 1705 1D       		.uleb128 0x1d
 6221 1706 7D5F0000 		.4byte	.LASF1136
 6222 170a 01       		.byte	0x1
 6223 170b 7E01     		.2byte	0x17e
 6224 170d 09010000 		.4byte	0x109
 6225 1711 65050000 		.4byte	.LLST27
 6226 1715 1E       		.uleb128 0x1e
 6227 1716 D3630000 		.4byte	.LASF1139
 6228 171a 01       		.byte	0x1
 6229 171b 7F01     		.2byte	0x17f
 6230 171d E2090000 		.4byte	0x9e2
 6231 1721 02       		.uleb128 0x2
 6232 1722 91       		.byte	0x91
 6233 1723 40       		.sleb128 -64
 6234 1724 1F       		.uleb128 0x1f
ARM GAS  /var/folders/9j/_txx49hn253_s3mnzkyxlj8m0000gp/T//ccxigpJH.s 			page 127


 6235 1725 6D696400 		.ascii	"mid\000"
 6236 1729 01       		.byte	0x1
 6237 172a 9801     		.2byte	0x198
 6238 172c 6F010000 		.4byte	0x16f
 6239 1730 03       		.uleb128 0x3
 6240 1731 91       		.byte	0x91
 6241 1732 B47F     		.sleb128 -76
 6242 1734 1E       		.uleb128 0x1e
 6243 1735 34310000 		.4byte	.LASF1140
 6244 1739 01       		.byte	0x1
 6245 173a 9801     		.2byte	0x198
 6246 173c FE000000 		.4byte	0xfe
 6247 1740 03       		.uleb128 0x3
 6248 1741 91       		.byte	0x91
 6249 1742 A87F     		.sleb128 -88
 6250 1744 1F       		.uleb128 0x1f
 6251 1745 656E6400 		.ascii	"end\000"
 6252 1749 01       		.byte	0x1
 6253 174a 9801     		.2byte	0x198
 6254 174c E2090000 		.4byte	0x9e2
 6255 1750 02       		.uleb128 0x2
 6256 1751 91       		.byte	0x91
 6257 1752 58       		.sleb128 -40
 6258 1753 20       		.uleb128 0x20
 6259 1754 A4310000 		.4byte	.LASF1142
 6260 1758 01       		.byte	0x1
 6261 1759 9A01     		.2byte	0x19a
 6262 175b 48030000 		.4byte	0x348
 6263 175f 18       		.uleb128 0x18
 6264 1760 40000000 		.4byte	.LVL148
 6265 1764 0C200000 		.4byte	0x200c
 6266 1768 7A170000 		.4byte	0x177a
 6267 176c 19       		.uleb128 0x19
 6268 176d 01       		.uleb128 0x1
 6269 176e 51       		.byte	0x51
 6270 176f 03       		.uleb128 0x3
 6271 1770 91       		.byte	0x91
 6272 1771 B47F     		.sleb128 -76
 6273 1773 19       		.uleb128 0x19
 6274 1774 01       		.uleb128 0x1
 6275 1775 50       		.byte	0x50
 6276 1776 02       		.uleb128 0x2
 6277 1777 74       		.byte	0x74
 6278 1778 00       		.sleb128 0
 6279 1779 00       		.byte	0
 6280 177a 18       		.uleb128 0x18
 6281 177b 52000000 		.4byte	.LVL149
 6282 177f B41C0000 		.4byte	0x1cb4
 6283 1783 95170000 		.4byte	0x1795
 6284 1787 19       		.uleb128 0x19
 6285 1788 01       		.uleb128 0x1
 6286 1789 51       		.byte	0x51
 6287 178a 02       		.uleb128 0x2
 6288 178b 7D       		.byte	0x7d
 6289 178c 00       		.sleb128 0
 6290 178d 19       		.uleb128 0x19
 6291 178e 01       		.uleb128 0x1
ARM GAS  /var/folders/9j/_txx49hn253_s3mnzkyxlj8m0000gp/T//ccxigpJH.s 			page 128


 6292 178f 50       		.byte	0x50
 6293 1790 03       		.uleb128 0x3
 6294 1791 91       		.byte	0x91
 6295 1792 B77F     		.sleb128 -73
 6296 1794 00       		.byte	0
 6297 1795 1A       		.uleb128 0x1a
 6298 1796 5A000000 		.4byte	.LVL150
 6299 179a 28200000 		.4byte	0x2028
 6300 179e 19       		.uleb128 0x19
 6301 179f 01       		.uleb128 0x1
 6302 17a0 51       		.byte	0x51
 6303 17a1 02       		.uleb128 0x2
 6304 17a2 91       		.byte	0x91
 6305 17a3 58       		.sleb128 -40
 6306 17a4 19       		.uleb128 0x19
 6307 17a5 01       		.uleb128 0x1
 6308 17a6 50       		.byte	0x50
 6309 17a7 03       		.uleb128 0x3
 6310 17a8 91       		.byte	0x91
 6311 17a9 B47F     		.sleb128 -76
 6312 17ab 00       		.byte	0
 6313 17ac 00       		.byte	0
 6314 17ad 1C       		.uleb128 0x1c
 6315 17ae 08970000 		.4byte	.LASF1160
 6316 17b2 01       		.byte	0x1
 6317 17b3 B901     		.2byte	0x1b9
 6318 17b5 00000000 		.4byte	.LFB19
 6319 17b9 4C000000 		.4byte	.LFE19-.LFB19
 6320 17bd 01       		.uleb128 0x1
 6321 17be 9C       		.byte	0x9c
 6322 17bf 6A180000 		.4byte	0x186a
 6323 17c3 1D       		.uleb128 0x1d
 6324 17c4 7D5F0000 		.4byte	.LASF1136
 6325 17c8 01       		.byte	0x1
 6326 17c9 B901     		.2byte	0x1b9
 6327 17cb 09010000 		.4byte	0x109
 6328 17cf 9C050000 		.4byte	.LLST28
 6329 17d3 1E       		.uleb128 0x1e
 6330 17d4 D3630000 		.4byte	.LASF1139
 6331 17d8 01       		.byte	0x1
 6332 17d9 BA01     		.2byte	0x1ba
 6333 17db 020A0000 		.4byte	0xa02
 6334 17df 02       		.uleb128 0x2
 6335 17e0 91       		.byte	0x91
 6336 17e1 58       		.sleb128 -40
 6337 17e2 1F       		.uleb128 0x1f
 6338 17e3 6D696400 		.ascii	"mid\000"
 6339 17e7 01       		.byte	0x1
 6340 17e8 BD01     		.2byte	0x1bd
 6341 17ea 6F010000 		.4byte	0x16f
 6342 17ee 02       		.uleb128 0x2
 6343 17ef 91       		.byte	0x91
 6344 17f0 6C       		.sleb128 -20
 6345 17f1 1E       		.uleb128 0x1e
 6346 17f2 34310000 		.4byte	.LASF1140
 6347 17f6 01       		.byte	0x1
 6348 17f7 BD01     		.2byte	0x1bd
ARM GAS  /var/folders/9j/_txx49hn253_s3mnzkyxlj8m0000gp/T//ccxigpJH.s 			page 129


 6349 17f9 FE000000 		.4byte	0xfe
 6350 17fd 02       		.uleb128 0x2
 6351 17fe 91       		.byte	0x91
 6352 17ff 60       		.sleb128 -32
 6353 1800 1F       		.uleb128 0x1f
 6354 1801 656E6400 		.ascii	"end\000"
 6355 1805 01       		.byte	0x1
 6356 1806 BD01     		.2byte	0x1bd
 6357 1808 020A0000 		.4byte	0xa02
 6358 180c 02       		.uleb128 0x2
 6359 180d 91       		.byte	0x91
 6360 180e 5C       		.sleb128 -36
 6361 180f 21       		.uleb128 0x21
 6362 1810 A4310000 		.4byte	.LASF1142
 6363 1814 01       		.byte	0x1
 6364 1815 BF01     		.2byte	0x1bf
 6365 1817 48030000 		.4byte	0x348
 6366 181b D3050000 		.4byte	.LLST29
 6367 181f 18       		.uleb128 0x18
 6368 1820 12000000 		.4byte	.LVL156
 6369 1824 3E200000 		.4byte	0x203e
 6370 1828 39180000 		.4byte	0x1839
 6371 182c 19       		.uleb128 0x19
 6372 182d 01       		.uleb128 0x1
 6373 182e 51       		.byte	0x51
 6374 182f 02       		.uleb128 0x2
 6375 1830 91       		.byte	0x91
 6376 1831 6C       		.sleb128 -20
 6377 1832 19       		.uleb128 0x19
 6378 1833 01       		.uleb128 0x1
 6379 1834 50       		.byte	0x50
 6380 1835 02       		.uleb128 0x2
 6381 1836 7D       		.byte	0x7d
 6382 1837 00       		.sleb128 0
 6383 1838 00       		.byte	0
 6384 1839 18       		.uleb128 0x18
 6385 183a 24000000 		.4byte	.LVL157
 6386 183e B41C0000 		.4byte	0x1cb4
 6387 1842 53180000 		.4byte	0x1853
 6388 1846 19       		.uleb128 0x19
 6389 1847 01       		.uleb128 0x1
 6390 1848 51       		.byte	0x51
 6391 1849 02       		.uleb128 0x2
 6392 184a 91       		.byte	0x91
 6393 184b 60       		.sleb128 -32
 6394 184c 19       		.uleb128 0x19
 6395 184d 01       		.uleb128 0x1
 6396 184e 50       		.byte	0x50
 6397 184f 02       		.uleb128 0x2
 6398 1850 91       		.byte	0x91
 6399 1851 6F       		.sleb128 -17
 6400 1852 00       		.byte	0
 6401 1853 1A       		.uleb128 0x1a
 6402 1854 2C000000 		.4byte	.LVL158
 6403 1858 5A200000 		.4byte	0x205a
 6404 185c 19       		.uleb128 0x19
 6405 185d 01       		.uleb128 0x1
ARM GAS  /var/folders/9j/_txx49hn253_s3mnzkyxlj8m0000gp/T//ccxigpJH.s 			page 130


 6406 185e 51       		.byte	0x51
 6407 185f 02       		.uleb128 0x2
 6408 1860 91       		.byte	0x91
 6409 1861 5C       		.sleb128 -36
 6410 1862 19       		.uleb128 0x19
 6411 1863 01       		.uleb128 0x1
 6412 1864 50       		.byte	0x50
 6413 1865 02       		.uleb128 0x2
 6414 1866 91       		.byte	0x91
 6415 1867 6C       		.sleb128 -20
 6416 1868 00       		.byte	0
 6417 1869 00       		.byte	0
 6418 186a 1C       		.uleb128 0x1c
 6419 186b FE140000 		.4byte	.LASF1161
 6420 186f 01       		.byte	0x1
 6421 1870 C401     		.2byte	0x1c4
 6422 1872 00000000 		.4byte	.LFB20
 6423 1876 4C000000 		.4byte	.LFE20-.LFB20
 6424 187a 01       		.uleb128 0x1
 6425 187b 9C       		.byte	0x9c
 6426 187c 27190000 		.4byte	0x1927
 6427 1880 1D       		.uleb128 0x1d
 6428 1881 7D5F0000 		.4byte	.LASF1136
 6429 1885 01       		.byte	0x1
 6430 1886 C401     		.2byte	0x1c4
 6431 1888 09010000 		.4byte	0x109
 6432 188c FD050000 		.4byte	.LLST30
 6433 1890 1E       		.uleb128 0x1e
 6434 1891 D3630000 		.4byte	.LASF1139
 6435 1895 01       		.byte	0x1
 6436 1896 C501     		.2byte	0x1c5
 6437 1898 220A0000 		.4byte	0xa22
 6438 189c 02       		.uleb128 0x2
 6439 189d 91       		.byte	0x91
 6440 189e 58       		.sleb128 -40
 6441 189f 1F       		.uleb128 0x1f
 6442 18a0 6D696400 		.ascii	"mid\000"
 6443 18a4 01       		.byte	0x1
 6444 18a5 C801     		.2byte	0x1c8
 6445 18a7 6F010000 		.4byte	0x16f
 6446 18ab 02       		.uleb128 0x2
 6447 18ac 91       		.byte	0x91
 6448 18ad 6C       		.sleb128 -20
 6449 18ae 1E       		.uleb128 0x1e
 6450 18af 34310000 		.4byte	.LASF1140
 6451 18b3 01       		.byte	0x1
 6452 18b4 C801     		.2byte	0x1c8
 6453 18b6 FE000000 		.4byte	0xfe
 6454 18ba 02       		.uleb128 0x2
 6455 18bb 91       		.byte	0x91
 6456 18bc 60       		.sleb128 -32
 6457 18bd 1F       		.uleb128 0x1f
 6458 18be 656E6400 		.ascii	"end\000"
 6459 18c2 01       		.byte	0x1
 6460 18c3 C801     		.2byte	0x1c8
 6461 18c5 220A0000 		.4byte	0xa22
 6462 18c9 02       		.uleb128 0x2
ARM GAS  /var/folders/9j/_txx49hn253_s3mnzkyxlj8m0000gp/T//ccxigpJH.s 			page 131


 6463 18ca 91       		.byte	0x91
 6464 18cb 5C       		.sleb128 -36
 6465 18cc 21       		.uleb128 0x21
 6466 18cd A4310000 		.4byte	.LASF1142
 6467 18d1 01       		.byte	0x1
 6468 18d2 CA01     		.2byte	0x1ca
 6469 18d4 48030000 		.4byte	0x348
 6470 18d8 34060000 		.4byte	.LLST31
 6471 18dc 18       		.uleb128 0x18
 6472 18dd 12000000 		.4byte	.LVL164
 6473 18e1 70200000 		.4byte	0x2070
 6474 18e5 F6180000 		.4byte	0x18f6
 6475 18e9 19       		.uleb128 0x19
 6476 18ea 01       		.uleb128 0x1
 6477 18eb 51       		.byte	0x51
 6478 18ec 02       		.uleb128 0x2
 6479 18ed 91       		.byte	0x91
 6480 18ee 6C       		.sleb128 -20
 6481 18ef 19       		.uleb128 0x19
 6482 18f0 01       		.uleb128 0x1
 6483 18f1 50       		.byte	0x50
 6484 18f2 02       		.uleb128 0x2
 6485 18f3 7D       		.byte	0x7d
 6486 18f4 00       		.sleb128 0
 6487 18f5 00       		.byte	0
 6488 18f6 18       		.uleb128 0x18
 6489 18f7 24000000 		.4byte	.LVL165
 6490 18fb B41C0000 		.4byte	0x1cb4
 6491 18ff 10190000 		.4byte	0x1910
 6492 1903 19       		.uleb128 0x19
 6493 1904 01       		.uleb128 0x1
 6494 1905 51       		.byte	0x51
 6495 1906 02       		.uleb128 0x2
 6496 1907 91       		.byte	0x91
 6497 1908 60       		.sleb128 -32
 6498 1909 19       		.uleb128 0x19
 6499 190a 01       		.uleb128 0x1
 6500 190b 50       		.byte	0x50
 6501 190c 02       		.uleb128 0x2
 6502 190d 91       		.byte	0x91
 6503 190e 6F       		.sleb128 -17
 6504 190f 00       		.byte	0
 6505 1910 1A       		.uleb128 0x1a
 6506 1911 2C000000 		.4byte	.LVL166
 6507 1915 8C200000 		.4byte	0x208c
 6508 1919 19       		.uleb128 0x19
 6509 191a 01       		.uleb128 0x1
 6510 191b 51       		.byte	0x51
 6511 191c 02       		.uleb128 0x2
 6512 191d 91       		.byte	0x91
 6513 191e 5C       		.sleb128 -36
 6514 191f 19       		.uleb128 0x19
 6515 1920 01       		.uleb128 0x1
 6516 1921 50       		.byte	0x50
 6517 1922 02       		.uleb128 0x2
 6518 1923 91       		.byte	0x91
 6519 1924 6C       		.sleb128 -20
ARM GAS  /var/folders/9j/_txx49hn253_s3mnzkyxlj8m0000gp/T//ccxigpJH.s 			page 132


 6520 1925 00       		.byte	0
 6521 1926 00       		.byte	0
 6522 1927 1C       		.uleb128 0x1c
 6523 1928 29990000 		.4byte	.LASF1162
 6524 192c 01       		.byte	0x1
 6525 192d CE01     		.2byte	0x1ce
 6526 192f 00000000 		.4byte	.LFB21
 6527 1933 4C000000 		.4byte	.LFE21-.LFB21
 6528 1937 01       		.uleb128 0x1
 6529 1938 9C       		.byte	0x9c
 6530 1939 E4190000 		.4byte	0x19e4
 6531 193d 1D       		.uleb128 0x1d
 6532 193e 7D5F0000 		.4byte	.LASF1136
 6533 1942 01       		.byte	0x1
 6534 1943 CE01     		.2byte	0x1ce
 6535 1945 09010000 		.4byte	0x109
 6536 1949 5E060000 		.4byte	.LLST32
 6537 194d 1E       		.uleb128 0x1e
 6538 194e D3630000 		.4byte	.LASF1139
 6539 1952 01       		.byte	0x1
 6540 1953 CF01     		.2byte	0x1cf
 6541 1955 420A0000 		.4byte	0xa42
 6542 1959 02       		.uleb128 0x2
 6543 195a 91       		.byte	0x91
 6544 195b 58       		.sleb128 -40
 6545 195c 1F       		.uleb128 0x1f
 6546 195d 6D696400 		.ascii	"mid\000"
 6547 1961 01       		.byte	0x1
 6548 1962 D201     		.2byte	0x1d2
 6549 1964 6F010000 		.4byte	0x16f
 6550 1968 02       		.uleb128 0x2
 6551 1969 91       		.byte	0x91
 6552 196a 6C       		.sleb128 -20
 6553 196b 1E       		.uleb128 0x1e
 6554 196c 34310000 		.4byte	.LASF1140
 6555 1970 01       		.byte	0x1
 6556 1971 D201     		.2byte	0x1d2
 6557 1973 FE000000 		.4byte	0xfe
 6558 1977 02       		.uleb128 0x2
 6559 1978 91       		.byte	0x91
 6560 1979 60       		.sleb128 -32
 6561 197a 1F       		.uleb128 0x1f
 6562 197b 656E6400 		.ascii	"end\000"
 6563 197f 01       		.byte	0x1
 6564 1980 D201     		.2byte	0x1d2
 6565 1982 420A0000 		.4byte	0xa42
 6566 1986 02       		.uleb128 0x2
 6567 1987 91       		.byte	0x91
 6568 1988 5C       		.sleb128 -36
 6569 1989 21       		.uleb128 0x21
 6570 198a A4310000 		.4byte	.LASF1142
 6571 198e 01       		.byte	0x1
 6572 198f D401     		.2byte	0x1d4
 6573 1991 48030000 		.4byte	0x348
 6574 1995 95060000 		.4byte	.LLST33
 6575 1999 18       		.uleb128 0x18
 6576 199a 12000000 		.4byte	.LVL172
ARM GAS  /var/folders/9j/_txx49hn253_s3mnzkyxlj8m0000gp/T//ccxigpJH.s 			page 133


 6577 199e A2200000 		.4byte	0x20a2
 6578 19a2 B3190000 		.4byte	0x19b3
 6579 19a6 19       		.uleb128 0x19
 6580 19a7 01       		.uleb128 0x1
 6581 19a8 51       		.byte	0x51
 6582 19a9 02       		.uleb128 0x2
 6583 19aa 91       		.byte	0x91
 6584 19ab 6C       		.sleb128 -20
 6585 19ac 19       		.uleb128 0x19
 6586 19ad 01       		.uleb128 0x1
 6587 19ae 50       		.byte	0x50
 6588 19af 02       		.uleb128 0x2
 6589 19b0 7D       		.byte	0x7d
 6590 19b1 00       		.sleb128 0
 6591 19b2 00       		.byte	0
 6592 19b3 18       		.uleb128 0x18
 6593 19b4 24000000 		.4byte	.LVL173
 6594 19b8 B41C0000 		.4byte	0x1cb4
 6595 19bc CD190000 		.4byte	0x19cd
 6596 19c0 19       		.uleb128 0x19
 6597 19c1 01       		.uleb128 0x1
 6598 19c2 51       		.byte	0x51
 6599 19c3 02       		.uleb128 0x2
 6600 19c4 91       		.byte	0x91
 6601 19c5 60       		.sleb128 -32
 6602 19c6 19       		.uleb128 0x19
 6603 19c7 01       		.uleb128 0x1
 6604 19c8 50       		.byte	0x50
 6605 19c9 02       		.uleb128 0x2
 6606 19ca 91       		.byte	0x91
 6607 19cb 6F       		.sleb128 -17
 6608 19cc 00       		.byte	0
 6609 19cd 1A       		.uleb128 0x1a
 6610 19ce 2C000000 		.4byte	.LVL174
 6611 19d2 BE200000 		.4byte	0x20be
 6612 19d6 19       		.uleb128 0x19
 6613 19d7 01       		.uleb128 0x1
 6614 19d8 51       		.byte	0x51
 6615 19d9 02       		.uleb128 0x2
 6616 19da 91       		.byte	0x91
 6617 19db 5C       		.sleb128 -36
 6618 19dc 19       		.uleb128 0x19
 6619 19dd 01       		.uleb128 0x1
 6620 19de 50       		.byte	0x50
 6621 19df 02       		.uleb128 0x2
 6622 19e0 91       		.byte	0x91
 6623 19e1 6C       		.sleb128 -20
 6624 19e2 00       		.byte	0
 6625 19e3 00       		.byte	0
 6626 19e4 1C       		.uleb128 0x1c
 6627 19e5 E4500000 		.4byte	.LASF1163
 6628 19e9 01       		.byte	0x1
 6629 19ea D801     		.2byte	0x1d8
 6630 19ec 00000000 		.4byte	.LFB22
 6631 19f0 4C000000 		.4byte	.LFE22-.LFB22
 6632 19f4 01       		.uleb128 0x1
 6633 19f5 9C       		.byte	0x9c
ARM GAS  /var/folders/9j/_txx49hn253_s3mnzkyxlj8m0000gp/T//ccxigpJH.s 			page 134


 6634 19f6 A11A0000 		.4byte	0x1aa1
 6635 19fa 1D       		.uleb128 0x1d
 6636 19fb 7D5F0000 		.4byte	.LASF1136
 6637 19ff 01       		.byte	0x1
 6638 1a00 D801     		.2byte	0x1d8
 6639 1a02 09010000 		.4byte	0x109
 6640 1a06 BF060000 		.4byte	.LLST34
 6641 1a0a 1E       		.uleb128 0x1e
 6642 1a0b D3630000 		.4byte	.LASF1139
 6643 1a0f 01       		.byte	0x1
 6644 1a10 D901     		.2byte	0x1d9
 6645 1a12 620A0000 		.4byte	0xa62
 6646 1a16 02       		.uleb128 0x2
 6647 1a17 91       		.byte	0x91
 6648 1a18 58       		.sleb128 -40
 6649 1a19 1F       		.uleb128 0x1f
 6650 1a1a 6D696400 		.ascii	"mid\000"
 6651 1a1e 01       		.byte	0x1
 6652 1a1f DC01     		.2byte	0x1dc
 6653 1a21 6F010000 		.4byte	0x16f
 6654 1a25 02       		.uleb128 0x2
 6655 1a26 91       		.byte	0x91
 6656 1a27 6C       		.sleb128 -20
 6657 1a28 1E       		.uleb128 0x1e
 6658 1a29 34310000 		.4byte	.LASF1140
 6659 1a2d 01       		.byte	0x1
 6660 1a2e DC01     		.2byte	0x1dc
 6661 1a30 FE000000 		.4byte	0xfe
 6662 1a34 02       		.uleb128 0x2
 6663 1a35 91       		.byte	0x91
 6664 1a36 60       		.sleb128 -32
 6665 1a37 1F       		.uleb128 0x1f
 6666 1a38 656E6400 		.ascii	"end\000"
 6667 1a3c 01       		.byte	0x1
 6668 1a3d DC01     		.2byte	0x1dc
 6669 1a3f 620A0000 		.4byte	0xa62
 6670 1a43 02       		.uleb128 0x2
 6671 1a44 91       		.byte	0x91
 6672 1a45 5C       		.sleb128 -36
 6673 1a46 21       		.uleb128 0x21
 6674 1a47 A4310000 		.4byte	.LASF1142
 6675 1a4b 01       		.byte	0x1
 6676 1a4c DE01     		.2byte	0x1de
 6677 1a4e 48030000 		.4byte	0x348
 6678 1a52 F6060000 		.4byte	.LLST35
 6679 1a56 18       		.uleb128 0x18
 6680 1a57 12000000 		.4byte	.LVL180
 6681 1a5b D4200000 		.4byte	0x20d4
 6682 1a5f 701A0000 		.4byte	0x1a70
 6683 1a63 19       		.uleb128 0x19
 6684 1a64 01       		.uleb128 0x1
 6685 1a65 51       		.byte	0x51
 6686 1a66 02       		.uleb128 0x2
 6687 1a67 91       		.byte	0x91
 6688 1a68 6C       		.sleb128 -20
 6689 1a69 19       		.uleb128 0x19
 6690 1a6a 01       		.uleb128 0x1
ARM GAS  /var/folders/9j/_txx49hn253_s3mnzkyxlj8m0000gp/T//ccxigpJH.s 			page 135


 6691 1a6b 50       		.byte	0x50
 6692 1a6c 02       		.uleb128 0x2
 6693 1a6d 7D       		.byte	0x7d
 6694 1a6e 00       		.sleb128 0
 6695 1a6f 00       		.byte	0
 6696 1a70 18       		.uleb128 0x18
 6697 1a71 24000000 		.4byte	.LVL181
 6698 1a75 B41C0000 		.4byte	0x1cb4
 6699 1a79 8A1A0000 		.4byte	0x1a8a
 6700 1a7d 19       		.uleb128 0x19
 6701 1a7e 01       		.uleb128 0x1
 6702 1a7f 51       		.byte	0x51
 6703 1a80 02       		.uleb128 0x2
 6704 1a81 91       		.byte	0x91
 6705 1a82 60       		.sleb128 -32
 6706 1a83 19       		.uleb128 0x19
 6707 1a84 01       		.uleb128 0x1
 6708 1a85 50       		.byte	0x50
 6709 1a86 02       		.uleb128 0x2
 6710 1a87 91       		.byte	0x91
 6711 1a88 6F       		.sleb128 -17
 6712 1a89 00       		.byte	0
 6713 1a8a 1A       		.uleb128 0x1a
 6714 1a8b 2C000000 		.4byte	.LVL182
 6715 1a8f F0200000 		.4byte	0x20f0
 6716 1a93 19       		.uleb128 0x19
 6717 1a94 01       		.uleb128 0x1
 6718 1a95 51       		.byte	0x51
 6719 1a96 02       		.uleb128 0x2
 6720 1a97 91       		.byte	0x91
 6721 1a98 5C       		.sleb128 -36
 6722 1a99 19       		.uleb128 0x19
 6723 1a9a 01       		.uleb128 0x1
 6724 1a9b 50       		.byte	0x50
 6725 1a9c 02       		.uleb128 0x2
 6726 1a9d 91       		.byte	0x91
 6727 1a9e 6C       		.sleb128 -20
 6728 1a9f 00       		.byte	0
 6729 1aa0 00       		.byte	0
 6730 1aa1 22       		.uleb128 0x22
 6731 1aa2 4A4A0000 		.4byte	.LASF1164
 6732 1aa6 01       		.byte	0x1
 6733 1aa7 E201     		.2byte	0x1e2
 6734 1aa9 00000000 		.4byte	.LFB23
 6735 1aad 94000000 		.4byte	.LFE23-.LFB23
 6736 1ab1 01       		.uleb128 0x1
 6737 1ab2 9C       		.byte	0x9c
 6738 1ab3 921C0000 		.4byte	0x1c92
 6739 1ab7 1D       		.uleb128 0x1d
 6740 1ab8 7D5F0000 		.4byte	.LASF1136
 6741 1abc 01       		.byte	0x1
 6742 1abd E201     		.2byte	0x1e2
 6743 1abf 09010000 		.4byte	0x109
 6744 1ac3 20070000 		.4byte	.LLST36
 6745 1ac7 23       		.uleb128 0x23
 6746 1ac8 08000000 		.4byte	.LVL188
 6747 1acc 02       		.uleb128 0x2
ARM GAS  /var/folders/9j/_txx49hn253_s3mnzkyxlj8m0000gp/T//ccxigpJH.s 			page 136


 6748 1acd 74       		.byte	0x74
 6749 1ace 00       		.sleb128 0
 6750 1acf DD1A0000 		.4byte	0x1add
 6751 1ad3 19       		.uleb128 0x19
 6752 1ad4 01       		.uleb128 0x1
 6753 1ad5 50       		.byte	0x50
 6754 1ad6 05       		.uleb128 0x5
 6755 1ad7 03       		.byte	0x3
 6756 1ad8 F8050000 		.4byte	.LC92
 6757 1adc 00       		.byte	0
 6758 1add 18       		.uleb128 0x18
 6759 1ade 0E000000 		.4byte	.LVL189
 6760 1ae2 CE0A0000 		.4byte	0xace
 6761 1ae6 F11A0000 		.4byte	0x1af1
 6762 1aea 19       		.uleb128 0x19
 6763 1aeb 01       		.uleb128 0x1
 6764 1aec 50       		.byte	0x50
 6765 1aed 02       		.uleb128 0x2
 6766 1aee 74       		.byte	0x74
 6767 1aef 00       		.sleb128 0
 6768 1af0 00       		.byte	0
 6769 1af1 18       		.uleb128 0x18
 6770 1af2 14000000 		.4byte	.LVL190
 6771 1af6 800B0000 		.4byte	0xb80
 6772 1afa 051B0000 		.4byte	0x1b05
 6773 1afe 19       		.uleb128 0x19
 6774 1aff 01       		.uleb128 0x1
 6775 1b00 50       		.byte	0x50
 6776 1b01 02       		.uleb128 0x2
 6777 1b02 74       		.byte	0x74
 6778 1b03 00       		.sleb128 0
 6779 1b04 00       		.byte	0
 6780 1b05 18       		.uleb128 0x18
 6781 1b06 1A000000 		.4byte	.LVL191
 6782 1b0a 320C0000 		.4byte	0xc32
 6783 1b0e 191B0000 		.4byte	0x1b19
 6784 1b12 19       		.uleb128 0x19
 6785 1b13 01       		.uleb128 0x1
 6786 1b14 50       		.byte	0x50
 6787 1b15 02       		.uleb128 0x2
 6788 1b16 74       		.byte	0x74
 6789 1b17 00       		.sleb128 0
 6790 1b18 00       		.byte	0
 6791 1b19 18       		.uleb128 0x18
 6792 1b1a 20000000 		.4byte	.LVL192
 6793 1b1e E40C0000 		.4byte	0xce4
 6794 1b22 2D1B0000 		.4byte	0x1b2d
 6795 1b26 19       		.uleb128 0x19
 6796 1b27 01       		.uleb128 0x1
 6797 1b28 50       		.byte	0x50
 6798 1b29 02       		.uleb128 0x2
 6799 1b2a 74       		.byte	0x74
 6800 1b2b 00       		.sleb128 0
 6801 1b2c 00       		.byte	0
 6802 1b2d 18       		.uleb128 0x18
 6803 1b2e 26000000 		.4byte	.LVL193
 6804 1b32 9A0D0000 		.4byte	0xd9a
ARM GAS  /var/folders/9j/_txx49hn253_s3mnzkyxlj8m0000gp/T//ccxigpJH.s 			page 137


 6805 1b36 411B0000 		.4byte	0x1b41
 6806 1b3a 19       		.uleb128 0x19
 6807 1b3b 01       		.uleb128 0x1
 6808 1b3c 50       		.byte	0x50
 6809 1b3d 02       		.uleb128 0x2
 6810 1b3e 74       		.byte	0x74
 6811 1b3f 00       		.sleb128 0
 6812 1b40 00       		.byte	0
 6813 1b41 18       		.uleb128 0x18
 6814 1b42 2C000000 		.4byte	.LVL194
 6815 1b46 4C0E0000 		.4byte	0xe4c
 6816 1b4a 551B0000 		.4byte	0x1b55
 6817 1b4e 19       		.uleb128 0x19
 6818 1b4f 01       		.uleb128 0x1
 6819 1b50 50       		.byte	0x50
 6820 1b51 02       		.uleb128 0x2
 6821 1b52 74       		.byte	0x74
 6822 1b53 00       		.sleb128 0
 6823 1b54 00       		.byte	0
 6824 1b55 18       		.uleb128 0x18
 6825 1b56 32000000 		.4byte	.LVL195
 6826 1b5a 020F0000 		.4byte	0xf02
 6827 1b5e 691B0000 		.4byte	0x1b69
 6828 1b62 19       		.uleb128 0x19
 6829 1b63 01       		.uleb128 0x1
 6830 1b64 50       		.byte	0x50
 6831 1b65 02       		.uleb128 0x2
 6832 1b66 74       		.byte	0x74
 6833 1b67 00       		.sleb128 0
 6834 1b68 00       		.byte	0
 6835 1b69 18       		.uleb128 0x18
 6836 1b6a 38000000 		.4byte	.LVL196
 6837 1b6e BA0F0000 		.4byte	0xfba
 6838 1b72 7D1B0000 		.4byte	0x1b7d
 6839 1b76 19       		.uleb128 0x19
 6840 1b77 01       		.uleb128 0x1
 6841 1b78 50       		.byte	0x50
 6842 1b79 02       		.uleb128 0x2
 6843 1b7a 74       		.byte	0x74
 6844 1b7b 00       		.sleb128 0
 6845 1b7c 00       		.byte	0
 6846 1b7d 18       		.uleb128 0x18
 6847 1b7e 3E000000 		.4byte	.LVL197
 6848 1b82 6C100000 		.4byte	0x106c
 6849 1b86 911B0000 		.4byte	0x1b91
 6850 1b8a 19       		.uleb128 0x19
 6851 1b8b 01       		.uleb128 0x1
 6852 1b8c 50       		.byte	0x50
 6853 1b8d 02       		.uleb128 0x2
 6854 1b8e 74       		.byte	0x74
 6855 1b8f 00       		.sleb128 0
 6856 1b90 00       		.byte	0
 6857 1b91 18       		.uleb128 0x18
 6858 1b92 44000000 		.4byte	.LVL198
 6859 1b96 22110000 		.4byte	0x1122
 6860 1b9a A51B0000 		.4byte	0x1ba5
 6861 1b9e 19       		.uleb128 0x19
ARM GAS  /var/folders/9j/_txx49hn253_s3mnzkyxlj8m0000gp/T//ccxigpJH.s 			page 138


 6862 1b9f 01       		.uleb128 0x1
 6863 1ba0 50       		.byte	0x50
 6864 1ba1 02       		.uleb128 0x2
 6865 1ba2 74       		.byte	0x74
 6866 1ba3 00       		.sleb128 0
 6867 1ba4 00       		.byte	0
 6868 1ba5 18       		.uleb128 0x18
 6869 1ba6 4A000000 		.4byte	.LVL199
 6870 1baa D4110000 		.4byte	0x11d4
 6871 1bae B91B0000 		.4byte	0x1bb9
 6872 1bb2 19       		.uleb128 0x19
 6873 1bb3 01       		.uleb128 0x1
 6874 1bb4 50       		.byte	0x50
 6875 1bb5 02       		.uleb128 0x2
 6876 1bb6 74       		.byte	0x74
 6877 1bb7 00       		.sleb128 0
 6878 1bb8 00       		.byte	0
 6879 1bb9 18       		.uleb128 0x18
 6880 1bba 50000000 		.4byte	.LVL200
 6881 1bbe 86120000 		.4byte	0x1286
 6882 1bc2 CD1B0000 		.4byte	0x1bcd
 6883 1bc6 19       		.uleb128 0x19
 6884 1bc7 01       		.uleb128 0x1
 6885 1bc8 50       		.byte	0x50
 6886 1bc9 02       		.uleb128 0x2
 6887 1bca 74       		.byte	0x74
 6888 1bcb 00       		.sleb128 0
 6889 1bcc 00       		.byte	0
 6890 1bcd 18       		.uleb128 0x18
 6891 1bce 56000000 		.4byte	.LVL201
 6892 1bd2 40130000 		.4byte	0x1340
 6893 1bd6 E11B0000 		.4byte	0x1be1
 6894 1bda 19       		.uleb128 0x19
 6895 1bdb 01       		.uleb128 0x1
 6896 1bdc 50       		.byte	0x50
 6897 1bdd 02       		.uleb128 0x2
 6898 1bde 74       		.byte	0x74
 6899 1bdf 00       		.sleb128 0
 6900 1be0 00       		.byte	0
 6901 1be1 18       		.uleb128 0x18
 6902 1be2 5C000000 		.4byte	.LVL202
 6903 1be6 FD130000 		.4byte	0x13fd
 6904 1bea F51B0000 		.4byte	0x1bf5
 6905 1bee 19       		.uleb128 0x19
 6906 1bef 01       		.uleb128 0x1
 6907 1bf0 50       		.byte	0x50
 6908 1bf1 02       		.uleb128 0x2
 6909 1bf2 74       		.byte	0x74
 6910 1bf3 00       		.sleb128 0
 6911 1bf4 00       		.byte	0
 6912 1bf5 18       		.uleb128 0x18
 6913 1bf6 62000000 		.4byte	.LVL203
 6914 1bfa BA140000 		.4byte	0x14ba
 6915 1bfe 091C0000 		.4byte	0x1c09
 6916 1c02 19       		.uleb128 0x19
 6917 1c03 01       		.uleb128 0x1
 6918 1c04 50       		.byte	0x50
ARM GAS  /var/folders/9j/_txx49hn253_s3mnzkyxlj8m0000gp/T//ccxigpJH.s 			page 139


 6919 1c05 02       		.uleb128 0x2
 6920 1c06 74       		.byte	0x74
 6921 1c07 00       		.sleb128 0
 6922 1c08 00       		.byte	0
 6923 1c09 18       		.uleb128 0x18
 6924 1c0a 68000000 		.4byte	.LVL204
 6925 1c0e 77150000 		.4byte	0x1577
 6926 1c12 1D1C0000 		.4byte	0x1c1d
 6927 1c16 19       		.uleb128 0x19
 6928 1c17 01       		.uleb128 0x1
 6929 1c18 50       		.byte	0x50
 6930 1c19 02       		.uleb128 0x2
 6931 1c1a 74       		.byte	0x74
 6932 1c1b 00       		.sleb128 0
 6933 1c1c 00       		.byte	0
 6934 1c1d 18       		.uleb128 0x18
 6935 1c1e 6E000000 		.4byte	.LVL205
 6936 1c22 30160000 		.4byte	0x1630
 6937 1c26 311C0000 		.4byte	0x1c31
 6938 1c2a 19       		.uleb128 0x19
 6939 1c2b 01       		.uleb128 0x1
 6940 1c2c 50       		.byte	0x50
 6941 1c2d 02       		.uleb128 0x2
 6942 1c2e 74       		.byte	0x74
 6943 1c2f 00       		.sleb128 0
 6944 1c30 00       		.byte	0
 6945 1c31 18       		.uleb128 0x18
 6946 1c32 74000000 		.4byte	.LVL206
 6947 1c36 EF160000 		.4byte	0x16ef
 6948 1c3a 451C0000 		.4byte	0x1c45
 6949 1c3e 19       		.uleb128 0x19
 6950 1c3f 01       		.uleb128 0x1
 6951 1c40 50       		.byte	0x50
 6952 1c41 02       		.uleb128 0x2
 6953 1c42 74       		.byte	0x74
 6954 1c43 00       		.sleb128 0
 6955 1c44 00       		.byte	0
 6956 1c45 18       		.uleb128 0x18
 6957 1c46 7A000000 		.4byte	.LVL207
 6958 1c4a AD170000 		.4byte	0x17ad
 6959 1c4e 591C0000 		.4byte	0x1c59
 6960 1c52 19       		.uleb128 0x19
 6961 1c53 01       		.uleb128 0x1
 6962 1c54 50       		.byte	0x50
 6963 1c55 02       		.uleb128 0x2
 6964 1c56 74       		.byte	0x74
 6965 1c57 00       		.sleb128 0
 6966 1c58 00       		.byte	0
 6967 1c59 18       		.uleb128 0x18
 6968 1c5a 80000000 		.4byte	.LVL208
 6969 1c5e 6A180000 		.4byte	0x186a
 6970 1c62 6D1C0000 		.4byte	0x1c6d
 6971 1c66 19       		.uleb128 0x19
 6972 1c67 01       		.uleb128 0x1
 6973 1c68 50       		.byte	0x50
 6974 1c69 02       		.uleb128 0x2
 6975 1c6a 74       		.byte	0x74
ARM GAS  /var/folders/9j/_txx49hn253_s3mnzkyxlj8m0000gp/T//ccxigpJH.s 			page 140


 6976 1c6b 00       		.sleb128 0
 6977 1c6c 00       		.byte	0
 6978 1c6d 18       		.uleb128 0x18
 6979 1c6e 86000000 		.4byte	.LVL209
 6980 1c72 27190000 		.4byte	0x1927
 6981 1c76 811C0000 		.4byte	0x1c81
 6982 1c7a 19       		.uleb128 0x19
 6983 1c7b 01       		.uleb128 0x1
 6984 1c7c 50       		.byte	0x50
 6985 1c7d 02       		.uleb128 0x2
 6986 1c7e 74       		.byte	0x74
 6987 1c7f 00       		.sleb128 0
 6988 1c80 00       		.byte	0
 6989 1c81 1A       		.uleb128 0x1a
 6990 1c82 8C000000 		.4byte	.LVL210
 6991 1c86 E4190000 		.4byte	0x19e4
 6992 1c8a 19       		.uleb128 0x19
 6993 1c8b 01       		.uleb128 0x1
 6994 1c8c 50       		.byte	0x50
 6995 1c8d 02       		.uleb128 0x2
 6996 1c8e 74       		.byte	0x74
 6997 1c8f 00       		.sleb128 0
 6998 1c90 00       		.byte	0
 6999 1c91 00       		.byte	0
 7000 1c92 24       		.uleb128 0x24
 7001 1c93 33910000 		.4byte	.LASF1165
 7002 1c97 0C       		.byte	0xc
 7003 1c98 51       		.byte	0x51
 7004 1c99 A81C0000 		.4byte	0x1ca8
 7005 1c9d 07       		.uleb128 0x7
 7006 1c9e A81C0000 		.4byte	0x1ca8
 7007 1ca2 07       		.uleb128 0x7
 7008 1ca3 AE1C0000 		.4byte	0x1cae
 7009 1ca7 00       		.byte	0
 7010 1ca8 05       		.uleb128 0x5
 7011 1ca9 04       		.byte	0x4
 7012 1caa 4F030000 		.4byte	0x34f
 7013 1cae 05       		.uleb128 0x5
 7014 1caf 04       		.byte	0x4
 7015 1cb0 6F010000 		.4byte	0x16f
 7016 1cb4 24       		.uleb128 0x24
 7017 1cb5 6B890000 		.4byte	.LASF1166
 7018 1cb9 0C       		.byte	0xc
 7019 1cba 45       		.byte	0x45
 7020 1cbb CA1C0000 		.4byte	0x1cca
 7021 1cbf 07       		.uleb128 0x7
 7022 1cc0 CA1C0000 		.4byte	0x1cca
 7023 1cc4 07       		.uleb128 0x7
 7024 1cc5 D01C0000 		.4byte	0x1cd0
 7025 1cc9 00       		.byte	0
 7026 1cca 05       		.uleb128 0x5
 7027 1ccb 04       		.byte	0x4
 7028 1ccc C7000000 		.4byte	0xc7
 7029 1cd0 05       		.uleb128 0x5
 7030 1cd1 04       		.byte	0x4
 7031 1cd2 FE000000 		.4byte	0xfe
 7032 1cd6 24       		.uleb128 0x24
ARM GAS  /var/folders/9j/_txx49hn253_s3mnzkyxlj8m0000gp/T//ccxigpJH.s 			page 141


 7033 1cd7 617E0000 		.4byte	.LASF1167
 7034 1cdb 0C       		.byte	0xc
 7035 1cdc 51       		.byte	0x51
 7036 1cdd EC1C0000 		.4byte	0x1cec
 7037 1ce1 07       		.uleb128 0x7
 7038 1ce2 AE1C0000 		.4byte	0x1cae
 7039 1ce6 07       		.uleb128 0x7
 7040 1ce7 A81C0000 		.4byte	0x1ca8
 7041 1ceb 00       		.byte	0
 7042 1cec 24       		.uleb128 0x24
 7043 1ced 0E3D0000 		.4byte	.LASF1168
 7044 1cf1 0C       		.byte	0xc
 7045 1cf2 52       		.byte	0x52
 7046 1cf3 021D0000 		.4byte	0x1d02
 7047 1cf7 07       		.uleb128 0x7
 7048 1cf8 021D0000 		.4byte	0x1d02
 7049 1cfc 07       		.uleb128 0x7
 7050 1cfd AE1C0000 		.4byte	0x1cae
 7051 1d01 00       		.byte	0
 7052 1d02 05       		.uleb128 0x5
 7053 1d03 04       		.byte	0x4
 7054 1d04 9F030000 		.4byte	0x39f
 7055 1d08 24       		.uleb128 0x24
 7056 1d09 C25B0000 		.4byte	.LASF1169
 7057 1d0d 0C       		.byte	0xc
 7058 1d0e 52       		.byte	0x52
 7059 1d0f 1E1D0000 		.4byte	0x1d1e
 7060 1d13 07       		.uleb128 0x7
 7061 1d14 AE1C0000 		.4byte	0x1cae
 7062 1d18 07       		.uleb128 0x7
 7063 1d19 021D0000 		.4byte	0x1d02
 7064 1d1d 00       		.byte	0
 7065 1d1e 24       		.uleb128 0x24
 7066 1d1f 4A340000 		.4byte	.LASF1170
 7067 1d23 0C       		.byte	0xc
 7068 1d24 53       		.byte	0x53
 7069 1d25 341D0000 		.4byte	0x1d34
 7070 1d29 07       		.uleb128 0x7
 7071 1d2a 341D0000 		.4byte	0x1d34
 7072 1d2e 07       		.uleb128 0x7
 7073 1d2f AE1C0000 		.4byte	0x1cae
 7074 1d33 00       		.byte	0
 7075 1d34 05       		.uleb128 0x5
 7076 1d35 04       		.byte	0x4
 7077 1d36 CB030000 		.4byte	0x3cb
 7078 1d3a 24       		.uleb128 0x24
 7079 1d3b 584A0000 		.4byte	.LASF1171
 7080 1d3f 0C       		.byte	0xc
 7081 1d40 53       		.byte	0x53
 7082 1d41 501D0000 		.4byte	0x1d50
 7083 1d45 07       		.uleb128 0x7
 7084 1d46 AE1C0000 		.4byte	0x1cae
 7085 1d4a 07       		.uleb128 0x7
 7086 1d4b 341D0000 		.4byte	0x1d34
 7087 1d4f 00       		.byte	0
 7088 1d50 24       		.uleb128 0x24
 7089 1d51 19590000 		.4byte	.LASF1172
ARM GAS  /var/folders/9j/_txx49hn253_s3mnzkyxlj8m0000gp/T//ccxigpJH.s 			page 142


 7090 1d55 0C       		.byte	0xc
 7091 1d56 54       		.byte	0x54
 7092 1d57 661D0000 		.4byte	0x1d66
 7093 1d5b 07       		.uleb128 0x7
 7094 1d5c 661D0000 		.4byte	0x1d66
 7095 1d60 07       		.uleb128 0x7
 7096 1d61 AE1C0000 		.4byte	0x1cae
 7097 1d65 00       		.byte	0
 7098 1d66 05       		.uleb128 0x5
 7099 1d67 04       		.byte	0x4
 7100 1d68 EB030000 		.4byte	0x3eb
 7101 1d6c 24       		.uleb128 0x24
 7102 1d6d 06890000 		.4byte	.LASF1173
 7103 1d71 0C       		.byte	0xc
 7104 1d72 54       		.byte	0x54
 7105 1d73 821D0000 		.4byte	0x1d82
 7106 1d77 07       		.uleb128 0x7
 7107 1d78 AE1C0000 		.4byte	0x1cae
 7108 1d7c 07       		.uleb128 0x7
 7109 1d7d 661D0000 		.4byte	0x1d66
 7110 1d81 00       		.byte	0
 7111 1d82 24       		.uleb128 0x24
 7112 1d83 85620000 		.4byte	.LASF1174
 7113 1d87 0C       		.byte	0xc
 7114 1d88 55       		.byte	0x55
 7115 1d89 981D0000 		.4byte	0x1d98
 7116 1d8d 07       		.uleb128 0x7
 7117 1d8e 981D0000 		.4byte	0x1d98
 7118 1d92 07       		.uleb128 0x7
 7119 1d93 AE1C0000 		.4byte	0x1cae
 7120 1d97 00       		.byte	0
 7121 1d98 05       		.uleb128 0x5
 7122 1d99 04       		.byte	0x4
 7123 1d9a 17040000 		.4byte	0x417
 7124 1d9e 24       		.uleb128 0x24
 7125 1d9f 5F960000 		.4byte	.LASF1175
 7126 1da3 0C       		.byte	0xc
 7127 1da4 55       		.byte	0x55
 7128 1da5 B41D0000 		.4byte	0x1db4
 7129 1da9 07       		.uleb128 0x7
 7130 1daa AE1C0000 		.4byte	0x1cae
 7131 1dae 07       		.uleb128 0x7
 7132 1daf 981D0000 		.4byte	0x1d98
 7133 1db3 00       		.byte	0
 7134 1db4 24       		.uleb128 0x24
 7135 1db5 79080000 		.4byte	.LASF1176
 7136 1db9 0C       		.byte	0xc
 7137 1dba 5D       		.byte	0x5d
 7138 1dbb CA1D0000 		.4byte	0x1dca
 7139 1dbf 07       		.uleb128 0x7
 7140 1dc0 CA1D0000 		.4byte	0x1dca
 7141 1dc4 07       		.uleb128 0x7
 7142 1dc5 AE1C0000 		.4byte	0x1cae
 7143 1dc9 00       		.byte	0
 7144 1dca 05       		.uleb128 0x5
 7145 1dcb 04       		.byte	0x4
 7146 1dcc 37040000 		.4byte	0x437
ARM GAS  /var/folders/9j/_txx49hn253_s3mnzkyxlj8m0000gp/T//ccxigpJH.s 			page 143


 7147 1dd0 24       		.uleb128 0x24
 7148 1dd1 28270000 		.4byte	.LASF1177
 7149 1dd5 0C       		.byte	0xc
 7150 1dd6 5D       		.byte	0x5d
 7151 1dd7 E61D0000 		.4byte	0x1de6
 7152 1ddb 07       		.uleb128 0x7
 7153 1ddc AE1C0000 		.4byte	0x1cae
 7154 1de0 07       		.uleb128 0x7
 7155 1de1 CA1D0000 		.4byte	0x1dca
 7156 1de5 00       		.byte	0
 7157 1de6 24       		.uleb128 0x24
 7158 1de7 962B0000 		.4byte	.LASF1178
 7159 1deb 0C       		.byte	0xc
 7160 1dec 5E       		.byte	0x5e
 7161 1ded FC1D0000 		.4byte	0x1dfc
 7162 1df1 07       		.uleb128 0x7
 7163 1df2 FC1D0000 		.4byte	0x1dfc
 7164 1df6 07       		.uleb128 0x7
 7165 1df7 AE1C0000 		.4byte	0x1cae
 7166 1dfb 00       		.byte	0
 7167 1dfc 05       		.uleb128 0x5
 7168 1dfd 04       		.byte	0x4
 7169 1dfe A7050000 		.4byte	0x5a7
 7170 1e02 24       		.uleb128 0x24
 7171 1e03 90530000 		.4byte	.LASF1179
 7172 1e07 0C       		.byte	0xc
 7173 1e08 5E       		.byte	0x5e
 7174 1e09 181E0000 		.4byte	0x1e18
 7175 1e0d 07       		.uleb128 0x7
 7176 1e0e AE1C0000 		.4byte	0x1cae
 7177 1e12 07       		.uleb128 0x7
 7178 1e13 FC1D0000 		.4byte	0x1dfc
 7179 1e17 00       		.byte	0
 7180 1e18 24       		.uleb128 0x24
 7181 1e19 7B8F0000 		.4byte	.LASF1180
 7182 1e1d 0C       		.byte	0xc
 7183 1e1e 5F       		.byte	0x5f
 7184 1e1f 2E1E0000 		.4byte	0x1e2e
 7185 1e23 07       		.uleb128 0x7
 7186 1e24 2E1E0000 		.4byte	0x1e2e
 7187 1e28 07       		.uleb128 0x7
 7188 1e29 AE1C0000 		.4byte	0x1cae
 7189 1e2d 00       		.byte	0
 7190 1e2e 05       		.uleb128 0x5
 7191 1e2f 04       		.byte	0x4
 7192 1e30 D3050000 		.4byte	0x5d3
 7193 1e34 24       		.uleb128 0x24
 7194 1e35 017A0000 		.4byte	.LASF1181
 7195 1e39 0C       		.byte	0xc
 7196 1e3a 5F       		.byte	0x5f
 7197 1e3b 4A1E0000 		.4byte	0x1e4a
 7198 1e3f 07       		.uleb128 0x7
 7199 1e40 AE1C0000 		.4byte	0x1cae
 7200 1e44 07       		.uleb128 0x7
 7201 1e45 2E1E0000 		.4byte	0x1e2e
 7202 1e49 00       		.byte	0
 7203 1e4a 24       		.uleb128 0x24
ARM GAS  /var/folders/9j/_txx49hn253_s3mnzkyxlj8m0000gp/T//ccxigpJH.s 			page 144


 7204 1e4b 7B970000 		.4byte	.LASF1182
 7205 1e4f 0C       		.byte	0xc
 7206 1e50 60       		.byte	0x60
 7207 1e51 601E0000 		.4byte	0x1e60
 7208 1e55 07       		.uleb128 0x7
 7209 1e56 601E0000 		.4byte	0x1e60
 7210 1e5a 07       		.uleb128 0x7
 7211 1e5b AE1C0000 		.4byte	0x1cae
 7212 1e5f 00       		.byte	0
 7213 1e60 05       		.uleb128 0x5
 7214 1e61 04       		.byte	0x4
 7215 1e62 F3050000 		.4byte	0x5f3
 7216 1e66 24       		.uleb128 0x24
 7217 1e67 78890000 		.4byte	.LASF1183
 7218 1e6b 0C       		.byte	0xc
 7219 1e6c 60       		.byte	0x60
 7220 1e6d 7C1E0000 		.4byte	0x1e7c
 7221 1e71 07       		.uleb128 0x7
 7222 1e72 AE1C0000 		.4byte	0x1cae
 7223 1e76 07       		.uleb128 0x7
 7224 1e77 601E0000 		.4byte	0x1e60
 7225 1e7b 00       		.byte	0
 7226 1e7c 24       		.uleb128 0x24
 7227 1e7d A5610000 		.4byte	.LASF1184
 7228 1e81 0C       		.byte	0xc
 7229 1e82 68       		.byte	0x68
 7230 1e83 921E0000 		.4byte	0x1e92
 7231 1e87 07       		.uleb128 0x7
 7232 1e88 921E0000 		.4byte	0x1e92
 7233 1e8c 07       		.uleb128 0x7
 7234 1e8d AE1C0000 		.4byte	0x1cae
 7235 1e91 00       		.byte	0
 7236 1e92 05       		.uleb128 0x5
 7237 1e93 04       		.byte	0x4
 7238 1e94 43060000 		.4byte	0x643
 7239 1e98 24       		.uleb128 0x24
 7240 1e99 23850000 		.4byte	.LASF1185
 7241 1e9d 0C       		.byte	0xc
 7242 1e9e 68       		.byte	0x68
 7243 1e9f AE1E0000 		.4byte	0x1eae
 7244 1ea3 07       		.uleb128 0x7
 7245 1ea4 AE1C0000 		.4byte	0x1cae
 7246 1ea8 07       		.uleb128 0x7
 7247 1ea9 921E0000 		.4byte	0x1e92
 7248 1ead 00       		.byte	0
 7249 1eae 24       		.uleb128 0x24
 7250 1eaf BE500000 		.4byte	.LASF1186
 7251 1eb3 0C       		.byte	0xc
 7252 1eb4 69       		.byte	0x69
 7253 1eb5 C41E0000 		.4byte	0x1ec4
 7254 1eb9 07       		.uleb128 0x7
 7255 1eba C41E0000 		.4byte	0x1ec4
 7256 1ebe 07       		.uleb128 0x7
 7257 1ebf AE1C0000 		.4byte	0x1cae
 7258 1ec3 00       		.byte	0
 7259 1ec4 05       		.uleb128 0x5
 7260 1ec5 04       		.byte	0x4
ARM GAS  /var/folders/9j/_txx49hn253_s3mnzkyxlj8m0000gp/T//ccxigpJH.s 			page 145


 7261 1ec6 93060000 		.4byte	0x693
 7262 1eca 24       		.uleb128 0x24
 7263 1ecb DB710000 		.4byte	.LASF1187
 7264 1ecf 0C       		.byte	0xc
 7265 1ed0 69       		.byte	0x69
 7266 1ed1 E01E0000 		.4byte	0x1ee0
 7267 1ed5 07       		.uleb128 0x7
 7268 1ed6 AE1C0000 		.4byte	0x1cae
 7269 1eda 07       		.uleb128 0x7
 7270 1edb C41E0000 		.4byte	0x1ec4
 7271 1edf 00       		.byte	0
 7272 1ee0 24       		.uleb128 0x24
 7273 1ee1 F8570000 		.4byte	.LASF1188
 7274 1ee5 0C       		.byte	0xc
 7275 1ee6 6A       		.byte	0x6a
 7276 1ee7 F61E0000 		.4byte	0x1ef6
 7277 1eeb 07       		.uleb128 0x7
 7278 1eec F61E0000 		.4byte	0x1ef6
 7279 1ef0 07       		.uleb128 0x7
 7280 1ef1 AE1C0000 		.4byte	0x1cae
 7281 1ef5 00       		.byte	0
 7282 1ef6 05       		.uleb128 0x5
 7283 1ef7 04       		.byte	0x4
 7284 1ef8 FB060000 		.4byte	0x6fb
 7285 1efc 24       		.uleb128 0x24
 7286 1efd 4F070000 		.4byte	.LASF1189
 7287 1f01 0C       		.byte	0xc
 7288 1f02 6A       		.byte	0x6a
 7289 1f03 121F0000 		.4byte	0x1f12
 7290 1f07 07       		.uleb128 0x7
 7291 1f08 AE1C0000 		.4byte	0x1cae
 7292 1f0c 07       		.uleb128 0x7
 7293 1f0d F61E0000 		.4byte	0x1ef6
 7294 1f11 00       		.byte	0
 7295 1f12 24       		.uleb128 0x24
 7296 1f13 7D2F0000 		.4byte	.LASF1190
 7297 1f17 0C       		.byte	0xc
 7298 1f18 6B       		.byte	0x6b
 7299 1f19 281F0000 		.4byte	0x1f28
 7300 1f1d 07       		.uleb128 0x7
 7301 1f1e 281F0000 		.4byte	0x1f28
 7302 1f22 07       		.uleb128 0x7
 7303 1f23 AE1C0000 		.4byte	0x1cae
 7304 1f27 00       		.byte	0
 7305 1f28 05       		.uleb128 0x5
 7306 1f29 04       		.byte	0x4
 7307 1f2a 1B070000 		.4byte	0x71b
 7308 1f2e 24       		.uleb128 0x24
 7309 1f2f E7200000 		.4byte	.LASF1191
 7310 1f33 0C       		.byte	0xc
 7311 1f34 6B       		.byte	0x6b
 7312 1f35 441F0000 		.4byte	0x1f44
 7313 1f39 07       		.uleb128 0x7
 7314 1f3a AE1C0000 		.4byte	0x1cae
 7315 1f3e 07       		.uleb128 0x7
 7316 1f3f 281F0000 		.4byte	0x1f28
 7317 1f43 00       		.byte	0
ARM GAS  /var/folders/9j/_txx49hn253_s3mnzkyxlj8m0000gp/T//ccxigpJH.s 			page 146


 7318 1f44 24       		.uleb128 0x24
 7319 1f45 46390000 		.4byte	.LASF1192
 7320 1f49 0C       		.byte	0xc
 7321 1f4a 73       		.byte	0x73
 7322 1f4b 5A1F0000 		.4byte	0x1f5a
 7323 1f4f 07       		.uleb128 0x7
 7324 1f50 5A1F0000 		.4byte	0x1f5a
 7325 1f54 07       		.uleb128 0x7
 7326 1f55 AE1C0000 		.4byte	0x1cae
 7327 1f59 00       		.byte	0
 7328 1f5a 05       		.uleb128 0x5
 7329 1f5b 04       		.byte	0x4
 7330 1f5c 3A070000 		.4byte	0x73a
 7331 1f60 24       		.uleb128 0x24
 7332 1f61 5E010000 		.4byte	.LASF1193
 7333 1f65 0C       		.byte	0xc
 7334 1f66 73       		.byte	0x73
 7335 1f67 761F0000 		.4byte	0x1f76
 7336 1f6b 07       		.uleb128 0x7
 7337 1f6c AE1C0000 		.4byte	0x1cae
 7338 1f70 07       		.uleb128 0x7
 7339 1f71 5A1F0000 		.4byte	0x1f5a
 7340 1f75 00       		.byte	0
 7341 1f76 24       		.uleb128 0x24
 7342 1f77 BE820000 		.4byte	.LASF1194
 7343 1f7b 0C       		.byte	0xc
 7344 1f7c 74       		.byte	0x74
 7345 1f7d 8C1F0000 		.4byte	0x1f8c
 7346 1f81 07       		.uleb128 0x7
 7347 1f82 8C1F0000 		.4byte	0x1f8c
 7348 1f86 07       		.uleb128 0x7
 7349 1f87 AE1C0000 		.4byte	0x1cae
 7350 1f8b 00       		.byte	0
 7351 1f8c 05       		.uleb128 0x5
 7352 1f8d 04       		.byte	0x4
 7353 1f8e 5A070000 		.4byte	0x75a
 7354 1f92 24       		.uleb128 0x24
 7355 1f93 D16A0000 		.4byte	.LASF1195
 7356 1f97 0C       		.byte	0xc
 7357 1f98 74       		.byte	0x74
 7358 1f99 A81F0000 		.4byte	0x1fa8
 7359 1f9d 07       		.uleb128 0x7
 7360 1f9e AE1C0000 		.4byte	0x1cae
 7361 1fa2 07       		.uleb128 0x7
 7362 1fa3 8C1F0000 		.4byte	0x1f8c
 7363 1fa7 00       		.byte	0
 7364 1fa8 24       		.uleb128 0x24
 7365 1fa9 19840000 		.4byte	.LASF1196
 7366 1fad 0C       		.byte	0xc
 7367 1fae 7C       		.byte	0x7c
 7368 1faf BE1F0000 		.4byte	0x1fbe
 7369 1fb3 07       		.uleb128 0x7
 7370 1fb4 BE1F0000 		.4byte	0x1fbe
 7371 1fb8 07       		.uleb128 0x7
 7372 1fb9 AE1C0000 		.4byte	0x1cae
 7373 1fbd 00       		.byte	0
 7374 1fbe 05       		.uleb128 0x5
ARM GAS  /var/folders/9j/_txx49hn253_s3mnzkyxlj8m0000gp/T//ccxigpJH.s 			page 147


 7375 1fbf 04       		.byte	0x4
 7376 1fc0 86070000 		.4byte	0x786
 7377 1fc4 24       		.uleb128 0x24
 7378 1fc5 665A0000 		.4byte	.LASF1197
 7379 1fc9 0C       		.byte	0xc
 7380 1fca 7C       		.byte	0x7c
 7381 1fcb DA1F0000 		.4byte	0x1fda
 7382 1fcf 07       		.uleb128 0x7
 7383 1fd0 AE1C0000 		.4byte	0x1cae
 7384 1fd4 07       		.uleb128 0x7
 7385 1fd5 BE1F0000 		.4byte	0x1fbe
 7386 1fd9 00       		.byte	0
 7387 1fda 24       		.uleb128 0x24
 7388 1fdb EB850000 		.4byte	.LASF1198
 7389 1fdf 0C       		.byte	0xc
 7390 1fe0 7D       		.byte	0x7d
 7391 1fe1 F01F0000 		.4byte	0x1ff0
 7392 1fe5 07       		.uleb128 0x7
 7393 1fe6 F01F0000 		.4byte	0x1ff0
 7394 1fea 07       		.uleb128 0x7
 7395 1feb AE1C0000 		.4byte	0x1cae
 7396 1fef 00       		.byte	0
 7397 1ff0 05       		.uleb128 0x5
 7398 1ff1 04       		.byte	0x4
 7399 1ff2 C6080000 		.4byte	0x8c6
 7400 1ff6 24       		.uleb128 0x24
 7401 1ff7 DB530000 		.4byte	.LASF1199
 7402 1ffb 0C       		.byte	0xc
 7403 1ffc 7D       		.byte	0x7d
 7404 1ffd 0C200000 		.4byte	0x200c
 7405 2001 07       		.uleb128 0x7
 7406 2002 AE1C0000 		.4byte	0x1cae
 7407 2006 07       		.uleb128 0x7
 7408 2007 F01F0000 		.4byte	0x1ff0
 7409 200b 00       		.byte	0
 7410 200c 24       		.uleb128 0x24
 7411 200d 7D000000 		.4byte	.LASF1200
 7412 2011 0C       		.byte	0xc
 7413 2012 7E       		.byte	0x7e
 7414 2013 22200000 		.4byte	0x2022
 7415 2017 07       		.uleb128 0x7
 7416 2018 22200000 		.4byte	0x2022
 7417 201c 07       		.uleb128 0x7
 7418 201d AE1C0000 		.4byte	0x1cae
 7419 2021 00       		.byte	0
 7420 2022 05       		.uleb128 0x5
 7421 2023 04       		.byte	0x4
 7422 2024 E2090000 		.4byte	0x9e2
 7423 2028 24       		.uleb128 0x24
 7424 2029 2A420000 		.4byte	.LASF1201
 7425 202d 0C       		.byte	0xc
 7426 202e 7E       		.byte	0x7e
 7427 202f 3E200000 		.4byte	0x203e
 7428 2033 07       		.uleb128 0x7
 7429 2034 AE1C0000 		.4byte	0x1cae
 7430 2038 07       		.uleb128 0x7
 7431 2039 22200000 		.4byte	0x2022
ARM GAS  /var/folders/9j/_txx49hn253_s3mnzkyxlj8m0000gp/T//ccxigpJH.s 			page 148


 7432 203d 00       		.byte	0
 7433 203e 24       		.uleb128 0x24
 7434 203f DA480000 		.4byte	.LASF1202
 7435 2043 0C       		.byte	0xc
 7436 2044 86       		.byte	0x86
 7437 2045 54200000 		.4byte	0x2054
 7438 2049 07       		.uleb128 0x7
 7439 204a 54200000 		.4byte	0x2054
 7440 204e 07       		.uleb128 0x7
 7441 204f AE1C0000 		.4byte	0x1cae
 7442 2053 00       		.byte	0
 7443 2054 05       		.uleb128 0x5
 7444 2055 04       		.byte	0x4
 7445 2056 020A0000 		.4byte	0xa02
 7446 205a 24       		.uleb128 0x24
 7447 205b 0A120000 		.4byte	.LASF1203
 7448 205f 0C       		.byte	0xc
 7449 2060 86       		.byte	0x86
 7450 2061 70200000 		.4byte	0x2070
 7451 2065 07       		.uleb128 0x7
 7452 2066 AE1C0000 		.4byte	0x1cae
 7453 206a 07       		.uleb128 0x7
 7454 206b 54200000 		.4byte	0x2054
 7455 206f 00       		.byte	0
 7456 2070 24       		.uleb128 0x24
 7457 2071 8E7D0000 		.4byte	.LASF1204
 7458 2075 0C       		.byte	0xc
 7459 2076 87       		.byte	0x87
 7460 2077 86200000 		.4byte	0x2086
 7461 207b 07       		.uleb128 0x7
 7462 207c 86200000 		.4byte	0x2086
 7463 2080 07       		.uleb128 0x7
 7464 2081 AE1C0000 		.4byte	0x1cae
 7465 2085 00       		.byte	0
 7466 2086 05       		.uleb128 0x5
 7467 2087 04       		.byte	0x4
 7468 2088 220A0000 		.4byte	0xa22
 7469 208c 24       		.uleb128 0x24
 7470 208d DC6C0000 		.4byte	.LASF1205
 7471 2091 0C       		.byte	0xc
 7472 2092 87       		.byte	0x87
 7473 2093 A2200000 		.4byte	0x20a2
 7474 2097 07       		.uleb128 0x7
 7475 2098 AE1C0000 		.4byte	0x1cae
 7476 209c 07       		.uleb128 0x7
 7477 209d 86200000 		.4byte	0x2086
 7478 20a1 00       		.byte	0
 7479 20a2 24       		.uleb128 0x24
 7480 20a3 2E450000 		.4byte	.LASF1206
 7481 20a7 0C       		.byte	0xc
 7482 20a8 88       		.byte	0x88
 7483 20a9 B8200000 		.4byte	0x20b8
 7484 20ad 07       		.uleb128 0x7
 7485 20ae B8200000 		.4byte	0x20b8
 7486 20b2 07       		.uleb128 0x7
 7487 20b3 AE1C0000 		.4byte	0x1cae
 7488 20b7 00       		.byte	0
ARM GAS  /var/folders/9j/_txx49hn253_s3mnzkyxlj8m0000gp/T//ccxigpJH.s 			page 149


 7489 20b8 05       		.uleb128 0x5
 7490 20b9 04       		.byte	0x4
 7491 20ba 420A0000 		.4byte	0xa42
 7492 20be 24       		.uleb128 0x24
 7493 20bf AA310000 		.4byte	.LASF1207
 7494 20c3 0C       		.byte	0xc
 7495 20c4 88       		.byte	0x88
 7496 20c5 D4200000 		.4byte	0x20d4
 7497 20c9 07       		.uleb128 0x7
 7498 20ca AE1C0000 		.4byte	0x1cae
 7499 20ce 07       		.uleb128 0x7
 7500 20cf B8200000 		.4byte	0x20b8
 7501 20d3 00       		.byte	0
 7502 20d4 24       		.uleb128 0x24
 7503 20d5 C94F0000 		.4byte	.LASF1208
 7504 20d9 0C       		.byte	0xc
 7505 20da 89       		.byte	0x89
 7506 20db EA200000 		.4byte	0x20ea
 7507 20df 07       		.uleb128 0x7
 7508 20e0 EA200000 		.4byte	0x20ea
 7509 20e4 07       		.uleb128 0x7
 7510 20e5 AE1C0000 		.4byte	0x1cae
 7511 20e9 00       		.byte	0
 7512 20ea 05       		.uleb128 0x5
 7513 20eb 04       		.byte	0x4
 7514 20ec 620A0000 		.4byte	0xa62
 7515 20f0 25       		.uleb128 0x25
 7516 20f1 1B3E0000 		.4byte	.LASF1212
 7517 20f5 0C       		.byte	0xc
 7518 20f6 89       		.byte	0x89
 7519 20f7 07       		.uleb128 0x7
 7520 20f8 AE1C0000 		.4byte	0x1cae
 7521 20fc 07       		.uleb128 0x7
 7522 20fd EA200000 		.4byte	0x20ea
 7523 2101 00       		.byte	0
 7524 2102 00       		.byte	0
 7525              		.section	.debug_abbrev,"",%progbits
 7526              	.Ldebug_abbrev0:
 7527 0000 01       		.uleb128 0x1
 7528 0001 11       		.uleb128 0x11
 7529 0002 01       		.byte	0x1
 7530 0003 25       		.uleb128 0x25
 7531 0004 0E       		.uleb128 0xe
 7532 0005 13       		.uleb128 0x13
 7533 0006 0B       		.uleb128 0xb
 7534 0007 03       		.uleb128 0x3
 7535 0008 0E       		.uleb128 0xe
 7536 0009 1B       		.uleb128 0x1b
 7537 000a 0E       		.uleb128 0xe
 7538 000b 55       		.uleb128 0x55
 7539 000c 17       		.uleb128 0x17
 7540 000d 11       		.uleb128 0x11
 7541 000e 01       		.uleb128 0x1
 7542 000f 10       		.uleb128 0x10
 7543 0010 17       		.uleb128 0x17
 7544 0011 9942     		.uleb128 0x2119
 7545 0013 17       		.uleb128 0x17
ARM GAS  /var/folders/9j/_txx49hn253_s3mnzkyxlj8m0000gp/T//ccxigpJH.s 			page 150


 7546 0014 00       		.byte	0
 7547 0015 00       		.byte	0
 7548 0016 02       		.uleb128 0x2
 7549 0017 24       		.uleb128 0x24
 7550 0018 00       		.byte	0
 7551 0019 0B       		.uleb128 0xb
 7552 001a 0B       		.uleb128 0xb
 7553 001b 3E       		.uleb128 0x3e
 7554 001c 0B       		.uleb128 0xb
 7555 001d 03       		.uleb128 0x3
 7556 001e 0E       		.uleb128 0xe
 7557 001f 00       		.byte	0
 7558 0020 00       		.byte	0
 7559 0021 03       		.uleb128 0x3
 7560 0022 16       		.uleb128 0x16
 7561 0023 00       		.byte	0
 7562 0024 03       		.uleb128 0x3
 7563 0025 0E       		.uleb128 0xe
 7564 0026 3A       		.uleb128 0x3a
 7565 0027 0B       		.uleb128 0xb
 7566 0028 3B       		.uleb128 0x3b
 7567 0029 0B       		.uleb128 0xb
 7568 002a 49       		.uleb128 0x49
 7569 002b 13       		.uleb128 0x13
 7570 002c 00       		.byte	0
 7571 002d 00       		.byte	0
 7572 002e 04       		.uleb128 0x4
 7573 002f 24       		.uleb128 0x24
 7574 0030 00       		.byte	0
 7575 0031 0B       		.uleb128 0xb
 7576 0032 0B       		.uleb128 0xb
 7577 0033 3E       		.uleb128 0x3e
 7578 0034 0B       		.uleb128 0xb
 7579 0035 03       		.uleb128 0x3
 7580 0036 08       		.uleb128 0x8
 7581 0037 00       		.byte	0
 7582 0038 00       		.byte	0
 7583 0039 05       		.uleb128 0x5
 7584 003a 0F       		.uleb128 0xf
 7585 003b 00       		.byte	0
 7586 003c 0B       		.uleb128 0xb
 7587 003d 0B       		.uleb128 0xb
 7588 003e 49       		.uleb128 0x49
 7589 003f 13       		.uleb128 0x13
 7590 0040 00       		.byte	0
 7591 0041 00       		.byte	0
 7592 0042 06       		.uleb128 0x6
 7593 0043 15       		.uleb128 0x15
 7594 0044 01       		.byte	0x1
 7595 0045 27       		.uleb128 0x27
 7596 0046 19       		.uleb128 0x19
 7597 0047 01       		.uleb128 0x1
 7598 0048 13       		.uleb128 0x13
 7599 0049 00       		.byte	0
 7600 004a 00       		.byte	0
 7601 004b 07       		.uleb128 0x7
 7602 004c 05       		.uleb128 0x5
ARM GAS  /var/folders/9j/_txx49hn253_s3mnzkyxlj8m0000gp/T//ccxigpJH.s 			page 151


 7603 004d 00       		.byte	0
 7604 004e 49       		.uleb128 0x49
 7605 004f 13       		.uleb128 0x13
 7606 0050 00       		.byte	0
 7607 0051 00       		.byte	0
 7608 0052 08       		.uleb128 0x8
 7609 0053 26       		.uleb128 0x26
 7610 0054 00       		.byte	0
 7611 0055 49       		.uleb128 0x49
 7612 0056 13       		.uleb128 0x13
 7613 0057 00       		.byte	0
 7614 0058 00       		.byte	0
 7615 0059 09       		.uleb128 0x9
 7616 005a 13       		.uleb128 0x13
 7617 005b 01       		.byte	0x1
 7618 005c 0B       		.uleb128 0xb
 7619 005d 0B       		.uleb128 0xb
 7620 005e 3A       		.uleb128 0x3a
 7621 005f 0B       		.uleb128 0xb
 7622 0060 3B       		.uleb128 0x3b
 7623 0061 0B       		.uleb128 0xb
 7624 0062 01       		.uleb128 0x1
 7625 0063 13       		.uleb128 0x13
 7626 0064 00       		.byte	0
 7627 0065 00       		.byte	0
 7628 0066 0A       		.uleb128 0xa
 7629 0067 0D       		.uleb128 0xd
 7630 0068 00       		.byte	0
 7631 0069 03       		.uleb128 0x3
 7632 006a 08       		.uleb128 0x8
 7633 006b 3A       		.uleb128 0x3a
 7634 006c 0B       		.uleb128 0xb
 7635 006d 3B       		.uleb128 0x3b
 7636 006e 0B       		.uleb128 0xb
 7637 006f 49       		.uleb128 0x49
 7638 0070 13       		.uleb128 0x13
 7639 0071 38       		.uleb128 0x38
 7640 0072 0B       		.uleb128 0xb
 7641 0073 00       		.byte	0
 7642 0074 00       		.byte	0
 7643 0075 0B       		.uleb128 0xb
 7644 0076 0D       		.uleb128 0xd
 7645 0077 00       		.byte	0
 7646 0078 03       		.uleb128 0x3
 7647 0079 0E       		.uleb128 0xe
 7648 007a 3A       		.uleb128 0x3a
 7649 007b 0B       		.uleb128 0xb
 7650 007c 3B       		.uleb128 0x3b
 7651 007d 0B       		.uleb128 0xb
 7652 007e 49       		.uleb128 0x49
 7653 007f 13       		.uleb128 0x13
 7654 0080 38       		.uleb128 0x38
 7655 0081 0B       		.uleb128 0xb
 7656 0082 00       		.byte	0
 7657 0083 00       		.byte	0
 7658 0084 0C       		.uleb128 0xc
 7659 0085 01       		.uleb128 0x1
ARM GAS  /var/folders/9j/_txx49hn253_s3mnzkyxlj8m0000gp/T//ccxigpJH.s 			page 152


 7660 0086 01       		.byte	0x1
 7661 0087 49       		.uleb128 0x49
 7662 0088 13       		.uleb128 0x13
 7663 0089 01       		.uleb128 0x1
 7664 008a 13       		.uleb128 0x13
 7665 008b 00       		.byte	0
 7666 008c 00       		.byte	0
 7667 008d 0D       		.uleb128 0xd
 7668 008e 21       		.uleb128 0x21
 7669 008f 00       		.byte	0
 7670 0090 49       		.uleb128 0x49
 7671 0091 13       		.uleb128 0x13
 7672 0092 2F       		.uleb128 0x2f
 7673 0093 0B       		.uleb128 0xb
 7674 0094 00       		.byte	0
 7675 0095 00       		.byte	0
 7676 0096 0E       		.uleb128 0xe
 7677 0097 04       		.uleb128 0x4
 7678 0098 01       		.byte	0x1
 7679 0099 0B       		.uleb128 0xb
 7680 009a 0B       		.uleb128 0xb
 7681 009b 3A       		.uleb128 0x3a
 7682 009c 0B       		.uleb128 0xb
 7683 009d 3B       		.uleb128 0x3b
 7684 009e 0B       		.uleb128 0xb
 7685 009f 01       		.uleb128 0x1
 7686 00a0 13       		.uleb128 0x13
 7687 00a1 00       		.byte	0
 7688 00a2 00       		.byte	0
 7689 00a3 0F       		.uleb128 0xf
 7690 00a4 28       		.uleb128 0x28
 7691 00a5 00       		.byte	0
 7692 00a6 03       		.uleb128 0x3
 7693 00a7 0E       		.uleb128 0xe
 7694 00a8 1C       		.uleb128 0x1c
 7695 00a9 0D       		.uleb128 0xd
 7696 00aa 00       		.byte	0
 7697 00ab 00       		.byte	0
 7698 00ac 10       		.uleb128 0x10
 7699 00ad 2E       		.uleb128 0x2e
 7700 00ae 01       		.byte	0x1
 7701 00af 3F       		.uleb128 0x3f
 7702 00b0 19       		.uleb128 0x19
 7703 00b1 03       		.uleb128 0x3
 7704 00b2 0E       		.uleb128 0xe
 7705 00b3 3A       		.uleb128 0x3a
 7706 00b4 0B       		.uleb128 0xb
 7707 00b5 3B       		.uleb128 0x3b
 7708 00b6 0B       		.uleb128 0xb
 7709 00b7 27       		.uleb128 0x27
 7710 00b8 19       		.uleb128 0x19
 7711 00b9 11       		.uleb128 0x11
 7712 00ba 01       		.uleb128 0x1
 7713 00bb 12       		.uleb128 0x12
 7714 00bc 06       		.uleb128 0x6
 7715 00bd 40       		.uleb128 0x40
 7716 00be 18       		.uleb128 0x18
ARM GAS  /var/folders/9j/_txx49hn253_s3mnzkyxlj8m0000gp/T//ccxigpJH.s 			page 153


 7717 00bf 9642     		.uleb128 0x2116
 7718 00c1 19       		.uleb128 0x19
 7719 00c2 01       		.uleb128 0x1
 7720 00c3 13       		.uleb128 0x13
 7721 00c4 00       		.byte	0
 7722 00c5 00       		.byte	0
 7723 00c6 11       		.uleb128 0x11
 7724 00c7 05       		.uleb128 0x5
 7725 00c8 00       		.byte	0
 7726 00c9 03       		.uleb128 0x3
 7727 00ca 0E       		.uleb128 0xe
 7728 00cb 3A       		.uleb128 0x3a
 7729 00cc 0B       		.uleb128 0xb
 7730 00cd 3B       		.uleb128 0x3b
 7731 00ce 0B       		.uleb128 0xb
 7732 00cf 49       		.uleb128 0x49
 7733 00d0 13       		.uleb128 0x13
 7734 00d1 02       		.uleb128 0x2
 7735 00d2 17       		.uleb128 0x17
 7736 00d3 00       		.byte	0
 7737 00d4 00       		.byte	0
 7738 00d5 12       		.uleb128 0x12
 7739 00d6 05       		.uleb128 0x5
 7740 00d7 00       		.byte	0
 7741 00d8 03       		.uleb128 0x3
 7742 00d9 08       		.uleb128 0x8
 7743 00da 3A       		.uleb128 0x3a
 7744 00db 0B       		.uleb128 0xb
 7745 00dc 3B       		.uleb128 0x3b
 7746 00dd 0B       		.uleb128 0xb
 7747 00de 49       		.uleb128 0x49
 7748 00df 13       		.uleb128 0x13
 7749 00e0 02       		.uleb128 0x2
 7750 00e1 17       		.uleb128 0x17
 7751 00e2 00       		.byte	0
 7752 00e3 00       		.byte	0
 7753 00e4 13       		.uleb128 0x13
 7754 00e5 34       		.uleb128 0x34
 7755 00e6 00       		.byte	0
 7756 00e7 03       		.uleb128 0x3
 7757 00e8 08       		.uleb128 0x8
 7758 00e9 3A       		.uleb128 0x3a
 7759 00ea 0B       		.uleb128 0xb
 7760 00eb 3B       		.uleb128 0x3b
 7761 00ec 0B       		.uleb128 0xb
 7762 00ed 49       		.uleb128 0x49
 7763 00ee 13       		.uleb128 0x13
 7764 00ef 02       		.uleb128 0x2
 7765 00f0 17       		.uleb128 0x17
 7766 00f1 00       		.byte	0
 7767 00f2 00       		.byte	0
 7768 00f3 14       		.uleb128 0x14
 7769 00f4 0B       		.uleb128 0xb
 7770 00f5 01       		.byte	0x1
 7771 00f6 55       		.uleb128 0x55
 7772 00f7 17       		.uleb128 0x17
 7773 00f8 00       		.byte	0
ARM GAS  /var/folders/9j/_txx49hn253_s3mnzkyxlj8m0000gp/T//ccxigpJH.s 			page 154


 7774 00f9 00       		.byte	0
 7775 00fa 15       		.uleb128 0x15
 7776 00fb 34       		.uleb128 0x34
 7777 00fc 00       		.byte	0
 7778 00fd 03       		.uleb128 0x3
 7779 00fe 0E       		.uleb128 0xe
 7780 00ff 3A       		.uleb128 0x3a
 7781 0100 0B       		.uleb128 0xb
 7782 0101 3B       		.uleb128 0x3b
 7783 0102 0B       		.uleb128 0xb
 7784 0103 49       		.uleb128 0x49
 7785 0104 13       		.uleb128 0x13
 7786 0105 00       		.byte	0
 7787 0106 00       		.byte	0
 7788 0107 16       		.uleb128 0x16
 7789 0108 34       		.uleb128 0x34
 7790 0109 00       		.byte	0
 7791 010a 03       		.uleb128 0x3
 7792 010b 0E       		.uleb128 0xe
 7793 010c 3A       		.uleb128 0x3a
 7794 010d 0B       		.uleb128 0xb
 7795 010e 3B       		.uleb128 0x3b
 7796 010f 0B       		.uleb128 0xb
 7797 0110 49       		.uleb128 0x49
 7798 0111 13       		.uleb128 0x13
 7799 0112 02       		.uleb128 0x2
 7800 0113 18       		.uleb128 0x18
 7801 0114 00       		.byte	0
 7802 0115 00       		.byte	0
 7803 0116 17       		.uleb128 0x17
 7804 0117 34       		.uleb128 0x34
 7805 0118 00       		.byte	0
 7806 0119 03       		.uleb128 0x3
 7807 011a 08       		.uleb128 0x8
 7808 011b 3A       		.uleb128 0x3a
 7809 011c 0B       		.uleb128 0xb
 7810 011d 3B       		.uleb128 0x3b
 7811 011e 0B       		.uleb128 0xb
 7812 011f 49       		.uleb128 0x49
 7813 0120 13       		.uleb128 0x13
 7814 0121 02       		.uleb128 0x2
 7815 0122 18       		.uleb128 0x18
 7816 0123 00       		.byte	0
 7817 0124 00       		.byte	0
 7818 0125 18       		.uleb128 0x18
 7819 0126 898201   		.uleb128 0x4109
 7820 0129 01       		.byte	0x1
 7821 012a 11       		.uleb128 0x11
 7822 012b 01       		.uleb128 0x1
 7823 012c 31       		.uleb128 0x31
 7824 012d 13       		.uleb128 0x13
 7825 012e 01       		.uleb128 0x1
 7826 012f 13       		.uleb128 0x13
 7827 0130 00       		.byte	0
 7828 0131 00       		.byte	0
 7829 0132 19       		.uleb128 0x19
 7830 0133 8A8201   		.uleb128 0x410a
ARM GAS  /var/folders/9j/_txx49hn253_s3mnzkyxlj8m0000gp/T//ccxigpJH.s 			page 155


 7831 0136 00       		.byte	0
 7832 0137 02       		.uleb128 0x2
 7833 0138 18       		.uleb128 0x18
 7834 0139 9142     		.uleb128 0x2111
 7835 013b 18       		.uleb128 0x18
 7836 013c 00       		.byte	0
 7837 013d 00       		.byte	0
 7838 013e 1A       		.uleb128 0x1a
 7839 013f 898201   		.uleb128 0x4109
 7840 0142 01       		.byte	0x1
 7841 0143 11       		.uleb128 0x11
 7842 0144 01       		.uleb128 0x1
 7843 0145 31       		.uleb128 0x31
 7844 0146 13       		.uleb128 0x13
 7845 0147 00       		.byte	0
 7846 0148 00       		.byte	0
 7847 0149 1B       		.uleb128 0x1b
 7848 014a 34       		.uleb128 0x34
 7849 014b 00       		.byte	0
 7850 014c 03       		.uleb128 0x3
 7851 014d 0E       		.uleb128 0xe
 7852 014e 3A       		.uleb128 0x3a
 7853 014f 0B       		.uleb128 0xb
 7854 0150 3B       		.uleb128 0x3b
 7855 0151 0B       		.uleb128 0xb
 7856 0152 49       		.uleb128 0x49
 7857 0153 13       		.uleb128 0x13
 7858 0154 02       		.uleb128 0x2
 7859 0155 17       		.uleb128 0x17
 7860 0156 00       		.byte	0
 7861 0157 00       		.byte	0
 7862 0158 1C       		.uleb128 0x1c
 7863 0159 2E       		.uleb128 0x2e
 7864 015a 01       		.byte	0x1
 7865 015b 3F       		.uleb128 0x3f
 7866 015c 19       		.uleb128 0x19
 7867 015d 03       		.uleb128 0x3
 7868 015e 0E       		.uleb128 0xe
 7869 015f 3A       		.uleb128 0x3a
 7870 0160 0B       		.uleb128 0xb
 7871 0161 3B       		.uleb128 0x3b
 7872 0162 05       		.uleb128 0x5
 7873 0163 27       		.uleb128 0x27
 7874 0164 19       		.uleb128 0x19
 7875 0165 11       		.uleb128 0x11
 7876 0166 01       		.uleb128 0x1
 7877 0167 12       		.uleb128 0x12
 7878 0168 06       		.uleb128 0x6
 7879 0169 40       		.uleb128 0x40
 7880 016a 18       		.uleb128 0x18
 7881 016b 9642     		.uleb128 0x2116
 7882 016d 19       		.uleb128 0x19
 7883 016e 01       		.uleb128 0x1
 7884 016f 13       		.uleb128 0x13
 7885 0170 00       		.byte	0
 7886 0171 00       		.byte	0
 7887 0172 1D       		.uleb128 0x1d
ARM GAS  /var/folders/9j/_txx49hn253_s3mnzkyxlj8m0000gp/T//ccxigpJH.s 			page 156


 7888 0173 05       		.uleb128 0x5
 7889 0174 00       		.byte	0
 7890 0175 03       		.uleb128 0x3
 7891 0176 0E       		.uleb128 0xe
 7892 0177 3A       		.uleb128 0x3a
 7893 0178 0B       		.uleb128 0xb
 7894 0179 3B       		.uleb128 0x3b
 7895 017a 05       		.uleb128 0x5
 7896 017b 49       		.uleb128 0x49
 7897 017c 13       		.uleb128 0x13
 7898 017d 02       		.uleb128 0x2
 7899 017e 17       		.uleb128 0x17
 7900 017f 00       		.byte	0
 7901 0180 00       		.byte	0
 7902 0181 1E       		.uleb128 0x1e
 7903 0182 34       		.uleb128 0x34
 7904 0183 00       		.byte	0
 7905 0184 03       		.uleb128 0x3
 7906 0185 0E       		.uleb128 0xe
 7907 0186 3A       		.uleb128 0x3a
 7908 0187 0B       		.uleb128 0xb
 7909 0188 3B       		.uleb128 0x3b
 7910 0189 05       		.uleb128 0x5
 7911 018a 49       		.uleb128 0x49
 7912 018b 13       		.uleb128 0x13
 7913 018c 02       		.uleb128 0x2
 7914 018d 18       		.uleb128 0x18
 7915 018e 00       		.byte	0
 7916 018f 00       		.byte	0
 7917 0190 1F       		.uleb128 0x1f
 7918 0191 34       		.uleb128 0x34
 7919 0192 00       		.byte	0
 7920 0193 03       		.uleb128 0x3
 7921 0194 08       		.uleb128 0x8
 7922 0195 3A       		.uleb128 0x3a
 7923 0196 0B       		.uleb128 0xb
 7924 0197 3B       		.uleb128 0x3b
 7925 0198 05       		.uleb128 0x5
 7926 0199 49       		.uleb128 0x49
 7927 019a 13       		.uleb128 0x13
 7928 019b 02       		.uleb128 0x2
 7929 019c 18       		.uleb128 0x18
 7930 019d 00       		.byte	0
 7931 019e 00       		.byte	0
 7932 019f 20       		.uleb128 0x20
 7933 01a0 34       		.uleb128 0x34
 7934 01a1 00       		.byte	0
 7935 01a2 03       		.uleb128 0x3
 7936 01a3 0E       		.uleb128 0xe
 7937 01a4 3A       		.uleb128 0x3a
 7938 01a5 0B       		.uleb128 0xb
 7939 01a6 3B       		.uleb128 0x3b
 7940 01a7 05       		.uleb128 0x5
 7941 01a8 49       		.uleb128 0x49
 7942 01a9 13       		.uleb128 0x13
 7943 01aa 00       		.byte	0
 7944 01ab 00       		.byte	0
ARM GAS  /var/folders/9j/_txx49hn253_s3mnzkyxlj8m0000gp/T//ccxigpJH.s 			page 157


 7945 01ac 21       		.uleb128 0x21
 7946 01ad 34       		.uleb128 0x34
 7947 01ae 00       		.byte	0
 7948 01af 03       		.uleb128 0x3
 7949 01b0 0E       		.uleb128 0xe
 7950 01b1 3A       		.uleb128 0x3a
 7951 01b2 0B       		.uleb128 0xb
 7952 01b3 3B       		.uleb128 0x3b
 7953 01b4 05       		.uleb128 0x5
 7954 01b5 49       		.uleb128 0x49
 7955 01b6 13       		.uleb128 0x13
 7956 01b7 02       		.uleb128 0x2
 7957 01b8 17       		.uleb128 0x17
 7958 01b9 00       		.byte	0
 7959 01ba 00       		.byte	0
 7960 01bb 22       		.uleb128 0x22
 7961 01bc 2E       		.uleb128 0x2e
 7962 01bd 01       		.byte	0x1
 7963 01be 3F       		.uleb128 0x3f
 7964 01bf 19       		.uleb128 0x19
 7965 01c0 03       		.uleb128 0x3
 7966 01c1 0E       		.uleb128 0xe
 7967 01c2 3A       		.uleb128 0x3a
 7968 01c3 0B       		.uleb128 0xb
 7969 01c4 3B       		.uleb128 0x3b
 7970 01c5 05       		.uleb128 0x5
 7971 01c6 27       		.uleb128 0x27
 7972 01c7 19       		.uleb128 0x19
 7973 01c8 11       		.uleb128 0x11
 7974 01c9 01       		.uleb128 0x1
 7975 01ca 12       		.uleb128 0x12
 7976 01cb 06       		.uleb128 0x6
 7977 01cc 40       		.uleb128 0x40
 7978 01cd 18       		.uleb128 0x18
 7979 01ce 9742     		.uleb128 0x2117
 7980 01d0 19       		.uleb128 0x19
 7981 01d1 01       		.uleb128 0x1
 7982 01d2 13       		.uleb128 0x13
 7983 01d3 00       		.byte	0
 7984 01d4 00       		.byte	0
 7985 01d5 23       		.uleb128 0x23
 7986 01d6 898201   		.uleb128 0x4109
 7987 01d9 01       		.byte	0x1
 7988 01da 11       		.uleb128 0x11
 7989 01db 01       		.uleb128 0x1
 7990 01dc 9342     		.uleb128 0x2113
 7991 01de 18       		.uleb128 0x18
 7992 01df 01       		.uleb128 0x1
 7993 01e0 13       		.uleb128 0x13
 7994 01e1 00       		.byte	0
 7995 01e2 00       		.byte	0
 7996 01e3 24       		.uleb128 0x24
 7997 01e4 2E       		.uleb128 0x2e
 7998 01e5 01       		.byte	0x1
 7999 01e6 3F       		.uleb128 0x3f
 8000 01e7 19       		.uleb128 0x19
 8001 01e8 03       		.uleb128 0x3
ARM GAS  /var/folders/9j/_txx49hn253_s3mnzkyxlj8m0000gp/T//ccxigpJH.s 			page 158


 8002 01e9 0E       		.uleb128 0xe
 8003 01ea 3A       		.uleb128 0x3a
 8004 01eb 0B       		.uleb128 0xb
 8005 01ec 3B       		.uleb128 0x3b
 8006 01ed 0B       		.uleb128 0xb
 8007 01ee 27       		.uleb128 0x27
 8008 01ef 19       		.uleb128 0x19
 8009 01f0 3C       		.uleb128 0x3c
 8010 01f1 19       		.uleb128 0x19
 8011 01f2 01       		.uleb128 0x1
 8012 01f3 13       		.uleb128 0x13
 8013 01f4 00       		.byte	0
 8014 01f5 00       		.byte	0
 8015 01f6 25       		.uleb128 0x25
 8016 01f7 2E       		.uleb128 0x2e
 8017 01f8 01       		.byte	0x1
 8018 01f9 3F       		.uleb128 0x3f
 8019 01fa 19       		.uleb128 0x19
 8020 01fb 03       		.uleb128 0x3
 8021 01fc 0E       		.uleb128 0xe
 8022 01fd 3A       		.uleb128 0x3a
 8023 01fe 0B       		.uleb128 0xb
 8024 01ff 3B       		.uleb128 0x3b
 8025 0200 0B       		.uleb128 0xb
 8026 0201 27       		.uleb128 0x27
 8027 0202 19       		.uleb128 0x19
 8028 0203 3C       		.uleb128 0x3c
 8029 0204 19       		.uleb128 0x19
 8030 0205 00       		.byte	0
 8031 0206 00       		.byte	0
 8032 0207 00       		.byte	0
 8033              		.section	.debug_loc,"",%progbits
 8034              	.Ldebug_loc0:
 8035              	.LLST0:
 8036 0000 00000000 		.4byte	.LVL0
 8037 0004 2A000000 		.4byte	.LVL4
 8038 0008 0100     		.2byte	0x1
 8039 000a 50       		.byte	0x50
 8040 000b 2A000000 		.4byte	.LVL4
 8041 000f 5E000000 		.4byte	.LVL8
 8042 0013 0100     		.2byte	0x1
 8043 0015 55       		.byte	0x55
 8044 0016 5E000000 		.4byte	.LVL8
 8045 001a 70000000 		.4byte	.LFE0
 8046 001e 0400     		.2byte	0x4
 8047 0020 F3       		.byte	0xf3
 8048 0021 01       		.uleb128 0x1
 8049 0022 50       		.byte	0x50
 8050 0023 9F       		.byte	0x9f
 8051 0024 00000000 		.4byte	0
 8052 0028 00000000 		.4byte	0
 8053              	.LLST1:
 8054 002c 00000000 		.4byte	.LVL0
 8055 0030 2A000000 		.4byte	.LVL4
 8056 0034 0600     		.2byte	0x6
 8057 0036 52       		.byte	0x52
 8058 0037 93       		.byte	0x93
ARM GAS  /var/folders/9j/_txx49hn253_s3mnzkyxlj8m0000gp/T//ccxigpJH.s 			page 159


 8059 0038 04       		.uleb128 0x4
 8060 0039 53       		.byte	0x53
 8061 003a 93       		.byte	0x93
 8062 003b 04       		.uleb128 0x4
 8063 003c 2A000000 		.4byte	.LVL4
 8064 0040 70000000 		.4byte	.LFE0
 8065 0044 0600     		.2byte	0x6
 8066 0046 F3       		.byte	0xf3
 8067 0047 03       		.uleb128 0x3
 8068 0048 F5       		.byte	0xf5
 8069 0049 02       		.uleb128 0x2
 8070 004a 29       		.uleb128 0x29
 8071 004b 9F       		.byte	0x9f
 8072 004c 00000000 		.4byte	0
 8073 0050 00000000 		.4byte	0
 8074              	.LLST2:
 8075 0054 00000000 		.4byte	.LVL0
 8076 0058 0C000000 		.4byte	.LVL1
 8077 005c 0200     		.2byte	0x2
 8078 005e 91       		.byte	0x91
 8079 005f 00       		.sleb128 0
 8080 0060 0C000000 		.4byte	.LVL1
 8081 0064 14000000 		.4byte	.LVL3
 8082 0068 0200     		.2byte	0x2
 8083 006a 71       		.byte	0x71
 8084 006b 00       		.sleb128 0
 8085 006c 14000000 		.4byte	.LVL3
 8086 0070 70000000 		.4byte	.LFE0
 8087 0074 0200     		.2byte	0x2
 8088 0076 91       		.byte	0x91
 8089 0077 00       		.sleb128 0
 8090 0078 00000000 		.4byte	0
 8091 007c 00000000 		.4byte	0
 8092              	.LLST3:
 8093 0080 12000000 		.4byte	.LVL2
 8094 0084 38000000 		.4byte	.LVL5
 8095 0088 0100     		.2byte	0x1
 8096 008a 54       		.byte	0x54
 8097 008b 3C000000 		.4byte	.LVL6
 8098 008f 5E000000 		.4byte	.LVL9
 8099 0093 0100     		.2byte	0x1
 8100 0095 54       		.byte	0x54
 8101 0096 00000000 		.4byte	0
 8102 009a 00000000 		.4byte	0
 8103              	.LLST4:
 8104 009e 00000000 		.4byte	.LVL10
 8105 00a2 1C000000 		.4byte	.LVL11
 8106 00a6 0100     		.2byte	0x1
 8107 00a8 50       		.byte	0x50
 8108 00a9 1C000000 		.4byte	.LVL11
 8109 00ad 54000000 		.4byte	.LVL16
 8110 00b1 0100     		.2byte	0x1
 8111 00b3 55       		.byte	0x55
 8112 00b4 54000000 		.4byte	.LVL16
 8113 00b8 56000000 		.4byte	.LVL17
 8114 00bc 0400     		.2byte	0x4
 8115 00be F3       		.byte	0xf3
ARM GAS  /var/folders/9j/_txx49hn253_s3mnzkyxlj8m0000gp/T//ccxigpJH.s 			page 160


 8116 00bf 01       		.uleb128 0x1
 8117 00c0 50       		.byte	0x50
 8118 00c1 9F       		.byte	0x9f
 8119 00c2 56000000 		.4byte	.LVL17
 8120 00c6 84000000 		.4byte	.LFE1
 8121 00ca 0100     		.2byte	0x1
 8122 00cc 55       		.byte	0x55
 8123 00cd 00000000 		.4byte	0
 8124 00d1 00000000 		.4byte	0
 8125              	.LLST5:
 8126 00d5 00000000 		.4byte	.LVL18
 8127 00d9 1E000000 		.4byte	.LVL19
 8128 00dd 0100     		.2byte	0x1
 8129 00df 50       		.byte	0x50
 8130 00e0 1E000000 		.4byte	.LVL19
 8131 00e4 4E000000 		.4byte	.LVL24
 8132 00e8 0100     		.2byte	0x1
 8133 00ea 55       		.byte	0x55
 8134 00eb 4E000000 		.4byte	.LVL24
 8135 00ef 50000000 		.4byte	.LVL25
 8136 00f3 0400     		.2byte	0x4
 8137 00f5 F3       		.byte	0xf3
 8138 00f6 01       		.uleb128 0x1
 8139 00f7 50       		.byte	0x50
 8140 00f8 9F       		.byte	0x9f
 8141 00f9 50000000 		.4byte	.LVL25
 8142 00fd 84000000 		.4byte	.LFE2
 8143 0101 0100     		.2byte	0x1
 8144 0103 55       		.byte	0x55
 8145 0104 00000000 		.4byte	0
 8146 0108 00000000 		.4byte	0
 8147              	.LLST6:
 8148 010c 00000000 		.4byte	.LVL26
 8149 0110 10000000 		.4byte	.LVL27
 8150 0114 0100     		.2byte	0x1
 8151 0116 50       		.byte	0x50
 8152 0117 10000000 		.4byte	.LVL27
 8153 011b 3E000000 		.4byte	.LVL32
 8154 011f 0100     		.2byte	0x1
 8155 0121 54       		.byte	0x54
 8156 0122 3E000000 		.4byte	.LVL32
 8157 0126 40000000 		.4byte	.LVL33
 8158 012a 0400     		.2byte	0x4
 8159 012c F3       		.byte	0xf3
 8160 012d 01       		.uleb128 0x1
 8161 012e 50       		.byte	0x50
 8162 012f 9F       		.byte	0x9f
 8163 0130 40000000 		.4byte	.LVL33
 8164 0134 5C000000 		.4byte	.LFE3
 8165 0138 0100     		.2byte	0x1
 8166 013a 54       		.byte	0x54
 8167 013b 00000000 		.4byte	0
 8168 013f 00000000 		.4byte	0
 8169              	.LLST7:
 8170 0143 00000000 		.4byte	.LVL34
 8171 0147 0E000000 		.4byte	.LVL35
 8172 014b 0100     		.2byte	0x1
ARM GAS  /var/folders/9j/_txx49hn253_s3mnzkyxlj8m0000gp/T//ccxigpJH.s 			page 161


 8173 014d 50       		.byte	0x50
 8174 014e 0E000000 		.4byte	.LVL35
 8175 0152 40000000 		.4byte	.LVL40
 8176 0156 0100     		.2byte	0x1
 8177 0158 55       		.byte	0x55
 8178 0159 40000000 		.4byte	.LVL40
 8179 015d 42000000 		.4byte	.LVL41
 8180 0161 0400     		.2byte	0x4
 8181 0163 F3       		.byte	0xf3
 8182 0164 01       		.uleb128 0x1
 8183 0165 50       		.byte	0x50
 8184 0166 9F       		.byte	0x9f
 8185 0167 42000000 		.4byte	.LVL41
 8186 016b 50000000 		.4byte	.LFE4
 8187 016f 0100     		.2byte	0x1
 8188 0171 55       		.byte	0x55
 8189 0172 00000000 		.4byte	0
 8190 0176 00000000 		.4byte	0
 8191              	.LLST8:
 8192 017a 30000000 		.4byte	.LVL38
 8193 017e 3D000000 		.4byte	.LVL39-1
 8194 0182 0A00     		.2byte	0xa
 8195 0184 7D       		.byte	0x7d
 8196 0185 00       		.sleb128 0
 8197 0186 94       		.byte	0x94
 8198 0187 01       		.byte	0x1
 8199 0188 74       		.byte	0x74
 8200 0189 00       		.sleb128 0
 8201 018a 94       		.byte	0x94
 8202 018b 01       		.byte	0x1
 8203 018c 29       		.byte	0x29
 8204 018d 9F       		.byte	0x9f
 8205 018e 42000000 		.4byte	.LVL41
 8206 0192 50000000 		.4byte	.LFE4
 8207 0196 0A00     		.2byte	0xa
 8208 0198 7D       		.byte	0x7d
 8209 0199 00       		.sleb128 0
 8210 019a 94       		.byte	0x94
 8211 019b 01       		.byte	0x1
 8212 019c 74       		.byte	0x74
 8213 019d 00       		.sleb128 0
 8214 019e 94       		.byte	0x94
 8215 019f 01       		.byte	0x1
 8216 01a0 29       		.byte	0x29
 8217 01a1 9F       		.byte	0x9f
 8218 01a2 00000000 		.4byte	0
 8219 01a6 00000000 		.4byte	0
 8220              	.LLST9:
 8221 01aa 00000000 		.4byte	.LVL42
 8222 01ae 10000000 		.4byte	.LVL43
 8223 01b2 0100     		.2byte	0x1
 8224 01b4 50       		.byte	0x50
 8225 01b5 10000000 		.4byte	.LVL43
 8226 01b9 3E000000 		.4byte	.LVL48
 8227 01bd 0100     		.2byte	0x1
 8228 01bf 54       		.byte	0x54
 8229 01c0 3E000000 		.4byte	.LVL48
ARM GAS  /var/folders/9j/_txx49hn253_s3mnzkyxlj8m0000gp/T//ccxigpJH.s 			page 162


 8230 01c4 40000000 		.4byte	.LVL49
 8231 01c8 0400     		.2byte	0x4
 8232 01ca F3       		.byte	0xf3
 8233 01cb 01       		.uleb128 0x1
 8234 01cc 50       		.byte	0x50
 8235 01cd 9F       		.byte	0x9f
 8236 01ce 40000000 		.4byte	.LVL49
 8237 01d2 5C000000 		.4byte	.LFE5
 8238 01d6 0100     		.2byte	0x1
 8239 01d8 54       		.byte	0x54
 8240 01d9 00000000 		.4byte	0
 8241 01dd 00000000 		.4byte	0
 8242              	.LLST10:
 8243 01e1 00000000 		.4byte	.LVL50
 8244 01e5 0E000000 		.4byte	.LVL51
 8245 01e9 0100     		.2byte	0x1
 8246 01eb 50       		.byte	0x50
 8247 01ec 0E000000 		.4byte	.LVL51
 8248 01f0 40000000 		.4byte	.LVL56
 8249 01f4 0100     		.2byte	0x1
 8250 01f6 55       		.byte	0x55
 8251 01f7 40000000 		.4byte	.LVL56
 8252 01fb 42000000 		.4byte	.LVL57
 8253 01ff 0400     		.2byte	0x4
 8254 0201 F3       		.byte	0xf3
 8255 0202 01       		.uleb128 0x1
 8256 0203 50       		.byte	0x50
 8257 0204 9F       		.byte	0x9f
 8258 0205 42000000 		.4byte	.LVL57
 8259 0209 50000000 		.4byte	.LFE6
 8260 020d 0100     		.2byte	0x1
 8261 020f 55       		.byte	0x55
 8262 0210 00000000 		.4byte	0
 8263 0214 00000000 		.4byte	0
 8264              	.LLST11:
 8265 0218 30000000 		.4byte	.LVL54
 8266 021c 3D000000 		.4byte	.LVL55-1
 8267 0220 0A00     		.2byte	0xa
 8268 0222 7D       		.byte	0x7d
 8269 0223 00       		.sleb128 0
 8270 0224 94       		.byte	0x94
 8271 0225 01       		.byte	0x1
 8272 0226 74       		.byte	0x74
 8273 0227 00       		.sleb128 0
 8274 0228 94       		.byte	0x94
 8275 0229 01       		.byte	0x1
 8276 022a 29       		.byte	0x29
 8277 022b 9F       		.byte	0x9f
 8278 022c 42000000 		.4byte	.LVL57
 8279 0230 50000000 		.4byte	.LFE6
 8280 0234 0A00     		.2byte	0xa
 8281 0236 7D       		.byte	0x7d
 8282 0237 00       		.sleb128 0
 8283 0238 94       		.byte	0x94
 8284 0239 01       		.byte	0x1
 8285 023a 74       		.byte	0x74
 8286 023b 00       		.sleb128 0
ARM GAS  /var/folders/9j/_txx49hn253_s3mnzkyxlj8m0000gp/T//ccxigpJH.s 			page 163


 8287 023c 94       		.byte	0x94
 8288 023d 01       		.byte	0x1
 8289 023e 29       		.byte	0x29
 8290 023f 9F       		.byte	0x9f
 8291 0240 00000000 		.4byte	0
 8292 0244 00000000 		.4byte	0
 8293              	.LLST12:
 8294 0248 00000000 		.4byte	.LVL58
 8295 024c 2E000000 		.4byte	.LVL59
 8296 0250 0100     		.2byte	0x1
 8297 0252 50       		.byte	0x50
 8298 0253 2E000000 		.4byte	.LVL59
 8299 0257 7A000000 		.4byte	.LVL64
 8300 025b 0100     		.2byte	0x1
 8301 025d 55       		.byte	0x55
 8302 025e 7A000000 		.4byte	.LVL64
 8303 0262 7C000000 		.4byte	.LVL65
 8304 0266 0400     		.2byte	0x4
 8305 0268 F3       		.byte	0xf3
 8306 0269 01       		.uleb128 0x1
 8307 026a 50       		.byte	0x50
 8308 026b 9F       		.byte	0x9f
 8309 026c 7C000000 		.4byte	.LVL65
 8310 0270 4C010000 		.4byte	.LFE7
 8311 0274 0100     		.2byte	0x1
 8312 0276 55       		.byte	0x55
 8313 0277 00000000 		.4byte	0
 8314 027b 00000000 		.4byte	0
 8315              	.LLST13:
 8316 027f 00000000 		.4byte	.LVL66
 8317 0283 12000000 		.4byte	.LVL67
 8318 0287 0100     		.2byte	0x1
 8319 0289 50       		.byte	0x50
 8320 028a 12000000 		.4byte	.LVL67
 8321 028e 42000000 		.4byte	.LVL72
 8322 0292 0100     		.2byte	0x1
 8323 0294 54       		.byte	0x54
 8324 0295 42000000 		.4byte	.LVL72
 8325 0299 44000000 		.4byte	.LVL73
 8326 029d 0400     		.2byte	0x4
 8327 029f F3       		.byte	0xf3
 8328 02a0 01       		.uleb128 0x1
 8329 02a1 50       		.byte	0x50
 8330 02a2 9F       		.byte	0x9f
 8331 02a3 44000000 		.4byte	.LVL73
 8332 02a7 5C000000 		.4byte	.LFE8
 8333 02ab 0100     		.2byte	0x1
 8334 02ad 54       		.byte	0x54
 8335 02ae 00000000 		.4byte	0
 8336 02b2 00000000 		.4byte	0
 8337              	.LLST14:
 8338 02b6 00000000 		.4byte	.LVL74
 8339 02ba 0E000000 		.4byte	.LVL75
 8340 02be 0100     		.2byte	0x1
 8341 02c0 50       		.byte	0x50
 8342 02c1 0E000000 		.4byte	.LVL75
 8343 02c5 44000000 		.4byte	.LVL80
ARM GAS  /var/folders/9j/_txx49hn253_s3mnzkyxlj8m0000gp/T//ccxigpJH.s 			page 164


 8344 02c9 0100     		.2byte	0x1
 8345 02cb 55       		.byte	0x55
 8346 02cc 44000000 		.4byte	.LVL80
 8347 02d0 46000000 		.4byte	.LVL81
 8348 02d4 0400     		.2byte	0x4
 8349 02d6 F3       		.byte	0xf3
 8350 02d7 01       		.uleb128 0x1
 8351 02d8 50       		.byte	0x50
 8352 02d9 9F       		.byte	0x9f
 8353 02da 46000000 		.4byte	.LVL81
 8354 02de 58000000 		.4byte	.LFE9
 8355 02e2 0100     		.2byte	0x1
 8356 02e4 55       		.byte	0x55
 8357 02e5 00000000 		.4byte	0
 8358 02e9 00000000 		.4byte	0
 8359              	.LLST15:
 8360 02ed 30000000 		.4byte	.LVL78
 8361 02f1 41000000 		.4byte	.LVL79-1
 8362 02f5 0A00     		.2byte	0xa
 8363 02f7 7D       		.byte	0x7d
 8364 02f8 00       		.sleb128 0
 8365 02f9 94       		.byte	0x94
 8366 02fa 02       		.byte	0x2
 8367 02fb 74       		.byte	0x74
 8368 02fc 00       		.sleb128 0
 8369 02fd 94       		.byte	0x94
 8370 02fe 02       		.byte	0x2
 8371 02ff 29       		.byte	0x29
 8372 0300 9F       		.byte	0x9f
 8373 0301 46000000 		.4byte	.LVL81
 8374 0305 58000000 		.4byte	.LFE9
 8375 0309 0A00     		.2byte	0xa
 8376 030b 7D       		.byte	0x7d
 8377 030c 00       		.sleb128 0
 8378 030d 94       		.byte	0x94
 8379 030e 02       		.byte	0x2
 8380 030f 74       		.byte	0x74
 8381 0310 00       		.sleb128 0
 8382 0311 94       		.byte	0x94
 8383 0312 02       		.byte	0x2
 8384 0313 29       		.byte	0x29
 8385 0314 9F       		.byte	0x9f
 8386 0315 00000000 		.4byte	0
 8387 0319 00000000 		.4byte	0
 8388              	.LLST16:
 8389 031d 00000000 		.4byte	.LVL82
 8390 0321 18000000 		.4byte	.LVL83
 8391 0325 0100     		.2byte	0x1
 8392 0327 50       		.byte	0x50
 8393 0328 18000000 		.4byte	.LVL83
 8394 032c 4C000000 		.4byte	.LVL88
 8395 0330 0100     		.2byte	0x1
 8396 0332 55       		.byte	0x55
 8397 0333 4C000000 		.4byte	.LVL88
 8398 0337 4E000000 		.4byte	.LVL89
 8399 033b 0400     		.2byte	0x4
 8400 033d F3       		.byte	0xf3
ARM GAS  /var/folders/9j/_txx49hn253_s3mnzkyxlj8m0000gp/T//ccxigpJH.s 			page 165


 8401 033e 01       		.uleb128 0x1
 8402 033f 50       		.byte	0x50
 8403 0340 9F       		.byte	0x9f
 8404 0341 4E000000 		.4byte	.LVL89
 8405 0345 78000000 		.4byte	.LFE10
 8406 0349 0100     		.2byte	0x1
 8407 034b 55       		.byte	0x55
 8408 034c 00000000 		.4byte	0
 8409 0350 00000000 		.4byte	0
 8410              	.LLST17:
 8411 0354 00000000 		.4byte	.LVL90
 8412 0358 22000000 		.4byte	.LVL91
 8413 035c 0100     		.2byte	0x1
 8414 035e 50       		.byte	0x50
 8415 035f 22000000 		.4byte	.LVL91
 8416 0363 56000000 		.4byte	.LVL96
 8417 0367 0100     		.2byte	0x1
 8418 0369 55       		.byte	0x55
 8419 036a 56000000 		.4byte	.LVL96
 8420 036e 58000000 		.4byte	.LVL97
 8421 0372 0400     		.2byte	0x4
 8422 0374 F3       		.byte	0xf3
 8423 0375 01       		.uleb128 0x1
 8424 0376 50       		.byte	0x50
 8425 0377 9F       		.byte	0x9f
 8426 0378 58000000 		.4byte	.LVL97
 8427 037c 9C000000 		.4byte	.LFE11
 8428 0380 0100     		.2byte	0x1
 8429 0382 55       		.byte	0x55
 8430 0383 00000000 		.4byte	0
 8431 0387 00000000 		.4byte	0
 8432              	.LLST18:
 8433 038b 00000000 		.4byte	.LVL98
 8434 038f 2E000000 		.4byte	.LVL99
 8435 0393 0100     		.2byte	0x1
 8436 0395 50       		.byte	0x50
 8437 0396 2E000000 		.4byte	.LVL99
 8438 039a 5E000000 		.4byte	.LVL104
 8439 039e 0100     		.2byte	0x1
 8440 03a0 55       		.byte	0x55
 8441 03a1 5E000000 		.4byte	.LVL104
 8442 03a5 60000000 		.4byte	.LVL105
 8443 03a9 0400     		.2byte	0x4
 8444 03ab F3       		.byte	0xf3
 8445 03ac 01       		.uleb128 0x1
 8446 03ad 50       		.byte	0x50
 8447 03ae 9F       		.byte	0x9f
 8448 03af 60000000 		.4byte	.LVL105
 8449 03b3 BC000000 		.4byte	.LFE12
 8450 03b7 0100     		.2byte	0x1
 8451 03b9 55       		.byte	0x55
 8452 03ba 00000000 		.4byte	0
 8453 03be 00000000 		.4byte	0
 8454              	.LLST19:
 8455 03c2 00000000 		.4byte	.LVL106
 8456 03c6 0E000000 		.4byte	.LVL107
 8457 03ca 0100     		.2byte	0x1
ARM GAS  /var/folders/9j/_txx49hn253_s3mnzkyxlj8m0000gp/T//ccxigpJH.s 			page 166


 8458 03cc 50       		.byte	0x50
 8459 03cd 0E000000 		.4byte	.LVL107
 8460 03d1 40000000 		.4byte	.LVL112
 8461 03d5 0100     		.2byte	0x1
 8462 03d7 55       		.byte	0x55
 8463 03d8 40000000 		.4byte	.LVL112
 8464 03dc 42000000 		.4byte	.LVL113
 8465 03e0 0400     		.2byte	0x4
 8466 03e2 F3       		.byte	0xf3
 8467 03e3 01       		.uleb128 0x1
 8468 03e4 50       		.byte	0x50
 8469 03e5 9F       		.byte	0x9f
 8470 03e6 42000000 		.4byte	.LVL113
 8471 03ea 50000000 		.4byte	.LFE13
 8472 03ee 0100     		.2byte	0x1
 8473 03f0 55       		.byte	0x55
 8474 03f1 00000000 		.4byte	0
 8475 03f5 00000000 		.4byte	0
 8476              	.LLST20:
 8477 03f9 30000000 		.4byte	.LVL110
 8478 03fd 3D000000 		.4byte	.LVL111-1
 8479 0401 0A00     		.2byte	0xa
 8480 0403 7D       		.byte	0x7d
 8481 0404 00       		.sleb128 0
 8482 0405 94       		.byte	0x94
 8483 0406 01       		.byte	0x1
 8484 0407 74       		.byte	0x74
 8485 0408 00       		.sleb128 0
 8486 0409 94       		.byte	0x94
 8487 040a 01       		.byte	0x1
 8488 040b 29       		.byte	0x29
 8489 040c 9F       		.byte	0x9f
 8490 040d 42000000 		.4byte	.LVL113
 8491 0411 50000000 		.4byte	.LFE13
 8492 0415 0A00     		.2byte	0xa
 8493 0417 7D       		.byte	0x7d
 8494 0418 00       		.sleb128 0
 8495 0419 94       		.byte	0x94
 8496 041a 01       		.byte	0x1
 8497 041b 74       		.byte	0x74
 8498 041c 00       		.sleb128 0
 8499 041d 94       		.byte	0x94
 8500 041e 01       		.byte	0x1
 8501 041f 29       		.byte	0x29
 8502 0420 9F       		.byte	0x9f
 8503 0421 00000000 		.4byte	0
 8504 0425 00000000 		.4byte	0
 8505              	.LLST21:
 8506 0429 00000000 		.4byte	.LVL114
 8507 042d 0E000000 		.4byte	.LVL115
 8508 0431 0100     		.2byte	0x1
 8509 0433 50       		.byte	0x50
 8510 0434 0E000000 		.4byte	.LVL115
 8511 0438 40000000 		.4byte	.LVL120
 8512 043c 0100     		.2byte	0x1
 8513 043e 55       		.byte	0x55
 8514 043f 40000000 		.4byte	.LVL120
ARM GAS  /var/folders/9j/_txx49hn253_s3mnzkyxlj8m0000gp/T//ccxigpJH.s 			page 167


 8515 0443 42000000 		.4byte	.LVL121
 8516 0447 0400     		.2byte	0x4
 8517 0449 F3       		.byte	0xf3
 8518 044a 01       		.uleb128 0x1
 8519 044b 50       		.byte	0x50
 8520 044c 9F       		.byte	0x9f
 8521 044d 42000000 		.4byte	.LVL121
 8522 0451 50000000 		.4byte	.LFE14
 8523 0455 0100     		.2byte	0x1
 8524 0457 55       		.byte	0x55
 8525 0458 00000000 		.4byte	0
 8526 045c 00000000 		.4byte	0
 8527              	.LLST22:
 8528 0460 30000000 		.4byte	.LVL118
 8529 0464 3D000000 		.4byte	.LVL119-1
 8530 0468 0A00     		.2byte	0xa
 8531 046a 7D       		.byte	0x7d
 8532 046b 00       		.sleb128 0
 8533 046c 94       		.byte	0x94
 8534 046d 01       		.byte	0x1
 8535 046e 74       		.byte	0x74
 8536 046f 00       		.sleb128 0
 8537 0470 94       		.byte	0x94
 8538 0471 01       		.byte	0x1
 8539 0472 29       		.byte	0x29
 8540 0473 9F       		.byte	0x9f
 8541 0474 42000000 		.4byte	.LVL121
 8542 0478 50000000 		.4byte	.LFE14
 8543 047c 0A00     		.2byte	0xa
 8544 047e 7D       		.byte	0x7d
 8545 047f 00       		.sleb128 0
 8546 0480 94       		.byte	0x94
 8547 0481 01       		.byte	0x1
 8548 0482 74       		.byte	0x74
 8549 0483 00       		.sleb128 0
 8550 0484 94       		.byte	0x94
 8551 0485 01       		.byte	0x1
 8552 0486 29       		.byte	0x29
 8553 0487 9F       		.byte	0x9f
 8554 0488 00000000 		.4byte	0
 8555 048c 00000000 		.4byte	0
 8556              	.LLST23:
 8557 0490 00000000 		.4byte	.LVL122
 8558 0494 0E000000 		.4byte	.LVL123
 8559 0498 0100     		.2byte	0x1
 8560 049a 50       		.byte	0x50
 8561 049b 0E000000 		.4byte	.LVL123
 8562 049f 40000000 		.4byte	.LVL128
 8563 04a3 0100     		.2byte	0x1
 8564 04a5 55       		.byte	0x55
 8565 04a6 40000000 		.4byte	.LVL128
 8566 04aa 42000000 		.4byte	.LVL129
 8567 04ae 0400     		.2byte	0x4
 8568 04b0 F3       		.byte	0xf3
 8569 04b1 01       		.uleb128 0x1
 8570 04b2 50       		.byte	0x50
 8571 04b3 9F       		.byte	0x9f
ARM GAS  /var/folders/9j/_txx49hn253_s3mnzkyxlj8m0000gp/T//ccxigpJH.s 			page 168


 8572 04b4 42000000 		.4byte	.LVL129
 8573 04b8 50000000 		.4byte	.LFE15
 8574 04bc 0100     		.2byte	0x1
 8575 04be 55       		.byte	0x55
 8576 04bf 00000000 		.4byte	0
 8577 04c3 00000000 		.4byte	0
 8578              	.LLST24:
 8579 04c7 30000000 		.4byte	.LVL126
 8580 04cb 3D000000 		.4byte	.LVL127-1
 8581 04cf 0A00     		.2byte	0xa
 8582 04d1 7D       		.byte	0x7d
 8583 04d2 00       		.sleb128 0
 8584 04d3 94       		.byte	0x94
 8585 04d4 01       		.byte	0x1
 8586 04d5 74       		.byte	0x74
 8587 04d6 00       		.sleb128 0
 8588 04d7 94       		.byte	0x94
 8589 04d8 01       		.byte	0x1
 8590 04d9 29       		.byte	0x29
 8591 04da 9F       		.byte	0x9f
 8592 04db 42000000 		.4byte	.LVL129
 8593 04df 50000000 		.4byte	.LFE15
 8594 04e3 0A00     		.2byte	0xa
 8595 04e5 7D       		.byte	0x7d
 8596 04e6 00       		.sleb128 0
 8597 04e7 94       		.byte	0x94
 8598 04e8 01       		.byte	0x1
 8599 04e9 74       		.byte	0x74
 8600 04ea 00       		.sleb128 0
 8601 04eb 94       		.byte	0x94
 8602 04ec 01       		.byte	0x1
 8603 04ed 29       		.byte	0x29
 8604 04ee 9F       		.byte	0x9f
 8605 04ef 00000000 		.4byte	0
 8606 04f3 00000000 		.4byte	0
 8607              	.LLST25:
 8608 04f7 00000000 		.4byte	.LVL130
 8609 04fb 12000000 		.4byte	.LVL131
 8610 04ff 0100     		.2byte	0x1
 8611 0501 50       		.byte	0x50
 8612 0502 12000000 		.4byte	.LVL131
 8613 0506 42000000 		.4byte	.LVL136
 8614 050a 0100     		.2byte	0x1
 8615 050c 54       		.byte	0x54
 8616 050d 42000000 		.4byte	.LVL136
 8617 0511 44000000 		.4byte	.LVL137
 8618 0515 0400     		.2byte	0x4
 8619 0517 F3       		.byte	0xf3
 8620 0518 01       		.uleb128 0x1
 8621 0519 50       		.byte	0x50
 8622 051a 9F       		.byte	0x9f
 8623 051b 44000000 		.4byte	.LVL137
 8624 051f 64000000 		.4byte	.LFE16
 8625 0523 0100     		.2byte	0x1
 8626 0525 54       		.byte	0x54
 8627 0526 00000000 		.4byte	0
 8628 052a 00000000 		.4byte	0
ARM GAS  /var/folders/9j/_txx49hn253_s3mnzkyxlj8m0000gp/T//ccxigpJH.s 			page 169


 8629              	.LLST26:
 8630 052e 00000000 		.4byte	.LVL138
 8631 0532 10000000 		.4byte	.LVL139
 8632 0536 0100     		.2byte	0x1
 8633 0538 50       		.byte	0x50
 8634 0539 10000000 		.4byte	.LVL139
 8635 053d 72000000 		.4byte	.LVL144
 8636 0541 0100     		.2byte	0x1
 8637 0543 55       		.byte	0x55
 8638 0544 72000000 		.4byte	.LVL144
 8639 0548 74000000 		.4byte	.LVL145
 8640 054c 0400     		.2byte	0x4
 8641 054e F3       		.byte	0xf3
 8642 054f 01       		.uleb128 0x1
 8643 0550 50       		.byte	0x50
 8644 0551 9F       		.byte	0x9f
 8645 0552 74000000 		.4byte	.LVL145
 8646 0556 D8010000 		.4byte	.LFE17
 8647 055a 0100     		.2byte	0x1
 8648 055c 55       		.byte	0x55
 8649 055d 00000000 		.4byte	0
 8650 0561 00000000 		.4byte	0
 8651              	.LLST27:
 8652 0565 00000000 		.4byte	.LVL146
 8653 0569 10000000 		.4byte	.LVL147
 8654 056d 0100     		.2byte	0x1
 8655 056f 50       		.byte	0x50
 8656 0570 10000000 		.4byte	.LVL147
 8657 0574 6E000000 		.4byte	.LVL152
 8658 0578 0100     		.2byte	0x1
 8659 057a 55       		.byte	0x55
 8660 057b 6E000000 		.4byte	.LVL152
 8661 057f 70000000 		.4byte	.LVL153
 8662 0583 0400     		.2byte	0x4
 8663 0585 F3       		.byte	0xf3
 8664 0586 01       		.uleb128 0x1
 8665 0587 50       		.byte	0x50
 8666 0588 9F       		.byte	0x9f
 8667 0589 70000000 		.4byte	.LVL153
 8668 058d B4010000 		.4byte	.LFE18
 8669 0591 0100     		.2byte	0x1
 8670 0593 55       		.byte	0x55
 8671 0594 00000000 		.4byte	0
 8672 0598 00000000 		.4byte	0
 8673              	.LLST28:
 8674 059c 00000000 		.4byte	.LVL154
 8675 05a0 0C000000 		.4byte	.LVL155
 8676 05a4 0100     		.2byte	0x1
 8677 05a6 50       		.byte	0x50
 8678 05a7 0C000000 		.4byte	.LVL155
 8679 05ab 3A000000 		.4byte	.LVL160
 8680 05af 0100     		.2byte	0x1
 8681 05b1 54       		.byte	0x54
 8682 05b2 3A000000 		.4byte	.LVL160
 8683 05b6 3C000000 		.4byte	.LVL161
 8684 05ba 0400     		.2byte	0x4
 8685 05bc F3       		.byte	0xf3
ARM GAS  /var/folders/9j/_txx49hn253_s3mnzkyxlj8m0000gp/T//ccxigpJH.s 			page 170


 8686 05bd 01       		.uleb128 0x1
 8687 05be 50       		.byte	0x50
 8688 05bf 9F       		.byte	0x9f
 8689 05c0 3C000000 		.4byte	.LVL161
 8690 05c4 4C000000 		.4byte	.LFE19
 8691 05c8 0100     		.2byte	0x1
 8692 05ca 54       		.byte	0x54
 8693 05cb 00000000 		.4byte	0
 8694 05cf 00000000 		.4byte	0
 8695              	.LLST29:
 8696 05d3 2C000000 		.4byte	.LVL158
 8697 05d7 37000000 		.4byte	.LVL159-1
 8698 05db 0800     		.2byte	0x8
 8699 05dd 7D       		.byte	0x7d
 8700 05de 00       		.sleb128 0
 8701 05df 06       		.byte	0x6
 8702 05e0 91       		.byte	0x91
 8703 05e1 5C       		.sleb128 -36
 8704 05e2 06       		.byte	0x6
 8705 05e3 29       		.byte	0x29
 8706 05e4 9F       		.byte	0x9f
 8707 05e5 3C000000 		.4byte	.LVL161
 8708 05e9 4C000000 		.4byte	.LFE19
 8709 05ed 0600     		.2byte	0x6
 8710 05ef 73       		.byte	0x73
 8711 05f0 00       		.sleb128 0
 8712 05f1 72       		.byte	0x72
 8713 05f2 00       		.sleb128 0
 8714 05f3 29       		.byte	0x29
 8715 05f4 9F       		.byte	0x9f
 8716 05f5 00000000 		.4byte	0
 8717 05f9 00000000 		.4byte	0
 8718              	.LLST30:
 8719 05fd 00000000 		.4byte	.LVL162
 8720 0601 0C000000 		.4byte	.LVL163
 8721 0605 0100     		.2byte	0x1
 8722 0607 50       		.byte	0x50
 8723 0608 0C000000 		.4byte	.LVL163
 8724 060c 3A000000 		.4byte	.LVL168
 8725 0610 0100     		.2byte	0x1
 8726 0612 54       		.byte	0x54
 8727 0613 3A000000 		.4byte	.LVL168
 8728 0617 3C000000 		.4byte	.LVL169
 8729 061b 0400     		.2byte	0x4
 8730 061d F3       		.byte	0xf3
 8731 061e 01       		.uleb128 0x1
 8732 061f 50       		.byte	0x50
 8733 0620 9F       		.byte	0x9f
 8734 0621 3C000000 		.4byte	.LVL169
 8735 0625 4C000000 		.4byte	.LFE20
 8736 0629 0100     		.2byte	0x1
 8737 062b 54       		.byte	0x54
 8738 062c 00000000 		.4byte	0
 8739 0630 00000000 		.4byte	0
 8740              	.LLST31:
 8741 0634 2C000000 		.4byte	.LVL166
 8742 0638 37000000 		.4byte	.LVL167-1
ARM GAS  /var/folders/9j/_txx49hn253_s3mnzkyxlj8m0000gp/T//ccxigpJH.s 			page 171


 8743 063c 0800     		.2byte	0x8
 8744 063e 7D       		.byte	0x7d
 8745 063f 00       		.sleb128 0
 8746 0640 06       		.byte	0x6
 8747 0641 91       		.byte	0x91
 8748 0642 5C       		.sleb128 -36
 8749 0643 06       		.byte	0x6
 8750 0644 29       		.byte	0x29
 8751 0645 9F       		.byte	0x9f
 8752 0646 3C000000 		.4byte	.LVL169
 8753 064a 4C000000 		.4byte	.LFE20
 8754 064e 0600     		.2byte	0x6
 8755 0650 73       		.byte	0x73
 8756 0651 00       		.sleb128 0
 8757 0652 72       		.byte	0x72
 8758 0653 00       		.sleb128 0
 8759 0654 29       		.byte	0x29
 8760 0655 9F       		.byte	0x9f
 8761 0656 00000000 		.4byte	0
 8762 065a 00000000 		.4byte	0
 8763              	.LLST32:
 8764 065e 00000000 		.4byte	.LVL170
 8765 0662 0C000000 		.4byte	.LVL171
 8766 0666 0100     		.2byte	0x1
 8767 0668 50       		.byte	0x50
 8768 0669 0C000000 		.4byte	.LVL171
 8769 066d 3A000000 		.4byte	.LVL176
 8770 0671 0100     		.2byte	0x1
 8771 0673 54       		.byte	0x54
 8772 0674 3A000000 		.4byte	.LVL176
 8773 0678 3C000000 		.4byte	.LVL177
 8774 067c 0400     		.2byte	0x4
 8775 067e F3       		.byte	0xf3
 8776 067f 01       		.uleb128 0x1
 8777 0680 50       		.byte	0x50
 8778 0681 9F       		.byte	0x9f
 8779 0682 3C000000 		.4byte	.LVL177
 8780 0686 4C000000 		.4byte	.LFE21
 8781 068a 0100     		.2byte	0x1
 8782 068c 54       		.byte	0x54
 8783 068d 00000000 		.4byte	0
 8784 0691 00000000 		.4byte	0
 8785              	.LLST33:
 8786 0695 2C000000 		.4byte	.LVL174
 8787 0699 37000000 		.4byte	.LVL175-1
 8788 069d 0800     		.2byte	0x8
 8789 069f 7D       		.byte	0x7d
 8790 06a0 00       		.sleb128 0
 8791 06a1 06       		.byte	0x6
 8792 06a2 91       		.byte	0x91
 8793 06a3 5C       		.sleb128 -36
 8794 06a4 06       		.byte	0x6
 8795 06a5 29       		.byte	0x29
 8796 06a6 9F       		.byte	0x9f
 8797 06a7 3C000000 		.4byte	.LVL177
 8798 06ab 4C000000 		.4byte	.LFE21
 8799 06af 0600     		.2byte	0x6
ARM GAS  /var/folders/9j/_txx49hn253_s3mnzkyxlj8m0000gp/T//ccxigpJH.s 			page 172


 8800 06b1 73       		.byte	0x73
 8801 06b2 00       		.sleb128 0
 8802 06b3 72       		.byte	0x72
 8803 06b4 00       		.sleb128 0
 8804 06b5 29       		.byte	0x29
 8805 06b6 9F       		.byte	0x9f
 8806 06b7 00000000 		.4byte	0
 8807 06bb 00000000 		.4byte	0
 8808              	.LLST34:
 8809 06bf 00000000 		.4byte	.LVL178
 8810 06c3 0C000000 		.4byte	.LVL179
 8811 06c7 0100     		.2byte	0x1
 8812 06c9 50       		.byte	0x50
 8813 06ca 0C000000 		.4byte	.LVL179
 8814 06ce 3A000000 		.4byte	.LVL184
 8815 06d2 0100     		.2byte	0x1
 8816 06d4 54       		.byte	0x54
 8817 06d5 3A000000 		.4byte	.LVL184
 8818 06d9 3C000000 		.4byte	.LVL185
 8819 06dd 0400     		.2byte	0x4
 8820 06df F3       		.byte	0xf3
 8821 06e0 01       		.uleb128 0x1
 8822 06e1 50       		.byte	0x50
 8823 06e2 9F       		.byte	0x9f
 8824 06e3 3C000000 		.4byte	.LVL185
 8825 06e7 4C000000 		.4byte	.LFE22
 8826 06eb 0100     		.2byte	0x1
 8827 06ed 54       		.byte	0x54
 8828 06ee 00000000 		.4byte	0
 8829 06f2 00000000 		.4byte	0
 8830              	.LLST35:
 8831 06f6 2C000000 		.4byte	.LVL182
 8832 06fa 37000000 		.4byte	.LVL183-1
 8833 06fe 0800     		.2byte	0x8
 8834 0700 7D       		.byte	0x7d
 8835 0701 00       		.sleb128 0
 8836 0702 06       		.byte	0x6
 8837 0703 91       		.byte	0x91
 8838 0704 5C       		.sleb128 -36
 8839 0705 06       		.byte	0x6
 8840 0706 29       		.byte	0x29
 8841 0707 9F       		.byte	0x9f
 8842 0708 3C000000 		.4byte	.LVL185
 8843 070c 4C000000 		.4byte	.LFE22
 8844 0710 0600     		.2byte	0x6
 8845 0712 73       		.byte	0x73
 8846 0713 00       		.sleb128 0
 8847 0714 72       		.byte	0x72
 8848 0715 00       		.sleb128 0
 8849 0716 29       		.byte	0x29
 8850 0717 9F       		.byte	0x9f
 8851 0718 00000000 		.4byte	0
 8852 071c 00000000 		.4byte	0
 8853              	.LLST36:
 8854 0720 00000000 		.4byte	.LVL186
 8855 0724 06000000 		.4byte	.LVL187
 8856 0728 0100     		.2byte	0x1
ARM GAS  /var/folders/9j/_txx49hn253_s3mnzkyxlj8m0000gp/T//ccxigpJH.s 			page 173


 8857 072a 50       		.byte	0x50
 8858 072b 06000000 		.4byte	.LVL187
 8859 072f 8C000000 		.4byte	.LVL211
 8860 0733 0100     		.2byte	0x1
 8861 0735 54       		.byte	0x54
 8862 0736 8C000000 		.4byte	.LVL211
 8863 073a 94000000 		.4byte	.LFE23
 8864 073e 0400     		.2byte	0x4
 8865 0740 F3       		.byte	0xf3
 8866 0741 01       		.uleb128 0x1
 8867 0742 50       		.byte	0x50
 8868 0743 9F       		.byte	0x9f
 8869 0744 00000000 		.4byte	0
 8870 0748 00000000 		.4byte	0
 8871              		.section	.debug_aranges,"",%progbits
 8872 0000 D4000000 		.4byte	0xd4
 8873 0004 0200     		.2byte	0x2
 8874 0006 00000000 		.4byte	.Ldebug_info0
 8875 000a 04       		.byte	0x4
 8876 000b 00       		.byte	0
 8877 000c 0000     		.2byte	0
 8878 000e 0000     		.2byte	0
 8879 0010 00000000 		.4byte	.LFB0
 8880 0014 70000000 		.4byte	.LFE0-.LFB0
 8881 0018 00000000 		.4byte	.LFB1
 8882 001c 84000000 		.4byte	.LFE1-.LFB1
 8883 0020 00000000 		.4byte	.LFB2
 8884 0024 84000000 		.4byte	.LFE2-.LFB2
 8885 0028 00000000 		.4byte	.LFB3
 8886 002c 5C000000 		.4byte	.LFE3-.LFB3
 8887 0030 00000000 		.4byte	.LFB4
 8888 0034 50000000 		.4byte	.LFE4-.LFB4
 8889 0038 00000000 		.4byte	.LFB5
 8890 003c 5C000000 		.4byte	.LFE5-.LFB5
 8891 0040 00000000 		.4byte	.LFB6
 8892 0044 50000000 		.4byte	.LFE6-.LFB6
 8893 0048 00000000 		.4byte	.LFB7
 8894 004c 4C010000 		.4byte	.LFE7-.LFB7
 8895 0050 00000000 		.4byte	.LFB8
 8896 0054 5C000000 		.4byte	.LFE8-.LFB8
 8897 0058 00000000 		.4byte	.LFB9
 8898 005c 58000000 		.4byte	.LFE9-.LFB9
 8899 0060 00000000 		.4byte	.LFB10
 8900 0064 78000000 		.4byte	.LFE10-.LFB10
 8901 0068 00000000 		.4byte	.LFB11
 8902 006c 9C000000 		.4byte	.LFE11-.LFB11
 8903 0070 00000000 		.4byte	.LFB12
 8904 0074 BC000000 		.4byte	.LFE12-.LFB12
 8905 0078 00000000 		.4byte	.LFB13
 8906 007c 50000000 		.4byte	.LFE13-.LFB13
 8907 0080 00000000 		.4byte	.LFB14
 8908 0084 50000000 		.4byte	.LFE14-.LFB14
 8909 0088 00000000 		.4byte	.LFB15
 8910 008c 50000000 		.4byte	.LFE15-.LFB15
 8911 0090 00000000 		.4byte	.LFB16
 8912 0094 64000000 		.4byte	.LFE16-.LFB16
 8913 0098 00000000 		.4byte	.LFB17
ARM GAS  /var/folders/9j/_txx49hn253_s3mnzkyxlj8m0000gp/T//ccxigpJH.s 			page 174


 8914 009c D8010000 		.4byte	.LFE17-.LFB17
 8915 00a0 00000000 		.4byte	.LFB18
 8916 00a4 B4010000 		.4byte	.LFE18-.LFB18
 8917 00a8 00000000 		.4byte	.LFB19
 8918 00ac 4C000000 		.4byte	.LFE19-.LFB19
 8919 00b0 00000000 		.4byte	.LFB20
 8920 00b4 4C000000 		.4byte	.LFE20-.LFB20
 8921 00b8 00000000 		.4byte	.LFB21
 8922 00bc 4C000000 		.4byte	.LFE21-.LFB21
 8923 00c0 00000000 		.4byte	.LFB22
 8924 00c4 4C000000 		.4byte	.LFE22-.LFB22
 8925 00c8 00000000 		.4byte	.LFB23
 8926 00cc 94000000 		.4byte	.LFE23-.LFB23
 8927 00d0 00000000 		.4byte	0
 8928 00d4 00000000 		.4byte	0
 8929              		.section	.debug_ranges,"",%progbits
 8930              	.Ldebug_ranges0:
 8931 0000 1A000000 		.4byte	.LBB2
 8932 0004 3C000000 		.4byte	.LBE2
 8933 0008 42000000 		.4byte	.LBB3
 8934 000c 5E000000 		.4byte	.LBE3
 8935 0010 00000000 		.4byte	0
 8936 0014 00000000 		.4byte	0
 8937 0018 00000000 		.4byte	.LFB0
 8938 001c 70000000 		.4byte	.LFE0
 8939 0020 00000000 		.4byte	.LFB1
 8940 0024 84000000 		.4byte	.LFE1
 8941 0028 00000000 		.4byte	.LFB2
 8942 002c 84000000 		.4byte	.LFE2
 8943 0030 00000000 		.4byte	.LFB3
 8944 0034 5C000000 		.4byte	.LFE3
 8945 0038 00000000 		.4byte	.LFB4
 8946 003c 50000000 		.4byte	.LFE4
 8947 0040 00000000 		.4byte	.LFB5
 8948 0044 5C000000 		.4byte	.LFE5
 8949 0048 00000000 		.4byte	.LFB6
 8950 004c 50000000 		.4byte	.LFE6
 8951 0050 00000000 		.4byte	.LFB7
 8952 0054 4C010000 		.4byte	.LFE7
 8953 0058 00000000 		.4byte	.LFB8
 8954 005c 5C000000 		.4byte	.LFE8
 8955 0060 00000000 		.4byte	.LFB9
 8956 0064 58000000 		.4byte	.LFE9
 8957 0068 00000000 		.4byte	.LFB10
 8958 006c 78000000 		.4byte	.LFE10
 8959 0070 00000000 		.4byte	.LFB11
 8960 0074 9C000000 		.4byte	.LFE11
 8961 0078 00000000 		.4byte	.LFB12
 8962 007c BC000000 		.4byte	.LFE12
 8963 0080 00000000 		.4byte	.LFB13
 8964 0084 50000000 		.4byte	.LFE13
 8965 0088 00000000 		.4byte	.LFB14
 8966 008c 50000000 		.4byte	.LFE14
 8967 0090 00000000 		.4byte	.LFB15
 8968 0094 50000000 		.4byte	.LFE15
 8969 0098 00000000 		.4byte	.LFB16
 8970 009c 64000000 		.4byte	.LFE16
ARM GAS  /var/folders/9j/_txx49hn253_s3mnzkyxlj8m0000gp/T//ccxigpJH.s 			page 175


 8971 00a0 00000000 		.4byte	.LFB17
 8972 00a4 D8010000 		.4byte	.LFE17
 8973 00a8 00000000 		.4byte	.LFB18
 8974 00ac B4010000 		.4byte	.LFE18
 8975 00b0 00000000 		.4byte	.LFB19
 8976 00b4 4C000000 		.4byte	.LFE19
 8977 00b8 00000000 		.4byte	.LFB20
 8978 00bc 4C000000 		.4byte	.LFE20
 8979 00c0 00000000 		.4byte	.LFB21
 8980 00c4 4C000000 		.4byte	.LFE21
 8981 00c8 00000000 		.4byte	.LFB22
 8982 00cc 4C000000 		.4byte	.LFE22
 8983 00d0 00000000 		.4byte	.LFB23
 8984 00d4 94000000 		.4byte	.LFE23
 8985 00d8 00000000 		.4byte	0
 8986 00dc 00000000 		.4byte	0
 8987              		.section	.debug_macro,"",%progbits
 8988              	.Ldebug_macro0:
 8989 0000 0400     		.2byte	0x4
 8990 0002 02       		.byte	0x2
 8991 0003 00000000 		.4byte	.Ldebug_line0
 8992 0007 07       		.byte	0x7
 8993 0008 00000000 		.4byte	.Ldebug_macro1
 8994 000c 03       		.byte	0x3
 8995 000d 00       		.uleb128 0
 8996 000e 01       		.uleb128 0x1
 8997              		.file 13 "../MY17/lib/MY17_Can_Library/MY17_Can_Library_Test.h"
 8998 000f 03       		.byte	0x3
 8999 0010 01       		.uleb128 0x1
 9000 0011 0D       		.uleb128 0xd
 9001 0012 05       		.byte	0x5
 9002 0013 02       		.uleb128 0x2
 9003 0014 363F0000 		.4byte	.LASF348
 9004              		.file 14 "/usr/local/Cellar/gcc-arm-none-eabi/20150925/lib/gcc/arm-none-eabi/4.9.3/include/stdint.
 9005 0018 03       		.byte	0x3
 9006 0019 04       		.uleb128 0x4
 9007 001a 0E       		.uleb128 0xe
 9008              		.file 15 "/usr/local/Cellar/gcc-arm-none-eabi/20150925/arm-none-eabi/include/stdint.h"
 9009 001b 03       		.byte	0x3
 9010 001c 09       		.uleb128 0x9
 9011 001d 0F       		.uleb128 0xf
 9012 001e 05       		.byte	0x5
 9013 001f 0A       		.uleb128 0xa
 9014 0020 56200000 		.4byte	.LASF349
 9015 0024 03       		.byte	0x3
 9016 0025 0C       		.uleb128 0xc
 9017 0026 02       		.uleb128 0x2
 9018 0027 05       		.byte	0x5
 9019 0028 06       		.uleb128 0x6
 9020 0029 835F0000 		.4byte	.LASF350
 9021              		.file 16 "/usr/local/Cellar/gcc-arm-none-eabi/20150925/arm-none-eabi/include/sys/features.h"
 9022 002d 03       		.byte	0x3
 9023 002e 08       		.uleb128 0x8
 9024 002f 10       		.uleb128 0x10
 9025 0030 07       		.byte	0x7
 9026 0031 00000000 		.4byte	.Ldebug_macro2
 9027 0035 04       		.byte	0x4
ARM GAS  /var/folders/9j/_txx49hn253_s3mnzkyxlj8m0000gp/T//ccxigpJH.s 			page 176


 9028 0036 07       		.byte	0x7
 9029 0037 00000000 		.4byte	.Ldebug_macro3
 9030 003b 04       		.byte	0x4
 9031              		.file 17 "/usr/local/Cellar/gcc-arm-none-eabi/20150925/arm-none-eabi/include/sys/_intsup.h"
 9032 003c 03       		.byte	0x3
 9033 003d 0D       		.uleb128 0xd
 9034 003e 11       		.uleb128 0x11
 9035 003f 07       		.byte	0x7
 9036 0040 00000000 		.4byte	.Ldebug_macro4
 9037 0044 04       		.byte	0x4
 9038 0045 03       		.byte	0x3
 9039 0046 0E       		.uleb128 0xe
 9040 0047 03       		.uleb128 0x3
 9041 0048 07       		.byte	0x7
 9042 0049 00000000 		.4byte	.Ldebug_macro5
 9043 004d 04       		.byte	0x4
 9044 004e 07       		.byte	0x7
 9045 004f 00000000 		.4byte	.Ldebug_macro6
 9046 0053 04       		.byte	0x4
 9047 0054 05       		.byte	0x5
 9048 0055 0D       		.uleb128 0xd
 9049 0056 3B070000 		.4byte	.LASF468
 9050 005a 04       		.byte	0x4
 9051 005b 04       		.byte	0x4
 9052 005c 03       		.byte	0x3
 9053 005d 03       		.uleb128 0x3
 9054 005e 0C       		.uleb128 0xc
 9055 005f 05       		.byte	0x5
 9056 0060 02       		.uleb128 0x2
 9057 0061 F3960000 		.4byte	.LASF469
 9058              		.file 18 "/usr/local/Cellar/gcc-arm-none-eabi/20150925/lib/gcc/arm-none-eabi/4.9.3/include/stdbool
 9059 0065 03       		.byte	0x3
 9060 0066 05       		.uleb128 0x5
 9061 0067 12       		.uleb128 0x12
 9062 0068 07       		.byte	0x7
 9063 0069 00000000 		.4byte	.Ldebug_macro7
 9064 006d 04       		.byte	0x4
 9065 006e 03       		.byte	0x3
 9066 006f 33       		.uleb128 0x33
 9067 0070 04       		.uleb128 0x4
 9068 0071 05       		.byte	0x5
 9069 0072 02       		.uleb128 0x2
 9070 0073 0B9A0000 		.4byte	.LASF475
 9071 0077 04       		.byte	0x4
 9072 0078 07       		.byte	0x7
 9073 0079 00000000 		.4byte	.Ldebug_macro8
 9074 007d 03       		.byte	0x3
 9075 007e 4F       		.uleb128 0x4f
 9076 007f 06       		.uleb128 0x6
 9077 0080 05       		.byte	0x5
 9078 0081 02       		.uleb128 0x2
 9079 0082 1C530000 		.4byte	.LASF479
 9080              		.file 19 "../MY17/lib/MY17_Can_Library/can_validator/fsae_can_spec.h"
 9081 0086 03       		.byte	0x3
 9082 0087 04       		.uleb128 0x4
 9083 0088 13       		.uleb128 0x13
 9084 0089 07       		.byte	0x7
ARM GAS  /var/folders/9j/_txx49hn253_s3mnzkyxlj8m0000gp/T//ccxigpJH.s 			page 177


 9085 008a 00000000 		.4byte	.Ldebug_macro9
 9086 008e 04       		.byte	0x4
 9087 008f 03       		.byte	0x3
 9088 0090 09       		.uleb128 0x9
 9089 0091 05       		.uleb128 0x5
 9090 0092 05       		.byte	0x5
 9091 0093 02       		.uleb128 0x2
 9092 0094 44690000 		.4byte	.LASF909
 9093 0098 04       		.byte	0x4
 9094 0099 04       		.byte	0x4
 9095 009a 03       		.byte	0x3
 9096 009b 5B       		.uleb128 0x5b
 9097 009c 07       		.uleb128 0x7
 9098 009d 05       		.byte	0x5
 9099 009e 02       		.uleb128 0x2
 9100 009f 926A0000 		.4byte	.LASF910
 9101 00a3 04       		.byte	0x4
 9102 00a4 03       		.byte	0x3
 9103 00a5 66       		.uleb128 0x66
 9104 00a6 08       		.uleb128 0x8
 9105 00a7 05       		.byte	0x5
 9106 00a8 02       		.uleb128 0x2
 9107 00a9 CF030000 		.4byte	.LASF911
 9108 00ad 04       		.byte	0x4
 9109 00ae 03       		.byte	0x3
 9110 00af 71       		.uleb128 0x71
 9111 00b0 09       		.uleb128 0x9
 9112 00b1 05       		.byte	0x5
 9113 00b2 02       		.uleb128 0x2
 9114 00b3 12440000 		.4byte	.LASF912
 9115 00b7 04       		.byte	0x4
 9116 00b8 03       		.byte	0x3
 9117 00b9 7A       		.uleb128 0x7a
 9118 00ba 0A       		.uleb128 0xa
 9119 00bb 05       		.byte	0x5
 9120 00bc 02       		.uleb128 0x2
 9121 00bd 92970000 		.4byte	.LASF913
 9122 00c1 04       		.byte	0x4
 9123 00c2 03       		.byte	0x3
 9124 00c3 8401     		.uleb128 0x84
 9125 00c5 0B       		.uleb128 0xb
 9126 00c6 05       		.byte	0x5
 9127 00c7 02       		.uleb128 0x2
 9128 00c8 7C4A0000 		.4byte	.LASF914
 9129 00cc 04       		.byte	0x4
 9130 00cd 06       		.byte	0x6
 9131 00ce 8B01     		.uleb128 0x8b
 9132 00d0 7F8A0000 		.4byte	.LASF915
 9133 00d4 04       		.byte	0x4
 9134 00d5 05       		.byte	0x5
 9135 00d6 07       		.uleb128 0x7
 9136 00d7 19040000 		.4byte	.LASF916
 9137 00db 04       		.byte	0x4
 9138 00dc 00       		.byte	0
 9139              		.section	.debug_macro,"G",%progbits,wm4.0.5c92e6baa7608753a1db66ee6c2bbf90,comdat
 9140              	.Ldebug_macro1:
 9141 0000 0400     		.2byte	0x4
ARM GAS  /var/folders/9j/_txx49hn253_s3mnzkyxlj8m0000gp/T//ccxigpJH.s 			page 178


 9142 0002 00       		.byte	0
 9143 0003 05       		.byte	0x5
 9144 0004 00       		.uleb128 0
 9145 0005 92590000 		.4byte	.LASF0
 9146 0009 05       		.byte	0x5
 9147 000a 00       		.uleb128 0
 9148 000b C5860000 		.4byte	.LASF1
 9149 000f 05       		.byte	0x5
 9150 0010 00       		.uleb128 0
 9151 0011 613C0000 		.4byte	.LASF2
 9152 0015 05       		.byte	0x5
 9153 0016 00       		.uleb128 0
 9154 0017 80760000 		.4byte	.LASF3
 9155 001b 05       		.byte	0x5
 9156 001c 00       		.uleb128 0
 9157 001d C21F0000 		.4byte	.LASF4
 9158 0021 05       		.byte	0x5
 9159 0022 00       		.uleb128 0
 9160 0023 40920000 		.4byte	.LASF5
 9161 0027 05       		.byte	0x5
 9162 0028 00       		.uleb128 0
 9163 0029 0D800000 		.4byte	.LASF6
 9164 002d 05       		.byte	0x5
 9165 002e 00       		.uleb128 0
 9166 002f EC210000 		.4byte	.LASF7
 9167 0033 05       		.byte	0x5
 9168 0034 00       		.uleb128 0
 9169 0035 F0380000 		.4byte	.LASF8
 9170 0039 05       		.byte	0x5
 9171 003a 00       		.uleb128 0
 9172 003b 88410000 		.4byte	.LASF9
 9173 003f 05       		.byte	0x5
 9174 0040 00       		.uleb128 0
 9175 0041 98960000 		.4byte	.LASF10
 9176 0045 05       		.byte	0x5
 9177 0046 00       		.uleb128 0
 9178 0047 E8030000 		.4byte	.LASF11
 9179 004b 05       		.byte	0x5
 9180 004c 00       		.uleb128 0
 9181 004d E7420000 		.4byte	.LASF12
 9182 0051 05       		.byte	0x5
 9183 0052 00       		.uleb128 0
 9184 0053 AE6B0000 		.4byte	.LASF13
 9185 0057 05       		.byte	0x5
 9186 0058 00       		.uleb128 0
 9187 0059 138C0000 		.4byte	.LASF14
 9188 005d 05       		.byte	0x5
 9189 005e 00       		.uleb128 0
 9190 005f D01A0000 		.4byte	.LASF15
 9191 0063 05       		.byte	0x5
 9192 0064 00       		.uleb128 0
 9193 0065 6C530000 		.4byte	.LASF16
 9194 0069 05       		.byte	0x5
 9195 006a 00       		.uleb128 0
 9196 006b EF230000 		.4byte	.LASF17
 9197 006f 05       		.byte	0x5
 9198 0070 00       		.uleb128 0
ARM GAS  /var/folders/9j/_txx49hn253_s3mnzkyxlj8m0000gp/T//ccxigpJH.s 			page 179


 9199 0071 19210000 		.4byte	.LASF18
 9200 0075 05       		.byte	0x5
 9201 0076 00       		.uleb128 0
 9202 0077 741B0000 		.4byte	.LASF19
 9203 007b 05       		.byte	0x5
 9204 007c 00       		.uleb128 0
 9205 007d 22250000 		.4byte	.LASF20
 9206 0081 05       		.byte	0x5
 9207 0082 00       		.uleb128 0
 9208 0083 A57B0000 		.4byte	.LASF21
 9209 0087 05       		.byte	0x5
 9210 0088 00       		.uleb128 0
 9211 0089 2D4F0000 		.4byte	.LASF22
 9212 008d 05       		.byte	0x5
 9213 008e 00       		.uleb128 0
 9214 008f 9E5F0000 		.4byte	.LASF23
 9215 0093 05       		.byte	0x5
 9216 0094 00       		.uleb128 0
 9217 0095 16670000 		.4byte	.LASF24
 9218 0099 05       		.byte	0x5
 9219 009a 00       		.uleb128 0
 9220 009b A70F0000 		.4byte	.LASF25
 9221 009f 05       		.byte	0x5
 9222 00a0 00       		.uleb128 0
 9223 00a1 F0060000 		.4byte	.LASF26
 9224 00a5 05       		.byte	0x5
 9225 00a6 00       		.uleb128 0
 9226 00a7 6B510000 		.4byte	.LASF27
 9227 00ab 05       		.byte	0x5
 9228 00ac 00       		.uleb128 0
 9229 00ad 395A0000 		.4byte	.LASF28
 9230 00b1 05       		.byte	0x5
 9231 00b2 00       		.uleb128 0
 9232 00b3 FB170000 		.4byte	.LASF29
 9233 00b7 05       		.byte	0x5
 9234 00b8 00       		.uleb128 0
 9235 00b9 0A070000 		.4byte	.LASF30
 9236 00bd 05       		.byte	0x5
 9237 00be 00       		.uleb128 0
 9238 00bf 132E0000 		.4byte	.LASF31
 9239 00c3 05       		.byte	0x5
 9240 00c4 00       		.uleb128 0
 9241 00c5 2D080000 		.4byte	.LASF32
 9242 00c9 05       		.byte	0x5
 9243 00ca 00       		.uleb128 0
 9244 00cb 5E580000 		.4byte	.LASF33
 9245 00cf 05       		.byte	0x5
 9246 00d0 00       		.uleb128 0
 9247 00d1 91760000 		.4byte	.LASF34
 9248 00d5 05       		.byte	0x5
 9249 00d6 00       		.uleb128 0
 9250 00d7 6C340000 		.4byte	.LASF35
 9251 00db 05       		.byte	0x5
 9252 00dc 00       		.uleb128 0
 9253 00dd 6F6A0000 		.4byte	.LASF36
 9254 00e1 05       		.byte	0x5
 9255 00e2 00       		.uleb128 0
ARM GAS  /var/folders/9j/_txx49hn253_s3mnzkyxlj8m0000gp/T//ccxigpJH.s 			page 180


 9256 00e3 221A0000 		.4byte	.LASF37
 9257 00e7 05       		.byte	0x5
 9258 00e8 00       		.uleb128 0
 9259 00e9 DE5A0000 		.4byte	.LASF38
 9260 00ed 05       		.byte	0x5
 9261 00ee 00       		.uleb128 0
 9262 00ef 7F070000 		.4byte	.LASF39
 9263 00f3 05       		.byte	0x5
 9264 00f4 00       		.uleb128 0
 9265 00f5 FF080000 		.4byte	.LASF40
 9266 00f9 05       		.byte	0x5
 9267 00fa 00       		.uleb128 0
 9268 00fb 2A490000 		.4byte	.LASF41
 9269 00ff 05       		.byte	0x5
 9270 0100 00       		.uleb128 0
 9271 0101 FD4E0000 		.4byte	.LASF42
 9272 0105 05       		.byte	0x5
 9273 0106 00       		.uleb128 0
 9274 0107 815A0000 		.4byte	.LASF43
 9275 010b 05       		.byte	0x5
 9276 010c 00       		.uleb128 0
 9277 010d EB3C0000 		.4byte	.LASF44
 9278 0111 05       		.byte	0x5
 9279 0112 00       		.uleb128 0
 9280 0113 E98A0000 		.4byte	.LASF45
 9281 0117 05       		.byte	0x5
 9282 0118 00       		.uleb128 0
 9283 0119 311E0000 		.4byte	.LASF46
 9284 011d 05       		.byte	0x5
 9285 011e 00       		.uleb128 0
 9286 011f AB960000 		.4byte	.LASF47
 9287 0123 05       		.byte	0x5
 9288 0124 00       		.uleb128 0
 9289 0125 C18F0000 		.4byte	.LASF48
 9290 0129 05       		.byte	0x5
 9291 012a 00       		.uleb128 0
 9292 012b 21660000 		.4byte	.LASF49
 9293 012f 05       		.byte	0x5
 9294 0130 00       		.uleb128 0
 9295 0131 55990000 		.4byte	.LASF50
 9296 0135 05       		.byte	0x5
 9297 0136 00       		.uleb128 0
 9298 0137 56150000 		.4byte	.LASF51
 9299 013b 05       		.byte	0x5
 9300 013c 00       		.uleb128 0
 9301 013d 046A0000 		.4byte	.LASF52
 9302 0141 05       		.byte	0x5
 9303 0142 00       		.uleb128 0
 9304 0143 34760000 		.4byte	.LASF53
 9305 0147 05       		.byte	0x5
 9306 0148 00       		.uleb128 0
 9307 0149 41400000 		.4byte	.LASF54
 9308 014d 05       		.byte	0x5
 9309 014e 00       		.uleb128 0
 9310 014f 86170000 		.4byte	.LASF55
 9311 0153 05       		.byte	0x5
 9312 0154 00       		.uleb128 0
ARM GAS  /var/folders/9j/_txx49hn253_s3mnzkyxlj8m0000gp/T//ccxigpJH.s 			page 181


 9313 0155 90690000 		.4byte	.LASF56
 9314 0159 05       		.byte	0x5
 9315 015a 00       		.uleb128 0
 9316 015b A8690000 		.4byte	.LASF57
 9317 015f 05       		.byte	0x5
 9318 0160 00       		.uleb128 0
 9319 0161 DC0A0000 		.4byte	.LASF58
 9320 0165 05       		.byte	0x5
 9321 0166 00       		.uleb128 0
 9322 0167 FA3D0000 		.4byte	.LASF59
 9323 016b 05       		.byte	0x5
 9324 016c 00       		.uleb128 0
 9325 016d 5A8E0000 		.4byte	.LASF60
 9326 0171 05       		.byte	0x5
 9327 0172 00       		.uleb128 0
 9328 0173 C8190000 		.4byte	.LASF61
 9329 0177 05       		.byte	0x5
 9330 0178 00       		.uleb128 0
 9331 0179 B0260000 		.4byte	.LASF62
 9332 017d 05       		.byte	0x5
 9333 017e 00       		.uleb128 0
 9334 017f 4C450000 		.4byte	.LASF63
 9335 0183 05       		.byte	0x5
 9336 0184 00       		.uleb128 0
 9337 0185 B07A0000 		.4byte	.LASF64
 9338 0189 05       		.byte	0x5
 9339 018a 00       		.uleb128 0
 9340 018b CF390000 		.4byte	.LASF65
 9341 018f 05       		.byte	0x5
 9342 0190 00       		.uleb128 0
 9343 0191 322C0000 		.4byte	.LASF66
 9344 0195 05       		.byte	0x5
 9345 0196 00       		.uleb128 0
 9346 0197 65260000 		.4byte	.LASF67
 9347 019b 05       		.byte	0x5
 9348 019c 00       		.uleb128 0
 9349 019d D4100000 		.4byte	.LASF68
 9350 01a1 05       		.byte	0x5
 9351 01a2 00       		.uleb128 0
 9352 01a3 FB810000 		.4byte	.LASF69
 9353 01a7 05       		.byte	0x5
 9354 01a8 00       		.uleb128 0
 9355 01a9 12400000 		.4byte	.LASF70
 9356 01ad 05       		.byte	0x5
 9357 01ae 00       		.uleb128 0
 9358 01af 32840000 		.4byte	.LASF71
 9359 01b3 05       		.byte	0x5
 9360 01b4 00       		.uleb128 0
 9361 01b5 25020000 		.4byte	.LASF72
 9362 01b9 05       		.byte	0x5
 9363 01ba 00       		.uleb128 0
 9364 01bb 51170000 		.4byte	.LASF73
 9365 01bf 05       		.byte	0x5
 9366 01c0 00       		.uleb128 0
 9367 01c1 BC000000 		.4byte	.LASF74
 9368 01c5 05       		.byte	0x5
 9369 01c6 00       		.uleb128 0
ARM GAS  /var/folders/9j/_txx49hn253_s3mnzkyxlj8m0000gp/T//ccxigpJH.s 			page 182


 9370 01c7 FF6E0000 		.4byte	.LASF75
 9371 01cb 05       		.byte	0x5
 9372 01cc 00       		.uleb128 0
 9373 01cd D58E0000 		.4byte	.LASF76
 9374 01d1 05       		.byte	0x5
 9375 01d2 00       		.uleb128 0
 9376 01d3 227A0000 		.4byte	.LASF77
 9377 01d7 05       		.byte	0x5
 9378 01d8 00       		.uleb128 0
 9379 01d9 09710000 		.4byte	.LASF78
 9380 01dd 05       		.byte	0x5
 9381 01de 00       		.uleb128 0
 9382 01df E9120000 		.4byte	.LASF79
 9383 01e3 05       		.byte	0x5
 9384 01e4 00       		.uleb128 0
 9385 01e5 4D020000 		.4byte	.LASF80
 9386 01e9 05       		.byte	0x5
 9387 01ea 00       		.uleb128 0
 9388 01eb 0C750000 		.4byte	.LASF81
 9389 01ef 05       		.byte	0x5
 9390 01f0 00       		.uleb128 0
 9391 01f1 E3170000 		.4byte	.LASF82
 9392 01f5 05       		.byte	0x5
 9393 01f6 00       		.uleb128 0
 9394 01f7 945B0000 		.4byte	.LASF83
 9395 01fb 05       		.byte	0x5
 9396 01fc 00       		.uleb128 0
 9397 01fd 46320000 		.4byte	.LASF84
 9398 0201 05       		.byte	0x5
 9399 0202 00       		.uleb128 0
 9400 0203 6A190000 		.4byte	.LASF85
 9401 0207 05       		.byte	0x5
 9402 0208 00       		.uleb128 0
 9403 0209 2C120000 		.4byte	.LASF86
 9404 020d 05       		.byte	0x5
 9405 020e 00       		.uleb128 0
 9406 020f A5630000 		.4byte	.LASF87
 9407 0213 05       		.byte	0x5
 9408 0214 00       		.uleb128 0
 9409 0215 A4210000 		.4byte	.LASF88
 9410 0219 05       		.byte	0x5
 9411 021a 00       		.uleb128 0
 9412 021b 833F0000 		.4byte	.LASF89
 9413 021f 05       		.byte	0x5
 9414 0220 00       		.uleb128 0
 9415 0221 AB230000 		.4byte	.LASF90
 9416 0225 05       		.byte	0x5
 9417 0226 00       		.uleb128 0
 9418 0227 FA470000 		.4byte	.LASF91
 9419 022b 05       		.byte	0x5
 9420 022c 00       		.uleb128 0
 9421 022d 680C0000 		.4byte	.LASF92
 9422 0231 05       		.byte	0x5
 9423 0232 00       		.uleb128 0
 9424 0233 3E5D0000 		.4byte	.LASF93
 9425 0237 05       		.byte	0x5
 9426 0238 00       		.uleb128 0
ARM GAS  /var/folders/9j/_txx49hn253_s3mnzkyxlj8m0000gp/T//ccxigpJH.s 			page 183


 9427 0239 D3620000 		.4byte	.LASF94
 9428 023d 05       		.byte	0x5
 9429 023e 00       		.uleb128 0
 9430 023f 7C2B0000 		.4byte	.LASF95
 9431 0243 05       		.byte	0x5
 9432 0244 00       		.uleb128 0
 9433 0245 5D6D0000 		.4byte	.LASF96
 9434 0249 05       		.byte	0x5
 9435 024a 00       		.uleb128 0
 9436 024b CC760000 		.4byte	.LASF97
 9437 024f 05       		.byte	0x5
 9438 0250 00       		.uleb128 0
 9439 0251 830F0000 		.4byte	.LASF98
 9440 0255 05       		.byte	0x5
 9441 0256 00       		.uleb128 0
 9442 0257 7C6F0000 		.4byte	.LASF99
 9443 025b 05       		.byte	0x5
 9444 025c 00       		.uleb128 0
 9445 025d E67B0000 		.4byte	.LASF100
 9446 0261 05       		.byte	0x5
 9447 0262 00       		.uleb128 0
 9448 0263 22980000 		.4byte	.LASF101
 9449 0267 05       		.byte	0x5
 9450 0268 00       		.uleb128 0
 9451 0269 F0080000 		.4byte	.LASF102
 9452 026d 05       		.byte	0x5
 9453 026e 00       		.uleb128 0
 9454 026f EA6A0000 		.4byte	.LASF103
 9455 0273 05       		.byte	0x5
 9456 0274 00       		.uleb128 0
 9457 0275 CF7E0000 		.4byte	.LASF104
 9458 0279 05       		.byte	0x5
 9459 027a 00       		.uleb128 0
 9460 027b 521B0000 		.4byte	.LASF105
 9461 027f 05       		.byte	0x5
 9462 0280 00       		.uleb128 0
 9463 0281 8C2C0000 		.4byte	.LASF106
 9464 0285 05       		.byte	0x5
 9465 0286 00       		.uleb128 0
 9466 0287 78610000 		.4byte	.LASF107
 9467 028b 05       		.byte	0x5
 9468 028c 00       		.uleb128 0
 9469 028d AE650000 		.4byte	.LASF108
 9470 0291 05       		.byte	0x5
 9471 0292 00       		.uleb128 0
 9472 0293 EE610000 		.4byte	.LASF109
 9473 0297 05       		.byte	0x5
 9474 0298 00       		.uleb128 0
 9475 0299 FB180000 		.4byte	.LASF110
 9476 029d 05       		.byte	0x5
 9477 029e 00       		.uleb128 0
 9478 029f 90000000 		.4byte	.LASF111
 9479 02a3 05       		.byte	0x5
 9480 02a4 00       		.uleb128 0
 9481 02a5 9D360000 		.4byte	.LASF112
 9482 02a9 05       		.byte	0x5
 9483 02aa 00       		.uleb128 0
ARM GAS  /var/folders/9j/_txx49hn253_s3mnzkyxlj8m0000gp/T//ccxigpJH.s 			page 184


 9484 02ab 71230000 		.4byte	.LASF113
 9485 02af 05       		.byte	0x5
 9486 02b0 00       		.uleb128 0
 9487 02b1 70600000 		.4byte	.LASF114
 9488 02b5 05       		.byte	0x5
 9489 02b6 00       		.uleb128 0
 9490 02b7 02980000 		.4byte	.LASF115
 9491 02bb 05       		.byte	0x5
 9492 02bc 00       		.uleb128 0
 9493 02bd 15160000 		.4byte	.LASF116
 9494 02c1 05       		.byte	0x5
 9495 02c2 00       		.uleb128 0
 9496 02c3 8F570000 		.4byte	.LASF117
 9497 02c7 05       		.byte	0x5
 9498 02c8 00       		.uleb128 0
 9499 02c9 41550000 		.4byte	.LASF118
 9500 02cd 05       		.byte	0x5
 9501 02ce 00       		.uleb128 0
 9502 02cf 5B890000 		.4byte	.LASF119
 9503 02d3 05       		.byte	0x5
 9504 02d4 00       		.uleb128 0
 9505 02d5 D0130000 		.4byte	.LASF120
 9506 02d9 05       		.byte	0x5
 9507 02da 00       		.uleb128 0
 9508 02db B1560000 		.4byte	.LASF121
 9509 02df 05       		.byte	0x5
 9510 02e0 00       		.uleb128 0
 9511 02e1 11540000 		.4byte	.LASF122
 9512 02e5 05       		.byte	0x5
 9513 02e6 00       		.uleb128 0
 9514 02e7 6A490000 		.4byte	.LASF123
 9515 02eb 05       		.byte	0x5
 9516 02ec 00       		.uleb128 0
 9517 02ed 16420000 		.4byte	.LASF124
 9518 02f1 05       		.byte	0x5
 9519 02f2 00       		.uleb128 0
 9520 02f3 AB550000 		.4byte	.LASF125
 9521 02f7 05       		.byte	0x5
 9522 02f8 00       		.uleb128 0
 9523 02f9 FA530000 		.4byte	.LASF126
 9524 02fd 05       		.byte	0x5
 9525 02fe 00       		.uleb128 0
 9526 02ff BF1D0000 		.4byte	.LASF127
 9527 0303 05       		.byte	0x5
 9528 0304 00       		.uleb128 0
 9529 0305 BC1A0000 		.4byte	.LASF128
 9530 0309 05       		.byte	0x5
 9531 030a 00       		.uleb128 0
 9532 030b 3E210000 		.4byte	.LASF129
 9533 030f 05       		.byte	0x5
 9534 0310 00       		.uleb128 0
 9535 0311 FF1D0000 		.4byte	.LASF130
 9536 0315 05       		.byte	0x5
 9537 0316 00       		.uleb128 0
 9538 0317 90470000 		.4byte	.LASF131
 9539 031b 05       		.byte	0x5
 9540 031c 00       		.uleb128 0
ARM GAS  /var/folders/9j/_txx49hn253_s3mnzkyxlj8m0000gp/T//ccxigpJH.s 			page 185


 9541 031d 7E270000 		.4byte	.LASF132
 9542 0321 05       		.byte	0x5
 9543 0322 00       		.uleb128 0
 9544 0323 272D0000 		.4byte	.LASF133
 9545 0327 05       		.byte	0x5
 9546 0328 00       		.uleb128 0
 9547 0329 432B0000 		.4byte	.LASF134
 9548 032d 05       		.byte	0x5
 9549 032e 00       		.uleb128 0
 9550 032f 6A070000 		.4byte	.LASF135
 9551 0333 05       		.byte	0x5
 9552 0334 00       		.uleb128 0
 9553 0335 EA3A0000 		.4byte	.LASF136
 9554 0339 05       		.byte	0x5
 9555 033a 00       		.uleb128 0
 9556 033b EE5B0000 		.4byte	.LASF137
 9557 033f 05       		.byte	0x5
 9558 0340 00       		.uleb128 0
 9559 0341 69980000 		.4byte	.LASF138
 9560 0345 05       		.byte	0x5
 9561 0346 00       		.uleb128 0
 9562 0347 287B0000 		.4byte	.LASF139
 9563 034b 05       		.byte	0x5
 9564 034c 00       		.uleb128 0
 9565 034d 37630000 		.4byte	.LASF140
 9566 0351 05       		.byte	0x5
 9567 0352 00       		.uleb128 0
 9568 0353 D9960000 		.4byte	.LASF141
 9569 0357 05       		.byte	0x5
 9570 0358 00       		.uleb128 0
 9571 0359 65410000 		.4byte	.LASF142
 9572 035d 05       		.byte	0x5
 9573 035e 00       		.uleb128 0
 9574 035f B3050000 		.4byte	.LASF143
 9575 0363 05       		.byte	0x5
 9576 0364 00       		.uleb128 0
 9577 0365 26820000 		.4byte	.LASF144
 9578 0369 05       		.byte	0x5
 9579 036a 00       		.uleb128 0
 9580 036b 36900000 		.4byte	.LASF145
 9581 036f 05       		.byte	0x5
 9582 0370 00       		.uleb128 0
 9583 0371 D5160000 		.4byte	.LASF146
 9584 0375 05       		.byte	0x5
 9585 0376 00       		.uleb128 0
 9586 0377 6B3A0000 		.4byte	.LASF147
 9587 037b 05       		.byte	0x5
 9588 037c 00       		.uleb128 0
 9589 037d E11F0000 		.4byte	.LASF148
 9590 0381 05       		.byte	0x5
 9591 0382 00       		.uleb128 0
 9592 0383 C6290000 		.4byte	.LASF149
 9593 0387 05       		.byte	0x5
 9594 0388 00       		.uleb128 0
 9595 0389 D1800000 		.4byte	.LASF150
 9596 038d 05       		.byte	0x5
 9597 038e 00       		.uleb128 0
ARM GAS  /var/folders/9j/_txx49hn253_s3mnzkyxlj8m0000gp/T//ccxigpJH.s 			page 186


 9598 038f 88780000 		.4byte	.LASF151
 9599 0393 05       		.byte	0x5
 9600 0394 00       		.uleb128 0
 9601 0395 DB080000 		.4byte	.LASF152
 9602 0399 05       		.byte	0x5
 9603 039a 00       		.uleb128 0
 9604 039b C58E0000 		.4byte	.LASF153
 9605 039f 05       		.byte	0x5
 9606 03a0 00       		.uleb128 0
 9607 03a1 94080000 		.4byte	.LASF154
 9608 03a5 05       		.byte	0x5
 9609 03a6 00       		.uleb128 0
 9610 03a7 803B0000 		.4byte	.LASF155
 9611 03ab 05       		.byte	0x5
 9612 03ac 00       		.uleb128 0
 9613 03ad 66290000 		.4byte	.LASF156
 9614 03b1 05       		.byte	0x5
 9615 03b2 00       		.uleb128 0
 9616 03b3 B8520000 		.4byte	.LASF157
 9617 03b7 05       		.byte	0x5
 9618 03b8 00       		.uleb128 0
 9619 03b9 18000000 		.4byte	.LASF158
 9620 03bd 05       		.byte	0x5
 9621 03be 00       		.uleb128 0
 9622 03bf 91920000 		.4byte	.LASF159
 9623 03c3 05       		.byte	0x5
 9624 03c4 00       		.uleb128 0
 9625 03c5 477D0000 		.4byte	.LASF160
 9626 03c9 05       		.byte	0x5
 9627 03ca 00       		.uleb128 0
 9628 03cb 89400000 		.4byte	.LASF161
 9629 03cf 05       		.byte	0x5
 9630 03d0 00       		.uleb128 0
 9631 03d1 7D440000 		.4byte	.LASF162
 9632 03d5 05       		.byte	0x5
 9633 03d6 00       		.uleb128 0
 9634 03d7 62650000 		.4byte	.LASF163
 9635 03db 05       		.byte	0x5
 9636 03dc 00       		.uleb128 0
 9637 03dd D4300000 		.4byte	.LASF164
 9638 03e1 05       		.byte	0x5
 9639 03e2 00       		.uleb128 0
 9640 03e3 85140000 		.4byte	.LASF165
 9641 03e7 05       		.byte	0x5
 9642 03e8 00       		.uleb128 0
 9643 03e9 405F0000 		.4byte	.LASF166
 9644 03ed 05       		.byte	0x5
 9645 03ee 00       		.uleb128 0
 9646 03ef EE880000 		.4byte	.LASF167
 9647 03f3 05       		.byte	0x5
 9648 03f4 00       		.uleb128 0
 9649 03f5 753D0000 		.4byte	.LASF168
 9650 03f9 05       		.byte	0x5
 9651 03fa 00       		.uleb128 0
 9652 03fb 92060000 		.4byte	.LASF169
 9653 03ff 05       		.byte	0x5
 9654 0400 00       		.uleb128 0
ARM GAS  /var/folders/9j/_txx49hn253_s3mnzkyxlj8m0000gp/T//ccxigpJH.s 			page 187


 9655 0401 18310000 		.4byte	.LASF170
 9656 0405 05       		.byte	0x5
 9657 0406 00       		.uleb128 0
 9658 0407 18110000 		.4byte	.LASF171
 9659 040b 05       		.byte	0x5
 9660 040c 00       		.uleb128 0
 9661 040d 496E0000 		.4byte	.LASF172
 9662 0411 05       		.byte	0x5
 9663 0412 00       		.uleb128 0
 9664 0413 4F670000 		.4byte	.LASF173
 9665 0417 05       		.byte	0x5
 9666 0418 00       		.uleb128 0
 9667 0419 79580000 		.4byte	.LASF174
 9668 041d 05       		.byte	0x5
 9669 041e 00       		.uleb128 0
 9670 041f 25070000 		.4byte	.LASF175
 9671 0423 05       		.byte	0x5
 9672 0424 00       		.uleb128 0
 9673 0425 35640000 		.4byte	.LASF176
 9674 0429 05       		.byte	0x5
 9675 042a 00       		.uleb128 0
 9676 042b EC1C0000 		.4byte	.LASF177
 9677 042f 05       		.byte	0x5
 9678 0430 00       		.uleb128 0
 9679 0431 618F0000 		.4byte	.LASF178
 9680 0435 05       		.byte	0x5
 9681 0436 00       		.uleb128 0
 9682 0437 A8350000 		.4byte	.LASF179
 9683 043b 05       		.byte	0x5
 9684 043c 00       		.uleb128 0
 9685 043d 7D5B0000 		.4byte	.LASF180
 9686 0441 05       		.byte	0x5
 9687 0442 00       		.uleb128 0
 9688 0443 6B170000 		.4byte	.LASF181
 9689 0447 05       		.byte	0x5
 9690 0448 00       		.uleb128 0
 9691 0449 6E790000 		.4byte	.LASF182
 9692 044d 05       		.byte	0x5
 9693 044e 00       		.uleb128 0
 9694 044f 19100000 		.4byte	.LASF183
 9695 0453 05       		.byte	0x5
 9696 0454 00       		.uleb128 0
 9697 0455 D9020000 		.4byte	.LASF184
 9698 0459 05       		.byte	0x5
 9699 045a 00       		.uleb128 0
 9700 045b 6E400000 		.4byte	.LASF185
 9701 045f 05       		.byte	0x5
 9702 0460 00       		.uleb128 0
 9703 0461 E37A0000 		.4byte	.LASF186
 9704 0465 05       		.byte	0x5
 9705 0466 00       		.uleb128 0
 9706 0467 D7010000 		.4byte	.LASF187
 9707 046b 05       		.byte	0x5
 9708 046c 00       		.uleb128 0
 9709 046d F7920000 		.4byte	.LASF188
 9710 0471 05       		.byte	0x5
 9711 0472 00       		.uleb128 0
ARM GAS  /var/folders/9j/_txx49hn253_s3mnzkyxlj8m0000gp/T//ccxigpJH.s 			page 188


 9712 0473 0D3C0000 		.4byte	.LASF189
 9713 0477 05       		.byte	0x5
 9714 0478 00       		.uleb128 0
 9715 0479 01950000 		.4byte	.LASF190
 9716 047d 05       		.byte	0x5
 9717 047e 00       		.uleb128 0
 9718 047f 510F0000 		.4byte	.LASF191
 9719 0483 05       		.byte	0x5
 9720 0484 00       		.uleb128 0
 9721 0485 E0360000 		.4byte	.LASF192
 9722 0489 05       		.byte	0x5
 9723 048a 00       		.uleb128 0
 9724 048b 43960000 		.4byte	.LASF193
 9725 048f 05       		.byte	0x5
 9726 0490 00       		.uleb128 0
 9727 0491 0C290000 		.4byte	.LASF194
 9728 0495 05       		.byte	0x5
 9729 0496 00       		.uleb128 0
 9730 0497 A70C0000 		.4byte	.LASF195
 9731 049b 05       		.byte	0x5
 9732 049c 00       		.uleb128 0
 9733 049d D9350000 		.4byte	.LASF196
 9734 04a1 05       		.byte	0x5
 9735 04a2 00       		.uleb128 0
 9736 04a3 521F0000 		.4byte	.LASF197
 9737 04a7 05       		.byte	0x5
 9738 04a8 00       		.uleb128 0
 9739 04a9 05670000 		.4byte	.LASF198
 9740 04ad 05       		.byte	0x5
 9741 04ae 00       		.uleb128 0
 9742 04af 02380000 		.4byte	.LASF199
 9743 04b3 05       		.byte	0x5
 9744 04b4 00       		.uleb128 0
 9745 04b5 AE530000 		.4byte	.LASF200
 9746 04b9 05       		.byte	0x5
 9747 04ba 00       		.uleb128 0
 9748 04bb 893E0000 		.4byte	.LASF201
 9749 04bf 05       		.byte	0x5
 9750 04c0 00       		.uleb128 0
 9751 04c1 F5510000 		.4byte	.LASF202
 9752 04c5 05       		.byte	0x5
 9753 04c6 00       		.uleb128 0
 9754 04c7 73620000 		.4byte	.LASF203
 9755 04cb 05       		.byte	0x5
 9756 04cc 00       		.uleb128 0
 9757 04cd 3C140000 		.4byte	.LASF204
 9758 04d1 05       		.byte	0x5
 9759 04d2 00       		.uleb128 0
 9760 04d3 58500000 		.4byte	.LASF205
 9761 04d7 05       		.byte	0x5
 9762 04d8 00       		.uleb128 0
 9763 04d9 34170000 		.4byte	.LASF206
 9764 04dd 05       		.byte	0x5
 9765 04de 00       		.uleb128 0
 9766 04df 1A4F0000 		.4byte	.LASF207
 9767 04e3 05       		.byte	0x5
 9768 04e4 00       		.uleb128 0
ARM GAS  /var/folders/9j/_txx49hn253_s3mnzkyxlj8m0000gp/T//ccxigpJH.s 			page 189


 9769 04e5 E1620000 		.4byte	.LASF208
 9770 04e9 05       		.byte	0x5
 9771 04ea 00       		.uleb128 0
 9772 04eb FB030000 		.4byte	.LASF209
 9773 04ef 05       		.byte	0x5
 9774 04f0 00       		.uleb128 0
 9775 04f1 39590000 		.4byte	.LASF210
 9776 04f5 05       		.byte	0x5
 9777 04f6 00       		.uleb128 0
 9778 04f7 835C0000 		.4byte	.LASF211
 9779 04fb 05       		.byte	0x5
 9780 04fc 00       		.uleb128 0
 9781 04fd 7B0E0000 		.4byte	.LASF212
 9782 0501 05       		.byte	0x5
 9783 0502 00       		.uleb128 0
 9784 0503 D4980000 		.4byte	.LASF213
 9785 0507 05       		.byte	0x5
 9786 0508 00       		.uleb128 0
 9787 0509 F16D0000 		.4byte	.LASF214
 9788 050d 05       		.byte	0x5
 9789 050e 00       		.uleb128 0
 9790 050f E2690000 		.4byte	.LASF215
 9791 0513 05       		.byte	0x5
 9792 0514 00       		.uleb128 0
 9793 0515 377B0000 		.4byte	.LASF216
 9794 0519 05       		.byte	0x5
 9795 051a 00       		.uleb128 0
 9796 051b 78900000 		.4byte	.LASF217
 9797 051f 05       		.byte	0x5
 9798 0520 00       		.uleb128 0
 9799 0521 4D8C0000 		.4byte	.LASF218
 9800 0525 05       		.byte	0x5
 9801 0526 00       		.uleb128 0
 9802 0527 A2370000 		.4byte	.LASF219
 9803 052b 05       		.byte	0x5
 9804 052c 00       		.uleb128 0
 9805 052d 44790000 		.4byte	.LASF220
 9806 0531 05       		.byte	0x5
 9807 0532 00       		.uleb128 0
 9808 0533 E2940000 		.4byte	.LASF221
 9809 0537 05       		.byte	0x5
 9810 0538 00       		.uleb128 0
 9811 0539 7A0A0000 		.4byte	.LASF222
 9812 053d 05       		.byte	0x5
 9813 053e 00       		.uleb128 0
 9814 053f 74450000 		.4byte	.LASF223
 9815 0543 05       		.byte	0x5
 9816 0544 00       		.uleb128 0
 9817 0545 908B0000 		.4byte	.LASF224
 9818 0549 05       		.byte	0x5
 9819 054a 00       		.uleb128 0
 9820 054b 3E190000 		.4byte	.LASF225
 9821 054f 05       		.byte	0x5
 9822 0550 00       		.uleb128 0
 9823 0551 8F860000 		.4byte	.LASF226
 9824 0555 05       		.byte	0x5
 9825 0556 00       		.uleb128 0
ARM GAS  /var/folders/9j/_txx49hn253_s3mnzkyxlj8m0000gp/T//ccxigpJH.s 			page 190


 9826 0557 E6990000 		.4byte	.LASF227
 9827 055b 05       		.byte	0x5
 9828 055c 00       		.uleb128 0
 9829 055d 2C210000 		.4byte	.LASF228
 9830 0561 05       		.byte	0x5
 9831 0562 00       		.uleb128 0
 9832 0563 C0690000 		.4byte	.LASF229
 9833 0567 05       		.byte	0x5
 9834 0568 00       		.uleb128 0
 9835 0569 3D7A0000 		.4byte	.LASF230
 9836 056d 05       		.byte	0x5
 9837 056e 00       		.uleb128 0
 9838 056f 448D0000 		.4byte	.LASF231
 9839 0573 05       		.byte	0x5
 9840 0574 00       		.uleb128 0
 9841 0575 6A2F0000 		.4byte	.LASF232
 9842 0579 05       		.byte	0x5
 9843 057a 00       		.uleb128 0
 9844 057b AD540000 		.4byte	.LASF233
 9845 057f 05       		.byte	0x5
 9846 0580 00       		.uleb128 0
 9847 0581 F6070000 		.4byte	.LASF234
 9848 0585 05       		.byte	0x5
 9849 0586 00       		.uleb128 0
 9850 0587 75060000 		.4byte	.LASF235
 9851 058b 05       		.byte	0x5
 9852 058c 00       		.uleb128 0
 9853 058d 6A780000 		.4byte	.LASF236
 9854 0591 05       		.byte	0x5
 9855 0592 00       		.uleb128 0
 9856 0593 DA150000 		.4byte	.LASF237
 9857 0597 05       		.byte	0x5
 9858 0598 00       		.uleb128 0
 9859 0599 AE7D0000 		.4byte	.LASF238
 9860 059d 05       		.byte	0x5
 9861 059e 00       		.uleb128 0
 9862 059f D5040000 		.4byte	.LASF239
 9863 05a3 05       		.byte	0x5
 9864 05a4 00       		.uleb128 0
 9865 05a5 A7910000 		.4byte	.LASF240
 9866 05a9 05       		.byte	0x5
 9867 05aa 00       		.uleb128 0
 9868 05ab 8B8E0000 		.4byte	.LASF241
 9869 05af 05       		.byte	0x5
 9870 05b0 00       		.uleb128 0
 9871 05b1 C7470000 		.4byte	.LASF242
 9872 05b5 05       		.byte	0x5
 9873 05b6 00       		.uleb128 0
 9874 05b7 EC150000 		.4byte	.LASF243
 9875 05bb 05       		.byte	0x5
 9876 05bc 00       		.uleb128 0
 9877 05bd 73320000 		.4byte	.LASF244
 9878 05c1 05       		.byte	0x5
 9879 05c2 00       		.uleb128 0
 9880 05c3 92580000 		.4byte	.LASF245
 9881 05c7 05       		.byte	0x5
 9882 05c8 00       		.uleb128 0
ARM GAS  /var/folders/9j/_txx49hn253_s3mnzkyxlj8m0000gp/T//ccxigpJH.s 			page 191


 9883 05c9 B9550000 		.4byte	.LASF246
 9884 05cd 05       		.byte	0x5
 9885 05ce 00       		.uleb128 0
 9886 05cf 1B300000 		.4byte	.LASF247
 9887 05d3 05       		.byte	0x5
 9888 05d4 00       		.uleb128 0
 9889 05d5 94110000 		.4byte	.LASF248
 9890 05d9 05       		.byte	0x5
 9891 05da 00       		.uleb128 0
 9892 05db DD870000 		.4byte	.LASF249
 9893 05df 05       		.byte	0x5
 9894 05e0 00       		.uleb128 0
 9895 05e1 476A0000 		.4byte	.LASF250
 9896 05e5 05       		.byte	0x5
 9897 05e6 00       		.uleb128 0
 9898 05e7 BC020000 		.4byte	.LASF251
 9899 05eb 05       		.byte	0x5
 9900 05ec 00       		.uleb128 0
 9901 05ed AA820000 		.4byte	.LASF252
 9902 05f1 05       		.byte	0x5
 9903 05f2 00       		.uleb128 0
 9904 05f3 E5670000 		.4byte	.LASF253
 9905 05f7 05       		.byte	0x5
 9906 05f8 00       		.uleb128 0
 9907 05f9 C3480000 		.4byte	.LASF254
 9908 05fd 05       		.byte	0x5
 9909 05fe 00       		.uleb128 0
 9910 05ff 336D0000 		.4byte	.LASF255
 9911 0603 05       		.byte	0x5
 9912 0604 00       		.uleb128 0
 9913 0605 A68E0000 		.4byte	.LASF256
 9914 0609 05       		.byte	0x5
 9915 060a 00       		.uleb128 0
 9916 060b C9740000 		.4byte	.LASF257
 9917 060f 05       		.byte	0x5
 9918 0610 00       		.uleb128 0
 9919 0611 3C3E0000 		.4byte	.LASF258
 9920 0615 05       		.byte	0x5
 9921 0616 00       		.uleb128 0
 9922 0617 63020000 		.4byte	.LASF259
 9923 061b 05       		.byte	0x5
 9924 061c 00       		.uleb128 0
 9925 061d F3360000 		.4byte	.LASF260
 9926 0621 05       		.byte	0x5
 9927 0622 00       		.uleb128 0
 9928 0623 811F0000 		.4byte	.LASF261
 9929 0627 05       		.byte	0x5
 9930 0628 00       		.uleb128 0
 9931 0629 285B0000 		.4byte	.LASF262
 9932 062d 05       		.byte	0x5
 9933 062e 00       		.uleb128 0
 9934 062f 49860000 		.4byte	.LASF263
 9935 0633 05       		.byte	0x5
 9936 0634 00       		.uleb128 0
 9937 0635 BB100000 		.4byte	.LASF264
 9938 0639 05       		.byte	0x5
 9939 063a 00       		.uleb128 0
ARM GAS  /var/folders/9j/_txx49hn253_s3mnzkyxlj8m0000gp/T//ccxigpJH.s 			page 192


 9940 063b 0B060000 		.4byte	.LASF265
 9941 063f 05       		.byte	0x5
 9942 0640 00       		.uleb128 0
 9943 0641 4E680000 		.4byte	.LASF266
 9944 0645 05       		.byte	0x5
 9945 0646 00       		.uleb128 0
 9946 0647 9F840000 		.4byte	.LASF267
 9947 064b 05       		.byte	0x5
 9948 064c 00       		.uleb128 0
 9949 064d 03740000 		.4byte	.LASF268
 9950 0651 05       		.byte	0x5
 9951 0652 00       		.uleb128 0
 9952 0653 63910000 		.4byte	.LASF269
 9953 0657 05       		.byte	0x5
 9954 0658 00       		.uleb128 0
 9955 0659 CB960000 		.4byte	.LASF270
 9956 065d 05       		.byte	0x5
 9957 065e 00       		.uleb128 0
 9958 065f 0A100000 		.4byte	.LASF271
 9959 0663 05       		.byte	0x5
 9960 0664 00       		.uleb128 0
 9961 0665 E2060000 		.4byte	.LASF272
 9962 0669 05       		.byte	0x5
 9963 066a 00       		.uleb128 0
 9964 066b 7D680000 		.4byte	.LASF273
 9965 066f 05       		.byte	0x5
 9966 0670 00       		.uleb128 0
 9967 0671 2D6E0000 		.4byte	.LASF274
 9968 0675 05       		.byte	0x5
 9969 0676 00       		.uleb128 0
 9970 0677 90230000 		.4byte	.LASF275
 9971 067b 05       		.byte	0x5
 9972 067c 00       		.uleb128 0
 9973 067d 95030000 		.4byte	.LASF276
 9974 0681 05       		.byte	0x5
 9975 0682 00       		.uleb128 0
 9976 0683 4F580000 		.4byte	.LASF277
 9977 0687 05       		.byte	0x5
 9978 0688 00       		.uleb128 0
 9979 0689 16480000 		.4byte	.LASF278
 9980 068d 05       		.byte	0x5
 9981 068e 00       		.uleb128 0
 9982 068f AC020000 		.4byte	.LASF279
 9983 0693 05       		.byte	0x5
 9984 0694 00       		.uleb128 0
 9985 0695 03690000 		.4byte	.LASF280
 9986 0699 05       		.byte	0x5
 9987 069a 00       		.uleb128 0
 9988 069b 970F0000 		.4byte	.LASF281
 9989 069f 05       		.byte	0x5
 9990 06a0 00       		.uleb128 0
 9991 06a1 EF750000 		.4byte	.LASF282
 9992 06a5 05       		.byte	0x5
 9993 06a6 00       		.uleb128 0
 9994 06a7 4B520000 		.4byte	.LASF283
 9995 06ab 05       		.byte	0x5
 9996 06ac 00       		.uleb128 0
ARM GAS  /var/folders/9j/_txx49hn253_s3mnzkyxlj8m0000gp/T//ccxigpJH.s 			page 193


 9997 06ad 7B420000 		.4byte	.LASF284
 9998 06b1 05       		.byte	0x5
 9999 06b2 00       		.uleb128 0
 10000 06b3 056B0000 		.4byte	.LASF285
 10001 06b7 05       		.byte	0x5
 10002 06b8 00       		.uleb128 0
 10003 06b9 9B710000 		.4byte	.LASF286
 10004 06bd 05       		.byte	0x5
 10005 06be 00       		.uleb128 0
 10006 06bf B6270000 		.4byte	.LASF287
 10007 06c3 05       		.byte	0x5
 10008 06c4 00       		.uleb128 0
 10009 06c5 6A4C0000 		.4byte	.LASF288
 10010 06c9 05       		.byte	0x5
 10011 06ca 00       		.uleb128 0
 10012 06cb 84180000 		.4byte	.LASF289
 10013 06cf 05       		.byte	0x5
 10014 06d0 00       		.uleb128 0
 10015 06d1 3D3C0000 		.4byte	.LASF290
 10016 06d5 05       		.byte	0x5
 10017 06d6 00       		.uleb128 0
 10018 06d7 EF2A0000 		.4byte	.LASF291
 10019 06db 05       		.byte	0x5
 10020 06dc 00       		.uleb128 0
 10021 06dd 34960000 		.4byte	.LASF292
 10022 06e1 05       		.byte	0x5
 10023 06e2 00       		.uleb128 0
 10024 06e3 19190000 		.4byte	.LASF293
 10025 06e7 05       		.byte	0x5
 10026 06e8 00       		.uleb128 0
 10027 06e9 21010000 		.4byte	.LASF294
 10028 06ed 05       		.byte	0x5
 10029 06ee 00       		.uleb128 0
 10030 06ef 4F000000 		.4byte	.LASF295
 10031 06f3 05       		.byte	0x5
 10032 06f4 00       		.uleb128 0
 10033 06f5 7C8E0000 		.4byte	.LASF296
 10034 06f9 05       		.byte	0x5
 10035 06fa 00       		.uleb128 0
 10036 06fb B25B0000 		.4byte	.LASF297
 10037 06ff 05       		.byte	0x5
 10038 0700 00       		.uleb128 0
 10039 0701 1C260000 		.4byte	.LASF298
 10040 0705 05       		.byte	0x5
 10041 0706 00       		.uleb128 0
 10042 0707 9D170000 		.4byte	.LASF299
 10043 070b 05       		.byte	0x5
 10044 070c 00       		.uleb128 0
 10045 070d 427F0000 		.4byte	.LASF300
 10046 0711 05       		.byte	0x5
 10047 0712 00       		.uleb128 0
 10048 0713 32100000 		.4byte	.LASF301
 10049 0717 05       		.byte	0x5
 10050 0718 00       		.uleb128 0
 10051 0719 39860000 		.4byte	.LASF302
 10052 071d 05       		.byte	0x5
 10053 071e 00       		.uleb128 0
ARM GAS  /var/folders/9j/_txx49hn253_s3mnzkyxlj8m0000gp/T//ccxigpJH.s 			page 194


 10054 071f CE7A0000 		.4byte	.LASF303
 10055 0723 05       		.byte	0x5
 10056 0724 00       		.uleb128 0
 10057 0725 8B370000 		.4byte	.LASF304
 10058 0729 05       		.byte	0x5
 10059 072a 00       		.uleb128 0
 10060 072b D5910000 		.4byte	.LASF305
 10061 072f 05       		.byte	0x5
 10062 0730 00       		.uleb128 0
 10063 0731 EC760000 		.4byte	.LASF306
 10064 0735 05       		.byte	0x5
 10065 0736 00       		.uleb128 0
 10066 0737 46180000 		.4byte	.LASF307
 10067 073b 05       		.byte	0x5
 10068 073c 00       		.uleb128 0
 10069 073d 065C0000 		.4byte	.LASF308
 10070 0741 05       		.byte	0x5
 10071 0742 00       		.uleb128 0
 10072 0743 F6400000 		.4byte	.LASF309
 10073 0747 05       		.byte	0x5
 10074 0748 00       		.uleb128 0
 10075 0749 A01F0000 		.4byte	.LASF310
 10076 074d 05       		.byte	0x5
 10077 074e 00       		.uleb128 0
 10078 074f CD000000 		.4byte	.LASF311
 10079 0753 05       		.byte	0x5
 10080 0754 00       		.uleb128 0
 10081 0755 732D0000 		.4byte	.LASF312
 10082 0759 05       		.byte	0x5
 10083 075a 00       		.uleb128 0
 10084 075b AF760000 		.4byte	.LASF313
 10085 075f 05       		.byte	0x5
 10086 0760 00       		.uleb128 0
 10087 0761 69480000 		.4byte	.LASF314
 10088 0765 05       		.byte	0x5
 10089 0766 00       		.uleb128 0
 10090 0767 784C0000 		.4byte	.LASF315
 10091 076b 05       		.byte	0x5
 10092 076c 00       		.uleb128 0
 10093 076d 912F0000 		.4byte	.LASF316
 10094 0771 05       		.byte	0x5
 10095 0772 00       		.uleb128 0
 10096 0773 16630000 		.4byte	.LASF317
 10097 0777 05       		.byte	0x5
 10098 0778 00       		.uleb128 0
 10099 0779 DD3B0000 		.4byte	.LASF318
 10100 077d 05       		.byte	0x5
 10101 077e 00       		.uleb128 0
 10102 077f 5B250000 		.4byte	.LASF319
 10103 0783 05       		.byte	0x5
 10104 0784 00       		.uleb128 0
 10105 0785 594F0000 		.4byte	.LASF320
 10106 0789 05       		.byte	0x5
 10107 078a 00       		.uleb128 0
 10108 078b D7860000 		.4byte	.LASF321
 10109 078f 05       		.byte	0x5
 10110 0790 00       		.uleb128 0
ARM GAS  /var/folders/9j/_txx49hn253_s3mnzkyxlj8m0000gp/T//ccxigpJH.s 			page 195


 10111 0791 59590000 		.4byte	.LASF322
 10112 0795 05       		.byte	0x5
 10113 0796 00       		.uleb128 0
 10114 0797 225D0000 		.4byte	.LASF323
 10115 079b 05       		.byte	0x5
 10116 079c 00       		.uleb128 0
 10117 079d 9C390000 		.4byte	.LASF324
 10118 07a1 05       		.byte	0x5
 10119 07a2 00       		.uleb128 0
 10120 07a3 99070000 		.4byte	.LASF325
 10121 07a7 05       		.byte	0x5
 10122 07a8 00       		.uleb128 0
 10123 07a9 675D0000 		.4byte	.LASF326
 10124 07ad 05       		.byte	0x5
 10125 07ae 00       		.uleb128 0
 10126 07af FA480000 		.4byte	.LASF327
 10127 07b3 05       		.byte	0x5
 10128 07b4 00       		.uleb128 0
 10129 07b5 6F680000 		.4byte	.LASF328
 10130 07b9 05       		.byte	0x5
 10131 07ba 00       		.uleb128 0
 10132 07bb A2900000 		.4byte	.LASF329
 10133 07bf 05       		.byte	0x5
 10134 07c0 00       		.uleb128 0
 10135 07c1 61610000 		.4byte	.LASF330
 10136 07c5 05       		.byte	0x5
 10137 07c6 00       		.uleb128 0
 10138 07c7 57910000 		.4byte	.LASF331
 10139 07cb 05       		.byte	0x5
 10140 07cc 00       		.uleb128 0
 10141 07cd 3D730000 		.4byte	.LASF332
 10142 07d1 05       		.byte	0x5
 10143 07d2 00       		.uleb128 0
 10144 07d3 3A3D0000 		.4byte	.LASF333
 10145 07d7 05       		.byte	0x5
 10146 07d8 00       		.uleb128 0
 10147 07d9 92120000 		.4byte	.LASF334
 10148 07dd 05       		.byte	0x5
 10149 07de 00       		.uleb128 0
 10150 07df BD700000 		.4byte	.LASF335
 10151 07e3 05       		.byte	0x5
 10152 07e4 00       		.uleb128 0
 10153 07e5 A8060000 		.4byte	.LASF336
 10154 07e9 05       		.byte	0x5
 10155 07ea 00       		.uleb128 0
 10156 07eb 28190000 		.4byte	.LASF337
 10157 07ef 05       		.byte	0x5
 10158 07f0 00       		.uleb128 0
 10159 07f1 567B0000 		.4byte	.LASF338
 10160 07f5 05       		.byte	0x5
 10161 07f6 00       		.uleb128 0
 10162 07f7 2A3F0000 		.4byte	.LASF339
 10163 07fb 05       		.byte	0x5
 10164 07fc 00       		.uleb128 0
 10165 07fd 46990000 		.4byte	.LASF340
 10166 0801 05       		.byte	0x5
 10167 0802 00       		.uleb128 0
ARM GAS  /var/folders/9j/_txx49hn253_s3mnzkyxlj8m0000gp/T//ccxigpJH.s 			page 196


 10168 0803 52870000 		.4byte	.LASF341
 10169 0807 05       		.byte	0x5
 10170 0808 00       		.uleb128 0
 10171 0809 14730000 		.4byte	.LASF342
 10172 080d 05       		.byte	0x5
 10173 080e 00       		.uleb128 0
 10174 080f C0810000 		.4byte	.LASF343
 10175 0813 05       		.byte	0x5
 10176 0814 00       		.uleb128 0
 10177 0815 AD0D0000 		.4byte	.LASF344
 10178 0819 05       		.byte	0x5
 10179 081a 00       		.uleb128 0
 10180 081b 458B0000 		.4byte	.LASF345
 10181 081f 05       		.byte	0x5
 10182 0820 00       		.uleb128 0
 10183 0821 94340000 		.4byte	.LASF346
 10184 0825 05       		.byte	0x5
 10185 0826 00       		.uleb128 0
 10186 0827 C5650000 		.4byte	.LASF347
 10187 082b 00       		.byte	0
 10188              		.section	.debug_macro,"G",%progbits,wm4.features.h.22.2e382148a0560adabf236cddd4e880f4,comdat
 10189              	.Ldebug_macro2:
 10190 0000 0400     		.2byte	0x4
 10191 0002 00       		.byte	0
 10192 0003 05       		.byte	0x5
 10193 0004 16       		.uleb128 0x16
 10194 0005 C9240000 		.4byte	.LASF351
 10195 0009 05       		.byte	0x5
 10196 000a 1F       		.uleb128 0x1f
 10197 000b 121D0000 		.4byte	.LASF352
 10198 000f 05       		.byte	0x5
 10199 0010 20       		.uleb128 0x20
 10200 0011 C8530000 		.4byte	.LASF353
 10201 0015 05       		.byte	0x5
 10202 0016 25       		.uleb128 0x25
 10203 0017 E8130000 		.4byte	.LASF354
 10204 001b 05       		.byte	0x5
 10205 001c 2C       		.uleb128 0x2c
 10206 001d BE850000 		.4byte	.LASF355
 10207 0021 00       		.byte	0
 10208              		.section	.debug_macro,"G",%progbits,wm4._default_types.h.15.933e8edd27a65e0b69af4a865eb623d2,comda
 10209              	.Ldebug_macro3:
 10210 0000 0400     		.2byte	0x4
 10211 0002 00       		.byte	0
 10212 0003 05       		.byte	0x5
 10213 0004 0F       		.uleb128 0xf
 10214 0005 56510000 		.4byte	.LASF356
 10215 0009 05       		.byte	0x5
 10216 000a 21       		.uleb128 0x21
 10217 000b F93B0000 		.4byte	.LASF357
 10218 000f 05       		.byte	0x5
 10219 0010 2F       		.uleb128 0x2f
 10220 0011 2D290000 		.4byte	.LASF358
 10221 0015 05       		.byte	0x5
 10222 0016 45       		.uleb128 0x45
 10223 0017 584E0000 		.4byte	.LASF359
 10224 001b 05       		.byte	0x5
ARM GAS  /var/folders/9j/_txx49hn253_s3mnzkyxlj8m0000gp/T//ccxigpJH.s 			page 197


 10225 001c 5F       		.uleb128 0x5f
 10226 001d 4D650000 		.4byte	.LASF360
 10227 0021 05       		.byte	0x5
 10228 0022 7E       		.uleb128 0x7e
 10229 0023 D0590000 		.4byte	.LASF361
 10230 0027 05       		.byte	0x5
 10231 0028 9801     		.uleb128 0x98
 10232 002a FE2A0000 		.4byte	.LASF362
 10233 002e 05       		.byte	0x5
 10234 002f AE01     		.uleb128 0xae
 10235 0031 FD770000 		.4byte	.LASF363
 10236 0035 05       		.byte	0x5
 10237 0036 C001     		.uleb128 0xc0
 10238 0038 74500000 		.4byte	.LASF364
 10239 003c 06       		.byte	0x6
 10240 003d D601     		.uleb128 0xd6
 10241 003f 2F650000 		.4byte	.LASF365
 10242 0043 00       		.byte	0
 10243              		.section	.debug_macro,"G",%progbits,wm4._intsup.h.10.35a45952db64d30146faa63a55c20c1c,comdat
 10244              	.Ldebug_macro4:
 10245 0000 0400     		.2byte	0x4
 10246 0002 00       		.byte	0
 10247 0003 05       		.byte	0x5
 10248 0004 0A       		.uleb128 0xa
 10249 0005 058D0000 		.4byte	.LASF366
 10250 0009 05       		.byte	0x5
 10251 000a 10       		.uleb128 0x10
 10252 000b 28510000 		.4byte	.LASF367
 10253 000f 05       		.byte	0x5
 10254 0010 1A       		.uleb128 0x1a
 10255 0011 F86B0000 		.4byte	.LASF368
 10256 0015 05       		.byte	0x5
 10257 0016 21       		.uleb128 0x21
 10258 0017 6A820000 		.4byte	.LASF369
 10259 001b 06       		.byte	0x6
 10260 001c 37       		.uleb128 0x37
 10261 001d DF990000 		.4byte	.LASF370
 10262 0021 06       		.byte	0x6
 10263 0022 38       		.uleb128 0x38
 10264 0023 F07D0000 		.4byte	.LASF371
 10265 0027 06       		.byte	0x6
 10266 0028 39       		.uleb128 0x39
 10267 0029 17260000 		.4byte	.LASF372
 10268 002d 06       		.byte	0x6
 10269 002e 3A       		.uleb128 0x3a
 10270 002f 4B620000 		.4byte	.LASF373
 10271 0033 02       		.byte	0x2
 10272 0034 3B       		.uleb128 0x3b
 10273 0035 696E7400 		.ascii	"int\000"
 10274 0039 06       		.byte	0x6
 10275 003a 3C       		.uleb128 0x3c
 10276 003b 0B620000 		.4byte	.LASF374
 10277 003f 05       		.byte	0x5
 10278 0040 3D       		.uleb128 0x3d
 10279 0041 CA0B0000 		.4byte	.LASF375
 10280 0045 05       		.byte	0x5
 10281 0046 3E       		.uleb128 0x3e
ARM GAS  /var/folders/9j/_txx49hn253_s3mnzkyxlj8m0000gp/T//ccxigpJH.s 			page 198


 10282 0047 9B410000 		.4byte	.LASF376
 10283 004b 05       		.byte	0x5
 10284 004c 3F       		.uleb128 0x3f
 10285 004d 11590000 		.4byte	.LASF377
 10286 0051 05       		.byte	0x5
 10287 0052 40       		.uleb128 0x40
 10288 0053 56960000 		.4byte	.LASF378
 10289 0057 05       		.byte	0x5
 10290 0058 41       		.uleb128 0x41
 10291 0059 BD3D0000 		.4byte	.LASF379
 10292 005d 05       		.byte	0x5
 10293 005e 42       		.uleb128 0x42
 10294 005f B4280000 		.4byte	.LASF380
 10295 0063 05       		.byte	0x5
 10296 0064 4D       		.uleb128 0x4d
 10297 0065 C5910000 		.4byte	.LASF381
 10298 0069 05       		.byte	0x5
 10299 006a 55       		.uleb128 0x55
 10300 006b DE090000 		.4byte	.LASF382
 10301 006f 05       		.byte	0x5
 10302 0070 60       		.uleb128 0x60
 10303 0071 83570000 		.4byte	.LASF383
 10304 0075 05       		.byte	0x5
 10305 0076 6B       		.uleb128 0x6b
 10306 0077 E6890000 		.4byte	.LASF384
 10307 007b 05       		.byte	0x5
 10308 007c 74       		.uleb128 0x74
 10309 007d AD120000 		.4byte	.LASF385
 10310 0081 05       		.byte	0x5
 10311 0082 7B       		.uleb128 0x7b
 10312 0083 CA830000 		.4byte	.LASF386
 10313 0087 05       		.byte	0x5
 10314 0088 8401     		.uleb128 0x84
 10315 008a A81C0000 		.4byte	.LASF387
 10316 008e 05       		.byte	0x5
 10317 008f 8B01     		.uleb128 0x8b
 10318 0091 AC430000 		.4byte	.LASF388
 10319 0095 05       		.byte	0x5
 10320 0096 9601     		.uleb128 0x96
 10321 0098 7A410000 		.4byte	.LASF389
 10322 009c 05       		.byte	0x5
 10323 009d 9A01     		.uleb128 0x9a
 10324 009f 6E2B0000 		.4byte	.LASF390
 10325 00a3 05       		.byte	0x5
 10326 00a4 A501     		.uleb128 0xa5
 10327 00a6 527F0000 		.4byte	.LASF391
 10328 00aa 05       		.byte	0x5
 10329 00ab B001     		.uleb128 0xb0
 10330 00ad 9F120000 		.4byte	.LASF392
 10331 00b1 05       		.byte	0x5
 10332 00b2 B901     		.uleb128 0xb9
 10333 00b4 61600000 		.4byte	.LASF393
 10334 00b8 06       		.byte	0x6
 10335 00b9 BB01     		.uleb128 0xbb
 10336 00bb DF990000 		.4byte	.LASF370
 10337 00bf 06       		.byte	0x6
 10338 00c0 BC01     		.uleb128 0xbc
ARM GAS  /var/folders/9j/_txx49hn253_s3mnzkyxlj8m0000gp/T//ccxigpJH.s 			page 199


 10339 00c2 F07D0000 		.4byte	.LASF371
 10340 00c6 06       		.byte	0x6
 10341 00c7 BD01     		.uleb128 0xbd
 10342 00c9 17260000 		.4byte	.LASF372
 10343 00cd 06       		.byte	0x6
 10344 00ce BE01     		.uleb128 0xbe
 10345 00d0 4B620000 		.4byte	.LASF373
 10346 00d4 02       		.byte	0x2
 10347 00d5 BF01     		.uleb128 0xbf
 10348 00d7 696E7400 		.ascii	"int\000"
 10349 00db 06       		.byte	0x6
 10350 00dc C001     		.uleb128 0xc0
 10351 00de 0B620000 		.4byte	.LASF374
 10352 00e2 00       		.byte	0
 10353              		.section	.debug_macro,"G",%progbits,wm4._stdint.h.10.f76354baea1c7088202064e6f3d4f5e3,comdat
 10354              	.Ldebug_macro5:
 10355 0000 0400     		.2byte	0x4
 10356 0002 00       		.byte	0
 10357 0003 05       		.byte	0x5
 10358 0004 0A       		.uleb128 0xa
 10359 0005 4C100000 		.4byte	.LASF394
 10360 0009 05       		.byte	0x5
 10361 000a 15       		.uleb128 0x15
 10362 000b B3290000 		.4byte	.LASF395
 10363 000f 05       		.byte	0x5
 10364 0010 1B       		.uleb128 0x1b
 10365 0011 60450000 		.4byte	.LASF396
 10366 0015 05       		.byte	0x5
 10367 0016 21       		.uleb128 0x21
 10368 0017 473D0000 		.4byte	.LASF397
 10369 001b 05       		.byte	0x5
 10370 001c 27       		.uleb128 0x27
 10371 001d 52830000 		.4byte	.LASF398
 10372 0021 00       		.byte	0
 10373              		.section	.debug_macro,"G",%progbits,wm4.stdint.h.23.373a9d32a9e4c2e88fd347156532d281,comdat
 10374              	.Ldebug_macro6:
 10375 0000 0400     		.2byte	0x4
 10376 0002 00       		.byte	0
 10377 0003 05       		.byte	0x5
 10378 0004 17       		.uleb128 0x17
 10379 0005 49930000 		.4byte	.LASF399
 10380 0009 05       		.byte	0x5
 10381 000a 1D       		.uleb128 0x1d
 10382 000b D9630000 		.4byte	.LASF400
 10383 000f 05       		.byte	0x5
 10384 0010 23       		.uleb128 0x23
 10385 0011 CC7B0000 		.4byte	.LASF401
 10386 0015 05       		.byte	0x5
 10387 0016 29       		.uleb128 0x29
 10388 0017 F2340000 		.4byte	.LASF402
 10389 001b 05       		.byte	0x5
 10390 001c 35       		.uleb128 0x35
 10391 001d 9E5A0000 		.4byte	.LASF403
 10392 0021 05       		.byte	0x5
 10393 0022 3F       		.uleb128 0x3f
 10394 0023 5B520000 		.4byte	.LASF404
 10395 0027 05       		.byte	0x5
ARM GAS  /var/folders/9j/_txx49hn253_s3mnzkyxlj8m0000gp/T//ccxigpJH.s 			page 200


 10396 0028 49       		.uleb128 0x49
 10397 0029 F80E0000 		.4byte	.LASF405
 10398 002d 05       		.byte	0x5
 10399 002e 53       		.uleb128 0x53
 10400 002f C0230000 		.4byte	.LASF406
 10401 0033 05       		.byte	0x5
 10402 0034 9301     		.uleb128 0x93
 10403 0036 6A310000 		.4byte	.LASF407
 10404 003a 05       		.byte	0x5
 10405 003b 9401     		.uleb128 0x94
 10406 003d 9E7F0000 		.4byte	.LASF408
 10407 0041 05       		.byte	0x5
 10408 0042 9501     		.uleb128 0x95
 10409 0044 DD180000 		.4byte	.LASF409
 10410 0048 05       		.byte	0x5
 10411 0049 AB01     		.uleb128 0xab
 10412 004b 85930000 		.4byte	.LASF410
 10413 004f 05       		.byte	0x5
 10414 0050 AC01     		.uleb128 0xac
 10415 0052 300B0000 		.4byte	.LASF411
 10416 0056 05       		.byte	0x5
 10417 0057 AD01     		.uleb128 0xad
 10418 0059 DD920000 		.4byte	.LASF412
 10419 005d 05       		.byte	0x5
 10420 005e B501     		.uleb128 0xb5
 10421 0060 37030000 		.4byte	.LASF413
 10422 0064 05       		.byte	0x5
 10423 0065 B601     		.uleb128 0xb6
 10424 0067 A7110000 		.4byte	.LASF414
 10425 006b 05       		.byte	0x5
 10426 006c B701     		.uleb128 0xb7
 10427 006e C9750000 		.4byte	.LASF415
 10428 0072 05       		.byte	0x5
 10429 0073 C101     		.uleb128 0xc1
 10430 0075 AF5E0000 		.4byte	.LASF416
 10431 0079 05       		.byte	0x5
 10432 007a C201     		.uleb128 0xc2
 10433 007c 3E0E0000 		.4byte	.LASF417
 10434 0080 05       		.byte	0x5
 10435 0081 C301     		.uleb128 0xc3
 10436 0083 B3390000 		.4byte	.LASF418
 10437 0087 05       		.byte	0x5
 10438 0088 CB01     		.uleb128 0xcb
 10439 008a 8E4F0000 		.4byte	.LASF419
 10440 008e 05       		.byte	0x5
 10441 008f CC01     		.uleb128 0xcc
 10442 0091 EA090000 		.4byte	.LASF420
 10443 0095 05       		.byte	0x5
 10444 0096 CD01     		.uleb128 0xcd
 10445 0098 642C0000 		.4byte	.LASF421
 10446 009c 05       		.byte	0x5
 10447 009d D701     		.uleb128 0xd7
 10448 009f 1E730000 		.4byte	.LASF422
 10449 00a3 05       		.byte	0x5
 10450 00a4 D801     		.uleb128 0xd8
 10451 00a6 D52A0000 		.4byte	.LASF423
 10452 00aa 05       		.byte	0x5
ARM GAS  /var/folders/9j/_txx49hn253_s3mnzkyxlj8m0000gp/T//ccxigpJH.s 			page 201


 10453 00ab D901     		.uleb128 0xd9
 10454 00ad 2E4A0000 		.4byte	.LASF424
 10455 00b1 05       		.byte	0x5
 10456 00b2 E701     		.uleb128 0xe7
 10457 00b4 FB2E0000 		.4byte	.LASF425
 10458 00b8 05       		.byte	0x5
 10459 00b9 E801     		.uleb128 0xe8
 10460 00bb D52E0000 		.4byte	.LASF426
 10461 00bf 05       		.byte	0x5
 10462 00c0 E901     		.uleb128 0xe9
 10463 00c2 86790000 		.4byte	.LASF427
 10464 00c6 05       		.byte	0x5
 10465 00c7 F901     		.uleb128 0xf9
 10466 00c9 D77F0000 		.4byte	.LASF428
 10467 00cd 05       		.byte	0x5
 10468 00ce FA01     		.uleb128 0xfa
 10469 00d0 52530000 		.4byte	.LASF429
 10470 00d4 05       		.byte	0x5
 10471 00d5 FB01     		.uleb128 0xfb
 10472 00d7 B21C0000 		.4byte	.LASF430
 10473 00db 05       		.byte	0x5
 10474 00dc 8902     		.uleb128 0x109
 10475 00de 4E130000 		.4byte	.LASF431
 10476 00e2 05       		.byte	0x5
 10477 00e3 8A02     		.uleb128 0x10a
 10478 00e5 6F100000 		.4byte	.LASF432
 10479 00e9 05       		.byte	0x5
 10480 00ea 8B02     		.uleb128 0x10b
 10481 00ec 7C670000 		.4byte	.LASF433
 10482 00f0 05       		.byte	0x5
 10483 00f1 9902     		.uleb128 0x119
 10484 00f3 E7540000 		.4byte	.LASF434
 10485 00f7 05       		.byte	0x5
 10486 00f8 9A02     		.uleb128 0x11a
 10487 00fa 20230000 		.4byte	.LASF435
 10488 00fe 05       		.byte	0x5
 10489 00ff 9B02     		.uleb128 0x11b
 10490 0101 2A680000 		.4byte	.LASF436
 10491 0105 05       		.byte	0x5
 10492 0106 A902     		.uleb128 0x129
 10493 0108 1D380000 		.4byte	.LASF437
 10494 010c 05       		.byte	0x5
 10495 010d AA02     		.uleb128 0x12a
 10496 010f 560A0000 		.4byte	.LASF438
 10497 0113 05       		.byte	0x5
 10498 0114 AB02     		.uleb128 0x12b
 10499 0116 B7780000 		.4byte	.LASF439
 10500 011a 05       		.byte	0x5
 10501 011b B902     		.uleb128 0x139
 10502 011d 9E140000 		.4byte	.LASF440
 10503 0121 05       		.byte	0x5
 10504 0122 BA02     		.uleb128 0x13a
 10505 0124 AA970000 		.4byte	.LASF441
 10506 0128 05       		.byte	0x5
 10507 0129 BB02     		.uleb128 0x13b
 10508 012b 02510000 		.4byte	.LASF442
 10509 012f 05       		.byte	0x5
ARM GAS  /var/folders/9j/_txx49hn253_s3mnzkyxlj8m0000gp/T//ccxigpJH.s 			page 202


 10510 0130 C902     		.uleb128 0x149
 10511 0132 10180000 		.4byte	.LASF443
 10512 0136 05       		.byte	0x5
 10513 0137 CA02     		.uleb128 0x14a
 10514 0139 D2400000 		.4byte	.LASF444
 10515 013d 05       		.byte	0x5
 10516 013e CB02     		.uleb128 0x14b
 10517 0140 B34B0000 		.4byte	.LASF445
 10518 0144 05       		.byte	0x5
 10519 0145 D902     		.uleb128 0x159
 10520 0147 B92A0000 		.4byte	.LASF446
 10521 014b 05       		.byte	0x5
 10522 014c DA02     		.uleb128 0x15a
 10523 014e 6F1E0000 		.4byte	.LASF447
 10524 0152 05       		.byte	0x5
 10525 0153 E202     		.uleb128 0x162
 10526 0155 53230000 		.4byte	.LASF448
 10527 0159 05       		.byte	0x5
 10528 015a EA02     		.uleb128 0x16a
 10529 015c F3050000 		.4byte	.LASF449
 10530 0160 05       		.byte	0x5
 10531 0161 F002     		.uleb128 0x170
 10532 0163 5D330000 		.4byte	.LASF450
 10533 0167 05       		.byte	0x5
 10534 0168 F102     		.uleb128 0x171
 10535 016a 4F280000 		.4byte	.LASF451
 10536 016e 05       		.byte	0x5
 10537 016f F502     		.uleb128 0x175
 10538 0171 080C0000 		.4byte	.LASF452
 10539 0175 05       		.byte	0x5
 10540 0176 F902     		.uleb128 0x179
 10541 0178 46260000 		.4byte	.LASF453
 10542 017c 05       		.byte	0x5
 10543 017d FE02     		.uleb128 0x17e
 10544 017f 381F0000 		.4byte	.LASF454
 10545 0183 05       		.byte	0x5
 10546 0184 8903     		.uleb128 0x189
 10547 0186 E0470000 		.4byte	.LASF455
 10548 018a 05       		.byte	0x5
 10549 018b 9303     		.uleb128 0x193
 10550 018d A05C0000 		.4byte	.LASF456
 10551 0191 05       		.byte	0x5
 10552 0192 9803     		.uleb128 0x198
 10553 0194 00000000 		.4byte	.LASF457
 10554 0198 05       		.byte	0x5
 10555 0199 9F03     		.uleb128 0x19f
 10556 019b C43D0000 		.4byte	.LASF458
 10557 019f 05       		.byte	0x5
 10558 01a0 A003     		.uleb128 0x1a0
 10559 01a2 0F2D0000 		.4byte	.LASF459
 10560 01a6 05       		.byte	0x5
 10561 01a7 AB03     		.uleb128 0x1ab
 10562 01a9 390F0000 		.4byte	.LASF460
 10563 01ad 05       		.byte	0x5
 10564 01ae AC03     		.uleb128 0x1ac
 10565 01b0 608C0000 		.4byte	.LASF461
 10566 01b4 05       		.byte	0x5
ARM GAS  /var/folders/9j/_txx49hn253_s3mnzkyxlj8m0000gp/T//ccxigpJH.s 			page 203


 10567 01b5 B703     		.uleb128 0x1b7
 10568 01b7 5E000000 		.4byte	.LASF462
 10569 01bb 05       		.byte	0x5
 10570 01bc B803     		.uleb128 0x1b8
 10571 01be E8370000 		.4byte	.LASF463
 10572 01c2 05       		.byte	0x5
 10573 01c3 C403     		.uleb128 0x1c4
 10574 01c5 50370000 		.4byte	.LASF464
 10575 01c9 05       		.byte	0x5
 10576 01ca C503     		.uleb128 0x1c5
 10577 01cc AF740000 		.4byte	.LASF465
 10578 01d0 05       		.byte	0x5
 10579 01d1 D403     		.uleb128 0x1d4
 10580 01d3 2C260000 		.4byte	.LASF466
 10581 01d7 05       		.byte	0x5
 10582 01d8 D503     		.uleb128 0x1d5
 10583 01da F7640000 		.4byte	.LASF467
 10584 01de 00       		.byte	0
 10585              		.section	.debug_macro,"G",%progbits,wm4.stdbool.h.29.1c9ee6859ce8145f7838a4f2549ccec2,comdat
 10586              	.Ldebug_macro7:
 10587 0000 0400     		.2byte	0x4
 10588 0002 00       		.byte	0
 10589 0003 05       		.byte	0x5
 10590 0004 1D       		.uleb128 0x1d
 10591 0005 A98B0000 		.4byte	.LASF470
 10592 0009 05       		.byte	0x5
 10593 000a 21       		.uleb128 0x21
 10594 000b F7970000 		.4byte	.LASF471
 10595 000f 05       		.byte	0x5
 10596 0010 22       		.uleb128 0x22
 10597 0011 18090000 		.4byte	.LASF472
 10598 0015 05       		.byte	0x5
 10599 0016 23       		.uleb128 0x23
 10600 0017 262F0000 		.4byte	.LASF473
 10601 001b 05       		.byte	0x5
 10602 001c 30       		.uleb128 0x30
 10603 001d 441A0000 		.4byte	.LASF474
 10604 0021 00       		.byte	0
 10605              		.section	.debug_macro,"G",%progbits,wm4.MY17_Can_Library.h.53.536c51f7e49918bccf00c573c45b28e1,com
 10606              	.Ldebug_macro8:
 10607 0000 0400     		.2byte	0x4
 10608 0002 00       		.byte	0
 10609 0003 05       		.byte	0x5
 10610 0004 35       		.uleb128 0x35
 10611 0005 4C640000 		.4byte	.LASF476
 10612 0009 05       		.byte	0x5
 10613 000a 38       		.uleb128 0x38
 10614 000b BE1E0000 		.4byte	.LASF477
 10615 000f 05       		.byte	0x5
 10616 0010 3B       		.uleb128 0x3b
 10617 0011 1F1C0000 		.4byte	.LASF478
 10618 0015 00       		.byte	0
 10619              		.section	.debug_macro,"G",%progbits,wm4.fsae_can_spec.h.2.31666b6e7e49ec85aefd24f51984692d,comdat
 10620              	.Ldebug_macro9:
 10621 0000 0400     		.2byte	0x4
 10622 0002 00       		.byte	0
 10623 0003 05       		.byte	0x5
ARM GAS  /var/folders/9j/_txx49hn253_s3mnzkyxlj8m0000gp/T//ccxigpJH.s 			page 204


 10624 0004 02       		.uleb128 0x2
 10625 0005 8C280000 		.4byte	.LASF480
 10626 0009 05       		.byte	0x5
 10627 000a 04       		.uleb128 0x4
 10628 000b 248C0000 		.4byte	.LASF481
 10629 000f 05       		.byte	0x5
 10630 0010 05       		.uleb128 0x5
 10631 0011 C0160000 		.4byte	.LASF482
 10632 0015 05       		.byte	0x5
 10633 0016 06       		.uleb128 0x6
 10634 0017 B8490000 		.4byte	.LASF483
 10635 001b 05       		.byte	0x5
 10636 001c 07       		.uleb128 0x7
 10637 001d 316F0000 		.4byte	.LASF484
 10638 0021 05       		.byte	0x5
 10639 0022 08       		.uleb128 0x8
 10640 0023 7A8C0000 		.4byte	.LASF485
 10641 0027 05       		.byte	0x5
 10642 0028 09       		.uleb128 0x9
 10643 0029 20810000 		.4byte	.LASF486
 10644 002d 05       		.byte	0x5
 10645 002e 0A       		.uleb128 0xa
 10646 002f 5D690000 		.4byte	.LASF487
 10647 0033 05       		.byte	0x5
 10648 0034 0B       		.uleb128 0xb
 10649 0035 05680000 		.4byte	.LASF488
 10650 0039 05       		.byte	0x5
 10651 003a 0C       		.uleb128 0xc
 10652 003b 555F0000 		.4byte	.LASF489
 10653 003f 05       		.byte	0x5
 10654 0040 0D       		.uleb128 0xd
 10655 0041 6C3C0000 		.4byte	.LASF490
 10656 0045 05       		.byte	0x5
 10657 0046 0E       		.uleb128 0xe
 10658 0047 58660000 		.4byte	.LASF491
 10659 004b 05       		.byte	0x5
 10660 004c 0F       		.uleb128 0xf
 10661 004d 75940000 		.4byte	.LASF492
 10662 0051 05       		.byte	0x5
 10663 0052 10       		.uleb128 0x10
 10664 0053 79150000 		.4byte	.LASF493
 10665 0057 05       		.byte	0x5
 10666 0058 11       		.uleb128 0x11
 10667 0059 FE750000 		.4byte	.LASF494
 10668 005d 05       		.byte	0x5
 10669 005e 12       		.uleb128 0x12
 10670 005f 70590000 		.4byte	.LASF495
 10671 0063 05       		.byte	0x5
 10672 0064 13       		.uleb128 0x13
 10673 0065 C1340000 		.4byte	.LASF496
 10674 0069 05       		.byte	0x5
 10675 006a 14       		.uleb128 0x14
 10676 006b 6D4E0000 		.4byte	.LASF497
 10677 006f 05       		.byte	0x5
 10678 0070 15       		.uleb128 0x15
 10679 0071 B2580000 		.4byte	.LASF498
 10680 0075 05       		.byte	0x5
ARM GAS  /var/folders/9j/_txx49hn253_s3mnzkyxlj8m0000gp/T//ccxigpJH.s 			page 205


 10681 0076 16       		.uleb128 0x16
 10682 0077 166B0000 		.4byte	.LASF499
 10683 007b 05       		.byte	0x5
 10684 007c 17       		.uleb128 0x17
 10685 007d DB290000 		.4byte	.LASF500
 10686 0081 05       		.byte	0x5
 10687 0082 18       		.uleb128 0x18
 10688 0083 C4270000 		.4byte	.LASF501
 10689 0087 05       		.byte	0x5
 10690 0088 19       		.uleb128 0x19
 10691 0089 B1220000 		.4byte	.LASF502
 10692 008d 05       		.byte	0x5
 10693 008e 1A       		.uleb128 0x1a
 10694 008f 900D0000 		.4byte	.LASF503
 10695 0093 05       		.byte	0x5
 10696 0094 1B       		.uleb128 0x1b
 10697 0095 2B600000 		.4byte	.LASF504
 10698 0099 05       		.byte	0x5
 10699 009a 1C       		.uleb128 0x1c
 10700 009b 42290000 		.4byte	.LASF505
 10701 009f 05       		.byte	0x5
 10702 00a0 1D       		.uleb128 0x1d
 10703 00a1 AF070000 		.4byte	.LASF506
 10704 00a5 05       		.byte	0x5
 10705 00a6 1F       		.uleb128 0x1f
 10706 00a7 DB950000 		.4byte	.LASF507
 10707 00ab 05       		.byte	0x5
 10708 00ac 20       		.uleb128 0x20
 10709 00ad 4F8B0000 		.4byte	.LASF508
 10710 00b1 05       		.byte	0x5
 10711 00b2 21       		.uleb128 0x21
 10712 00b3 5F560000 		.4byte	.LASF509
 10713 00b7 05       		.byte	0x5
 10714 00b8 22       		.uleb128 0x22
 10715 00b9 158D0000 		.4byte	.LASF510
 10716 00bd 05       		.byte	0x5
 10717 00be 23       		.uleb128 0x23
 10718 00bf 245C0000 		.4byte	.LASF511
 10719 00c3 05       		.byte	0x5
 10720 00c4 24       		.uleb128 0x24
 10721 00c5 100A0000 		.4byte	.LASF512
 10722 00c9 05       		.byte	0x5
 10723 00ca 26       		.uleb128 0x26
 10724 00cb 4A780000 		.4byte	.LASF513
 10725 00cf 05       		.byte	0x5
 10726 00d0 27       		.uleb128 0x27
 10727 00d1 3B250000 		.4byte	.LASF514
 10728 00d5 05       		.byte	0x5
 10729 00d6 28       		.uleb128 0x28
 10730 00d7 9D660000 		.4byte	.LASF515
 10731 00db 05       		.byte	0x5
 10732 00dc 29       		.uleb128 0x29
 10733 00dd 032C0000 		.4byte	.LASF516
 10734 00e1 05       		.byte	0x5
 10735 00e2 2A       		.uleb128 0x2a
 10736 00e3 D5820000 		.4byte	.LASF517
 10737 00e7 05       		.byte	0x5
ARM GAS  /var/folders/9j/_txx49hn253_s3mnzkyxlj8m0000gp/T//ccxigpJH.s 			page 206


 10738 00e8 2B       		.uleb128 0x2b
 10739 00e9 F8460000 		.4byte	.LASF518
 10740 00ed 05       		.byte	0x5
 10741 00ee 2D       		.uleb128 0x2d
 10742 00ef A9570000 		.4byte	.LASF519
 10743 00f3 05       		.byte	0x5
 10744 00f4 2E       		.uleb128 0x2e
 10745 00f5 7F660000 		.4byte	.LASF520
 10746 00f9 05       		.byte	0x5
 10747 00fa 2F       		.uleb128 0x2f
 10748 00fb 5D550000 		.4byte	.LASF521
 10749 00ff 05       		.byte	0x5
 10750 0100 30       		.uleb128 0x30
 10751 0101 953F0000 		.4byte	.LASF522
 10752 0105 05       		.byte	0x5
 10753 0106 31       		.uleb128 0x31
 10754 0107 357C0000 		.4byte	.LASF523
 10755 010b 05       		.byte	0x5
 10756 010c 32       		.uleb128 0x32
 10757 010d F7550000 		.4byte	.LASF524
 10758 0111 05       		.byte	0x5
 10759 0112 34       		.uleb128 0x34
 10760 0113 81300000 		.4byte	.LASF525
 10761 0117 05       		.byte	0x5
 10762 0118 35       		.uleb128 0x35
 10763 0119 89810000 		.4byte	.LASF526
 10764 011d 05       		.byte	0x5
 10765 011e 36       		.uleb128 0x36
 10766 011f 12500000 		.4byte	.LASF527
 10767 0123 05       		.byte	0x5
 10768 0124 37       		.uleb128 0x37
 10769 0125 37560000 		.4byte	.LASF528
 10770 0129 05       		.byte	0x5
 10771 012a 38       		.uleb128 0x38
 10772 012b 8A770000 		.4byte	.LASF529
 10773 012f 05       		.byte	0x5
 10774 0130 39       		.uleb128 0x39
 10775 0131 CE5E0000 		.4byte	.LASF530
 10776 0135 05       		.byte	0x5
 10777 0136 3B       		.uleb128 0x3b
 10778 0137 B1460000 		.4byte	.LASF531
 10779 013b 05       		.byte	0x5
 10780 013c 3C       		.uleb128 0x3c
 10781 013d 89350000 		.4byte	.LASF532
 10782 0141 05       		.byte	0x5
 10783 0142 3D       		.uleb128 0x3d
 10784 0143 4F270000 		.4byte	.LASF533
 10785 0147 05       		.byte	0x5
 10786 0148 3E       		.uleb128 0x3e
 10787 0149 3D820000 		.4byte	.LASF534
 10788 014d 05       		.byte	0x5
 10789 014e 3F       		.uleb128 0x3f
 10790 014f AE900000 		.4byte	.LASF535
 10791 0153 05       		.byte	0x5
 10792 0154 40       		.uleb128 0x40
 10793 0155 D94B0000 		.4byte	.LASF536
 10794 0159 05       		.byte	0x5
ARM GAS  /var/folders/9j/_txx49hn253_s3mnzkyxlj8m0000gp/T//ccxigpJH.s 			page 207


 10795 015a 42       		.uleb128 0x42
 10796 015b 13030000 		.4byte	.LASF537
 10797 015f 05       		.byte	0x5
 10798 0160 43       		.uleb128 0x43
 10799 0161 CD2C0000 		.4byte	.LASF538
 10800 0165 05       		.byte	0x5
 10801 0166 44       		.uleb128 0x44
 10802 0167 FB7B0000 		.4byte	.LASF539
 10803 016b 05       		.byte	0x5
 10804 016c 45       		.uleb128 0x45
 10805 016d 78990000 		.4byte	.LASF540
 10806 0171 05       		.byte	0x5
 10807 0172 46       		.uleb128 0x46
 10808 0173 24700000 		.4byte	.LASF541
 10809 0177 05       		.byte	0x5
 10810 0178 47       		.uleb128 0x47
 10811 0179 7A730000 		.4byte	.LASF542
 10812 017d 05       		.byte	0x5
 10813 017e 48       		.uleb128 0x48
 10814 017f 1F1D0000 		.4byte	.LASF543
 10815 0183 05       		.byte	0x5
 10816 0184 49       		.uleb128 0x49
 10817 0185 E0440000 		.4byte	.LASF544
 10818 0189 05       		.byte	0x5
 10819 018a 4A       		.uleb128 0x4a
 10820 018b 503E0000 		.4byte	.LASF545
 10821 018f 05       		.byte	0x5
 10822 0190 4B       		.uleb128 0x4b
 10823 0191 0F320000 		.4byte	.LASF546
 10824 0195 05       		.byte	0x5
 10825 0196 4C       		.uleb128 0x4c
 10826 0197 14330000 		.4byte	.LASF547
 10827 019b 05       		.byte	0x5
 10828 019c 4D       		.uleb128 0x4d
 10829 019d 6A4B0000 		.4byte	.LASF548
 10830 01a1 05       		.byte	0x5
 10831 01a2 4E       		.uleb128 0x4e
 10832 01a3 8F0E0000 		.4byte	.LASF549
 10833 01a7 05       		.byte	0x5
 10834 01a8 4F       		.uleb128 0x4f
 10835 01a9 48430000 		.4byte	.LASF550
 10836 01ad 05       		.byte	0x5
 10837 01ae 50       		.uleb128 0x50
 10838 01af C81B0000 		.4byte	.LASF551
 10839 01b3 05       		.byte	0x5
 10840 01b4 51       		.uleb128 0x51
 10841 01b5 7D980000 		.4byte	.LASF552
 10842 01b9 05       		.byte	0x5
 10843 01ba 52       		.uleb128 0x52
 10844 01bb D67C0000 		.4byte	.LASF553
 10845 01bf 05       		.byte	0x5
 10846 01c0 53       		.uleb128 0x53
 10847 01c1 12350000 		.4byte	.LASF554
 10848 01c5 05       		.byte	0x5
 10849 01c6 54       		.uleb128 0x54
 10850 01c7 25480000 		.4byte	.LASF555
 10851 01cb 05       		.byte	0x5
ARM GAS  /var/folders/9j/_txx49hn253_s3mnzkyxlj8m0000gp/T//ccxigpJH.s 			page 208


 10852 01cc 55       		.uleb128 0x55
 10853 01cd D3830000 		.4byte	.LASF556
 10854 01d1 05       		.byte	0x5
 10855 01d2 56       		.uleb128 0x56
 10856 01d3 4E0D0000 		.4byte	.LASF557
 10857 01d7 05       		.byte	0x5
 10858 01d8 57       		.uleb128 0x57
 10859 01d9 DB2F0000 		.4byte	.LASF558
 10860 01dd 05       		.byte	0x5
 10861 01de 58       		.uleb128 0x58
 10862 01df 89870000 		.4byte	.LASF559
 10863 01e3 05       		.byte	0x5
 10864 01e4 59       		.uleb128 0x59
 10865 01e5 AC720000 		.4byte	.LASF560
 10866 01e9 05       		.byte	0x5
 10867 01ea 5A       		.uleb128 0x5a
 10868 01eb 65360000 		.4byte	.LASF561
 10869 01ef 05       		.byte	0x5
 10870 01f0 5B       		.uleb128 0x5b
 10871 01f1 93240000 		.4byte	.LASF562
 10872 01f5 05       		.byte	0x5
 10873 01f6 5C       		.uleb128 0x5c
 10874 01f7 3F420000 		.4byte	.LASF563
 10875 01fb 05       		.byte	0x5
 10876 01fc 5D       		.uleb128 0x5d
 10877 01fd 289A0000 		.4byte	.LASF564
 10878 0201 05       		.byte	0x5
 10879 0202 5F       		.uleb128 0x5f
 10880 0203 46380000 		.4byte	.LASF565
 10881 0207 05       		.byte	0x5
 10882 0208 60       		.uleb128 0x60
 10883 0209 74090000 		.4byte	.LASF566
 10884 020d 05       		.byte	0x5
 10885 020e 61       		.uleb128 0x61
 10886 020f E35C0000 		.4byte	.LASF567
 10887 0213 05       		.byte	0x5
 10888 0214 62       		.uleb128 0x62
 10889 0215 F5900000 		.4byte	.LASF568
 10890 0219 05       		.byte	0x5
 10891 021a 63       		.uleb128 0x63
 10892 021b 480B0000 		.4byte	.LASF569
 10893 021f 05       		.byte	0x5
 10894 0220 64       		.uleb128 0x64
 10895 0221 69750000 		.4byte	.LASF570
 10896 0225 05       		.byte	0x5
 10897 0226 65       		.uleb128 0x65
 10898 0227 168A0000 		.4byte	.LASF571
 10899 022b 05       		.byte	0x5
 10900 022c 66       		.uleb128 0x66
 10901 022d F97D0000 		.4byte	.LASF572
 10902 0231 05       		.byte	0x5
 10903 0232 67       		.uleb128 0x67
 10904 0233 D7490000 		.4byte	.LASF573
 10905 0237 05       		.byte	0x5
 10906 0238 68       		.uleb128 0x68
 10907 0239 79010000 		.4byte	.LASF574
 10908 023d 05       		.byte	0x5
ARM GAS  /var/folders/9j/_txx49hn253_s3mnzkyxlj8m0000gp/T//ccxigpJH.s 			page 209


 10909 023e 6A       		.uleb128 0x6a
 10910 023f D63F0000 		.4byte	.LASF575
 10911 0243 05       		.byte	0x5
 10912 0244 6B       		.uleb128 0x6b
 10913 0245 68370000 		.4byte	.LASF576
 10914 0249 05       		.byte	0x5
 10915 024a 6C       		.uleb128 0x6c
 10916 024b C6680000 		.4byte	.LASF577
 10917 024f 05       		.byte	0x5
 10918 0250 6D       		.uleb128 0x6d
 10919 0251 DB250000 		.4byte	.LASF578
 10920 0255 05       		.byte	0x5
 10921 0256 6E       		.uleb128 0x6e
 10922 0257 3E540000 		.4byte	.LASF579
 10923 025b 05       		.byte	0x5
 10924 025c 6F       		.uleb128 0x6f
 10925 025d B5330000 		.4byte	.LASF580
 10926 0261 05       		.byte	0x5
 10927 0262 70       		.uleb128 0x70
 10928 0263 982E0000 		.4byte	.LASF581
 10929 0267 05       		.byte	0x5
 10930 0268 71       		.uleb128 0x71
 10931 0269 09790000 		.4byte	.LASF582
 10932 026d 05       		.byte	0x5
 10933 026e 72       		.uleb128 0x72
 10934 026f 04050000 		.4byte	.LASF583
 10935 0273 05       		.byte	0x5
 10936 0274 73       		.uleb128 0x73
 10937 0275 0F2A0000 		.4byte	.LASF584
 10938 0279 05       		.byte	0x5
 10939 027a 75       		.uleb128 0x75
 10940 027b 7B190000 		.4byte	.LASF585
 10941 027f 05       		.byte	0x5
 10942 0280 76       		.uleb128 0x76
 10943 0281 C85C0000 		.4byte	.LASF586
 10944 0285 05       		.byte	0x5
 10945 0286 77       		.uleb128 0x77
 10946 0287 8F500000 		.4byte	.LASF587
 10947 028b 05       		.byte	0x5
 10948 028c 78       		.uleb128 0x78
 10949 028d 3D5B0000 		.4byte	.LASF588
 10950 0291 05       		.byte	0x5
 10951 0292 79       		.uleb128 0x79
 10952 0293 A1940000 		.4byte	.LASF589
 10953 0297 05       		.byte	0x5
 10954 0298 7A       		.uleb128 0x7a
 10955 0299 08520000 		.4byte	.LASF590
 10956 029d 05       		.byte	0x5
 10957 029e 7C       		.uleb128 0x7c
 10958 029f C5200000 		.4byte	.LASF591
 10959 02a3 05       		.byte	0x5
 10960 02a4 7D       		.uleb128 0x7d
 10961 02a5 B96C0000 		.4byte	.LASF592
 10962 02a9 05       		.byte	0x5
 10963 02aa 7E       		.uleb128 0x7e
 10964 02ab 1D150000 		.4byte	.LASF593
 10965 02af 05       		.byte	0x5
ARM GAS  /var/folders/9j/_txx49hn253_s3mnzkyxlj8m0000gp/T//ccxigpJH.s 			page 210


 10966 02b0 7F       		.uleb128 0x7f
 10967 02b1 A50A0000 		.4byte	.LASF594
 10968 02b5 05       		.byte	0x5
 10969 02b6 8001     		.uleb128 0x80
 10970 02b8 1C4C0000 		.4byte	.LASF595
 10971 02bc 05       		.byte	0x5
 10972 02bd 8101     		.uleb128 0x81
 10973 02bf 22720000 		.4byte	.LASF596
 10974 02c3 05       		.byte	0x5
 10975 02c4 8201     		.uleb128 0x82
 10976 02c6 EF4A0000 		.4byte	.LASF597
 10977 02ca 05       		.byte	0x5
 10978 02cb 8301     		.uleb128 0x83
 10979 02cd 6E7C0000 		.4byte	.LASF598
 10980 02d1 05       		.byte	0x5
 10981 02d2 8401     		.uleb128 0x84
 10982 02d4 D86F0000 		.4byte	.LASF599
 10983 02d8 05       		.byte	0x5
 10984 02d9 8501     		.uleb128 0x85
 10985 02db 15940000 		.4byte	.LASF600
 10986 02df 05       		.byte	0x5
 10987 02e0 8601     		.uleb128 0x86
 10988 02e2 16870000 		.4byte	.LASF601
 10989 02e6 05       		.byte	0x5
 10990 02e7 8701     		.uleb128 0x87
 10991 02e9 C34E0000 		.4byte	.LASF602
 10992 02ed 05       		.byte	0x5
 10993 02ee 8801     		.uleb128 0x88
 10994 02f0 E58E0000 		.4byte	.LASF603
 10995 02f4 05       		.byte	0x5
 10996 02f5 8901     		.uleb128 0x89
 10997 02f7 9E380000 		.4byte	.LASF604
 10998 02fb 05       		.byte	0x5
 10999 02fc 8A01     		.uleb128 0x8a
 11000 02fe 1D4E0000 		.4byte	.LASF605
 11001 0302 05       		.byte	0x5
 11002 0303 8B01     		.uleb128 0x8b
 11003 0305 FB950000 		.4byte	.LASF606
 11004 0309 05       		.byte	0x5
 11005 030a 8C01     		.uleb128 0x8c
 11006 030c 8B950000 		.4byte	.LASF607
 11007 0310 05       		.byte	0x5
 11008 0311 8D01     		.uleb128 0x8d
 11009 0313 CD4D0000 		.4byte	.LASF608
 11010 0317 05       		.byte	0x5
 11011 0318 8E01     		.uleb128 0x8e
 11012 031a A0300000 		.4byte	.LASF609
 11013 031e 05       		.byte	0x5
 11014 031f 8F01     		.uleb128 0x8f
 11015 0321 157D0000 		.4byte	.LASF610
 11016 0325 05       		.byte	0x5
 11017 0326 9001     		.uleb128 0x90
 11018 0328 F3630000 		.4byte	.LASF611
 11019 032c 05       		.byte	0x5
 11020 032d 9101     		.uleb128 0x91
 11021 032f 60050000 		.4byte	.LASF612
 11022 0333 05       		.byte	0x5
ARM GAS  /var/folders/9j/_txx49hn253_s3mnzkyxlj8m0000gp/T//ccxigpJH.s 			page 211


 11023 0334 9301     		.uleb128 0x93
 11024 0336 16080000 		.4byte	.LASF613
 11025 033a 05       		.byte	0x5
 11026 033b 9401     		.uleb128 0x94
 11027 033d 88450000 		.4byte	.LASF614
 11028 0341 05       		.byte	0x5
 11029 0342 9501     		.uleb128 0x95
 11030 0344 F65A0000 		.4byte	.LASF615
 11031 0348 05       		.byte	0x5
 11032 0349 9601     		.uleb128 0x96
 11033 034b 0E240000 		.4byte	.LASF616
 11034 034f 05       		.byte	0x5
 11035 0350 9701     		.uleb128 0x97
 11036 0352 4F710000 		.4byte	.LASF617
 11037 0356 05       		.byte	0x5
 11038 0357 9801     		.uleb128 0x98
 11039 0359 84720000 		.4byte	.LASF618
 11040 035d 05       		.byte	0x5
 11041 035e 9901     		.uleb128 0x99
 11042 0360 CB0E0000 		.4byte	.LASF619
 11043 0364 05       		.byte	0x5
 11044 0365 9A01     		.uleb128 0x9a
 11045 0367 2C6C0000 		.4byte	.LASF620
 11046 036b 05       		.byte	0x5
 11047 036c 9B01     		.uleb128 0x9b
 11048 036e 192B0000 		.4byte	.LASF621
 11049 0372 05       		.byte	0x5
 11050 0373 9C01     		.uleb128 0x9c
 11051 0375 B65A0000 		.4byte	.LASF622
 11052 0379 05       		.byte	0x5
 11053 037a 9D01     		.uleb128 0x9d
 11054 037c D7220000 		.4byte	.LASF623
 11055 0380 05       		.byte	0x5
 11056 0381 9E01     		.uleb128 0x9e
 11057 0383 7B6C0000 		.4byte	.LASF624
 11058 0387 05       		.byte	0x5
 11059 0388 A001     		.uleb128 0xa0
 11060 038a 90560000 		.4byte	.LASF625
 11061 038e 05       		.byte	0x5
 11062 038f A101     		.uleb128 0xa1
 11063 0391 79710000 		.4byte	.LASF626
 11064 0395 05       		.byte	0x5
 11065 0396 A201     		.uleb128 0xa2
 11066 0398 DD780000 		.4byte	.LASF627
 11067 039c 05       		.byte	0x5
 11068 039d A301     		.uleb128 0xa3
 11069 039f 67120000 		.4byte	.LASF628
 11070 03a3 05       		.byte	0x5
 11071 03a4 A401     		.uleb128 0xa4
 11072 03a6 69380000 		.4byte	.LASF629
 11073 03aa 05       		.byte	0x5
 11074 03ab A501     		.uleb128 0xa5
 11075 03ad 9D3A0000 		.4byte	.LASF630
 11076 03b1 05       		.byte	0x5
 11077 03b2 A601     		.uleb128 0xa6
 11078 03b4 110E0000 		.4byte	.LASF631
 11079 03b8 05       		.byte	0x5
ARM GAS  /var/folders/9j/_txx49hn253_s3mnzkyxlj8m0000gp/T//ccxigpJH.s 			page 212


 11080 03b9 A701     		.uleb128 0xa7
 11081 03bb 0E5A0000 		.4byte	.LASF632
 11082 03bf 05       		.byte	0x5
 11083 03c0 A801     		.uleb128 0xa8
 11084 03c2 258E0000 		.4byte	.LASF633
 11085 03c6 05       		.byte	0x5
 11086 03c7 A901     		.uleb128 0xa9
 11087 03c9 2E2F0000 		.4byte	.LASF634
 11088 03cd 05       		.byte	0x5
 11089 03ce AB01     		.uleb128 0xab
 11090 03d0 917E0000 		.4byte	.LASF635
 11091 03d4 05       		.byte	0x5
 11092 03d5 AC01     		.uleb128 0xac
 11093 03d7 DE140000 		.4byte	.LASF636
 11094 03db 05       		.byte	0x5
 11095 03dc AD01     		.uleb128 0xad
 11096 03de 558A0000 		.4byte	.LASF637
 11097 03e2 05       		.byte	0x5
 11098 03e3 AE01     		.uleb128 0xae
 11099 03e5 F6600000 		.4byte	.LASF638
 11100 03e9 05       		.byte	0x5
 11101 03ea AF01     		.uleb128 0xaf
 11102 03ec F85F0000 		.4byte	.LASF639
 11103 03f0 05       		.byte	0x5
 11104 03f1 B001     		.uleb128 0xb0
 11105 03f3 4F350000 		.4byte	.LASF640
 11106 03f7 05       		.byte	0x5
 11107 03f8 B201     		.uleb128 0xb2
 11108 03fa 186F0000 		.4byte	.LASF641
 11109 03fe 05       		.byte	0x5
 11110 03ff B301     		.uleb128 0xb3
 11111 0401 06810000 		.4byte	.LASF642
 11112 0405 05       		.byte	0x5
 11113 0406 B401     		.uleb128 0xb4
 11114 0408 14830000 		.4byte	.LASF643
 11115 040c 05       		.byte	0x5
 11116 040d B501     		.uleb128 0xb5
 11117 040f 07990000 		.4byte	.LASF644
 11118 0413 05       		.byte	0x5
 11119 0414 B601     		.uleb128 0xb6
 11120 0416 B8060000 		.4byte	.LASF645
 11121 041a 05       		.byte	0x5
 11122 041b B801     		.uleb128 0xb8
 11123 041d 38830000 		.4byte	.LASF646
 11124 0421 05       		.byte	0x5
 11125 0422 B901     		.uleb128 0xb9
 11126 0424 33670000 		.4byte	.LASF647
 11127 0428 05       		.byte	0x5
 11128 0429 BA01     		.uleb128 0xba
 11129 042b 0D900000 		.4byte	.LASF648
 11130 042f 05       		.byte	0x5
 11131 0430 BB01     		.uleb128 0xbb
 11132 0432 09930000 		.4byte	.LASF649
 11133 0436 05       		.byte	0x5
 11134 0437 BC01     		.uleb128 0xbc
 11135 0439 A10B0000 		.4byte	.LASF650
 11136 043d 05       		.byte	0x5
ARM GAS  /var/folders/9j/_txx49hn253_s3mnzkyxlj8m0000gp/T//ccxigpJH.s 			page 213


 11137 043e BD01     		.uleb128 0xbd
 11138 0440 FF210000 		.4byte	.LASF651
 11139 0444 05       		.byte	0x5
 11140 0445 BE01     		.uleb128 0xbe
 11141 0447 B24C0000 		.4byte	.LASF652
 11142 044b 05       		.byte	0x5
 11143 044c BF01     		.uleb128 0xbf
 11144 044e BC8C0000 		.4byte	.LASF653
 11145 0452 05       		.byte	0x5
 11146 0453 C001     		.uleb128 0xc0
 11147 0455 CF5F0000 		.4byte	.LASF654
 11148 0459 05       		.byte	0x5
 11149 045a C101     		.uleb128 0xc1
 11150 045c BE890000 		.4byte	.LASF655
 11151 0460 05       		.byte	0x5
 11152 0461 C201     		.uleb128 0xc2
 11153 0463 2D200000 		.4byte	.LASF656
 11154 0467 05       		.byte	0x5
 11155 0468 C301     		.uleb128 0xc3
 11156 046a 6D110000 		.4byte	.LASF657
 11157 046e 05       		.byte	0x5
 11158 046f C401     		.uleb128 0xc4
 11159 0471 A4670000 		.4byte	.LASF658
 11160 0475 05       		.byte	0x5
 11161 0476 C501     		.uleb128 0xc5
 11162 0478 D0460000 		.4byte	.LASF659
 11163 047c 05       		.byte	0x5
 11164 047d C601     		.uleb128 0xc6
 11165 047f 110F0000 		.4byte	.LASF660
 11166 0483 05       		.byte	0x5
 11167 0484 C701     		.uleb128 0xc7
 11168 0486 EA450000 		.4byte	.LASF661
 11169 048a 05       		.byte	0x5
 11170 048b C801     		.uleb128 0xc8
 11171 048d 42310000 		.4byte	.LASF662
 11172 0491 05       		.byte	0x5
 11173 0492 C901     		.uleb128 0xc9
 11174 0494 991B0000 		.4byte	.LASF663
 11175 0498 05       		.byte	0x5
 11176 0499 CA01     		.uleb128 0xca
 11177 049b 081F0000 		.4byte	.LASF664
 11178 049f 05       		.byte	0x5
 11179 04a0 CB01     		.uleb128 0xcb
 11180 04a2 B1990000 		.4byte	.LASF665
 11181 04a6 05       		.byte	0x5
 11182 04a7 CC01     		.uleb128 0xcc
 11183 04a9 49080000 		.4byte	.LASF666
 11184 04ad 05       		.byte	0x5
 11185 04ae CD01     		.uleb128 0xcd
 11186 04b0 AB150000 		.4byte	.LASF667
 11187 04b4 05       		.byte	0x5
 11188 04b5 CE01     		.uleb128 0xce
 11189 04b7 B46E0000 		.4byte	.LASF668
 11190 04bb 05       		.byte	0x5
 11191 04bc CF01     		.uleb128 0xcf
 11192 04be 40120000 		.4byte	.LASF669
 11193 04c2 05       		.byte	0x5
ARM GAS  /var/folders/9j/_txx49hn253_s3mnzkyxlj8m0000gp/T//ccxigpJH.s 			page 214


 11194 04c3 D001     		.uleb128 0xd0
 11195 04c5 DF7E0000 		.4byte	.LASF670
 11196 04c9 05       		.byte	0x5
 11197 04ca D101     		.uleb128 0xd1
 11198 04cc 42490000 		.4byte	.LASF671
 11199 04d0 05       		.byte	0x5
 11200 04d1 D201     		.uleb128 0xd2
 11201 04d3 62630000 		.4byte	.LASF672
 11202 04d7 05       		.byte	0x5
 11203 04d8 D301     		.uleb128 0xd3
 11204 04da BF8D0000 		.4byte	.LASF673
 11205 04de 05       		.byte	0x5
 11206 04df D401     		.uleb128 0xd4
 11207 04e1 EA320000 		.4byte	.LASF674
 11208 04e5 05       		.byte	0x5
 11209 04e6 D501     		.uleb128 0xd5
 11210 04e8 CE970000 		.4byte	.LASF675
 11211 04ec 05       		.byte	0x5
 11212 04ed D601     		.uleb128 0xd6
 11213 04ef 1B390000 		.4byte	.LASF676
 11214 04f3 05       		.byte	0x5
 11215 04f4 D701     		.uleb128 0xd7
 11216 04f6 C86D0000 		.4byte	.LASF677
 11217 04fa 05       		.byte	0x5
 11218 04fb D801     		.uleb128 0xd8
 11219 04fd 922D0000 		.4byte	.LASF678
 11220 0501 05       		.byte	0x5
 11221 0502 D901     		.uleb128 0xd9
 11222 0504 951D0000 		.4byte	.LASF679
 11223 0508 05       		.byte	0x5
 11224 0509 DA01     		.uleb128 0xda
 11225 050b 8C460000 		.4byte	.LASF680
 11226 050f 05       		.byte	0x5
 11227 0510 DB01     		.uleb128 0xdb
 11228 0512 483A0000 		.4byte	.LASF681
 11229 0516 05       		.byte	0x5
 11230 0517 DC01     		.uleb128 0xdc
 11231 0519 EE0C0000 		.4byte	.LASF682
 11232 051d 05       		.byte	0x5
 11233 051e DD01     		.uleb128 0xdd
 11234 0520 F2890000 		.4byte	.LASF683
 11235 0524 05       		.byte	0x5
 11236 0525 DE01     		.uleb128 0xde
 11237 0527 8C1E0000 		.4byte	.LASF684
 11238 052b 05       		.byte	0x5
 11239 052c DF01     		.uleb128 0xdf
 11240 052e 51740000 		.4byte	.LASF685
 11241 0532 05       		.byte	0x5
 11242 0533 E001     		.uleb128 0xe0
 11243 0535 FE6C0000 		.4byte	.LASF686
 11244 0539 05       		.byte	0x5
 11245 053a E101     		.uleb128 0xe1
 11246 053c 956D0000 		.4byte	.LASF687
 11247 0540 05       		.byte	0x5
 11248 0541 E201     		.uleb128 0xe2
 11249 0543 91890000 		.4byte	.LASF688
 11250 0547 05       		.byte	0x5
ARM GAS  /var/folders/9j/_txx49hn253_s3mnzkyxlj8m0000gp/T//ccxigpJH.s 			page 215


 11251 0548 E301     		.uleb128 0xe3
 11252 054a EB860000 		.4byte	.LASF689
 11253 054e 05       		.byte	0x5
 11254 054f E401     		.uleb128 0xe4
 11255 0551 BA120000 		.4byte	.LASF690
 11256 0555 05       		.byte	0x5
 11257 0556 E501     		.uleb128 0xe5
 11258 0558 C8510000 		.4byte	.LASF691
 11259 055c 05       		.byte	0x5
 11260 055d E601     		.uleb128 0xe6
 11261 055f F7390000 		.4byte	.LASF692
 11262 0563 05       		.byte	0x5
 11263 0564 E701     		.uleb128 0xe7
 11264 0566 58570000 		.4byte	.LASF693
 11265 056a 05       		.byte	0x5
 11266 056b E801     		.uleb128 0xe8
 11267 056d 7F6B0000 		.4byte	.LASF694
 11268 0571 05       		.byte	0x5
 11269 0572 E901     		.uleb128 0xe9
 11270 0574 876E0000 		.4byte	.LASF695
 11271 0578 05       		.byte	0x5
 11272 0579 EA01     		.uleb128 0xea
 11273 057b 954E0000 		.4byte	.LASF696
 11274 057f 05       		.byte	0x5
 11275 0580 EB01     		.uleb128 0xeb
 11276 0582 EC300000 		.4byte	.LASF697
 11277 0586 05       		.byte	0x5
 11278 0587 EC01     		.uleb128 0xec
 11279 0589 7A490000 		.4byte	.LASF698
 11280 058d 05       		.byte	0x5
 11281 058e ED01     		.uleb128 0xed
 11282 0590 81740000 		.4byte	.LASF699
 11283 0594 05       		.byte	0x5
 11284 0595 EE01     		.uleb128 0xee
 11285 0597 E4580000 		.4byte	.LASF700
 11286 059b 05       		.byte	0x5
 11287 059c EF01     		.uleb128 0xef
 11288 059e 92510000 		.4byte	.LASF701
 11289 05a2 05       		.byte	0x5
 11290 05a3 F001     		.uleb128 0xf0
 11291 05a5 A04A0000 		.4byte	.LASF702
 11292 05a9 05       		.byte	0x5
 11293 05aa F101     		.uleb128 0xf1
 11294 05ac A6620000 		.4byte	.LASF703
 11295 05b0 05       		.byte	0x5
 11296 05b1 F201     		.uleb128 0xf2
 11297 05b3 AA3B0000 		.4byte	.LASF704
 11298 05b7 05       		.byte	0x5
 11299 05b8 F301     		.uleb128 0xf3
 11300 05ba AA710000 		.4byte	.LASF705
 11301 05be 05       		.byte	0x5
 11302 05bf F401     		.uleb128 0xf4
 11303 05c1 DB4C0000 		.4byte	.LASF706
 11304 05c5 05       		.byte	0x5
 11305 05c6 F501     		.uleb128 0xf5
 11306 05c8 28890000 		.4byte	.LASF707
 11307 05cc 05       		.byte	0x5
ARM GAS  /var/folders/9j/_txx49hn253_s3mnzkyxlj8m0000gp/T//ccxigpJH.s 			page 216


 11308 05cd F601     		.uleb128 0xf6
 11309 05cf AD840000 		.4byte	.LASF708
 11310 05d3 05       		.byte	0x5
 11311 05d4 F701     		.uleb128 0xf7
 11312 05d6 1F090000 		.4byte	.LASF709
 11313 05da 05       		.byte	0x5
 11314 05db F801     		.uleb128 0xf8
 11315 05dd DA240000 		.4byte	.LASF710
 11316 05e1 05       		.byte	0x5
 11317 05e2 F901     		.uleb128 0xf9
 11318 05e4 AA440000 		.4byte	.LASF711
 11319 05e8 05       		.byte	0x5
 11320 05e9 FA01     		.uleb128 0xfa
 11321 05eb C0600000 		.4byte	.LASF712
 11322 05ef 05       		.byte	0x5
 11323 05f0 FB01     		.uleb128 0xfb
 11324 05f2 852A0000 		.4byte	.LASF713
 11325 05f6 05       		.byte	0x5
 11326 05f7 FC01     		.uleb128 0xfc
 11327 05f9 12340000 		.4byte	.LASF714
 11328 05fd 05       		.byte	0x5
 11329 05fe FD01     		.uleb128 0xfd
 11330 0600 AD170000 		.4byte	.LASF715
 11331 0604 05       		.byte	0x5
 11332 0605 FE01     		.uleb128 0xfe
 11333 0607 EF270000 		.4byte	.LASF716
 11334 060b 05       		.byte	0x5
 11335 060c FF01     		.uleb128 0xff
 11336 060e 7A840000 		.4byte	.LASF717
 11337 0612 05       		.byte	0x5
 11338 0613 8002     		.uleb128 0x100
 11339 0615 92130000 		.4byte	.LASF718
 11340 0619 05       		.byte	0x5
 11341 061a 8102     		.uleb128 0x101
 11342 061c 31110000 		.4byte	.LASF719
 11343 0620 05       		.byte	0x5
 11344 0621 8202     		.uleb128 0x102
 11345 0623 B22B0000 		.4byte	.LASF720
 11346 0627 05       		.byte	0x5
 11347 0628 8302     		.uleb128 0x103
 11348 062a 011B0000 		.4byte	.LASF721
 11349 062e 05       		.byte	0x5
 11350 062f 8402     		.uleb128 0x104
 11351 0631 737A0000 		.4byte	.LASF722
 11352 0635 05       		.byte	0x5
 11353 0636 8502     		.uleb128 0x105
 11354 0638 130D0000 		.4byte	.LASF723
 11355 063c 05       		.byte	0x5
 11356 063d 8602     		.uleb128 0x106
 11357 063f 2C440000 		.4byte	.LASF724
 11358 0643 05       		.byte	0x5
 11359 0644 8702     		.uleb128 0x107
 11360 0646 56240000 		.4byte	.LASF725
 11361 064a 05       		.byte	0x5
 11362 064b 8802     		.uleb128 0x108
 11363 064d 1D370000 		.4byte	.LASF726
 11364 0651 05       		.byte	0x5
ARM GAS  /var/folders/9j/_txx49hn253_s3mnzkyxlj8m0000gp/T//ccxigpJH.s 			page 217


 11365 0652 8902     		.uleb128 0x109
 11366 0654 8C700000 		.4byte	.LASF727
 11367 0658 05       		.byte	0x5
 11368 0659 8A02     		.uleb128 0x10a
 11369 065b D40B0000 		.4byte	.LASF728
 11370 065f 05       		.byte	0x5
 11371 0660 8B02     		.uleb128 0x10b
 11372 0662 8A3D0000 		.4byte	.LASF729
 11373 0666 05       		.byte	0x5
 11374 0667 8C02     		.uleb128 0x10c
 11375 0669 51140000 		.4byte	.LASF730
 11376 066d 05       		.byte	0x5
 11377 066e 8D02     		.uleb128 0x10d
 11378 0670 F6420000 		.4byte	.LASF731
 11379 0674 05       		.byte	0x5
 11380 0675 8E02     		.uleb128 0x10e
 11381 0677 1F610000 		.4byte	.LASF732
 11382 067b 05       		.byte	0x5
 11383 067c 8F02     		.uleb128 0x10f
 11384 067e B6430000 		.4byte	.LASF733
 11385 0682 05       		.byte	0x5
 11386 0683 9002     		.uleb128 0x110
 11387 0685 18780000 		.4byte	.LASF734
 11388 0689 05       		.byte	0x5
 11389 068a 9102     		.uleb128 0x111
 11390 068c 90600000 		.4byte	.LASF735
 11391 0690 05       		.byte	0x5
 11392 0691 9202     		.uleb128 0x112
 11393 0693 83800000 		.4byte	.LASF736
 11394 0697 05       		.byte	0x5
 11395 0698 9302     		.uleb128 0x113
 11396 069a C7280000 		.4byte	.LASF737
 11397 069e 05       		.byte	0x5
 11398 069f 9402     		.uleb128 0x114
 11399 06a1 607F0000 		.4byte	.LASF738
 11400 06a5 05       		.byte	0x5
 11401 06a6 9502     		.uleb128 0x115
 11402 06a8 87480000 		.4byte	.LASF739
 11403 06ac 05       		.byte	0x5
 11404 06ad 9602     		.uleb128 0x116
 11405 06af 2E300000 		.4byte	.LASF740
 11406 06b3 05       		.byte	0x5
 11407 06b4 9702     		.uleb128 0x117
 11408 06b6 11580000 		.4byte	.LASF741
 11409 06ba 05       		.byte	0x5
 11410 06bb 9802     		.uleb128 0x118
 11411 06bd 3C410000 		.4byte	.LASF742
 11412 06c1 05       		.byte	0x5
 11413 06c2 9902     		.uleb128 0x119
 11414 06c4 54210000 		.4byte	.LASF743
 11415 06c8 05       		.byte	0x5
 11416 06c9 9A02     		.uleb128 0x11a
 11417 06cb DA790000 		.4byte	.LASF744
 11418 06cf 05       		.byte	0x5
 11419 06d0 9B02     		.uleb128 0x11b
 11420 06d2 DE3E0000 		.4byte	.LASF745
 11421 06d6 05       		.byte	0x5
ARM GAS  /var/folders/9j/_txx49hn253_s3mnzkyxlj8m0000gp/T//ccxigpJH.s 			page 218


 11422 06d7 9C02     		.uleb128 0x11c
 11423 06d9 C7570000 		.4byte	.LASF746
 11424 06dd 05       		.byte	0x5
 11425 06de 9D02     		.uleb128 0x11d
 11426 06e0 DD740000 		.4byte	.LASF747
 11427 06e4 05       		.byte	0x5
 11428 06e5 9E02     		.uleb128 0x11e
 11429 06e7 F2010000 		.4byte	.LASF748
 11430 06eb 05       		.byte	0x5
 11431 06ec 9F02     		.uleb128 0x11f
 11432 06ee 80220000 		.4byte	.LASF749
 11433 06f2 05       		.byte	0x5
 11434 06f3 A002     		.uleb128 0x120
 11435 06f5 8E160000 		.4byte	.LASF750
 11436 06f9 05       		.byte	0x5
 11437 06fa A102     		.uleb128 0x121
 11438 06fc 88520000 		.4byte	.LASF751
 11439 0700 05       		.byte	0x5
 11440 0701 A202     		.uleb128 0x122
 11441 0703 503F0000 		.4byte	.LASF752
 11442 0707 05       		.byte	0x5
 11443 0708 A302     		.uleb128 0x123
 11444 070a 12690000 		.4byte	.LASF753
 11445 070e 05       		.byte	0x5
 11446 070f A402     		.uleb128 0x124
 11447 0711 20800000 		.4byte	.LASF754
 11448 0715 05       		.byte	0x5
 11449 0716 A502     		.uleb128 0x125
 11450 0718 C8730000 		.4byte	.LASF755
 11451 071c 05       		.byte	0x5
 11452 071d A602     		.uleb128 0x126
 11453 071f 37060000 		.4byte	.LASF756
 11454 0723 05       		.byte	0x5
 11455 0724 A702     		.uleb128 0x127
 11456 0726 687B0000 		.4byte	.LASF757
 11457 072a 05       		.byte	0x5
 11458 072b A802     		.uleb128 0x128
 11459 072d 564D0000 		.4byte	.LASF758
 11460 0731 05       		.byte	0x5
 11461 0732 A902     		.uleb128 0x129
 11462 0734 61200000 		.4byte	.LASF759
 11463 0738 05       		.byte	0x5
 11464 0739 AA02     		.uleb128 0x12a
 11465 073b D8410000 		.4byte	.LASF760
 11466 073f 05       		.byte	0x5
 11467 0740 AB02     		.uleb128 0x12b
 11468 0742 CD0F0000 		.4byte	.LASF761
 11469 0746 05       		.byte	0x5
 11470 0747 AC02     		.uleb128 0x12c
 11471 0749 9C200000 		.4byte	.LASF762
 11472 074d 05       		.byte	0x5
 11473 074e AD02     		.uleb128 0x12d
 11474 0750 FE8D0000 		.4byte	.LASF763
 11475 0754 05       		.byte	0x5
 11476 0755 AE02     		.uleb128 0x12e
 11477 0757 00770000 		.4byte	.LASF764
 11478 075b 05       		.byte	0x5
ARM GAS  /var/folders/9j/_txx49hn253_s3mnzkyxlj8m0000gp/T//ccxigpJH.s 			page 219


 11479 075c AF02     		.uleb128 0x12f
 11480 075e 08860000 		.4byte	.LASF765
 11481 0762 05       		.byte	0x5
 11482 0763 B002     		.uleb128 0x130
 11483 0765 77850000 		.4byte	.LASF766
 11484 0769 05       		.byte	0x5
 11485 076a B102     		.uleb128 0x131
 11486 076c F8910000 		.4byte	.LASF767
 11487 0770 05       		.byte	0x5
 11488 0771 B302     		.uleb128 0x133
 11489 0773 8C900000 		.4byte	.LASF768
 11490 0777 05       		.byte	0x5
 11491 0778 B402     		.uleb128 0x134
 11492 077a 03390000 		.4byte	.LASF769
 11493 077e 05       		.byte	0x5
 11494 077f B502     		.uleb128 0x135
 11495 0781 8A020000 		.4byte	.LASF770
 11496 0785 05       		.byte	0x5
 11497 0786 B602     		.uleb128 0x136
 11498 0788 B2400000 		.4byte	.LASF771
 11499 078c 05       		.byte	0x5
 11500 078d B702     		.uleb128 0x137
 11501 078f BD2D0000 		.4byte	.LASF772
 11502 0793 05       		.byte	0x5
 11503 0794 B802     		.uleb128 0x138
 11504 0796 A7410000 		.4byte	.LASF773
 11505 079a 05       		.byte	0x5
 11506 079b B902     		.uleb128 0x139
 11507 079d E82D0000 		.4byte	.LASF774
 11508 07a1 05       		.byte	0x5
 11509 07a2 BA02     		.uleb128 0x13a
 11510 07a4 9A1A0000 		.4byte	.LASF775
 11511 07a8 05       		.byte	0x5
 11512 07a9 BB02     		.uleb128 0x13b
 11513 07ab 6D7D0000 		.4byte	.LASF776
 11514 07af 05       		.byte	0x5
 11515 07b0 BC02     		.uleb128 0x13c
 11516 07b2 C5640000 		.4byte	.LASF777
 11517 07b6 05       		.byte	0x5
 11518 07b7 BD02     		.uleb128 0x13d
 11519 07b9 4E220000 		.4byte	.LASF778
 11520 07bd 05       		.byte	0x5
 11521 07be BE02     		.uleb128 0x13e
 11522 07c0 9D5D0000 		.4byte	.LASF779
 11523 07c4 05       		.byte	0x5
 11524 07c5 BF02     		.uleb128 0x13f
 11525 07c7 53090000 		.4byte	.LASF780
 11526 07cb 05       		.byte	0x5
 11527 07cc C002     		.uleb128 0x140
 11528 07ce EE000000 		.4byte	.LASF781
 11529 07d2 05       		.byte	0x5
 11530 07d3 C102     		.uleb128 0x141
 11531 07d5 C56B0000 		.4byte	.LASF782
 11532 07d9 05       		.byte	0x5
 11533 07da C302     		.uleb128 0x143
 11534 07dc 29400000 		.4byte	.LASF783
 11535 07e0 05       		.byte	0x5
ARM GAS  /var/folders/9j/_txx49hn253_s3mnzkyxlj8m0000gp/T//ccxigpJH.s 			page 220


 11536 07e1 C402     		.uleb128 0x144
 11537 07e3 C3370000 		.4byte	.LASF784
 11538 07e7 05       		.byte	0x5
 11539 07e8 C502     		.uleb128 0x145
 11540 07ea 771A0000 		.4byte	.LASF785
 11541 07ee 05       		.byte	0x5
 11542 07ef C602     		.uleb128 0x146
 11543 07f1 E38C0000 		.4byte	.LASF786
 11544 07f5 05       		.byte	0x5
 11545 07f6 C702     		.uleb128 0x147
 11546 07f8 33770000 		.4byte	.LASF787
 11547 07fc 05       		.byte	0x5
 11548 07fd C802     		.uleb128 0x148
 11549 07ff A8250000 		.4byte	.LASF788
 11550 0803 05       		.byte	0x5
 11551 0804 C902     		.uleb128 0x149
 11552 0806 243A0000 		.4byte	.LASF789
 11553 080a 05       		.byte	0x5
 11554 080b CA02     		.uleb128 0x14a
 11555 080d DD6E0000 		.4byte	.LASF790
 11556 0811 05       		.byte	0x5
 11557 0812 CB02     		.uleb128 0x14b
 11558 0814 835E0000 		.4byte	.LASF791
 11559 0818 05       		.byte	0x5
 11560 0819 CC02     		.uleb128 0x14c
 11561 081b 0E550000 		.4byte	.LASF792
 11562 081f 05       		.byte	0x5
 11563 0820 CE02     		.uleb128 0x14e
 11564 0822 73870000 		.4byte	.LASF793
 11565 0826 05       		.byte	0x5
 11566 0827 CF02     		.uleb128 0x14f
 11567 0829 D81D0000 		.4byte	.LASF794
 11568 082d 05       		.byte	0x5
 11569 082e D002     		.uleb128 0x150
 11570 0830 6F8B0000 		.4byte	.LASF795
 11571 0834 05       		.byte	0x5
 11572 0835 D102     		.uleb128 0x151
 11573 0837 CF4A0000 		.4byte	.LASF796
 11574 083b 05       		.byte	0x5
 11575 083c D202     		.uleb128 0x152
 11576 083e B58B0000 		.4byte	.LASF797
 11577 0842 05       		.byte	0x5
 11578 0843 D302     		.uleb128 0x153
 11579 0845 94320000 		.4byte	.LASF798
 11580 0849 05       		.byte	0x5
 11581 084a D502     		.uleb128 0x155
 11582 084c A66C0000 		.4byte	.LASF799
 11583 0850 05       		.byte	0x5
 11584 0851 D602     		.uleb128 0x156
 11585 0853 7A820000 		.4byte	.LASF800
 11586 0857 05       		.byte	0x5
 11587 0858 D702     		.uleb128 0x157
 11588 085a F2720000 		.4byte	.LASF801
 11589 085e 05       		.byte	0x5
 11590 085f D802     		.uleb128 0x158
 11591 0861 6E4F0000 		.4byte	.LASF802
 11592 0865 05       		.byte	0x5
ARM GAS  /var/folders/9j/_txx49hn253_s3mnzkyxlj8m0000gp/T//ccxigpJH.s 			page 221


 11593 0866 D902     		.uleb128 0x159
 11594 0868 22710000 		.4byte	.LASF803
 11595 086c 05       		.byte	0x5
 11596 086d DA02     		.uleb128 0x15a
 11597 086f 378F0000 		.4byte	.LASF804
 11598 0873 05       		.byte	0x5
 11599 0874 DB02     		.uleb128 0x15b
 11600 0876 A22C0000 		.4byte	.LASF805
 11601 087a 05       		.byte	0x5
 11602 087b DC02     		.uleb128 0x15c
 11603 087d 165F0000 		.4byte	.LASF806
 11604 0881 05       		.byte	0x5
 11605 0882 DD02     		.uleb128 0x15d
 11606 0884 C5320000 		.4byte	.LASF807
 11607 0888 05       		.byte	0x5
 11608 0889 DE02     		.uleb128 0x15e
 11609 088b 8C680000 		.4byte	.LASF808
 11610 088f 05       		.byte	0x5
 11611 0890 DF02     		.uleb128 0x15f
 11612 0892 04170000 		.4byte	.LASF809
 11613 0896 05       		.byte	0x5
 11614 0897 E002     		.uleb128 0x160
 11615 0899 938F0000 		.4byte	.LASF810
 11616 089d 05       		.byte	0x5
 11617 089e E102     		.uleb128 0x161
 11618 08a0 F5710000 		.4byte	.LASF811
 11619 08a4 05       		.byte	0x5
 11620 08a5 E202     		.uleb128 0x162
 11621 08a7 367E0000 		.4byte	.LASF812
 11622 08ab 05       		.byte	0x5
 11623 08ac E302     		.uleb128 0x163
 11624 08ae DC260000 		.4byte	.LASF813
 11625 08b2 05       		.byte	0x5
 11626 08b3 E402     		.uleb128 0x164
 11627 08b5 C7560000 		.4byte	.LASF814
 11628 08b9 05       		.byte	0x5
 11629 08ba E502     		.uleb128 0x165
 11630 08bc F9650000 		.4byte	.LASF815
 11631 08c0 05       		.byte	0x5
 11632 08c1 E602     		.uleb128 0x166
 11633 08c3 AE790000 		.4byte	.LASF816
 11634 08c7 05       		.byte	0x5
 11635 08c8 E702     		.uleb128 0x167
 11636 08ca 305E0000 		.4byte	.LASF817
 11637 08ce 05       		.byte	0x5
 11638 08cf E902     		.uleb128 0x169
 11639 08d1 5E860000 		.4byte	.LASF818
 11640 08d5 05       		.byte	0x5
 11641 08d6 EA02     		.uleb128 0x16a
 11642 08d8 D9230000 		.4byte	.LASF819
 11643 08dc 05       		.byte	0x5
 11644 08dd EB02     		.uleb128 0x16b
 11645 08df 635C0000 		.4byte	.LASF820
 11646 08e3 05       		.byte	0x5
 11647 08e4 EC02     		.uleb128 0x16c
 11648 08e6 284B0000 		.4byte	.LASF821
 11649 08ea 05       		.byte	0x5
ARM GAS  /var/folders/9j/_txx49hn253_s3mnzkyxlj8m0000gp/T//ccxigpJH.s 			page 222


 11650 08eb ED02     		.uleb128 0x16d
 11651 08ed D5070000 		.4byte	.LASF822
 11652 08f1 05       		.byte	0x5
 11653 08f2 EE02     		.uleb128 0x16e
 11654 08f4 5C760000 		.4byte	.LASF823
 11655 08f8 05       		.byte	0x5
 11656 08f9 EF02     		.uleb128 0x16f
 11657 08fb 62930000 		.4byte	.LASF824
 11658 08ff 05       		.byte	0x5
 11659 0900 F002     		.uleb128 0x170
 11660 0902 18410000 		.4byte	.LASF825
 11661 0906 05       		.byte	0x5
 11662 0907 F102     		.uleb128 0x171
 11663 0909 95100000 		.4byte	.LASF826
 11664 090d 05       		.byte	0x5
 11665 090e F202     		.uleb128 0x172
 11666 0910 E84F0000 		.4byte	.LASF827
 11667 0914 05       		.byte	0x5
 11668 0915 F302     		.uleb128 0x173
 11669 0917 41160000 		.4byte	.LASF828
 11670 091b 05       		.byte	0x5
 11671 091c F402     		.uleb128 0x174
 11672 091e CA050000 		.4byte	.LASF829
 11673 0922 05       		.byte	0x5
 11674 0923 F502     		.uleb128 0x175
 11675 0925 ED930000 		.4byte	.LASF830
 11676 0929 05       		.byte	0x5
 11677 092a F602     		.uleb128 0x176
 11678 092c 934D0000 		.4byte	.LASF831
 11679 0930 05       		.byte	0x5
 11680 0931 F702     		.uleb128 0x177
 11681 0933 98090000 		.4byte	.LASF832
 11682 0937 05       		.byte	0x5
 11683 0938 F802     		.uleb128 0x178
 11684 093a AB6A0000 		.4byte	.LASF833
 11685 093e 05       		.byte	0x5
 11686 093f F902     		.uleb128 0x179
 11687 0941 2B000000 		.4byte	.LASF834
 11688 0945 05       		.byte	0x5
 11689 0946 FA02     		.uleb128 0x17a
 11690 0948 4E2D0000 		.4byte	.LASF835
 11691 094c 05       		.byte	0x5
 11692 094d FB02     		.uleb128 0x17b
 11693 094f BA3E0000 		.4byte	.LASF836
 11694 0953 05       		.byte	0x5
 11695 0954 FC02     		.uleb128 0x17c
 11696 0956 586B0000 		.4byte	.LASF837
 11697 095a 05       		.byte	0x5
 11698 095b FD02     		.uleb128 0x17d
 11699 095d 086E0000 		.4byte	.LASF838
 11700 0961 05       		.byte	0x5
 11701 0962 FE02     		.uleb128 0x17e
 11702 0964 B52F0000 		.4byte	.LASF839
 11703 0968 05       		.byte	0x5
 11704 0969 FF02     		.uleb128 0x17f
 11705 096b BE0D0000 		.4byte	.LASF840
 11706 096f 05       		.byte	0x5
ARM GAS  /var/folders/9j/_txx49hn253_s3mnzkyxlj8m0000gp/T//ccxigpJH.s 			page 223


 11707 0970 8003     		.uleb128 0x180
 11708 0972 5D800000 		.4byte	.LASF841
 11709 0976 05       		.byte	0x5
 11710 0977 8103     		.uleb128 0x181
 11711 0979 EA590000 		.4byte	.LASF842
 11712 097d 05       		.byte	0x5
 11713 097e 8203     		.uleb128 0x182
 11714 0980 B3180000 		.4byte	.LASF843
 11715 0984 05       		.byte	0x5
 11716 0985 8303     		.uleb128 0x183
 11717 0987 C0540000 		.4byte	.LASF844
 11718 098b 05       		.byte	0x5
 11719 098c 8503     		.uleb128 0x185
 11720 098e 8F0C0000 		.4byte	.LASF845
 11721 0992 05       		.byte	0x5
 11722 0993 8603     		.uleb128 0x186
 11723 0995 8C630000 		.4byte	.LASF846
 11724 0999 05       		.byte	0x5
 11725 099a 8703     		.uleb128 0x187
 11726 099c FF260000 		.4byte	.LASF847
 11727 09a0 05       		.byte	0x5
 11728 09a1 8803     		.uleb128 0x188
 11729 09a3 67160000 		.4byte	.LASF848
 11730 09a7 05       		.byte	0x5
 11731 09a8 8903     		.uleb128 0x189
 11732 09aa 878D0000 		.4byte	.LASF849
 11733 09ae 05       		.byte	0x5
 11734 09af 8A03     		.uleb128 0x18a
 11735 09b1 EA190000 		.4byte	.LASF850
 11736 09b5 05       		.byte	0x5
 11737 09b6 8B03     		.uleb128 0x18b
 11738 09b8 E80D0000 		.4byte	.LASF851
 11739 09bc 05       		.byte	0x5
 11740 09bd 8C03     		.uleb128 0x18c
 11741 09bf 0B8B0000 		.4byte	.LASF852
 11742 09c3 05       		.byte	0x5
 11743 09c4 8D03     		.uleb128 0x18d
 11744 09c6 00570000 		.4byte	.LASF853
 11745 09ca 05       		.byte	0x5
 11746 09cb 8E03     		.uleb128 0x18e
 11747 09cd 3E3B0000 		.4byte	.LASF854
 11748 09d1 05       		.byte	0x5
 11749 09d2 8F03     		.uleb128 0x18f
 11750 09d4 24360000 		.4byte	.LASF855
 11751 09d8 05       		.byte	0x5
 11752 09d9 9003     		.uleb128 0x190
 11753 09db 260C0000 		.4byte	.LASF856
 11754 09df 05       		.byte	0x5
 11755 09e0 9103     		.uleb128 0x191
 11756 09e2 CE660000 		.4byte	.LASF857
 11757 09e6 05       		.byte	0x5
 11758 09e7 9203     		.uleb128 0x192
 11759 09e9 A3030000 		.4byte	.LASF858
 11760 09ed 05       		.byte	0x5
 11761 09ee 9303     		.uleb128 0x193
 11762 09f0 50470000 		.4byte	.LASF859
 11763 09f4 05       		.byte	0x5
ARM GAS  /var/folders/9j/_txx49hn253_s3mnzkyxlj8m0000gp/T//ccxigpJH.s 			page 224


 11764 09f5 9403     		.uleb128 0x194
 11765 09f7 AC930000 		.4byte	.LASF860
 11766 09fb 05       		.byte	0x5
 11767 09fc 9503     		.uleb128 0x195
 11768 09fe AD080000 		.4byte	.LASF861
 11769 0a02 05       		.byte	0x5
 11770 0a03 9603     		.uleb128 0x196
 11771 0a05 4B850000 		.4byte	.LASF862
 11772 0a09 05       		.byte	0x5
 11773 0a0a 9703     		.uleb128 0x197
 11774 0a0c C9700000 		.4byte	.LASF863
 11775 0a10 05       		.byte	0x5
 11776 0a11 9803     		.uleb128 0x198
 11777 0a13 4A950000 		.4byte	.LASF864
 11778 0a17 05       		.byte	0x5
 11779 0a18 9903     		.uleb128 0x199
 11780 0a1a A57C0000 		.4byte	.LASF865
 11781 0a1e 05       		.byte	0x5
 11782 0a1f 9A03     		.uleb128 0x19a
 11783 0a21 4B730000 		.4byte	.LASF866
 11784 0a25 05       		.byte	0x5
 11785 0a26 9B03     		.uleb128 0x19b
 11786 0a28 C05D0000 		.4byte	.LASF867
 11787 0a2c 05       		.byte	0x5
 11788 0a2d 9C03     		.uleb128 0x19c
 11789 0a2f 104D0000 		.4byte	.LASF868
 11790 0a33 05       		.byte	0x5
 11791 0a34 9D03     		.uleb128 0x19d
 11792 0a36 555E0000 		.4byte	.LASF869
 11793 0a3a 05       		.byte	0x5
 11794 0a3b 9E03     		.uleb128 0x19e
 11795 0a3d 715D0000 		.4byte	.LASF870
 11796 0a41 05       		.byte	0x5
 11797 0a42 9F03     		.uleb128 0x19f
 11798 0a44 11740000 		.4byte	.LASF871
 11799 0a48 05       		.byte	0x5
 11800 0a49 A003     		.uleb128 0x1a0
 11801 0a4b 89830000 		.4byte	.LASF872
 11802 0a4f 05       		.byte	0x5
 11803 0a50 A103     		.uleb128 0x1a1
 11804 0a52 9D3C0000 		.4byte	.LASF873
 11805 0a56 05       		.byte	0x5
 11806 0a57 A203     		.uleb128 0x1a2
 11807 0a59 087F0000 		.4byte	.LASF874
 11808 0a5d 05       		.byte	0x5
 11809 0a5e A303     		.uleb128 0x1a3
 11810 0a60 B7770000 		.4byte	.LASF875
 11811 0a64 05       		.byte	0x5
 11812 0a65 A403     		.uleb128 0x1a4
 11813 0a67 A38A0000 		.4byte	.LASF876
 11814 0a6b 05       		.byte	0x5
 11815 0a6c A603     		.uleb128 0x1a6
 11816 0a6e 2C970000 		.4byte	.LASF877
 11817 0a72 05       		.byte	0x5
 11818 0a73 A703     		.uleb128 0x1a7
 11819 0a75 D6550000 		.4byte	.LASF878
 11820 0a79 05       		.byte	0x5
ARM GAS  /var/folders/9j/_txx49hn253_s3mnzkyxlj8m0000gp/T//ccxigpJH.s 			page 225


 11821 0a7a A803     		.uleb128 0x1a8
 11822 0a7c 5F770000 		.4byte	.LASF879
 11823 0a80 05       		.byte	0x5
 11824 0a81 A903     		.uleb128 0x1a9
 11825 0a83 82430000 		.4byte	.LASF880
 11826 0a87 05       		.byte	0x5
 11827 0a88 AA03     		.uleb128 0x1aa
 11828 0a8a 639A0000 		.4byte	.LASF881
 11829 0a8e 05       		.byte	0x5
 11830 0a8f AB03     		.uleb128 0x1ab
 11831 0a91 10620000 		.4byte	.LASF882
 11832 0a95 05       		.byte	0x5
 11833 0a96 AC03     		.uleb128 0x1ac
 11834 0a98 60030000 		.4byte	.LASF883
 11835 0a9c 05       		.byte	0x5
 11836 0a9d AD03     		.uleb128 0x1ad
 11837 0a9f 065E0000 		.4byte	.LASF884
 11838 0aa3 05       		.byte	0x5
 11839 0aa4 AE03     		.uleb128 0x1ae
 11840 0aa6 DF8B0000 		.4byte	.LASF885
 11841 0aaa 05       		.byte	0x5
 11842 0aab AF03     		.uleb128 0x1af
 11843 0aad D0520000 		.4byte	.LASF886
 11844 0ab1 05       		.byte	0x5
 11845 0ab2 B103     		.uleb128 0x1b1
 11846 0ab4 5D970000 		.4byte	.LASF887
 11847 0ab8 05       		.byte	0x5
 11848 0ab9 B203     		.uleb128 0x1b2
 11849 0abb F75E0000 		.4byte	.LASF888
 11850 0abf 05       		.byte	0x5
 11851 0ac0 B303     		.uleb128 0x1b3
 11852 0ac2 BE420000 		.4byte	.LASF889
 11853 0ac6 05       		.byte	0x5
 11854 0ac7 B403     		.uleb128 0x1b4
 11855 0ac9 E2110000 		.4byte	.LASF890
 11856 0acd 05       		.byte	0x5
 11857 0ace B503     		.uleb128 0x1b5
 11858 0ad0 E6100000 		.4byte	.LASF891
 11859 0ad4 05       		.byte	0x5
 11860 0ad5 B603     		.uleb128 0x1b6
 11861 0ad7 16280000 		.4byte	.LASF892
 11862 0adb 05       		.byte	0x5
 11863 0adc B803     		.uleb128 0x1b8
 11864 0ade FA840000 		.4byte	.LASF893
 11865 0ae2 05       		.byte	0x5
 11866 0ae3 B903     		.uleb128 0x1b9
 11867 0ae5 282E0000 		.4byte	.LASF894
 11868 0ae9 05       		.byte	0x5
 11869 0aea BA03     		.uleb128 0x1ba
 11870 0aec 31460000 		.4byte	.LASF895
 11871 0af0 05       		.byte	0x5
 11872 0af1 BB03     		.uleb128 0x1bb
 11873 0af3 B7920000 		.4byte	.LASF896
 11874 0af7 05       		.byte	0x5
 11875 0af8 BC03     		.uleb128 0x1bc
 11876 0afa 74390000 		.4byte	.LASF897
 11877 0afe 05       		.byte	0x5
ARM GAS  /var/folders/9j/_txx49hn253_s3mnzkyxlj8m0000gp/T//ccxigpJH.s 			page 226


 11878 0aff BD03     		.uleb128 0x1bd
 11879 0b01 608D0000 		.4byte	.LASF898
 11880 0b05 05       		.byte	0x5
 11881 0b06 BF03     		.uleb128 0x1bf
 11882 0b08 676F0000 		.4byte	.LASF899
 11883 0b0c 05       		.byte	0x5
 11884 0b0d C003     		.uleb128 0x1c0
 11885 0b0f 9F330000 		.4byte	.LASF900
 11886 0b13 05       		.byte	0x5
 11887 0b14 C103     		.uleb128 0x1c1
 11888 0b16 0D3B0000 		.4byte	.LASF901
 11889 0b1a 05       		.byte	0x5
 11890 0b1b C203     		.uleb128 0x1c2
 11891 0b1d 3F2E0000 		.4byte	.LASF902
 11892 0b21 05       		.byte	0x5
 11893 0b22 C303     		.uleb128 0x1c3
 11894 0b24 E08F0000 		.4byte	.LASF903
 11895 0b28 05       		.byte	0x5
 11896 0b29 C403     		.uleb128 0x1c4
 11897 0b2b F7350000 		.4byte	.LASF904
 11898 0b2f 05       		.byte	0x5
 11899 0b30 C503     		.uleb128 0x1c5
 11900 0b32 30010000 		.4byte	.LASF905
 11901 0b36 05       		.byte	0x5
 11902 0b37 C603     		.uleb128 0x1c6
 11903 0b39 59460000 		.4byte	.LASF906
 11904 0b3d 05       		.byte	0x5
 11905 0b3e C703     		.uleb128 0x1c7
 11906 0b40 8A420000 		.4byte	.LASF907
 11907 0b44 05       		.byte	0x5
 11908 0b45 C803     		.uleb128 0x1c8
 11909 0b47 C20C0000 		.4byte	.LASF908
 11910 0b4b 00       		.byte	0
 11911              		.section	.debug_line,"",%progbits
 11912              	.Ldebug_line0:
 11913 0000 6A070000 		.section	.debug_str,"MS",%progbits,1
 11913      02009D02 
 11913      00000201 
 11913      FB0E0D00 
 11913      01010101 
 11914              	.LASF457:
 11915 0000 57494E54 		.ascii	"WINT_MIN (__WINT_MIN__)\000"
 11915      5F4D494E 
 11915      20285F5F 
 11915      57494E54 
 11915      5F4D494E 
 11916              	.LASF158:
 11917 0018 5F5F4445 		.ascii	"__DECIMAL_DIG__ 17\000"
 11917      43494D41 
 11917      4C5F4449 
 11917      475F5F20 
 11917      313700
 11918              	.LASF834:
 11919 002b 5F5F424D 		.ascii	"__BMS_HEARTBEAT__FAN_ENABLE__end 13\000"
 11919      535F4845 
 11919      41525442 
 11919      4541545F 
ARM GAS  /var/folders/9j/_txx49hn253_s3mnzkyxlj8m0000gp/T//ccxigpJH.s 			page 227


 11919      5F46414E 
 11920              	.LASF295:
 11921 004f 5F5F5548 		.ascii	"__UHA_FBIT__ 8\000"
 11921      415F4642 
 11921      49545F5F 
 11921      203800
 11922              	.LASF462:
 11923 005e 494E5433 		.ascii	"INT32_C(x) __INT32_C(x)\000"
 11923      325F4328 
 11923      7829205F 
 11923      5F494E54 
 11923      33325F43 
 11924              	.LASF933:
 11925 0076 696E7438 		.ascii	"int8_t\000"
 11925      5F7400
 11926              	.LASF1200:
 11927 007d 43616E5F 		.ascii	"Can_MC_State_ToCan\000"
 11927      4D435F53 
 11927      74617465 
 11927      5F546F43 
 11927      616E00
 11928              	.LASF111:
 11929 0090 5F5F494E 		.ascii	"__INT_FAST32_MAX__ 2147483647\000"
 11929      545F4641 
 11929      53543332 
 11929      5F4D4158 
 11929      5F5F2032 
 11930              	.LASF921:
 11931 00ae 756E7369 		.ascii	"unsigned char\000"
 11931      676E6564 
 11931      20636861 
 11931      7200
 11932              	.LASF74:
 11933 00bc 5F5F5743 		.ascii	"__WCHAR_MIN__ 0U\000"
 11933      4841525F 
 11933      4D494E5F 
 11933      5F203055 
 11933      00
 11934              	.LASF311:
 11935 00cd 5F5F4743 		.ascii	"__GCC_ATOMIC_WCHAR_T_LOCK_FREE 1\000"
 11935      435F4154 
 11935      4F4D4943 
 11935      5F574348 
 11935      41525F54 
 11936              	.LASF781:
 11937 00ee 5F5F5F5F 		.ascii	"____VCU_MC_MESSAGE__DATA_2__DATA_HIGH_BYTE__FROM 0\000"
 11937      5643555F 
 11937      4D435F4D 
 11937      45535341 
 11937      47455F5F 
 11938              	.LASF294:
 11939 0121 5F5F5441 		.ascii	"__TA_IBIT__ 64\000"
 11939      5F494249 
 11939      545F5F20 
 11939      363400
 11940              	.LASF905:
 11941 0130 5F5F5F5F 		.ascii	"____DASH_REQUEST__REQUEST_TYPE__RTD_DISABLE 2\000"
ARM GAS  /var/folders/9j/_txx49hn253_s3mnzkyxlj8m0000gp/T//ccxigpJH.s 			page 228


 11941      44415348 
 11941      5F524551 
 11941      55455354 
 11941      5F5F5245 
 11942              	.LASF1193:
 11943 015e 43616E5F 		.ascii	"Can_Dash_Heartbeat_FromCan\000"
 11943      44617368 
 11943      5F486561 
 11943      72746265 
 11943      61745F46 
 11944              	.LASF574:
 11945 0179 5F5F5F5F 		.ascii	"____FRONT_CAN_NODE_WHEEL_SPEED__FRONT_LEFT_WHEEL_SP"
 11945      46524F4E 
 11945      545F4341 
 11945      4E5F4E4F 
 11945      44455F57 
 11946 01ac 4545445F 		.ascii	"EED__FRONT_LEFT_WHEEL_SPEED__TO 4294967295\000"
 11946      5F46524F 
 11946      4E545F4C 
 11946      4546545F 
 11946      57484545 
 11947              	.LASF187:
 11948 01d7 5F5F5346 		.ascii	"__SFRACT_FBIT__ 7\000"
 11948      52414354 
 11948      5F464249 
 11948      545F5F20 
 11948      3700
 11949              	.LASF941:
 11950 01e9 73697A65 		.ascii	"sizetype\000"
 11950      74797065 
 11950      00
 11951              	.LASF748:
 11952 01f2 5F5F5F5F 		.ascii	"____VCU_DASH_HEARTBEAT__RESET_LATCH_OPEN__CLOSED 0\000"
 11952      5643555F 
 11952      44415348 
 11952      5F484541 
 11952      52544245 
 11953              	.LASF72:
 11954 0225 5F5F4C4F 		.ascii	"__LONG_LONG_MAX__ 9223372036854775807LL\000"
 11954      4E475F4C 
 11954      4F4E475F 
 11954      4D41585F 
 11954      5F203932 
 11955              	.LASF80:
 11956 024d 5F5F494E 		.ascii	"__INTMAX_C(c) c ## LL\000"
 11956      544D4158 
 11956      5F432863 
 11956      29206320 
 11956      2323204C 
 11957              	.LASF259:
 11958 0263 5F5F4C4C 		.ascii	"__LLACCUM_MIN__ (-0X1P31LLK-0X1P31LLK)\000"
 11958      41434355 
 11958      4D5F4D49 
 11958      4E5F5F20 
 11958      282D3058 
 11959              	.LASF770:
 11960 028a 5F5F5643 		.ascii	"__VCU_MC_MESSAGE__REG_ID__start 0\000"
ARM GAS  /var/folders/9j/_txx49hn253_s3mnzkyxlj8m0000gp/T//ccxigpJH.s 			page 229


 11960      555F4D43 
 11960      5F4D4553 
 11960      53414745 
 11960      5F5F5245 
 11961              	.LASF279:
 11962 02ac 5F5F5548 		.ascii	"__UHQ_FBIT__ 16\000"
 11962      515F4642 
 11962      49545F5F 
 11962      20313600 
 11963              	.LASF251:
 11964 02bc 5F5F4C41 		.ascii	"__LACCUM_EPSILON__ 0x1P-31LK\000"
 11964      4343554D 
 11964      5F455053 
 11964      494C4F4E 
 11964      5F5F2030 
 11965              	.LASF184:
 11966 02d9 5F5F4445 		.ascii	"__DEC128_MAX__ 9.999999999999999999999999999999999E"
 11966      43313238 
 11966      5F4D4158 
 11966      5F5F2039 
 11966      2E393939 
 11967 030c 36313434 		.ascii	"6144DL\000"
 11967      444C00
 11968              	.LASF537:
 11969 0313 46524F4E 		.ascii	"FRONT_CAN_NODE_DRIVER_OUTPUT__id 48\000"
 11969      545F4341 
 11969      4E5F4E4F 
 11969      44455F44 
 11969      52495645 
 11970              	.LASF413:
 11971 0337 494E545F 		.ascii	"INT_LEAST8_MIN (-__INT_LEAST8_MAX__ - 1)\000"
 11971      4C454153 
 11971      54385F4D 
 11971      494E2028 
 11971      2D5F5F49 
 11972              	.LASF883:
 11973 0360 5F5F4D41 		.ascii	"__MAGNETOMETER_HORIZONTAL__Y_AXIS__start 32\000"
 11973      474E4554 
 11973      4F4D4554 
 11973      45525F48 
 11973      4F52495A 
 11974              	.LASF1109:
 11975 038c 64726976 		.ascii	"drive_ok\000"
 11975      655F6F6B 
 11975      00
 11976              	.LASF276:
 11977 0395 5F5F5451 		.ascii	"__TQ_IBIT__ 0\000"
 11977      5F494249 
 11977      545F5F20 
 11977      3000
 11978              	.LASF858:
 11979 03a3 5F5F424D 		.ascii	"__BMS_PACK_STATUS__AVE_CELL_VOLTAGE__end 29\000"
 11979      535F5041 
 11979      434B5F53 
 11979      54415455 
 11979      535F5F41 
 11980              	.LASF911:
ARM GAS  /var/folders/9j/_txx49hn253_s3mnzkyxlj8m0000gp/T//ccxigpJH.s 			page 230


 11981 03cf 5F4D5931 		.ascii	"_MY17_CAN_LIBRARY_BMS_H \000"
 11981      375F4341 
 11981      4E5F4C49 
 11981      42524152 
 11981      595F424D 
 11982              	.LASF11:
 11983 03e8 5F5F4154 		.ascii	"__ATOMIC_CONSUME 1\000"
 11983      4F4D4943 
 11983      5F434F4E 
 11983      53554D45 
 11983      203100
 11984              	.LASF209:
 11985 03fb 5F5F4C46 		.ascii	"__LFRACT_MIN__ (-0.5LR-0.5LR)\000"
 11985      52414354 
 11985      5F4D494E 
 11985      5F5F2028 
 11985      2D302E35 
 11986              	.LASF916:
 11987 0419 424F494C 		.ascii	"BOILERPLATE(typename) Frame mid; typename ## _ToCan"
 11987      4552504C 
 11987      41544528 
 11987      74797065 
 11987      6E616D65 
 11988 044c 28266265 		.ascii	"(&begin, &mid); uint64_t end_bitstring = 0; to_bits"
 11988      67696E2C 
 11988      20266D69 
 11988      64293B20 
 11988      75696E74 
 11989 047f 7472696E 		.ascii	"tring(mid.data, &end_bitstring); typename ## _T end"
 11989      67286D69 
 11989      642E6461 
 11989      74612C20 
 11989      26656E64 
 11990 04b2 3B207479 		.ascii	"; typename ## _FromCan(&mid, &end)\000"
 11990      70656E61 
 11990      6D652023 
 11990      23205F46 
 11990      726F6D43 
 11991              	.LASF239:
 11992 04d5 5F5F4143 		.ascii	"__ACCUM_MIN__ (-0X1P15K-0X1P15K)\000"
 11992      43554D5F 
 11992      4D494E5F 
 11992      5F20282D 
 11992      30583150 
 11993              	.LASF1106:
 11994 04f6 64726976 		.ascii	"drive_stopped\000"
 11994      655F7374 
 11994      6F707065 
 11994      6400
 11995              	.LASF583:
 11996 0504 5F5F5F5F 		.ascii	"____REAR_CAN_NODE_WHEEL_SPEED__REAR_LEFT_WHEEL_SPEE"
 11996      52454152 
 11996      5F43414E 
 11996      5F4E4F44 
 11996      455F5748 
 11997 0537 445F5F52 		.ascii	"D__REAR_LEFT_WHEEL_SPEED__FROM 0\000"
 11997      4541525F 
ARM GAS  /var/folders/9j/_txx49hn253_s3mnzkyxlj8m0000gp/T//ccxigpJH.s 			page 231


 11997      4C454654 
 11997      5F574845 
 11997      454C5F53 
 11998              	.LASF937:
 11999 0558 696E7433 		.ascii	"int32_t\000"
 11999      325F7400 
 12000              	.LASF612:
 12001 0560 5F5F5F5F 		.ascii	"____FRONT_CAN_NODE_RAW_VALUES__STEERING_POT__STEERI"
 12001      46524F4E 
 12001      545F4341 
 12001      4E5F4E4F 
 12001      44455F52 
 12002 0593 4E475F50 		.ascii	"NG_POT__TO 255\000"
 12002      4F545F5F 
 12002      544F2032 
 12002      353500
 12003              	.LASF1067:
 12004 05a2 6176675F 		.ascii	"avg_cell_voltage\000"
 12004      63656C6C 
 12004      5F766F6C 
 12004      74616765 
 12004      00
 12005              	.LASF143:
 12006 05b3 5F5F4442 		.ascii	"__DBL_MAX_10_EXP__ 308\000"
 12006      4C5F4D41 
 12006      585F3130 
 12006      5F455850 
 12006      5F5F2033 
 12007              	.LASF829:
 12008 05ca 5F5F424D 		.ascii	"__BMS_HEARTBEAT__SOC_PERCENTAGE__start 3\000"
 12008      535F4845 
 12008      41525442 
 12008      4541545F 
 12008      5F534F43 
 12009              	.LASF449:
 12010 05f3 53495A45 		.ascii	"SIZE_MAX (__SIZE_MAX__)\000"
 12010      5F4D4158 
 12010      20285F5F 
 12010      53495A45 
 12010      5F4D4158 
 12011              	.LASF265:
 12012 060b 5F5F554C 		.ascii	"__ULLACCUM_MAX__ 0XFFFFFFFFFFFFFFFFP-32ULLK\000"
 12012      4C414343 
 12012      554D5F4D 
 12012      41585F5F 
 12012      20305846 
 12013              	.LASF756:
 12014 0637 5F5F5F5F 		.ascii	"____VCU_DASH_HEARTBEAT__MASTER_RESET_NOT_INITIALIZE"
 12014      5643555F 
 12014      44415348 
 12014      5F484541 
 12014      52544245 
 12015 066a 445F5F46 		.ascii	"D__FALSE 0\000"
 12015      414C5345 
 12015      203000
 12016              	.LASF235:
 12017 0675 5F5F5553 		.ascii	"__USACCUM_MAX__ 0XFFFFP-8UHK\000"
ARM GAS  /var/folders/9j/_txx49hn253_s3mnzkyxlj8m0000gp/T//ccxigpJH.s 			page 232


 12017      41434355 
 12017      4D5F4D41 
 12017      585F5F20 
 12017      30584646 
 12018              	.LASF169:
 12019 0692 5F5F4445 		.ascii	"__DEC32_MIN__ 1E-95DF\000"
 12019      4333325F 
 12019      4D494E5F 
 12019      5F203145 
 12019      2D393544 
 12020              	.LASF336:
 12021 06a8 5F5F4152 		.ascii	"__ARM_NEON_FP 4\000"
 12021      4D5F4E45 
 12021      4F4E5F46 
 12021      50203400 
 12022              	.LASF645:
 12023 06b8 5F5F5F5F 		.ascii	"____VCU_BMS_HEARTBEAT__STATE__DISCHARGE 0\000"
 12023      5643555F 
 12023      424D535F 
 12023      48454152 
 12023      54424541 
 12024              	.LASF272:
 12025 06e2 5F5F5351 		.ascii	"__SQ_IBIT__ 0\000"
 12025      5F494249 
 12025      545F5F20 
 12025      3000
 12026              	.LASF26:
 12027 06f0 5F5F4F52 		.ascii	"__ORDER_PDP_ENDIAN__ 3412\000"
 12027      4445525F 
 12027      5044505F 
 12027      454E4449 
 12027      414E5F5F 
 12028              	.LASF30:
 12029 070a 5F5F5349 		.ascii	"__SIZE_TYPE__ unsigned int\000"
 12029      5A455F54 
 12029      5950455F 
 12029      5F20756E 
 12029      7369676E 
 12030              	.LASF175:
 12031 0725 5F5F4445 		.ascii	"__DEC64_MAX_EXP__ 385\000"
 12031      4336345F 
 12031      4D41585F 
 12031      4558505F 
 12031      5F203338 
 12032              	.LASF468:
 12033 073b 5F474343 		.ascii	"_GCC_WRAP_STDINT_H \000"
 12033      5F575241 
 12033      505F5354 
 12033      44494E54 
 12033      5F482000 
 12034              	.LASF1189:
 12035 074f 43616E5F 		.ascii	"Can_Bms_PackStatus_FromCan\000"
 12035      426D735F 
 12035      5061636B 
 12035      53746174 
 12035      75735F46 
 12036              	.LASF135:
ARM GAS  /var/folders/9j/_txx49hn253_s3mnzkyxlj8m0000gp/T//ccxigpJH.s 			page 233


 12037 076a 5F5F464C 		.ascii	"__FLT_HAS_DENORM__ 1\000"
 12037      545F4841 
 12037      535F4445 
 12037      4E4F524D 
 12037      5F5F2031 
 12038              	.LASF39:
 12039 077f 5F5F494E 		.ascii	"__INT8_TYPE__ signed char\000"
 12039      54385F54 
 12039      5950455F 
 12039      5F207369 
 12039      676E6564 
 12040              	.LASF325:
 12041 0799 5F5F4152 		.ascii	"__ARM_ARCH_PROFILE 77\000"
 12041      4D5F4152 
 12041      43485F50 
 12041      524F4649 
 12041      4C452037 
 12042              	.LASF506:
 12043 07af 5F5F5F5F 		.ascii	"____MC_RESPONSE__DATA__DATA__TO 65535\000"
 12043      4D435F52 
 12043      4553504F 
 12043      4E53455F 
 12043      5F444154 
 12044              	.LASF822:
 12045 07d5 5F5F5F5F 		.ascii	"____BMS_HEARTBEAT__STATE__INIT 0\000"
 12045      424D535F 
 12045      48454152 
 12045      54424541 
 12045      545F5F53 
 12046              	.LASF234:
 12047 07f6 5F5F5553 		.ascii	"__USACCUM_MIN__ 0.0UHK\000"
 12047      41434355 
 12047      4D5F4D49 
 12047      4E5F5F20 
 12047      302E3055 
 12048              	.LASF1042:
 12049 080d 74736D73 		.ascii	"tsms_off\000"
 12049      5F6F6666 
 12049      00
 12050              	.LASF613:
 12051 0816 424D535F 		.ascii	"BMS_CELL_TEMPS__id 352\000"
 12051      43454C4C 
 12051      5F54454D 
 12051      50535F5F 
 12051      69642033 
 12052              	.LASF32:
 12053 082d 5F5F5743 		.ascii	"__WCHAR_TYPE__ unsigned int\000"
 12053      4841525F 
 12053      54595045 
 12053      5F5F2075 
 12053      6E736967 
 12054              	.LASF666:
 12055 0849 5F5F5F5F 		.ascii	"____VCU_DASH_HEARTBEAT__TRACTION_CONTROL__OFF 0\000"
 12055      5643555F 
 12055      44415348 
 12055      5F484541 
 12055      52544245 
ARM GAS  /var/folders/9j/_txx49hn253_s3mnzkyxlj8m0000gp/T//ccxigpJH.s 			page 234


 12056              	.LASF1176:
 12057 0879 43616E5F 		.ascii	"Can_Vcu_BmsHeartbeat_ToCan\000"
 12057      5663755F 
 12057      426D7348 
 12057      65617274 
 12057      62656174 
 12058              	.LASF154:
 12059 0894 5F5F4C44 		.ascii	"__LDBL_MIN_EXP__ (-1021)\000"
 12059      424C5F4D 
 12059      494E5F45 
 12059      58505F5F 
 12059      20282D31 
 12060              	.LASF861:
 12061 08ad 5F5F424D 		.ascii	"__BMS_PACK_STATUS__MIN_CELL_VOLTAGE__start 30\000"
 12061      535F5041 
 12061      434B5F53 
 12061      54415455 
 12061      535F5F4D 
 12062              	.LASF152:
 12063 08db 5F5F4C44 		.ascii	"__LDBL_MANT_DIG__ 53\000"
 12063      424C5F4D 
 12063      414E545F 
 12063      4449475F 
 12063      5F203533 
 12064              	.LASF102:
 12065 08f0 5F5F5549 		.ascii	"__UINT8_C(c) c\000"
 12065      4E54385F 
 12065      43286329 
 12065      206300
 12066              	.LASF40:
 12067 08ff 5F5F494E 		.ascii	"__INT16_TYPE__ short int\000"
 12067      5431365F 
 12067      54595045 
 12067      5F5F2073 
 12067      686F7274 
 12068              	.LASF472:
 12069 0918 74727565 		.ascii	"true 1\000"
 12069      203100
 12070              	.LASF709:
 12071 091f 5F5F5643 		.ascii	"__VCU_DASH_HEARTBEAT__SHUTDOWN_MASTER_RESET__end 15"
 12071      555F4441 
 12071      53485F48 
 12071      45415254 
 12071      42454154 
 12072 0952 00       		.ascii	"\000"
 12073              	.LASF780:
 12074 0953 5F5F5643 		.ascii	"__VCU_MC_MESSAGE__DATA_2__end 23\000"
 12074      555F4D43 
 12074      5F4D4553 
 12074      53414745 
 12074      5F5F4441 
 12075              	.LASF566:
 12076 0974 46524F4E 		.ascii	"FRONT_CAN_NODE_WHEEL_SPEED__freq 10\000"
 12076      545F4341 
 12076      4E5F4E4F 
 12076      44455F57 
 12076      4845454C 
ARM GAS  /var/folders/9j/_txx49hn253_s3mnzkyxlj8m0000gp/T//ccxigpJH.s 			page 235


 12077              	.LASF832:
 12078 0998 5F5F5F5F 		.ascii	"____BMS_HEARTBEAT__SOC_PERCENTAGE__SOC_PERCENTAGE__"
 12078      424D535F 
 12078      48454152 
 12078      54424541 
 12078      545F5F53 
 12079 09cb 544F2031 		.ascii	"TO 1023\000"
 12079      30323300 
 12080              	.LASF1017:
 12081 09d3 616C7761 		.ascii	"alwaysTrue\000"
 12081      79735472 
 12081      756500
 12082              	.LASF382:
 12083 09de 5F5F494E 		.ascii	"__INT8 \"hh\"\000"
 12083      54382022 
 12083      68682200 
 12084              	.LASF420:
 12085 09ea 494E545F 		.ascii	"INT_LEAST16_MAX (__INT_LEAST16_MAX__)\000"
 12085      4C454153 
 12085      5431365F 
 12085      4D415820 
 12085      285F5F49 
 12086              	.LASF512:
 12087 0a10 5F5F5F5F 		.ascii	"____CURRENT_SENSOR_CURRENT__PACK_CURRENT__PACK_CURR"
 12087      43555252 
 12087      454E545F 
 12087      53454E53 
 12087      4F525F43 
 12088 0a43 454E545F 		.ascii	"ENT__TO 4294967295\000"
 12088      5F544F20 
 12088      34323934 
 12088      39363732 
 12088      393500
 12089              	.LASF438:
 12090 0a56 494E545F 		.ascii	"INT_FAST16_MAX (__INT_FAST16_MAX__)\000"
 12090      46415354 
 12090      31365F4D 
 12090      41582028 
 12090      5F5F494E 
 12091              	.LASF222:
 12092 0a7a 5F5F554C 		.ascii	"__ULLFRACT_FBIT__ 64\000"
 12092      4C465241 
 12092      43545F46 
 12092      4249545F 
 12092      5F203634 
 12093              	.LASF1074:
 12094 0a8f 43616E5F 		.ascii	"Can_Bms_Error_T\000"
 12094      426D735F 
 12094      4572726F 
 12094      725F5400 
 12095              	.LASF1054:
 12096 0a9f 73746174 		.ascii	"state\000"
 12096      6500
 12097              	.LASF594:
 12098 0aa5 5F5F4652 		.ascii	"__FRONT_CAN_NODE_RAW_VALUES__RIGHT_THROTTLE_POT__en"
 12098      4F4E545F 
 12098      43414E5F 
ARM GAS  /var/folders/9j/_txx49hn253_s3mnzkyxlj8m0000gp/T//ccxigpJH.s 			page 236


 12098      4E4F4445 
 12098      5F524157 
 12099 0ad8 64203900 		.ascii	"d 9\000"
 12100              	.LASF58:
 12101 0adc 5F5F494E 		.ascii	"__INT_FAST64_TYPE__ long long int\000"
 12101      545F4641 
 12101      53543634 
 12101      5F545950 
 12101      455F5F20 
 12102              	.LASF1041:
 12103 0afe 68656172 		.ascii	"heartbeat_current_sensor_dead\000"
 12103      74626561 
 12103      745F6375 
 12103      7272656E 
 12103      745F7365 
 12104              	.LASF1069:
 12105 0b1c 69645F6D 		.ascii	"id_min_cell_voltage\000"
 12105      696E5F63 
 12105      656C6C5F 
 12105      766F6C74 
 12105      61676500 
 12106              	.LASF411:
 12107 0b30 494E5438 		.ascii	"INT8_MAX (__INT8_MAX__)\000"
 12107      5F4D4158 
 12107      20285F5F 
 12107      494E5438 
 12107      5F4D4158 
 12108              	.LASF569:
 12109 0b48 5F5F5F5F 		.ascii	"____FRONT_CAN_NODE_WHEEL_SPEED__FRONT_RIGHT_WHEEL_S"
 12109      46524F4E 
 12109      545F4341 
 12109      4E5F4E4F 
 12109      44455F57 
 12110 0b7b 50454544 		.ascii	"PEED__FRONT_RIGHT_WHEEL_SPEED__FROM 0\000"
 12110      5F5F4652 
 12110      4F4E545F 
 12110      52494748 
 12110      545F5748 
 12111              	.LASF650:
 12112 0ba1 5F5F5F5F 		.ascii	"____VCU_DASH_HEARTBEAT__RTD_LIGHT__OFF 0\000"
 12112      5643555F 
 12112      44415348 
 12112      5F484541 
 12112      52544245 
 12113              	.LASF375:
 12114 0bca 7369676E 		.ascii	"signed +0\000"
 12114      6564202B 
 12114      3000
 12115              	.LASF728:
 12116 0bd4 5F5F5F5F 		.ascii	"____VCU_DASH_HEARTBEAT__HEARTBEAT_BMS_DEAD__ALIVE 0"
 12116      5643555F 
 12116      44415348 
 12116      5F484541 
 12116      52544245 
 12117 0c07 00       		.ascii	"\000"
 12118              	.LASF452:
 12119 0c08 50545244 		.ascii	"PTRDIFF_MAX (__PTRDIFF_MAX__)\000"
ARM GAS  /var/folders/9j/_txx49hn253_s3mnzkyxlj8m0000gp/T//ccxigpJH.s 			page 237


 12119      4946465F 
 12119      4D415820 
 12119      285F5F50 
 12119      54524449 
 12120              	.LASF856:
 12121 0c26 5F5F5F5F 		.ascii	"____BMS_PACK_STATUS__PACK_CURRENT__POSITIVE_PACK_CU"
 12121      424D535F 
 12121      5041434B 
 12121      5F535441 
 12121      5455535F 
 12122 0c59 5252454E 		.ascii	"RRENT__TO 1023\000"
 12122      545F5F54 
 12122      4F203130 
 12122      323300
 12123              	.LASF92:
 12124 0c68 5F5F5549 		.ascii	"__UINT64_MAX__ 18446744073709551615ULL\000"
 12124      4E543634 
 12124      5F4D4158 
 12124      5F5F2031 
 12124      38343436 
 12125              	.LASF845:
 12126 0c8f 424D535F 		.ascii	"BMS_PACK_STATUS__id 353\000"
 12126      5041434B 
 12126      5F535441 
 12126      5455535F 
 12126      5F696420 
 12127              	.LASF195:
 12128 0ca7 5F5F5553 		.ascii	"__USFRACT_MAX__ 0XFFP-8UHR\000"
 12128      46524143 
 12128      545F4D41 
 12128      585F5F20 
 12128      30584646 
 12129              	.LASF908:
 12130 0cc2 5F5F5F5F 		.ascii	"____DASH_REQUEST__REQUEST_TYPE__DATA_FLAG 5\000"
 12130      44415348 
 12130      5F524551 
 12130      55455354 
 12130      5F5F5245 
 12131              	.LASF682:
 12132 0cee 5F5F5F5F 		.ascii	"____VCU_DASH_HEARTBEAT__REGEN__OFF 0\000"
 12132      5643555F 
 12132      44415348 
 12132      5F484541 
 12132      52544245 
 12133              	.LASF723:
 12134 0d13 5F5F5643 		.ascii	"__VCU_DASH_HEARTBEAT__HEARTBEAT_REAR_CAN_NODE_DEAD_"
 12134      555F4441 
 12134      53485F48 
 12134      45415254 
 12134      42454154 
 12135 0d46 5F656E64 		.ascii	"_end 26\000"
 12135      20323600 
 12136              	.LASF557:
 12137 0d4e 5F5F4652 		.ascii	"__FRONT_CAN_NODE_DRIVER_OUTPUT__BRAKE_THROTTLE_CONF"
 12137      4F4E545F 
 12137      43414E5F 
 12137      4E4F4445 
ARM GAS  /var/folders/9j/_txx49hn253_s3mnzkyxlj8m0000gp/T//ccxigpJH.s 			page 238


 12137      5F445249 
 12138 0d81 4C494354 		.ascii	"LICT__start 33\000"
 12138      5F5F7374 
 12138      61727420 
 12138      333300
 12139              	.LASF503:
 12140 0d90 5F5F4D43 		.ascii	"__MC_RESPONSE__DATA__start 8\000"
 12140      5F524553 
 12140      504F4E53 
 12140      455F5F44 
 12140      4154415F 
 12141              	.LASF344:
 12142 0dad 55415254 		.ascii	"UART_BAUD 115200\000"
 12142      5F424155 
 12142      44203131 
 12142      35323030 
 12142      00
 12143              	.LASF840:
 12144 0dbe 5F5F5F5F 		.ascii	"____BMS_HEARTBEAT__DCDC_ENABLE__ON 1\000"
 12144      424D535F 
 12144      48454152 
 12144      54424541 
 12144      545F5F44 
 12145              	.LASF1073:
 12146 0de3 74797065 		.ascii	"type\000"
 12146      00
 12147              	.LASF851:
 12148 0de8 5F5F424D 		.ascii	"__BMS_PACK_STATUS__PACK_CURRENT__start 9\000"
 12148      535F5041 
 12148      434B5F53 
 12148      54415455 
 12148      535F5F50 
 12149              	.LASF631:
 12150 0e11 5F5F4143 		.ascii	"__ACCELEROMETER_HORIZONTAL__Y_AXIS__start 32\000"
 12150      43454C45 
 12150      524F4D45 
 12150      5445525F 
 12150      484F5249 
 12151              	.LASF417:
 12152 0e3e 494E5431 		.ascii	"INT16_MAX (__INT16_MAX__)\000"
 12152      365F4D41 
 12152      5820285F 
 12152      5F494E54 
 12152      31365F4D 
 12153              	.LASF976:
 12154 0e58 43414E5F 		.ascii	"CAN_MC_REG_SPEED_MAX_RPM\000"
 12154      4D435F52 
 12154      45475F53 
 12154      50454544 
 12154      5F4D4158 
 12155              	.LASF1020:
 12156 0e71 616D735F 		.ascii	"ams_light\000"
 12156      6C696768 
 12156      7400
 12157              	.LASF212:
 12158 0e7b 5F5F554C 		.ascii	"__ULFRACT_FBIT__ 32\000"
 12158      46524143 
ARM GAS  /var/folders/9j/_txx49hn253_s3mnzkyxlj8m0000gp/T//ccxigpJH.s 			page 239


 12158      545F4642 
 12158      49545F5F 
 12158      20333200 
 12159              	.LASF549:
 12160 0e8f 5F5F4652 		.ascii	"__FRONT_CAN_NODE_DRIVER_OUTPUT__STEERING_POSITION__"
 12160      4F4E545F 
 12160      43414E5F 
 12160      4E4F4445 
 12160      5F445249 
 12161 0ec2 73746172 		.ascii	"start 24\000"
 12161      74203234 
 12161      00
 12162              	.LASF619:
 12163 0ecb 5F5F424D 		.ascii	"__BMS_CELL_TEMPS__MIN_CELL_TEMP_ID__start 30\000"
 12163      535F4345 
 12163      4C4C5F54 
 12163      454D5053 
 12163      5F5F4D49 
 12164              	.LASF405:
 12165 0ef8 5F5F696E 		.ascii	"__int_fast32_t_defined 1\000"
 12165      745F6661 
 12165      73743332 
 12165      5F745F64 
 12165      6566696E 
 12166              	.LASF660:
 12167 0f11 5F5F5643 		.ascii	"__VCU_DASH_HEARTBEAT__HV_LIGHT__start 3\000"
 12167      555F4441 
 12167      53485F48 
 12167      45415254 
 12167      42454154 
 12168              	.LASF460:
 12169 0f39 494E5431 		.ascii	"INT16_C(x) __INT16_C(x)\000"
 12169      365F4328 
 12169      7829205F 
 12169      5F494E54 
 12169      31365F43 
 12170              	.LASF191:
 12171 0f51 5F5F5346 		.ascii	"__SFRACT_EPSILON__ 0x1P-7HR\000"
 12171      52414354 
 12171      5F455053 
 12171      494C4F4E 
 12171      5F5F2030 
 12172              	.LASF979:
 12173 0f6d 43414E5F 		.ascii	"CAN_MC_REG_MOTOR_TEMP\000"
 12173      4D435F52 
 12173      45475F4D 
 12173      4F544F52 
 12173      5F54454D 
 12174              	.LASF98:
 12175 0f83 5F5F494E 		.ascii	"__INT32_C(c) c ## L\000"
 12175      5433325F 
 12175      43286329 
 12175      20632023 
 12175      23204C00 
 12176              	.LASF281:
 12177 0f97 5F5F5553 		.ascii	"__USQ_FBIT__ 32\000"
 12177      515F4642 
ARM GAS  /var/folders/9j/_txx49hn253_s3mnzkyxlj8m0000gp/T//ccxigpJH.s 			page 240


 12177      49545F5F 
 12177      20333200 
 12178              	.LASF25:
 12179 0fa7 5F5F4F52 		.ascii	"__ORDER_BIG_ENDIAN__ 4321\000"
 12179      4445525F 
 12179      4249475F 
 12179      454E4449 
 12179      414E5F5F 
 12180              	.LASF1049:
 12181 0fc1 72657175 		.ascii	"requestType\000"
 12181      65737454 
 12181      79706500 
 12182              	.LASF761:
 12183 0fcd 5F5F5F5F 		.ascii	"____VCU_DASH_HEARTBEAT__DRIVER_RESET_NOT_INITIALIZE"
 12183      5643555F 
 12183      44415348 
 12183      5F484541 
 12183      52544245 
 12184 1000 445F5F54 		.ascii	"D__TRUE 1\000"
 12184      52554520 
 12184      3100
 12185              	.LASF271:
 12186 100a 5F5F5351 		.ascii	"__SQ_FBIT__ 31\000"
 12186      5F464249 
 12186      545F5F20 
 12186      333100
 12187              	.LASF183:
 12188 1019 5F5F4445 		.ascii	"__DEC128_MIN__ 1E-6143DL\000"
 12188      43313238 
 12188      5F4D494E 
 12188      5F5F2031 
 12188      452D3631 
 12189              	.LASF301:
 12190 1032 5F5F5554 		.ascii	"__UTA_FBIT__ 64\000"
 12190      415F4642 
 12190      49545F5F 
 12190      20363400 
 12191              	.LASF1021:
 12192 1042 696D645F 		.ascii	"imd_light\000"
 12192      6C696768 
 12192      7400
 12193              	.LASF394:
 12194 104c 5F535953 		.ascii	"_SYS__STDINT_H \000"
 12194      5F5F5354 
 12194      44494E54 
 12194      5F482000 
 12195              	.LASF1047:
 12196 105c 6C765F62 		.ascii	"lv_battery_voltage\000"
 12196      61747465 
 12196      72795F76 
 12196      6F6C7461 
 12196      676500
 12197              	.LASF432:
 12198 106f 494E545F 		.ascii	"INT_LEAST64_MAX (__INT_LEAST64_MAX__)\000"
 12198      4C454153 
 12198      5436345F 
 12198      4D415820 
ARM GAS  /var/folders/9j/_txx49hn253_s3mnzkyxlj8m0000gp/T//ccxigpJH.s 			page 241


 12198      285F5F49 
 12199              	.LASF826:
 12200 1095 5F5F5F5F 		.ascii	"____BMS_HEARTBEAT__STATE__DISCHARGE 4\000"
 12200      424D535F 
 12200      48454152 
 12200      54424541 
 12200      545F5F53 
 12201              	.LASF264:
 12202 10bb 5F5F554C 		.ascii	"__ULLACCUM_MIN__ 0.0ULLK\000"
 12202      4C414343 
 12202      554D5F4D 
 12202      494E5F5F 
 12202      20302E30 
 12203              	.LASF68:
 12204 10d4 5F5F5343 		.ascii	"__SCHAR_MAX__ 127\000"
 12204      4841525F 
 12204      4D41585F 
 12204      5F203132 
 12204      3700
 12205              	.LASF891:
 12206 10e6 5F5F5F5F 		.ascii	"____MAGNETOMETER_VERTICAL__Z_AXIS__Z_AXIS__FROM 0\000"
 12206      4D41474E 
 12206      45544F4D 
 12206      45544552 
 12206      5F564552 
 12207              	.LASF171:
 12208 1118 5F5F4445 		.ascii	"__DEC32_EPSILON__ 1E-6DF\000"
 12208      4333325F 
 12208      45505349 
 12208      4C4F4E5F 
 12208      5F203145 
 12209              	.LASF719:
 12210 1131 5F5F5643 		.ascii	"__VCU_DASH_HEARTBEAT__HEARTBEAT_FRONT_CAN_NODE_DEAD"
 12210      555F4441 
 12210      53485F48 
 12210      45415254 
 12210      42454154 
 12211 1164 5F5F656E 		.ascii	"__end 25\000"
 12211      64203235 
 12211      00
 12212              	.LASF657:
 12213 116d 5F5F5643 		.ascii	"__VCU_DASH_HEARTBEAT__IMD_LIGHT__end 2\000"
 12213      555F4441 
 12213      53485F48 
 12213      45415254 
 12213      42454154 
 12214              	.LASF248:
 12215 1194 5F5F4C41 		.ascii	"__LACCUM_IBIT__ 32\000"
 12215      4343554D 
 12215      5F494249 
 12215      545F5F20 
 12215      333200
 12216              	.LASF414:
 12217 11a7 494E545F 		.ascii	"INT_LEAST8_MAX (__INT_LEAST8_MAX__)\000"
 12217      4C454153 
 12217      54385F4D 
 12217      41582028 
ARM GAS  /var/folders/9j/_txx49hn253_s3mnzkyxlj8m0000gp/T//ccxigpJH.s 			page 242


 12217      5F5F494E 
 12218              	.LASF1065:
 12219 11cb 7061636B 		.ascii	"pack_voltage\000"
 12219      5F766F6C 
 12219      74616765 
 12219      00
 12220              	.LASF920:
 12221 11d8 5F5F7569 		.ascii	"__uint8_t\000"
 12221      6E74385F 
 12221      7400
 12222              	.LASF890:
 12223 11e2 5F5F4D41 		.ascii	"__MAGNETOMETER_VERTICAL__Z_AXIS__end 31\000"
 12223      474E4554 
 12223      4F4D4554 
 12223      45525F56 
 12223      45525449 
 12224              	.LASF1203:
 12225 120a 43616E5F 		.ascii	"Can_CurrentSensor_Current_FromCan\000"
 12225      43757272 
 12225      656E7453 
 12225      656E736F 
 12225      725F4375 
 12226              	.LASF86:
 12227 122c 5F5F494E 		.ascii	"__INT16_MAX__ 32767\000"
 12227      5431365F 
 12227      4D41585F 
 12227      5F203332 
 12227      37363700 
 12228              	.LASF669:
 12229 1240 5F5F5643 		.ascii	"__VCU_DASH_HEARTBEAT__LIMP_MODE__end 5\000"
 12229      555F4441 
 12229      53485F48 
 12229      45415254 
 12229      42454154 
 12230              	.LASF628:
 12231 1267 5F5F4143 		.ascii	"__ACCELEROMETER_HORIZONTAL__X_AXIS__end 31\000"
 12231      43454C45 
 12231      524F4D45 
 12231      5445525F 
 12231      484F5249 
 12232              	.LASF334:
 12233 1292 5F5F5646 		.ascii	"__VFP_FP__ 1\000"
 12233      505F4650 
 12233      5F5F2031 
 12233      00
 12234              	.LASF392:
 12235 129f 5F5F4C45 		.ascii	"__LEAST32 \"l\"\000"
 12235      41535433 
 12235      3220226C 
 12235      2200
 12236              	.LASF385:
 12237 12ad 5F5F494E 		.ascii	"__INT64 \"ll\"\000"
 12237      54363420 
 12237      226C6C22 
 12237      00
 12238              	.LASF690:
 12239 12ba 5F5F5F5F 		.ascii	"____VCU_DASH_HEARTBEAT__SHUTDOWN_BMS__CLOSED 0\000"
ARM GAS  /var/folders/9j/_txx49hn253_s3mnzkyxlj8m0000gp/T//ccxigpJH.s 			page 243


 12239      5643555F 
 12239      44415348 
 12239      5F484541 
 12239      52544245 
 12240              	.LASF79:
 12241 12e9 5F5F494E 		.ascii	"__INTMAX_MAX__ 9223372036854775807LL\000"
 12241      544D4158 
 12241      5F4D4158 
 12241      5F5F2039 
 12241      32323333 
 12242              	.LASF1144:
 12243 130e 43616E5F 		.ascii	"Can_FrontCanNode_WheelSpeed_Test\000"
 12243      46726F6E 
 12243      7443616E 
 12243      4E6F6465 
 12243      5F576865 
 12244              	.LASF1141:
 12245 132f 72657375 		.ascii	"result\000"
 12245      6C7400
 12246              	.LASF946:
 12247 1336 43414E5F 		.ascii	"CAN_BMS_STATE_DISCHARGE\000"
 12247      424D535F 
 12247      53544154 
 12247      455F4449 
 12247      53434841 
 12248              	.LASF431:
 12249 134e 494E545F 		.ascii	"INT_LEAST64_MIN (-__INT_LEAST64_MAX__ - 1)\000"
 12249      4C454153 
 12249      5436345F 
 12249      4D494E20 
 12249      282D5F5F 
 12250              	.LASF1120:
 12251 1379 61637469 		.ascii	"active_current_reduction\000"
 12251      76655F63 
 12251      75727265 
 12251      6E745F72 
 12251      65647563 
 12252              	.LASF718:
 12253 1392 5F5F5643 		.ascii	"__VCU_DASH_HEARTBEAT__HEARTBEAT_FRONT_CAN_NODE_DEAD"
 12253      555F4441 
 12253      53485F48 
 12253      45415254 
 12253      42454154 
 12254 13c5 5F5F7374 		.ascii	"__start 25\000"
 12254      61727420 
 12254      323500
 12255              	.LASF120:
 12256 13d0 5F5F4743 		.ascii	"__GCC_IEC_559_COMPLEX 0\000"
 12256      435F4945 
 12256      435F3535 
 12256      395F434F 
 12256      4D504C45 
 12257              	.LASF354:
 12258 13e8 5F5F474E 		.ascii	"__GNUC_PREREQ(maj,min) ((__GNUC__ << 16) + __GNUC_M"
 12258      55435F50 
 12258      52455245 
 12258      51286D61 
ARM GAS  /var/folders/9j/_txx49hn253_s3mnzkyxlj8m0000gp/T//ccxigpJH.s 			page 244


 12258      6A2C6D69 
 12259 141b 494E4F52 		.ascii	"INOR__ >= ((maj) << 16) + (min))\000"
 12259      5F5F203E 
 12259      3D202828 
 12259      6D616A29 
 12259      203C3C20 
 12260              	.LASF204:
 12261 143c 5F5F5546 		.ascii	"__UFRACT_MIN__ 0.0UR\000"
 12261      52414354 
 12261      5F4D494E 
 12261      5F5F2030 
 12261      2E305552 
 12262              	.LASF730:
 12263 1451 5F5F5643 		.ascii	"__VCU_DASH_HEARTBEAT__HEARTBEAT_DASH_DEAD__start 28"
 12263      555F4441 
 12263      53485F48 
 12263      45415254 
 12263      42454154 
 12264 1484 00       		.ascii	"\000"
 12265              	.LASF165:
 12266 1485 5F5F4C44 		.ascii	"__LDBL_HAS_QUIET_NAN__ 1\000"
 12266      424C5F48 
 12266      41535F51 
 12266      55494554 
 12266      5F4E414E 
 12267              	.LASF440:
 12268 149e 494E545F 		.ascii	"INT_FAST32_MIN (-__INT_FAST32_MAX__ - 1)\000"
 12268      46415354 
 12268      33325F4D 
 12268      494E2028 
 12268      2D5F5F49 
 12269              	.LASF1018:
 12270 14c7 43616E5F 		.ascii	"Can_Vcu_BmsHeartbeat_T\000"
 12270      5663755F 
 12270      426D7348 
 12270      65617274 
 12270      62656174 
 12271              	.LASF636:
 12272 14de 41434345 		.ascii	"ACCELEROMETER_VERTICAL__freq 10\000"
 12272      4C45524F 
 12272      4D455445 
 12272      525F5645 
 12272      52544943 
 12273              	.LASF1161:
 12274 14fe 43616E5F 		.ascii	"Can_CurrentSensor_Voltage_Test\000"
 12274      43757272 
 12274      656E7453 
 12274      656E736F 
 12274      725F566F 
 12275              	.LASF593:
 12276 151d 5F5F4652 		.ascii	"__FRONT_CAN_NODE_RAW_VALUES__RIGHT_THROTTLE_POT__st"
 12276      4F4E545F 
 12276      43414E5F 
 12276      4E4F4445 
 12276      5F524157 
 12277 1550 61727420 		.ascii	"art 0\000"
 12277      3000
ARM GAS  /var/folders/9j/_txx49hn253_s3mnzkyxlj8m0000gp/T//ccxigpJH.s 			page 245


 12278              	.LASF51:
 12279 1556 5F5F5549 		.ascii	"__UINT_LEAST8_TYPE__ unsigned char\000"
 12279      4E545F4C 
 12279      45415354 
 12279      385F5459 
 12279      50455F5F 
 12280              	.LASF493:
 12281 1579 5F5F5F5F 		.ascii	"____MC_RESPONSE__REG_ID__OUTPUT_VOLTAGE_LIMIT 139\000"
 12281      4D435F52 
 12281      4553504F 
 12281      4E53455F 
 12281      5F524547 
 12282              	.LASF667:
 12283 15ab 5F5F5F5F 		.ascii	"____VCU_DASH_HEARTBEAT__TRACTION_CONTROL__ON 1\000"
 12283      5643555F 
 12283      44415348 
 12283      5F484541 
 12283      52544245 
 12284              	.LASF237:
 12285 15da 5F5F4143 		.ascii	"__ACCUM_FBIT__ 15\000"
 12285      43554D5F 
 12285      46424954 
 12285      5F5F2031 
 12285      3500
 12286              	.LASF243:
 12287 15ec 5F5F5541 		.ascii	"__UACCUM_IBIT__ 16\000"
 12287      4343554D 
 12287      5F494249 
 12287      545F5F20 
 12287      313600
 12288              	.LASF1156:
 12289 15ff 43616E5F 		.ascii	"Can_Dash_Request_Test\000"
 12289      44617368 
 12289      5F526571 
 12289      75657374 
 12289      5F546573 
 12290              	.LASF116:
 12291 1615 5F5F5549 		.ascii	"__UINT_FAST64_MAX__ 18446744073709551615ULL\000"
 12291      4E545F46 
 12291      41535436 
 12291      345F4D41 
 12291      585F5F20 
 12292              	.LASF828:
 12293 1641 5F5F5F5F 		.ascii	"____BMS_HEARTBEAT__STATE__BMS_FAULT 6\000"
 12293      424D535F 
 12293      48454152 
 12293      54424541 
 12293      545F5F53 
 12294              	.LASF848:
 12295 1667 5F5F424D 		.ascii	"__BMS_PACK_STATUS__PACK_VOLTAGE__end 8\000"
 12295      535F5041 
 12295      434B5F53 
 12295      54415455 
 12295      535F5F50 
 12296              	.LASF750:
 12297 168e 5F5F5643 		.ascii	"__VCU_DASH_HEARTBEAT__PRECHARGE_RUNNING__start 33\000"
 12297      555F4441 
ARM GAS  /var/folders/9j/_txx49hn253_s3mnzkyxlj8m0000gp/T//ccxigpJH.s 			page 246


 12297      53485F48 
 12297      45415254 
 12297      42454154 
 12298              	.LASF482:
 12299 16c0 4D435F52 		.ascii	"MC_RESPONSE__freq -1\000"
 12299      4553504F 
 12299      4E53455F 
 12299      5F667265 
 12299      71202D31 
 12300              	.LASF146:
 12301 16d5 5F5F4442 		.ascii	"__DBL_MIN__ ((double)2.2250738585072014e-308L)\000"
 12301      4C5F4D49 
 12301      4E5F5F20 
 12301      2828646F 
 12301      75626C65 
 12302              	.LASF809:
 12303 1704 5F5F5F5F 		.ascii	"____BMS_ERRORS__ERROR_TYPE__CELL_OVER_VOLTAGE 6\000"
 12303      424D535F 
 12303      4552524F 
 12303      52535F5F 
 12303      4552524F 
 12304              	.LASF206:
 12305 1734 5F5F5546 		.ascii	"__UFRACT_EPSILON__ 0x1P-16UR\000"
 12305      52414354 
 12305      5F455053 
 12305      494C4F4E 
 12305      5F5F2030 
 12306              	.LASF73:
 12307 1751 5F5F5743 		.ascii	"__WCHAR_MAX__ 4294967295U\000"
 12307      4841525F 
 12307      4D41585F 
 12307      5F203432 
 12307      39343936 
 12308              	.LASF181:
 12309 176b 5F5F4445 		.ascii	"__DEC128_MIN_EXP__ (-6142)\000"
 12309      43313238 
 12309      5F4D494E 
 12309      5F455850 
 12309      5F5F2028 
 12310              	.LASF55:
 12311 1786 5F5F494E 		.ascii	"__INT_FAST8_TYPE__ int\000"
 12311      545F4641 
 12311      5354385F 
 12311      54595045 
 12311      5F5F2069 
 12312              	.LASF299:
 12313 179d 5F5F5544 		.ascii	"__UDA_FBIT__ 32\000"
 12313      415F4642 
 12313      49545F5F 
 12313      20333200 
 12314              	.LASF715:
 12315 17ad 5F5F5F5F 		.ascii	"____VCU_DASH_HEARTBEAT__SHUTDOWN_DRIVER_RESET__OPEN"
 12315      5643555F 
 12315      44415348 
 12315      5F484541 
 12315      52544245 
 12316 17e0 203100   		.ascii	" 1\000"
ARM GAS  /var/folders/9j/_txx49hn253_s3mnzkyxlj8m0000gp/T//ccxigpJH.s 			page 247


 12317              	.LASF82:
 12318 17e3 5F5F5549 		.ascii	"__UINTMAX_C(c) c ## ULL\000"
 12318      4E544D41 
 12318      585F4328 
 12318      63292063 
 12318      20232320 
 12319              	.LASF29:
 12320 17fb 5F5F5349 		.ascii	"__SIZEOF_POINTER__ 4\000"
 12320      5A454F46 
 12320      5F504F49 
 12320      4E544552 
 12320      5F5F2034 
 12321              	.LASF443:
 12322 1810 494E545F 		.ascii	"INT_FAST64_MIN (-__INT_FAST64_MAX__ - 1)\000"
 12322      46415354 
 12322      36345F4D 
 12322      494E2028 
 12322      2D5F5F49 
 12323              	.LASF1116:
 12324 1839 72656765 		.ascii	"regen_active\000"
 12324      6E5F6163 
 12324      74697665 
 12324      00
 12325              	.LASF307:
 12326 1846 5F5F4743 		.ascii	"__GCC_ATOMIC_BOOL_LOCK_FREE 1\000"
 12326      435F4154 
 12326      4F4D4943 
 12326      5F424F4F 
 12326      4C5F4C4F 
 12327              	.LASF1143:
 12328 1864 43616E5F 		.ascii	"Can_FrontCanNode_RawValues_Test\000"
 12328      46726F6E 
 12328      7443616E 
 12328      4E6F6465 
 12328      5F526177 
 12329              	.LASF289:
 12330 1884 5F5F5341 		.ascii	"__SA_FBIT__ 15\000"
 12330      5F464249 
 12330      545F5F20 
 12330      313500
 12331              	.LASF974:
 12332 1893 43414E5F 		.ascii	"CAN_MC_REG_SPEED_CMD_AFTER_RAMP\000"
 12332      4D435F52 
 12332      45475F53 
 12332      50454544 
 12332      5F434D44 
 12333              	.LASF843:
 12334 18b3 5F5F5F5F 		.ascii	"____BMS_HEARTBEAT__DCDC_FAULT__NO_FAULT 0\000"
 12334      424D535F 
 12334      48454152 
 12334      54424541 
 12334      545F5F44 
 12335              	.LASF409:
 12336 18dd 55494E54 		.ascii	"UINTPTR_MAX (__UINTPTR_MAX__)\000"
 12336      5054525F 
 12336      4D415820 
 12336      285F5F55 
ARM GAS  /var/folders/9j/_txx49hn253_s3mnzkyxlj8m0000gp/T//ccxigpJH.s 			page 248


 12336      494E5450 
 12337              	.LASF110:
 12338 18fb 5F5F494E 		.ascii	"__INT_FAST16_MAX__ 2147483647\000"
 12338      545F4641 
 12338      53543136 
 12338      5F4D4158 
 12338      5F5F2032 
 12339              	.LASF293:
 12340 1919 5F5F5441 		.ascii	"__TA_FBIT__ 63\000"
 12340      5F464249 
 12340      545F5F20 
 12340      363300
 12341              	.LASF337:
 12342 1928 5F5F5448 		.ascii	"__THUMB_INTERWORK__ 1\000"
 12342      554D425F 
 12342      494E5445 
 12342      52574F52 
 12342      4B5F5F20 
 12343              	.LASF225:
 12344 193e 5F5F554C 		.ascii	"__ULLFRACT_MAX__ 0XFFFFFFFFFFFFFFFFP-64ULLR\000"
 12344      4C465241 
 12344      43545F4D 
 12344      41585F5F 
 12344      20305846 
 12345              	.LASF85:
 12346 196a 5F5F494E 		.ascii	"__INT8_MAX__ 127\000"
 12346      54385F4D 
 12346      41585F5F 
 12346      20313237 
 12346      00
 12347              	.LASF585:
 12348 197b 4C565F42 		.ascii	"LV_BATTERY_VOLTAGE__id 819\000"
 12348      41545445 
 12348      52595F56 
 12348      4F4C5441 
 12348      47455F5F 
 12349              	.LASF985:
 12350 1996 43414E5F 		.ascii	"CAN_MC_REG_MSG_EVENT_REQUEST\000"
 12350      4D435F52 
 12350      45475F4D 
 12350      53475F45 
 12350      56454E54 
 12351              	.LASF998:
 12352 19b3 7468726F 		.ascii	"throttle_implausible\000"
 12352      74746C65 
 12352      5F696D70 
 12352      6C617573 
 12352      69626C65 
 12353              	.LASF61:
 12354 19c8 5F5F5549 		.ascii	"__UINT_FAST32_TYPE__ unsigned int\000"
 12354      4E545F46 
 12354      41535433 
 12354      325F5459 
 12354      50455F5F 
 12355              	.LASF850:
 12356 19ea 5F5F5F5F 		.ascii	"____BMS_PACK_STATUS__PACK_VOLTAGE__PACK_VOLTAGE__TO"
 12356      424D535F 
ARM GAS  /var/folders/9j/_txx49hn253_s3mnzkyxlj8m0000gp/T//ccxigpJH.s 			page 249


 12356      5041434B 
 12356      5F535441 
 12356      5455535F 
 12357 1a1d 20353131 		.ascii	" 511\000"
 12357      00
 12358              	.LASF37:
 12359 1a22 5F5F4348 		.ascii	"__CHAR32_TYPE__ long unsigned int\000"
 12359      41523332 
 12359      5F545950 
 12359      455F5F20 
 12359      6C6F6E67 
 12360              	.LASF474:
 12361 1a44 5F5F626F 		.ascii	"__bool_true_false_are_defined 1\000"
 12361      6F6C5F74 
 12361      7275655F 
 12361      66616C73 
 12361      655F6172 
 12362              	.LASF1038:
 12363 1a64 68656172 		.ascii	"heartbeat_bms_dead\000"
 12363      74626561 
 12363      745F626D 
 12363      735F6465 
 12363      616400
 12364              	.LASF785:
 12365 1a77 5F5F4759 		.ascii	"__GYRO_HORIZONTAL__X_AXIS__start 0\000"
 12365      524F5F48 
 12365      4F52495A 
 12365      4F4E5441 
 12365      4C5F5F58 
 12366              	.LASF775:
 12367 1a9a 5F5F5643 		.ascii	"__VCU_MC_MESSAGE__DATA_1__start 8\000"
 12367      555F4D43 
 12367      5F4D4553 
 12367      53414745 
 12367      5F5F4441 
 12368              	.LASF128:
 12369 1abc 5F5F464C 		.ascii	"__FLT_MAX_EXP__ 128\000"
 12369      545F4D41 
 12369      585F4558 
 12369      505F5F20 
 12369      31323800 
 12370              	.LASF15:
 12371 1ad0 5F5F5349 		.ascii	"__SIZEOF_LONG__ 4\000"
 12371      5A454F46 
 12371      5F4C4F4E 
 12371      475F5F20 
 12371      3400
 12372              	.LASF984:
 12373 1ae2 43414E5F 		.ascii	"CAN_MC_REG_ERRORS_AND_WARNINGS\000"
 12373      4D435F52 
 12373      45475F45 
 12373      52524F52 
 12373      535F414E 
 12374              	.LASF721:
 12375 1b01 5F5F5F5F 		.ascii	"____VCU_DASH_HEARTBEAT__HEARTBEAT_FRONT_CAN_NODE_DE"
 12375      5643555F 
 12375      44415348 
ARM GAS  /var/folders/9j/_txx49hn253_s3mnzkyxlj8m0000gp/T//ccxigpJH.s 			page 250


 12375      5F484541 
 12375      52544245 
 12376 1b34 41445F5F 		.ascii	"AD__DEAD 1\000"
 12376      44454144 
 12376      203100
 12377              	.LASF1076:
 12378 1b3f 43616E5F 		.ascii	"Can_Dash_Request_T\000"
 12378      44617368 
 12378      5F526571 
 12378      75657374 
 12378      5F5400
 12379              	.LASF105:
 12380 1b52 5F5F5549 		.ascii	"__UINT_LEAST32_MAX__ 4294967295UL\000"
 12380      4E545F4C 
 12380      45415354 
 12380      33325F4D 
 12380      41585F5F 
 12381              	.LASF19:
 12382 1b74 5F5F5349 		.ascii	"__SIZEOF_DOUBLE__ 8\000"
 12382      5A454F46 
 12382      5F444F55 
 12382      424C455F 
 12382      5F203800 
 12383              	.LASF1063:
 12384 1b88 69645F6D 		.ascii	"id_max_cell_temp\000"
 12384      61785F63 
 12384      656C6C5F 
 12384      74656D70 
 12384      00
 12385              	.LASF663:
 12386 1b99 5F5F5F5F 		.ascii	"____VCU_DASH_HEARTBEAT__HV_LIGHT__ON 1\000"
 12386      5643555F 
 12386      44415348 
 12386      5F484541 
 12386      52544245 
 12387              	.LASF1115:
 12388 1bc0 6274625F 		.ascii	"btb_rdy\000"
 12388      72647900 
 12389              	.LASF551:
 12390 1bc8 5F5F5F5F 		.ascii	"____FRONT_CAN_NODE_DRIVER_OUTPUT__STEERING_POSITION"
 12390      46524F4E 
 12390      545F4341 
 12390      4E5F4E4F 
 12390      44455F44 
 12391 1bfb 5F5F5354 		.ascii	"__STEERING_TRAVEL_LEFTWARDS__FROM 0\000"
 12391      45455249 
 12391      4E475F54 
 12391      52415645 
 12391      4C5F4C45 
 12392              	.LASF478:
 12393 1c1f 4445434C 		.ascii	"DECLARE(name) Can_ErrorID_T name ##_Read(name ## _T"
 12393      41524528 
 12393      6E616D65 
 12393      29204361 
 12393      6E5F4572 
 12394 1c52 202A7479 		.ascii	" *type); Can_ErrorID_T name ##_Write(name ## _T *ty"
 12394      7065293B 
ARM GAS  /var/folders/9j/_txx49hn253_s3mnzkyxlj8m0000gp/T//ccxigpJH.s 			page 251


 12394      2043616E 
 12394      5F457272 
 12394      6F724944 
 12395 1c85 7065293B 		.ascii	"pe); TO_CAN(name); FROM_CAN(name);\000"
 12395      20544F5F 
 12395      43414E28 
 12395      6E616D65 
 12395      293B2046 
 12396              	.LASF387:
 12397 1ca8 5F5F4641 		.ascii	"__FAST16 \000"
 12397      53543136 
 12397      2000
 12398              	.LASF430:
 12399 1cb2 55494E54 		.ascii	"UINT64_MAX (__UINT64_MAX__)\000"
 12399      36345F4D 
 12399      41582028 
 12399      5F5F5549 
 12399      4E543634 
 12400              	.LASF1036:
 12401 1cce 68656172 		.ascii	"heartbeat_front_can_node_dead\000"
 12401      74626561 
 12401      745F6672 
 12401      6F6E745F 
 12401      63616E5F 
 12402              	.LASF177:
 12403 1cec 5F5F4445 		.ascii	"__DEC64_MAX__ 9.999999999999999E384DD\000"
 12403      4336345F 
 12403      4D41585F 
 12403      5F20392E 
 12403      39393939 
 12404              	.LASF352:
 12405 1d12 5F5F4E45 		.ascii	"__NEWLIB__ 2\000"
 12405      574C4942 
 12405      5F5F2032 
 12405      00
 12406              	.LASF543:
 12407 1d1f 5F5F5F5F 		.ascii	"____FRONT_CAN_NODE_DRIVER_OUTPUT__REQUESTED_TORQUE_"
 12407      46524F4E 
 12407      545F4341 
 12407      4E5F4E4F 
 12407      44455F44 
 12408 1d52 5F504F53 		.ascii	"_POSITIVE_TORQUE__FROM 0\000"
 12408      49544956 
 12408      455F544F 
 12408      52515545 
 12408      5F5F4652 
 12409              	.LASF1211:
 12410 1d6b 2F557365 		.ascii	"/Users/aheifetz/FSAE/ARM/PIO1_0_fail_demo\000"
 12410      72732F61 
 12410      68656966 
 12410      65747A2F 
 12410      46534145 
 12411              	.LASF679:
 12412 1d95 5F5F5F5F 		.ascii	"____VCU_DASH_HEARTBEAT__ACTIVE_AERO__ON 1\000"
 12412      5643555F 
 12412      44415348 
 12412      5F484541 
ARM GAS  /var/folders/9j/_txx49hn253_s3mnzkyxlj8m0000gp/T//ccxigpJH.s 			page 252


 12412      52544245 
 12413              	.LASF127:
 12414 1dbf 5F5F464C 		.ascii	"__FLT_MIN_10_EXP__ (-37)\000"
 12414      545F4D49 
 12414      4E5F3130 
 12414      5F455850 
 12414      5F5F2028 
 12415              	.LASF794:
 12416 1dd8 4759524F 		.ascii	"GYRO_VERTICAL__freq 10\000"
 12416      5F564552 
 12416      54494341 
 12416      4C5F5F66 
 12416      72657120 
 12417              	.LASF1082:
 12418 1def 6572726F 		.ascii	"error_bus_fault\000"
 12418      725F6275 
 12418      735F6661 
 12418      756C7400 
 12419              	.LASF130:
 12420 1dff 5F5F464C 		.ascii	"__FLT_DECIMAL_DIG__ 9\000"
 12420      545F4445 
 12420      43494D41 
 12420      4C5F4449 
 12420      475F5F20 
 12421              	.LASF1094:
 12422 1e15 7761726E 		.ascii	"warning_inconsistent_device\000"
 12422      696E675F 
 12422      696E636F 
 12422      6E736973 
 12422      74656E74 
 12423              	.LASF46:
 12424 1e31 5F5F5549 		.ascii	"__UINT64_TYPE__ long long unsigned int\000"
 12424      4E543634 
 12424      5F545950 
 12424      455F5F20 
 12424      6C6F6E67 
 12425              	.LASF987:
 12426 1e58 43616E5F 		.ascii	"Can_MC_RegID_T\000"
 12426      4D435F52 
 12426      65674944 
 12426      5F5400
 12427              	.LASF934:
 12428 1e67 75696E74 		.ascii	"uint8_t\000"
 12428      385F7400 
 12429              	.LASF447:
 12430 1e6f 494E544D 		.ascii	"INTMAX_MIN (-INTMAX_MAX - 1)\000"
 12430      41585F4D 
 12430      494E2028 
 12430      2D494E54 
 12430      4D41585F 
 12431              	.LASF684:
 12432 1e8c 5F5F5643 		.ascii	"__VCU_DASH_HEARTBEAT__SHUTDOWN_ESD_DRAIN__start 9\000"
 12432      555F4441 
 12432      53485F48 
 12432      45415254 
 12432      42454154 
 12433              	.LASF477:
ARM GAS  /var/folders/9j/_txx49hn253_s3mnzkyxlj8m0000gp/T//ccxigpJH.s 			page 253


 12434 1ebe 46524F4D 		.ascii	"FROM_CAN(name) void name ## _FromCan(Frame *can_in,"
 12434      5F43414E 
 12434      286E616D 
 12434      65292076 
 12434      6F696420 
 12435 1ef1 206E616D 		.ascii	" name ## _T *type_out)\000"
 12435      65202323 
 12435      205F5420 
 12435      2A747970 
 12435      655F6F75 
 12436              	.LASF664:
 12437 1f08 5F5F5643 		.ascii	"__VCU_DASH_HEARTBEAT__TRACTION_CONTROL__start 4\000"
 12437      555F4441 
 12437      53485F48 
 12437      45415254 
 12437      42454154 
 12438              	.LASF454:
 12439 1f38 57434841 		.ascii	"WCHAR_MIN (__WCHAR_MIN__)\000"
 12439      525F4D49 
 12439      4E20285F 
 12439      5F574348 
 12439      41525F4D 
 12440              	.LASF197:
 12441 1f52 5F5F4652 		.ascii	"__FRACT_FBIT__ 15\000"
 12441      4143545F 
 12441      46424954 
 12441      5F5F2031 
 12441      3500
 12442              	.LASF1008:
 12443 1f64 43616E5F 		.ascii	"Can_FrontCanNode_RawValues_T\000"
 12443      46726F6E 
 12443      7443616E 
 12443      4E6F6465 
 12443      5F526177 
 12444              	.LASF261:
 12445 1f81 5F5F4C4C 		.ascii	"__LLACCUM_EPSILON__ 0x1P-31LLK\000"
 12445      41434355 
 12445      4D5F4550 
 12445      53494C4F 
 12445      4E5F5F20 
 12446              	.LASF310:
 12447 1fa0 5F5F4743 		.ascii	"__GCC_ATOMIC_CHAR32_T_LOCK_FREE 1\000"
 12447      435F4154 
 12447      4F4D4943 
 12447      5F434841 
 12447      5233325F 
 12448              	.LASF4:
 12449 1fc2 5F5F474E 		.ascii	"__GNUC_PATCHLEVEL__ 3\000"
 12449      55435F50 
 12449      41544348 
 12449      4C455645 
 12449      4C5F5F20 
 12450              	.LASF939:
 12451 1fd8 75696E74 		.ascii	"uint64_t\000"
 12451      36345F74 
 12451      00
 12452              	.LASF148:
ARM GAS  /var/folders/9j/_txx49hn253_s3mnzkyxlj8m0000gp/T//ccxigpJH.s 			page 254


 12453 1fe1 5F5F4442 		.ascii	"__DBL_DENORM_MIN__ ((double)4.9406564584124654e-324"
 12453      4C5F4445 
 12453      4E4F524D 
 12453      5F4D494E 
 12453      5F5F2028 
 12454 2014 4C2900   		.ascii	"L)\000"
 12455              	.LASF1150:
 12456 2017 43616E5F 		.ascii	"Can_Vcu_MCTorque_Test\000"
 12456      5663755F 
 12456      4D43546F 
 12456      72717565 
 12456      5F546573 
 12457              	.LASF656:
 12458 202d 5F5F5643 		.ascii	"__VCU_DASH_HEARTBEAT__IMD_LIGHT__start 2\000"
 12458      555F4441 
 12458      53485F48 
 12458      45415254 
 12458      42454154 
 12459              	.LASF349:
 12460 2056 5F535444 		.ascii	"_STDINT_H \000"
 12460      494E545F 
 12460      482000
 12461              	.LASF759:
 12462 2061 5F5F5643 		.ascii	"__VCU_DASH_HEARTBEAT__DRIVER_RESET_NOT_INITIALIZED_"
 12462      555F4441 
 12462      53485F48 
 12462      45415254 
 12462      42454154 
 12463 2094 5F656E64 		.ascii	"_end 35\000"
 12463      20333500 
 12464              	.LASF762:
 12465 209c 5F5F5643 		.ascii	"__VCU_DASH_HEARTBEAT__RESERVED__start 36\000"
 12465      555F4441 
 12465      53485F48 
 12465      45415254 
 12465      42454154 
 12466              	.LASF591:
 12467 20c5 46524F4E 		.ascii	"FRONT_CAN_NODE_RAW_VALUES__id 560\000"
 12467      545F4341 
 12467      4E5F4E4F 
 12467      44455F52 
 12467      41575F56 
 12468              	.LASF1191:
 12469 20e7 43616E5F 		.ascii	"Can_Bms_Error_FromCan\000"
 12469      426D735F 
 12469      4572726F 
 12469      725F4672 
 12469      6F6D4361 
 12470              	.LASF1108:
 12471 20fd 6C696D5F 		.ascii	"lim_minus_assigned\000"
 12471      6D696E75 
 12471      735F6173 
 12471      7369676E 
 12471      656400
 12472              	.LASF1012:
 12473 2110 69735F61 		.ascii	"is_alive\000"
 12473      6C697665 
ARM GAS  /var/folders/9j/_txx49hn253_s3mnzkyxlj8m0000gp/T//ccxigpJH.s 			page 255


 12473      00
 12474              	.LASF18:
 12475 2119 5F5F5349 		.ascii	"__SIZEOF_FLOAT__ 4\000"
 12475      5A454F46 
 12475      5F464C4F 
 12475      41545F5F 
 12475      203400
 12476              	.LASF228:
 12477 212c 5F5F5341 		.ascii	"__SACCUM_IBIT__ 8\000"
 12477      4343554D 
 12477      5F494249 
 12477      545F5F20 
 12477      3800
 12478              	.LASF129:
 12479 213e 5F5F464C 		.ascii	"__FLT_MAX_10_EXP__ 38\000"
 12479      545F4D41 
 12479      585F3130 
 12479      5F455850 
 12479      5F5F2033 
 12480              	.LASF743:
 12481 2154 5F5F5643 		.ascii	"__VCU_DASH_HEARTBEAT__TSMS_OFF__end 31\000"
 12481      555F4441 
 12481      53485F48 
 12481      45415254 
 12481      42454154 
 12482              	.LASF1101:
 12483 217b 7761726E 		.ascii	"warning_over_current\000"
 12483      696E675F 
 12483      6F766572 
 12483      5F637572 
 12483      72656E74 
 12484              	.LASF1132:
 12485 2190 706F7765 		.ascii	"power_W\000"
 12485      725F5700 
 12486              	.LASF1006:
 12487 2198 6272616B 		.ascii	"brake_2_raw\000"
 12487      655F325F 
 12487      72617700 
 12488              	.LASF88:
 12489 21a4 5F5F494E 		.ascii	"__INT64_MAX__ 9223372036854775807LL\000"
 12489      5436345F 
 12489      4D41585F 
 12489      5F203932 
 12489      32333337 
 12490              	.LASF1111:
 12491 21c8 73706565 		.ascii	"speed_limited_torque_mode\000"
 12491      645F6C69 
 12491      6D697465 
 12491      645F746F 
 12491      72717565 
 12492              	.LASF1134:
 12493 21e2 656E6572 		.ascii	"energy_Wh\000"
 12493      67795F57 
 12493      6800
 12494              	.LASF7:
 12495 21ec 5F5F4154 		.ascii	"__ATOMIC_SEQ_CST 5\000"
 12495      4F4D4943 
ARM GAS  /var/folders/9j/_txx49hn253_s3mnzkyxlj8m0000gp/T//ccxigpJH.s 			page 256


 12495      5F534551 
 12495      5F435354 
 12495      203500
 12496              	.LASF651:
 12497 21ff 5F5F5F5F 		.ascii	"____VCU_DASH_HEARTBEAT__RTD_LIGHT__ON 1\000"
 12497      5643555F 
 12497      44415348 
 12497      5F484541 
 12497      52544245 
 12498              	.LASF954:
 12499 2227 43414E5F 		.ascii	"CAN_BMS_ERROR_LTC6804_OWT\000"
 12499      424D535F 
 12499      4552524F 
 12499      525F4C54 
 12499      43363830 
 12500              	.LASF1029:
 12501 2241 73687574 		.ascii	"shutdown_bms\000"
 12501      646F776E 
 12501      5F626D73 
 12501      00
 12502              	.LASF778:
 12503 224e 5F5F5F5F 		.ascii	"____VCU_MC_MESSAGE__DATA_1__DATA_LOW_BYTE__TO 255\000"
 12503      5643555F 
 12503      4D435F4D 
 12503      45535341 
 12503      47455F5F 
 12504              	.LASF749:
 12505 2280 5F5F5F5F 		.ascii	"____VCU_DASH_HEARTBEAT__RESET_LATCH_OPEN__OPEN 1\000"
 12505      5643555F 
 12505      44415348 
 12505      5F484541 
 12505      52544245 
 12506              	.LASF502:
 12507 22b1 5F5F5F5F 		.ascii	"____MC_RESPONSE__REG_ID__IGBT_TEMP 74\000"
 12507      4D435F52 
 12507      4553504F 
 12507      4E53455F 
 12507      5F524547 
 12508              	.LASF623:
 12509 22d7 5F5F424D 		.ascii	"__BMS_CELL_TEMPS__MAX_CELL_TEMP_ID__start 54\000"
 12509      535F4345 
 12509      4C4C5F54 
 12509      454D5053 
 12509      5F5F4D41 
 12510              	.LASF1096:
 12511 2304 7761726E 		.ascii	"warning_rfe_signal_inactive\000"
 12511      696E675F 
 12511      7266655F 
 12511      7369676E 
 12511      616C5F69 
 12512              	.LASF435:
 12513 2320 494E545F 		.ascii	"INT_FAST8_MAX (__INT_FAST8_MAX__)\000"
 12513      46415354 
 12513      385F4D41 
 12513      5820285F 
 12513      5F494E54 
 12514              	.LASF1117:
ARM GAS  /var/folders/9j/_txx49hn253_s3mnzkyxlj8m0000gp/T//ccxigpJH.s 			page 257


 12515 2342 696E7665 		.ascii	"inverted_command\000"
 12515      72746564 
 12515      5F636F6D 
 12515      6D616E64 
 12515      00
 12516              	.LASF448:
 12517 2353 55494E54 		.ascii	"UINTMAX_MAX (__UINTMAX_MAX__)\000"
 12517      4D41585F 
 12517      4D415820 
 12517      285F5F55 
 12517      494E544D 
 12518              	.LASF113:
 12519 2371 5F5F5549 		.ascii	"__UINT_FAST8_MAX__ 4294967295U\000"
 12519      4E545F46 
 12519      41535438 
 12519      5F4D4158 
 12519      5F5F2034 
 12520              	.LASF275:
 12521 2390 5F5F5451 		.ascii	"__TQ_FBIT__ 127\000"
 12521      5F464249 
 12521      545F5F20 
 12521      31323700 
 12522              	.LASF1052:
 12523 23a0 746F7271 		.ascii	"torque_cmd\000"
 12523      75655F63 
 12523      6D6400
 12524              	.LASF90:
 12525 23ab 5F5F5549 		.ascii	"__UINT16_MAX__ 65535\000"
 12525      4E543136 
 12525      5F4D4158 
 12525      5F5F2036 
 12525      35353335 
 12526              	.LASF406:
 12527 23c0 5F5F696E 		.ascii	"__int_fast64_t_defined 1\000"
 12527      745F6661 
 12527      73743634 
 12527      5F745F64 
 12527      6566696E 
 12528              	.LASF819:
 12529 23d9 424D535F 		.ascii	"BMS_HEARTBEAT__freq 1\000"
 12529      48454152 
 12529      54424541 
 12529      545F5F66 
 12529      72657120 
 12530              	.LASF17:
 12531 23ef 5F5F5349 		.ascii	"__SIZEOF_SHORT__ 2\000"
 12531      5A454F46 
 12531      5F53484F 
 12531      52545F5F 
 12531      203200
 12532              	.LASF1004:
 12533 2402 61636365 		.ascii	"accel_2_raw\000"
 12533      6C5F325F 
 12533      72617700 
 12534              	.LASF616:
 12535 240e 5F5F424D 		.ascii	"__BMS_CELL_TEMPS__AVE_CELL_TEMP__end 14\000"
 12535      535F4345 
ARM GAS  /var/folders/9j/_txx49hn253_s3mnzkyxlj8m0000gp/T//ccxigpJH.s 			page 258


 12535      4C4C5F54 
 12535      454D5053 
 12535      5F5F4156 
 12536              	.LASF1001:
 12537 2436 5F426F6F 		.ascii	"_Bool\000"
 12537      6C00
 12538              	.LASF1097:
 12539 243c 7761726E 		.ascii	"warning_power_voltage_low\000"
 12539      696E675F 
 12539      706F7765 
 12539      725F766F 
 12539      6C746167 
 12540              	.LASF725:
 12541 2456 5F5F5F5F 		.ascii	"____VCU_DASH_HEARTBEAT__HEARTBEAT_REAR_CAN_NODE_DEA"
 12541      5643555F 
 12541      44415348 
 12541      5F484541 
 12541      52544245 
 12542 2489 445F5F44 		.ascii	"D__DEAD 1\000"
 12542      45414420 
 12542      3100
 12543              	.LASF562:
 12544 2493 5F5F4652 		.ascii	"__FRONT_CAN_NODE_DRIVER_OUTPUT__BRAKE_ENGAGED__end "
 12544      4F4E545F 
 12544      43414E5F 
 12544      4E4F4445 
 12544      5F445249 
 12545 24c6 333400   		.ascii	"34\000"
 12546              	.LASF351:
 12547 24c9 5F535953 		.ascii	"_SYS_FEATURES_H \000"
 12547      5F464541 
 12547      54555245 
 12547      535F4820 
 12547      00
 12548              	.LASF710:
 12549 24da 5F5F5F5F 		.ascii	"____VCU_DASH_HEARTBEAT__SHUTDOWN_MASTER_RESET__CLOS"
 12549      5643555F 
 12549      44415348 
 12549      5F484541 
 12549      52544245 
 12550 250d 45442030 		.ascii	"ED 0\000"
 12550      00
 12551              	.LASF1077:
 12552 2512 76616C75 		.ascii	"value\000"
 12552      6500
 12553              	.LASF1114:
 12554 2518 6C6F775F 		.ascii	"low_speed\000"
 12554      73706565 
 12554      6400
 12555              	.LASF20:
 12556 2522 5F5F5349 		.ascii	"__SIZEOF_LONG_DOUBLE__ 8\000"
 12556      5A454F46 
 12556      5F4C4F4E 
 12556      475F444F 
 12556      55424C45 
 12557              	.LASF514:
 12558 253b 43555252 		.ascii	"CURRENT_SENSOR_VOLTAGE__freq 20\000"
ARM GAS  /var/folders/9j/_txx49hn253_s3mnzkyxlj8m0000gp/T//ccxigpJH.s 			page 259


 12558      454E545F 
 12558      53454E53 
 12558      4F525F56 
 12558      4F4C5441 
 12559              	.LASF319:
 12560 255b 5F5F5052 		.ascii	"__PRAGMA_REDEFINE_EXTNAME 1\000"
 12560      41474D41 
 12560      5F524544 
 12560      4546494E 
 12560      455F4558 
 12561              	.LASF1078:
 12562 2577 43616E5F 		.ascii	"Can_MC_DataReading_T\000"
 12562      4D435F44 
 12562      61746152 
 12562      65616469 
 12562      6E675F54 
 12563              	.LASF948:
 12564 258c 43414E5F 		.ascii	"CAN_BMS_STATE_BATTERY_FAULT\000"
 12564      424D535F 
 12564      53544154 
 12564      455F4241 
 12564      54544552 
 12565              	.LASF788:
 12566 25a8 5F5F5F5F 		.ascii	"____GYRO_HORIZONTAL__X_AXIS__X_AXIS__TO 4294967295\000"
 12566      4759524F 
 12566      5F484F52 
 12566      495A4F4E 
 12566      54414C5F 
 12567              	.LASF578:
 12568 25db 5F5F5245 		.ascii	"__REAR_CAN_NODE_WHEEL_SPEED__REAR_RIGHT_WHEEL_SPEED"
 12568      41525F43 
 12568      414E5F4E 
 12568      4F44455F 
 12568      57484545 
 12569 260e 5F5F656E 		.ascii	"__end 31\000"
 12569      64203331 
 12569      00
 12570              	.LASF372:
 12571 2617 63686172 		.ascii	"char\000"
 12571      00
 12572              	.LASF298:
 12573 261c 5F5F5553 		.ascii	"__USA_IBIT__ 16\000"
 12573      415F4942 
 12573      49545F5F 
 12573      20313600 
 12574              	.LASF466:
 12575 262c 494E544D 		.ascii	"INTMAX_C(x) __INTMAX_C(x)\000"
 12575      41585F43 
 12575      28782920 
 12575      5F5F494E 
 12575      544D4158 
 12576              	.LASF453:
 12577 2646 50545244 		.ascii	"PTRDIFF_MIN (-PTRDIFF_MAX - 1)\000"
 12577      4946465F 
 12577      4D494E20 
 12577      282D5054 
 12577      52444946 
ARM GAS  /var/folders/9j/_txx49hn253_s3mnzkyxlj8m0000gp/T//ccxigpJH.s 			page 260


 12578              	.LASF67:
 12579 2665 5F5F4758 		.ascii	"__GXX_ABI_VERSION 1002\000"
 12579      585F4142 
 12579      495F5645 
 12579      5253494F 
 12579      4E203130 
 12580              	.LASF1011:
 12581 267c 43616E5F 		.ascii	"Can_FrontCanNode_WheelSpeed_T\000"
 12581      46726F6E 
 12581      7443616E 
 12581      4E6F6465 
 12581      5F576865 
 12582              	.LASF1015:
 12583 269a 72656172 		.ascii	"rear_left_wheel_speed\000"
 12583      5F6C6566 
 12583      745F7768 
 12583      65656C5F 
 12583      73706565 
 12584              	.LASF62:
 12585 26b0 5F5F5549 		.ascii	"__UINT_FAST64_TYPE__ long long unsigned int\000"
 12585      4E545F46 
 12585      41535436 
 12585      345F5459 
 12585      50455F5F 
 12586              	.LASF813:
 12587 26dc 5F5F5F5F 		.ascii	"____BMS_ERRORS__ERROR_TYPE__CAN 10\000"
 12587      424D535F 
 12587      4552524F 
 12587      52535F5F 
 12587      4552524F 
 12588              	.LASF847:
 12589 26ff 5F5F424D 		.ascii	"__BMS_PACK_STATUS__PACK_VOLTAGE__start 0\000"
 12589      535F5041 
 12589      434B5F53 
 12589      54415455 
 12589      535F5F50 
 12590              	.LASF1177:
 12591 2728 43616E5F 		.ascii	"Can_Vcu_BmsHeartbeat_FromCan\000"
 12591      5663755F 
 12591      426D7348 
 12591      65617274 
 12591      62656174 
 12592              	.LASF1024:
 12593 2745 6C696D70 		.ascii	"limp_mode\000"
 12593      5F6D6F64 
 12593      6500
 12594              	.LASF533:
 12595 274f 5F5F4355 		.ascii	"__CURRENT_SENSOR_ENERGY__PACK_ENERGY__start 16\000"
 12595      5252454E 
 12595      545F5345 
 12595      4E534F52 
 12595      5F454E45 
 12596              	.LASF132:
 12597 277e 5F5F464C 		.ascii	"__FLT_MIN__ 1.1754943508222875e-38F\000"
 12597      545F4D49 
 12597      4E5F5F20 
 12597      312E3137 
ARM GAS  /var/folders/9j/_txx49hn253_s3mnzkyxlj8m0000gp/T//ccxigpJH.s 			page 261


 12597      35343934 
 12598              	.LASF1051:
 12599 27a2 43616E5F 		.ascii	"Can_Vcu_MCRequest_T\000"
 12599      5663755F 
 12599      4D435265 
 12599      71756573 
 12599      745F5400 
 12600              	.LASF287:
 12601 27b6 5F5F4841 		.ascii	"__HA_FBIT__ 7\000"
 12601      5F464249 
 12601      545F5F20 
 12601      3700
 12602              	.LASF501:
 12603 27c4 5F5F5F5F 		.ascii	"____MC_RESPONSE__REG_ID__SPEED_MAX_RPM 200\000"
 12603      4D435F52 
 12603      4553504F 
 12603      4E53455F 
 12603      5F524547 
 12604              	.LASF716:
 12605 27ef 5F5F5643 		.ascii	"__VCU_DASH_HEARTBEAT__UNUSED__start 17\000"
 12605      555F4441 
 12605      53485F48 
 12605      45415254 
 12605      42454154 
 12606              	.LASF892:
 12607 2816 5F5F5F5F 		.ascii	"____MAGNETOMETER_VERTICAL__Z_AXIS__Z_AXIS__TO 42949"
 12607      4D41474E 
 12607      45544F4D 
 12607      45544552 
 12607      5F564552 
 12608 2849 36373239 		.ascii	"67295\000"
 12608      3500
 12609              	.LASF451:
 12610 284f 5349475F 		.ascii	"SIG_ATOMIC_MAX (__STDINT_EXP(INT_MAX))\000"
 12610      41544F4D 
 12610      49435F4D 
 12610      41582028 
 12610      5F5F5354 
 12611              	.LASF1085:
 12612 2876 6572726F 		.ascii	"error_motor_temp_high\000"
 12612      725F6D6F 
 12612      746F725F 
 12612      74656D70 
 12612      5F686967 
 12613              	.LASF480:
 12614 288c 5F5F5F5F 		.ascii	"____FSAE_CAN_SPEC_H \000"
 12614      46534145 
 12614      5F43414E 
 12614      5F535045 
 12614      435F4820 
 12615              	.LASF1091:
 12616 28a1 6572726F 		.ascii	"error_i2r_overload\000"
 12616      725F6932 
 12616      725F6F76 
 12616      65726C6F 
 12616      616400
 12617              	.LASF380:
ARM GAS  /var/folders/9j/_txx49hn253_s3mnzkyxlj8m0000gp/T//ccxigpJH.s 			page 262


 12618 28b4 6C6F6E67 		.ascii	"long +4\000"
 12618      202B3400 
 12619              	.LASF924:
 12620 28bc 5F5F7569 		.ascii	"__uint16_t\000"
 12620      6E743136 
 12620      5F7400
 12621              	.LASF737:
 12622 28c7 5F5F5F5F 		.ascii	"____VCU_DASH_HEARTBEAT__HEARTBEAT_MC_DEAD__DEAD 1\000"
 12622      5643555F 
 12622      44415348 
 12622      5F484541 
 12622      52544245 
 12623              	.LASF1033:
 12624 28f9 73687574 		.ascii	"shutdown_precharge\000"
 12624      646F776E 
 12624      5F707265 
 12624      63686172 
 12624      676500
 12625              	.LASF194:
 12626 290c 5F5F5553 		.ascii	"__USFRACT_MIN__ 0.0UHR\000"
 12626      46524143 
 12626      545F4D49 
 12626      4E5F5F20 
 12626      302E3055 
 12627              	.LASF1019:
 12628 2923 7274645F 		.ascii	"rtd_light\000"
 12628      6C696768 
 12628      7400
 12629              	.LASF358:
 12630 292d 5F5F5F69 		.ascii	"___int16_t_defined 1\000"
 12630      6E743136 
 12630      5F745F64 
 12630      6566696E 
 12630      65642031 
 12631              	.LASF505:
 12632 2942 5F5F5F5F 		.ascii	"____MC_RESPONSE__DATA__DATA__FROM 0\000"
 12632      4D435F52 
 12632      4553504F 
 12632      4E53455F 
 12632      5F444154 
 12633              	.LASF156:
 12634 2966 5F5F4C44 		.ascii	"__LDBL_MAX_EXP__ 1024\000"
 12634      424C5F4D 
 12634      41585F45 
 12634      58505F5F 
 12634      20313032 
 12635              	.LASF964:
 12636 297c 43414E5F 		.ascii	"CAN_BMS_ERROR_CONTROL_FLOW\000"
 12636      424D535F 
 12636      4552524F 
 12636      525F434F 
 12636      4E54524F 
 12637              	.LASF1089:
 12638 2997 6572726F 		.ascii	"error_raceaway\000"
 12638      725F7261 
 12638      63656177 
 12638      617900
ARM GAS  /var/folders/9j/_txx49hn253_s3mnzkyxlj8m0000gp/T//ccxigpJH.s 			page 263


 12639              	.LASF1066:
 12640 29a6 7061636B 		.ascii	"pack_current\000"
 12640      5F637572 
 12640      72656E74 
 12640      00
 12641              	.LASF395:
 12642 29b3 5F5F696E 		.ascii	"__int8_t_defined 1\000"
 12642      74385F74 
 12642      5F646566 
 12642      696E6564 
 12642      203100
 12643              	.LASF149:
 12644 29c6 5F5F4442 		.ascii	"__DBL_HAS_DENORM__ 1\000"
 12644      4C5F4841 
 12644      535F4445 
 12644      4E4F524D 
 12644      5F5F2031 
 12645              	.LASF500:
 12646 29db 5F5F5F5F 		.ascii	"____MC_RESPONSE__REG_ID__CURRENT_LIMIT_IGBT_TEMP 88"
 12646      4D435F52 
 12646      4553504F 
 12646      4E53455F 
 12646      5F524547 
 12647 2a0e 00       		.ascii	"\000"
 12648              	.LASF584:
 12649 2a0f 5F5F5F5F 		.ascii	"____REAR_CAN_NODE_WHEEL_SPEED__REAR_LEFT_WHEEL_SPEE"
 12649      52454152 
 12649      5F43414E 
 12649      5F4E4F44 
 12649      455F5748 
 12650 2a42 445F5F52 		.ascii	"D__REAR_LEFT_WHEEL_SPEED__TO 4294967295\000"
 12650      4541525F 
 12650      4C454654 
 12650      5F574845 
 12650      454C5F53 
 12651              	.LASF1148:
 12652 2a6a 43616E5F 		.ascii	"Can_Vcu_DashHeartbeat_Test\000"
 12652      5663755F 
 12652      44617368 
 12652      48656172 
 12652      74626561 
 12653              	.LASF713:
 12654 2a85 5F5F5643 		.ascii	"__VCU_DASH_HEARTBEAT__SHUTDOWN_DRIVER_RESET__end 16"
 12654      555F4441 
 12654      53485F48 
 12654      45415254 
 12654      42454154 
 12655 2ab8 00       		.ascii	"\000"
 12656              	.LASF446:
 12657 2ab9 494E544D 		.ascii	"INTMAX_MAX (__INTMAX_MAX__)\000"
 12657      41585F4D 
 12657      41582028 
 12657      5F5F494E 
 12657      544D4158 
 12658              	.LASF423:
 12659 2ad5 494E5433 		.ascii	"INT32_MAX (__INT32_MAX__)\000"
 12659      325F4D41 
ARM GAS  /var/folders/9j/_txx49hn253_s3mnzkyxlj8m0000gp/T//ccxigpJH.s 			page 264


 12659      5820285F 
 12659      5F494E54 
 12659      33325F4D 
 12660              	.LASF291:
 12661 2aef 5F5F4441 		.ascii	"__DA_FBIT__ 31\000"
 12661      5F464249 
 12661      545F5F20 
 12661      333100
 12662              	.LASF362:
 12663 2afe 5F5F5F69 		.ascii	"___int_least16_t_defined 1\000"
 12663      6E745F6C 
 12663      65617374 
 12663      31365F74 
 12663      5F646566 
 12664              	.LASF621:
 12665 2b19 5F5F424D 		.ascii	"__BMS_CELL_TEMPS__MAX_CELL_TEMP__start 39\000"
 12665      535F4345 
 12665      4C4C5F54 
 12665      454D5053 
 12665      5F5F4D41 
 12666              	.LASF134:
 12667 2b43 5F5F464C 		.ascii	"__FLT_DENORM_MIN__ 1.4012984643248171e-45F\000"
 12667      545F4445 
 12667      4E4F524D 
 12667      5F4D494E 
 12667      5F5F2031 
 12668              	.LASF390:
 12669 2b6e 5F5F4C45 		.ascii	"__LEAST8 \"hh\"\000"
 12669      41535438 
 12669      20226868 
 12669      2200
 12670              	.LASF95:
 12671 2b7c 5F5F494E 		.ascii	"__INT_LEAST16_MAX__ 32767\000"
 12671      545F4C45 
 12671      41535431 
 12671      365F4D41 
 12671      585F5F20 
 12672              	.LASF1178:
 12673 2b96 43616E5F 		.ascii	"Can_Vcu_DashHeartbeat_ToCan\000"
 12673      5663755F 
 12673      44617368 
 12673      48656172 
 12673      74626561 
 12674              	.LASF720:
 12675 2bb2 5F5F5F5F 		.ascii	"____VCU_DASH_HEARTBEAT__HEARTBEAT_FRONT_CAN_NODE_DE"
 12675      5643555F 
 12675      44415348 
 12675      5F484541 
 12675      52544245 
 12676 2be5 41445F5F 		.ascii	"AD__ALIVE 0\000"
 12676      414C4956 
 12676      45203000 
 12677              	.LASF997:
 12678 2bf1 73746565 		.ascii	"steering_position\000"
 12678      72696E67 
 12678      5F706F73 
 12678      6974696F 
ARM GAS  /var/folders/9j/_txx49hn253_s3mnzkyxlj8m0000gp/T//ccxigpJH.s 			page 265


 12678      6E00
 12679              	.LASF516:
 12680 2c03 5F5F4355 		.ascii	"__CURRENT_SENSOR_VOLTAGE__PACK_VOLTAGE__end 47\000"
 12680      5252454E 
 12680      545F5345 
 12680      4E534F52 
 12680      5F564F4C 
 12681              	.LASF66:
 12682 2c32 5F5F6861 		.ascii	"__has_include_next(STR) __has_include_next__(STR)\000"
 12682      735F696E 
 12682      636C7564 
 12682      655F6E65 
 12682      78742853 
 12683              	.LASF421:
 12684 2c64 55494E54 		.ascii	"UINT_LEAST16_MAX (__UINT_LEAST16_MAX__)\000"
 12684      5F4C4541 
 12684      53543136 
 12684      5F4D4158 
 12684      20285F5F 
 12685              	.LASF106:
 12686 2c8c 5F5F5549 		.ascii	"__UINT32_C(c) c ## UL\000"
 12686      4E543332 
 12686      5F432863 
 12686      29206320 
 12686      23232055 
 12687              	.LASF805:
 12688 2ca2 5F5F5F5F 		.ascii	"____BMS_ERRORS__ERROR_TYPE__LTC6804_CVST 2\000"
 12688      424D535F 
 12688      4552524F 
 12688      52535F5F 
 12688      4552524F 
 12689              	.LASF538:
 12690 2ccd 46524F4E 		.ascii	"FRONT_CAN_NODE_DRIVER_OUTPUT__freq 50\000"
 12690      545F4341 
 12690      4E5F4E4F 
 12690      44455F44 
 12690      52495645 
 12691              	.LASF1158:
 12692 2cf3 43616E5F 		.ascii	"Can_MC_ErrorAndWarning_Test\000"
 12692      4D435F45 
 12692      72726F72 
 12692      416E6457 
 12692      61726E69 
 12693              	.LASF459:
 12694 2d0f 55494E54 		.ascii	"UINT8_C(x) __UINT8_C(x)\000"
 12694      385F4328 
 12694      7829205F 
 12694      5F55494E 
 12694      54385F43 
 12695              	.LASF133:
 12696 2d27 5F5F464C 		.ascii	"__FLT_EPSILON__ 1.1920928955078125e-7F\000"
 12696      545F4550 
 12696      53494C4F 
 12696      4E5F5F20 
 12696      312E3139 
 12697              	.LASF835:
 12698 2d4e 5F5F5F5F 		.ascii	"____BMS_HEARTBEAT__FAN_ENABLE__OFF 0\000"
ARM GAS  /var/folders/9j/_txx49hn253_s3mnzkyxlj8m0000gp/T//ccxigpJH.s 			page 266


 12698      424D535F 
 12698      48454152 
 12698      54424541 
 12698      545F5F46 
 12699              	.LASF312:
 12700 2d73 5F5F4743 		.ascii	"__GCC_ATOMIC_SHORT_LOCK_FREE 1\000"
 12700      435F4154 
 12700      4F4D4943 
 12700      5F53484F 
 12700      52545F4C 
 12701              	.LASF678:
 12702 2d92 5F5F5F5F 		.ascii	"____VCU_DASH_HEARTBEAT__ACTIVE_AERO__OFF 0\000"
 12702      5643555F 
 12702      44415348 
 12702      5F484541 
 12702      52544245 
 12703              	.LASF772:
 12704 2dbd 5F5F5F5F 		.ascii	"____VCU_MC_MESSAGE__REG_ID__TORQUE_CMD 144\000"
 12704      5643555F 
 12704      4D435F4D 
 12704      45535341 
 12704      47455F5F 
 12705              	.LASF774:
 12706 2de8 5F5F5F5F 		.ascii	"____VCU_MC_MESSAGE__REG_ID__MSG_REQUEST 61\000"
 12706      5643555F 
 12706      4D435F4D 
 12706      45535341 
 12706      47455F5F 
 12707              	.LASF31:
 12708 2e13 5F5F5054 		.ascii	"__PTRDIFF_TYPE__ int\000"
 12708      52444946 
 12708      465F5459 
 12708      50455F5F 
 12708      20696E74 
 12709              	.LASF894:
 12710 2e28 44415348 		.ascii	"DASH_HEARTBEAT__freq 1\000"
 12710      5F484541 
 12710      52544245 
 12710      41545F5F 
 12710      66726571 
 12711              	.LASF902:
 12712 2e3f 5F5F4441 		.ascii	"__DASH_REQUEST__REQUEST_TYPE__end 2\000"
 12712      53485F52 
 12712      45515545 
 12712      53545F5F 
 12712      52455155 
 12713              	.LASF959:
 12714 2e63 43414E5F 		.ascii	"CAN_BMS_ERROR_CELL_OVER_TEMP\000"
 12714      424D535F 
 12714      4552524F 
 12714      525F4345 
 12714      4C4C5F4F 
 12715              	.LASF1155:
 12716 2e80 43616E5F 		.ascii	"Can_Dash_Heartbeat_Test\000"
 12716      44617368 
 12716      5F486561 
 12716      72746265 
ARM GAS  /var/folders/9j/_txx49hn253_s3mnzkyxlj8m0000gp/T//ccxigpJH.s 			page 267


 12716      61745F54 
 12717              	.LASF581:
 12718 2e98 5F5F5245 		.ascii	"__REAR_CAN_NODE_WHEEL_SPEED__REAR_LEFT_WHEEL_SPEED_"
 12718      41525F43 
 12718      414E5F4E 
 12718      4F44455F 
 12718      57484545 
 12719 2ecb 5F737461 		.ascii	"_start 32\000"
 12719      72742033 
 12719      3200
 12720              	.LASF426:
 12721 2ed5 494E545F 		.ascii	"INT_LEAST32_MAX (__INT_LEAST32_MAX__)\000"
 12721      4C454153 
 12721      5433325F 
 12721      4D415820 
 12721      285F5F49 
 12722              	.LASF425:
 12723 2efb 494E545F 		.ascii	"INT_LEAST32_MIN (-__INT_LEAST32_MAX__ - 1)\000"
 12723      4C454153 
 12723      5433325F 
 12723      4D494E20 
 12723      282D5F5F 
 12724              	.LASF473:
 12725 2f26 66616C73 		.ascii	"false 0\000"
 12725      65203000 
 12726              	.LASF634:
 12727 2f2e 5F5F5F5F 		.ascii	"____ACCELEROMETER_HORIZONTAL__Y_AXIS__Y_AXIS__TO 42"
 12727      41434345 
 12727      4C45524F 
 12727      4D455445 
 12727      525F484F 
 12728 2f61 39343936 		.ascii	"94967295\000"
 12728      37323935 
 12728      00
 12729              	.LASF232:
 12730 2f6a 5F5F5553 		.ascii	"__USACCUM_FBIT__ 8\000"
 12730      41434355 
 12730      4D5F4642 
 12730      49545F5F 
 12730      203800
 12731              	.LASF1190:
 12732 2f7d 43616E5F 		.ascii	"Can_Bms_Error_ToCan\000"
 12732      426D735F 
 12732      4572726F 
 12732      725F546F 
 12732      43616E00 
 12733              	.LASF316:
 12734 2f91 5F5F4743 		.ascii	"__GCC_ATOMIC_TEST_AND_SET_TRUEVAL 1\000"
 12734      435F4154 
 12734      4F4D4943 
 12734      5F544553 
 12734      545F414E 
 12735              	.LASF839:
 12736 2fb5 5F5F5F5F 		.ascii	"____BMS_HEARTBEAT__DCDC_ENABLE__OFF 0\000"
 12736      424D535F 
 12736      48454152 
 12736      54424541 
ARM GAS  /var/folders/9j/_txx49hn253_s3mnzkyxlj8m0000gp/T//ccxigpJH.s 			page 268


 12736      545F5F44 
 12737              	.LASF558:
 12738 2fdb 5F5F4652 		.ascii	"__FRONT_CAN_NODE_DRIVER_OUTPUT__BRAKE_THROTTLE_CONF"
 12738      4F4E545F 
 12738      43414E5F 
 12738      4E4F4445 
 12738      5F445249 
 12739 300e 4C494354 		.ascii	"LICT__end 33\000"
 12739      5F5F656E 
 12739      64203333 
 12739      00
 12740              	.LASF247:
 12741 301b 5F5F4C41 		.ascii	"__LACCUM_FBIT__ 31\000"
 12741      4343554D 
 12741      5F464249 
 12741      545F5F20 
 12741      333100
 12742              	.LASF740:
 12743 302e 5F5F5F5F 		.ascii	"____VCU_DASH_HEARTBEAT__HEARTBEAT_CURRENT_SENSOR_DE"
 12743      5643555F 
 12743      44415348 
 12743      5F484541 
 12743      52544245 
 12744 3061 41445F5F 		.ascii	"AD__ALIVE 0\000"
 12744      414C4956 
 12744      45203000 
 12745              	.LASF1039:
 12746 306d 68656172 		.ascii	"heartbeat_dash_dead\000"
 12746      74626561 
 12746      745F6461 
 12746      73685F64 
 12746      65616400 
 12747              	.LASF525:
 12748 3081 52454152 		.ascii	"REAR_CAN_NODE_HEARTBEAT__id 49\000"
 12748      5F43414E 
 12748      5F4E4F44 
 12748      455F4845 
 12748      41525442 
 12749              	.LASF609:
 12750 30a0 5F5F4652 		.ascii	"__FRONT_CAN_NODE_RAW_VALUES__STEERING_POT__start 40"
 12750      4F4E545F 
 12750      43414E5F 
 12750      4E4F4445 
 12750      5F524157 
 12751 30d3 00       		.ascii	"\000"
 12752              	.LASF164:
 12753 30d4 5F5F4C44 		.ascii	"__LDBL_HAS_INFINITY__ 1\000"
 12753      424C5F48 
 12753      41535F49 
 12753      4E46494E 
 12753      4954595F 
 12754              	.LASF697:
 12755 30ec 5F5F5643 		.ascii	"__VCU_DASH_HEARTBEAT__SHUTDOWN_BSPD__end 12\000"
 12755      555F4441 
 12755      53485F48 
 12755      45415254 
 12755      42454154 
ARM GAS  /var/folders/9j/_txx49hn253_s3mnzkyxlj8m0000gp/T//ccxigpJH.s 			page 269


 12756              	.LASF170:
 12757 3118 5F5F4445 		.ascii	"__DEC32_MAX__ 9.999999E96DF\000"
 12757      4333325F 
 12757      4D41585F 
 12757      5F20392E 
 12757      39393939 
 12758              	.LASF1140:
 12759 3134 656E645F 		.ascii	"end_bitstring\000"
 12759      62697473 
 12759      7472696E 
 12759      6700
 12760              	.LASF662:
 12761 3142 5F5F5F5F 		.ascii	"____VCU_DASH_HEARTBEAT__HV_LIGHT__OFF 0\000"
 12761      5643555F 
 12761      44415348 
 12761      5F484541 
 12761      52544245 
 12762              	.LASF407:
 12763 316a 494E5450 		.ascii	"INTPTR_MIN (-__INTPTR_MAX__ - 1)\000"
 12763      54525F4D 
 12763      494E2028 
 12763      2D5F5F49 
 12763      4E545054 
 12764              	.LASF1099:
 12765 318b 7761726E 		.ascii	"warning_device_temp_high\000"
 12765      696E675F 
 12765      64657669 
 12765      63655F74 
 12765      656D705F 
 12766              	.LASF1142:
 12767 31a4 65717561 		.ascii	"equal\000"
 12767      6C00
 12768              	.LASF1207:
 12769 31aa 43616E5F 		.ascii	"Can_CurrentSensor_Power_FromCan\000"
 12769      43757272 
 12769      656E7453 
 12769      656E736F 
 12769      725F506F 
 12770              	.LASF1025:
 12771 31ca 6C765F77 		.ascii	"lv_warning\000"
 12771      61726E69 
 12771      6E6700
 12772              	.LASF1153:
 12773 31d5 43616E5F 		.ascii	"Can_Bms_PackStatus_Test\000"
 12773      426D735F 
 12773      5061636B 
 12773      53746174 
 12773      75735F54 
 12774              	.LASF991:
 12775 31ed 43414E5F 		.ascii	"CAN_DASH_REQUEST_LIMP_MODE_ENABLE\000"
 12775      44415348 
 12775      5F524551 
 12775      55455354 
 12775      5F4C494D 
 12776              	.LASF546:
 12777 320f 5F5F4652 		.ascii	"__FRONT_CAN_NODE_DRIVER_OUTPUT__BRAKE_PRESSURE__end"
 12777      4F4E545F 
ARM GAS  /var/folders/9j/_txx49hn253_s3mnzkyxlj8m0000gp/T//ccxigpJH.s 			page 270


 12777      43414E5F 
 12777      4E4F4445 
 12777      5F445249 
 12778 3242 20323300 		.ascii	" 23\000"
 12779              	.LASF84:
 12780 3246 5F5F5349 		.ascii	"__SIG_ATOMIC_MIN__ (-__SIG_ATOMIC_MAX__ - 1)\000"
 12780      475F4154 
 12780      4F4D4943 
 12780      5F4D494E 
 12780      5F5F2028 
 12781              	.LASF244:
 12782 3273 5F5F5541 		.ascii	"__UACCUM_MIN__ 0.0UK\000"
 12782      4343554D 
 12782      5F4D494E 
 12782      5F5F2030 
 12782      2E30554B 
 12783              	.LASF918:
 12784 3288 7369676E 		.ascii	"signed char\000"
 12784      65642063 
 12784      68617200 
 12785              	.LASF798:
 12786 3294 5F5F5F5F 		.ascii	"____GYRO_VERTICAL__Z_AXIS__Z_AXIS__TO 4294967295\000"
 12786      4759524F 
 12786      5F564552 
 12786      54494341 
 12786      4C5F5F5A 
 12787              	.LASF807:
 12788 32c5 5F5F5F5F 		.ascii	"____BMS_ERRORS__ERROR_TYPE__EEPROM 4\000"
 12788      424D535F 
 12788      4552524F 
 12788      52535F5F 
 12788      4552524F 
 12789              	.LASF674:
 12790 32ea 5F5F5F5F 		.ascii	"____VCU_DASH_HEARTBEAT__LV_WARNING__OFF 0\000"
 12790      5643555F 
 12790      44415348 
 12790      5F484541 
 12790      52544245 
 12791              	.LASF547:
 12792 3314 5F5F5F5F 		.ascii	"____FRONT_CAN_NODE_DRIVER_OUTPUT__BRAKE_PRESSURE__B"
 12792      46524F4E 
 12792      545F4341 
 12792      4E5F4E4F 
 12792      44455F44 
 12793 3347 52414B45 		.ascii	"RAKE_PRESSURE__FROM 0\000"
 12793      5F505245 
 12793      53535552 
 12793      455F5F46 
 12793      524F4D20 
 12794              	.LASF450:
 12795 335d 5349475F 		.ascii	"SIG_ATOMIC_MIN (-__STDINT_EXP(INT_MAX) - 1)\000"
 12795      41544F4D 
 12795      49435F4D 
 12795      494E2028 
 12795      2D5F5F53 
 12796              	.LASF1034:
 12797 3389 73687574 		.ascii	"shutdown_master_reset\000"
ARM GAS  /var/folders/9j/_txx49hn253_s3mnzkyxlj8m0000gp/T//ccxigpJH.s 			page 271


 12797      646F776E 
 12797      5F6D6173 
 12797      7465725F 
 12797      72657365 
 12798              	.LASF900:
 12799 339f 44415348 		.ascii	"DASH_REQUEST__freq -1\000"
 12799      5F524551 
 12799      55455354 
 12799      5F5F6672 
 12799      6571202D 
 12800              	.LASF580:
 12801 33b5 5F5F5F5F 		.ascii	"____REAR_CAN_NODE_WHEEL_SPEED__REAR_RIGHT_WHEEL_SPE"
 12801      52454152 
 12801      5F43414E 
 12801      5F4E4F44 
 12801      455F5748 
 12802 33e8 45445F5F 		.ascii	"ED__REAR_RIGHT_WHEEL_SPEED__TO 4294967295\000"
 12802      52454152 
 12802      5F524947 
 12802      48545F57 
 12802      4845454C 
 12803              	.LASF714:
 12804 3412 5F5F5F5F 		.ascii	"____VCU_DASH_HEARTBEAT__SHUTDOWN_DRIVER_RESET__CLOS"
 12804      5643555F 
 12804      44415348 
 12804      5F484541 
 12804      52544245 
 12805 3445 45442030 		.ascii	"ED 0\000"
 12805      00
 12806              	.LASF1170:
 12807 344a 43616E5F 		.ascii	"Can_FrontCanNode_WheelSpeed_ToCan\000"
 12807      46726F6E 
 12807      7443616E 
 12807      4E6F6465 
 12807      5F576865 
 12808              	.LASF35:
 12809 346c 5F5F5549 		.ascii	"__UINTMAX_TYPE__ long long unsigned int\000"
 12809      4E544D41 
 12809      585F5459 
 12809      50455F5F 
 12809      206C6F6E 
 12810              	.LASF346:
 12811 3494 44454255 		.ascii	"DEBUG_ENABLE 1\000"
 12811      475F454E 
 12811      41424C45 
 12811      203100
 12812              	.LASF958:
 12813 34a3 43414E5F 		.ascii	"CAN_BMS_ERROR_CELL_UNDER_TEMP\000"
 12813      424D535F 
 12813      4552524F 
 12813      525F4345 
 12813      4C4C5F55 
 12814              	.LASF496:
 12815 34c1 5F5F5F5F 		.ascii	"____MC_RESPONSE__REG_ID__ERRORS_AND_WARNINGS 143\000"
 12815      4D435F52 
 12815      4553504F 
 12815      4E53455F 
ARM GAS  /var/folders/9j/_txx49hn253_s3mnzkyxlj8m0000gp/T//ccxigpJH.s 			page 272


 12815      5F524547 
 12816              	.LASF402:
 12817 34f2 5F5F696E 		.ascii	"__int_least64_t_defined 1\000"
 12817      745F6C65 
 12817      61737436 
 12817      345F745F 
 12817      64656669 
 12818              	.LASF1027:
 12819 350c 72656765 		.ascii	"regen\000"
 12819      6E00
 12820              	.LASF554:
 12821 3512 5F5F4652 		.ascii	"__FRONT_CAN_NODE_DRIVER_OUTPUT__THROTTLE_IMPLAUSIBL"
 12821      4F4E545F 
 12821      43414E5F 
 12821      4E4F4445 
 12821      5F445249 
 12822 3545 455F5F65 		.ascii	"E__end 32\000"
 12822      6E642033 
 12822      3200
 12823              	.LASF640:
 12824 354f 5F5F5F5F 		.ascii	"____ACCELEROMETER_VERTICAL__Z_AXIS__Z_AXIS__TO 4294"
 12824      41434345 
 12824      4C45524F 
 12824      4D455445 
 12824      525F5645 
 12825 3582 39363732 		.ascii	"967295\000"
 12825      393500
 12826              	.LASF532:
 12827 3589 43555252 		.ascii	"CURRENT_SENSOR_ENERGY__freq 20\000"
 12827      454E545F 
 12827      53454E53 
 12827      4F525F45 
 12827      4E455247 
 12828              	.LASF179:
 12829 35a8 5F5F4445 		.ascii	"__DEC64_SUBNORMAL_MIN__ 0.000000000000001E-383DD\000"
 12829      4336345F 
 12829      5355424E 
 12829      4F524D41 
 12829      4C5F4D49 
 12830              	.LASF196:
 12831 35d9 5F5F5553 		.ascii	"__USFRACT_EPSILON__ 0x1P-8UHR\000"
 12831      46524143 
 12831      545F4550 
 12831      53494C4F 
 12831      4E5F5F20 
 12832              	.LASF904:
 12833 35f7 5F5F5F5F 		.ascii	"____DASH_REQUEST__REQUEST_TYPE__RTD_ENABLE 1\000"
 12833      44415348 
 12833      5F524551 
 12833      55455354 
 12833      5F5F5245 
 12834              	.LASF855:
 12835 3624 5F5F5F5F 		.ascii	"____BMS_PACK_STATUS__PACK_CURRENT__POSITIVE_PACK_CU"
 12835      424D535F 
 12835      5041434B 
 12835      5F535441 
 12835      5455535F 
ARM GAS  /var/folders/9j/_txx49hn253_s3mnzkyxlj8m0000gp/T//ccxigpJH.s 			page 273


 12836 3657 5252454E 		.ascii	"RRENT__FROM 0\000"
 12836      545F5F46 
 12836      524F4D20 
 12836      3000
 12837              	.LASF561:
 12838 3665 5F5F4652 		.ascii	"__FRONT_CAN_NODE_DRIVER_OUTPUT__BRAKE_ENGAGED__star"
 12838      4F4E545F 
 12838      43414E5F 
 12838      4E4F4445 
 12838      5F445249 
 12839 3698 74203334 		.ascii	"t 34\000"
 12839      00
 12840              	.LASF112:
 12841 369d 5F5F494E 		.ascii	"__INT_FAST64_MAX__ 9223372036854775807LL\000"
 12841      545F4641 
 12841      53543634 
 12841      5F4D4158 
 12841      5F5F2039 
 12842              	.LASF1121:
 12843 36c6 63757272 		.ascii	"current_limited_via_speed\000"
 12843      656E745F 
 12843      6C696D69 
 12843      7465645F 
 12843      7669615F 
 12844              	.LASF192:
 12845 36e0 5F5F5553 		.ascii	"__USFRACT_FBIT__ 8\000"
 12845      46524143 
 12845      545F4642 
 12845      49545F5F 
 12845      203800
 12846              	.LASF260:
 12847 36f3 5F5F4C4C 		.ascii	"__LLACCUM_MAX__ 0X7FFFFFFFFFFFFFFFP-31LLK\000"
 12847      41434355 
 12847      4D5F4D41 
 12847      585F5F20 
 12847      30583746 
 12848              	.LASF726:
 12849 371d 5F5F5643 		.ascii	"__VCU_DASH_HEARTBEAT__HEARTBEAT_BMS_DEAD__start 27\000"
 12849      555F4441 
 12849      53485F48 
 12849      45415254 
 12849      42454154 
 12850              	.LASF464:
 12851 3750 494E5436 		.ascii	"INT64_C(x) __INT64_C(x)\000"
 12851      345F4328 
 12851      7829205F 
 12851      5F494E54 
 12851      36345F43 
 12852              	.LASF576:
 12853 3768 52454152 		.ascii	"REAR_CAN_NODE_WHEEL_SPEED__freq 50\000"
 12853      5F43414E 
 12853      5F4E4F44 
 12853      455F5748 
 12853      45454C5F 
 12854              	.LASF304:
 12855 378b 5F5F5553 		.ascii	"__USER_LABEL_PREFIX__ \000"
 12855      45525F4C 
ARM GAS  /var/folders/9j/_txx49hn253_s3mnzkyxlj8m0000gp/T//ccxigpJH.s 			page 274


 12855      4142454C 
 12855      5F505245 
 12855      4649585F 
 12856              	.LASF219:
 12857 37a2 5F5F4C4C 		.ascii	"__LLFRACT_MIN__ (-0.5LLR-0.5LLR)\000"
 12857      46524143 
 12857      545F4D49 
 12857      4E5F5F20 
 12857      282D302E 
 12858              	.LASF784:
 12859 37c3 4759524F 		.ascii	"GYRO_HORIZONTAL__freq 10\000"
 12859      5F484F52 
 12859      495A4F4E 
 12859      54414C5F 
 12859      5F667265 
 12860              	.LASF1005:
 12861 37dc 6272616B 		.ascii	"brake_1_raw\000"
 12861      655F315F 
 12861      72617700 
 12862              	.LASF463:
 12863 37e8 55494E54 		.ascii	"UINT32_C(x) __UINT32_C(x)\000"
 12863      33325F43 
 12863      28782920 
 12863      5F5F5549 
 12863      4E543332 
 12864              	.LASF199:
 12865 3802 5F5F4652 		.ascii	"__FRACT_MIN__ (-0.5R-0.5R)\000"
 12865      4143545F 
 12865      4D494E5F 
 12865      5F20282D 
 12865      302E3552 
 12866              	.LASF437:
 12867 381d 494E545F 		.ascii	"INT_FAST16_MIN (-__INT_FAST16_MAX__ - 1)\000"
 12867      46415354 
 12867      31365F4D 
 12867      494E2028 
 12867      2D5F5F49 
 12868              	.LASF565:
 12869 3846 46524F4E 		.ascii	"FRONT_CAN_NODE_WHEEL_SPEED__id 561\000"
 12869      545F4341 
 12869      4E5F4E4F 
 12869      44455F57 
 12869      4845454C 
 12870              	.LASF629:
 12871 3869 5F5F5F5F 		.ascii	"____ACCELEROMETER_HORIZONTAL__X_AXIS__X_AXIS__FROM "
 12871      41434345 
 12871      4C45524F 
 12871      4D455445 
 12871      525F484F 
 12872 389c 3000     		.ascii	"0\000"
 12873              	.LASF604:
 12874 389e 5F5F5F5F 		.ascii	"____FRONT_CAN_NODE_RAW_VALUES__FRONT_BRAKE_PRESSURE"
 12874      46524F4E 
 12874      545F4341 
 12874      4E5F4E4F 
 12874      44455F52 
 12875 38d1 5F5F4652 		.ascii	"__FRONT_BRAKE_PRESSURE__TO 255\000"
ARM GAS  /var/folders/9j/_txx49hn253_s3mnzkyxlj8m0000gp/T//ccxigpJH.s 			page 275


 12875      4F4E545F 
 12875      4252414B 
 12875      455F5052 
 12875      45535355 
 12876              	.LASF8:
 12877 38f0 5F5F4154 		.ascii	"__ATOMIC_ACQUIRE 2\000"
 12877      4F4D4943 
 12877      5F414351 
 12877      55495245 
 12877      203200
 12878              	.LASF769:
 12879 3903 5643555F 		.ascii	"VCU_MC_MESSAGE__freq -1\000"
 12879      4D435F4D 
 12879      45535341 
 12879      47455F5F 
 12879      66726571 
 12880              	.LASF676:
 12881 391b 5F5F5643 		.ascii	"__VCU_DASH_HEARTBEAT__ACTIVE_AERO__start 7\000"
 12881      555F4441 
 12881      53485F48 
 12881      45415254 
 12881      42454154 
 12882              	.LASF1192:
 12883 3946 43616E5F 		.ascii	"Can_Dash_Heartbeat_ToCan\000"
 12883      44617368 
 12883      5F486561 
 12883      72746265 
 12883      61745F54 
 12884              	.LASF1083:
 12885 395f 6572726F 		.ascii	"error_faulty_encoder\000"
 12885      725F6661 
 12885      756C7479 
 12885      5F656E63 
 12885      6F646572 
 12886              	.LASF897:
 12887 3974 5F5F5F5F 		.ascii	"____DASH_HEARTBEAT__HEARTBEAT_ON__OFF 0\000"
 12887      44415348 
 12887      5F484541 
 12887      52544245 
 12887      41545F5F 
 12888              	.LASF324:
 12889 399c 5F5F4152 		.ascii	"__ARM_SIZEOF_WCHAR_T 4\000"
 12889      4D5F5349 
 12889      5A454F46 
 12889      5F574348 
 12889      41525F54 
 12890              	.LASF418:
 12891 39b3 55494E54 		.ascii	"UINT16_MAX (__UINT16_MAX__)\000"
 12891      31365F4D 
 12891      41582028 
 12891      5F5F5549 
 12891      4E543136 
 12892              	.LASF65:
 12893 39cf 5F5F6861 		.ascii	"__has_include(STR) __has_include__(STR)\000"
 12893      735F696E 
 12893      636C7564 
 12893      65285354 
ARM GAS  /var/folders/9j/_txx49hn253_s3mnzkyxlj8m0000gp/T//ccxigpJH.s 			page 276


 12893      5229205F 
 12894              	.LASF692:
 12895 39f7 5F5F5643 		.ascii	"__VCU_DASH_HEARTBEAT__SHUTDOWN_IMD__start 11\000"
 12895      555F4441 
 12895      53485F48 
 12895      45415254 
 12895      42454154 
 12896              	.LASF789:
 12897 3a24 5F5F4759 		.ascii	"__GYRO_HORIZONTAL__Y_AXIS__start 32\000"
 12897      524F5F48 
 12897      4F52495A 
 12897      4F4E5441 
 12897      4C5F5F59 
 12898              	.LASF681:
 12899 3a48 5F5F5643 		.ascii	"__VCU_DASH_HEARTBEAT__REGEN__end 8\000"
 12899      555F4441 
 12899      53485F48 
 12899      45415254 
 12899      42454154 
 12900              	.LASF147:
 12901 3a6b 5F5F4442 		.ascii	"__DBL_EPSILON__ ((double)2.2204460492503131e-16L)\000"
 12901      4C5F4550 
 12901      53494C4F 
 12901      4E5F5F20 
 12901      2828646F 
 12902              	.LASF630:
 12903 3a9d 5F5F5F5F 		.ascii	"____ACCELEROMETER_HORIZONTAL__X_AXIS__X_AXIS__TO 42"
 12903      41434345 
 12903      4C45524F 
 12903      4D455445 
 12903      525F484F 
 12904 3ad0 39343936 		.ascii	"94967295\000"
 12904      37323935 
 12904      00
 12905              	.LASF1043:
 12906 3ad9 72657365 		.ascii	"reset_latch_open\000"
 12906      745F6C61 
 12906      7463685F 
 12906      6F70656E 
 12906      00
 12907              	.LASF136:
 12908 3aea 5F5F464C 		.ascii	"__FLT_HAS_INFINITY__ 1\000"
 12908      545F4841 
 12908      535F494E 
 12908      46494E49 
 12908      54595F5F 
 12909              	.LASF1003:
 12910 3b01 61636365 		.ascii	"accel_1_raw\000"
 12910      6C5F315F 
 12910      72617700 
 12911              	.LASF901:
 12912 3b0d 5F5F4441 		.ascii	"__DASH_REQUEST__REQUEST_TYPE__start 0\000"
 12912      53485F52 
 12912      45515545 
 12912      53545F5F 
 12912      52455155 
 12913              	.LASF931:
ARM GAS  /var/folders/9j/_txx49hn253_s3mnzkyxlj8m0000gp/T//ccxigpJH.s 			page 277


 12914 3b33 5F5F7569 		.ascii	"__uint64_t\000"
 12914      6E743634 
 12914      5F7400
 12915              	.LASF854:
 12916 3b3e 5F5F5F5F 		.ascii	"____BMS_PACK_STATUS__PACK_CURRENT__NEGATIVE_PACK_CU"
 12916      424D535F 
 12916      5041434B 
 12916      5F535441 
 12916      5455535F 
 12917 3b71 5252454E 		.ascii	"RRENT__TO 2047\000"
 12917      545F5F54 
 12917      4F203230 
 12917      343700
 12918              	.LASF155:
 12919 3b80 5F5F4C44 		.ascii	"__LDBL_MIN_10_EXP__ (-307)\000"
 12919      424C5F4D 
 12919      494E5F31 
 12919      305F4558 
 12919      505F5F20 
 12920              	.LASF1127:
 12921 3b9b 43616E5F 		.ascii	"Can_MC_State_T\000"
 12921      4D435F53 
 12921      74617465 
 12921      5F5400
 12922              	.LASF704:
 12923 3baa 5F5F5643 		.ascii	"__VCU_DASH_HEARTBEAT__SHUTDOWN_PRECHARGE__start 14\000"
 12923      555F4441 
 12923      53485F48 
 12923      45415254 
 12923      42454154 
 12924              	.LASF318:
 12925 3bdd 5F5F4743 		.ascii	"__GCC_HAVE_DWARF2_CFI_ASM 1\000"
 12925      435F4841 
 12925      56455F44 
 12925      57415246 
 12925      325F4346 
 12926              	.LASF357:
 12927 3bf9 5F5F5F69 		.ascii	"___int8_t_defined 1\000"
 12927      6E74385F 
 12927      745F6465 
 12927      66696E65 
 12927      64203100 
 12928              	.LASF189:
 12929 3c0d 5F5F5346 		.ascii	"__SFRACT_MIN__ (-0.5HR-0.5HR)\000"
 12929      52414354 
 12929      5F4D494E 
 12929      5F5F2028 
 12929      2D302E35 
 12930              	.LASF929:
 12931 3c2b 6C6F6E67 		.ascii	"long unsigned int\000"
 12931      20756E73 
 12931      69676E65 
 12931      6420696E 
 12931      7400
 12932              	.LASF290:
 12933 3c3d 5F5F5341 		.ascii	"__SA_IBIT__ 16\000"
 12933      5F494249 
ARM GAS  /var/folders/9j/_txx49hn253_s3mnzkyxlj8m0000gp/T//ccxigpJH.s 			page 278


 12933      545F5F20 
 12933      313600
 12934              	.LASF955:
 12935 3c4c 43414E5F 		.ascii	"CAN_BMS_ERROR_EEPROM\000"
 12935      424D535F 
 12935      4552524F 
 12935      525F4545 
 12935      50524F4D 
 12936              	.LASF2:
 12937 3c61 5F5F474E 		.ascii	"__GNUC__ 4\000"
 12937      55435F5F 
 12937      203400
 12938              	.LASF490:
 12939 3c6c 5F5F5F5F 		.ascii	"____MC_RESPONSE__REG_ID__CURRENT_LIMIT_ACTUAL 72\000"
 12939      4D435F52 
 12939      4553504F 
 12939      4E53455F 
 12939      5F524547 
 12940              	.LASF873:
 12941 3c9d 5F5F424D 		.ascii	"__BMS_PACK_STATUS__MAX_CELL_VOLTAGE_ID__start 57\000"
 12941      535F5041 
 12941      434B5F53 
 12941      54415455 
 12941      535F5F4D 
 12942              	.LASF1037:
 12943 3cce 68656172 		.ascii	"heartbeat_rear_can_node_dead\000"
 12943      74626561 
 12943      745F7265 
 12943      61725F63 
 12943      616E5F6E 
 12944              	.LASF44:
 12945 3ceb 5F5F5549 		.ascii	"__UINT16_TYPE__ short unsigned int\000"
 12945      4E543136 
 12945      5F545950 
 12945      455F5F20 
 12945      73686F72 
 12946              	.LASF1168:
 12947 3d0e 43616E5F 		.ascii	"Can_FrontCanNode_RawValues_ToCan\000"
 12947      46726F6E 
 12947      7443616E 
 12947      4E6F6465 
 12947      5F526177 
 12948              	.LASF928:
 12949 3d2f 5F5F7569 		.ascii	"__uint32_t\000"
 12949      6E743332 
 12949      5F7400
 12950              	.LASF333:
 12951 3d3a 5F5F534F 		.ascii	"__SOFTFP__ 1\000"
 12951      46544650 
 12951      5F5F2031 
 12951      00
 12952              	.LASF397:
 12953 3d47 5F5F696E 		.ascii	"__int32_t_defined 1\000"
 12953      7433325F 
 12953      745F6465 
 12953      66696E65 
 12953      64203100 
ARM GAS  /var/folders/9j/_txx49hn253_s3mnzkyxlj8m0000gp/T//ccxigpJH.s 			page 279


 12954              	.LASF977:
 12955 3d5b 43414E5F 		.ascii	"CAN_MC_REG_OUTPUT_VOLTAGE\000"
 12955      4D435F52 
 12955      45475F4F 
 12955      55545055 
 12955      545F564F 
 12956              	.LASF168:
 12957 3d75 5F5F4445 		.ascii	"__DEC32_MAX_EXP__ 97\000"
 12957      4333325F 
 12957      4D41585F 
 12957      4558505F 
 12957      5F203937 
 12958              	.LASF729:
 12959 3d8a 5F5F5F5F 		.ascii	"____VCU_DASH_HEARTBEAT__HEARTBEAT_BMS_DEAD__DEAD 1\000"
 12959      5643555F 
 12959      44415348 
 12959      5F484541 
 12959      52544245 
 12960              	.LASF379:
 12961 3dbd 696E7420 		.ascii	"int +2\000"
 12961      2B3200
 12962              	.LASF458:
 12963 3dc4 494E5438 		.ascii	"INT8_C(x) __INT8_C(x)\000"
 12963      5F432878 
 12963      29205F5F 
 12963      494E5438 
 12963      5F432878 
 12964              	.LASF970:
 12965 3dda 43414E5F 		.ascii	"CAN_MC_REG_CURRENT_LIMIT_ACTUAL\000"
 12965      4D435F52 
 12965      45475F43 
 12965      55525245 
 12965      4E545F4C 
 12966              	.LASF59:
 12967 3dfa 5F5F5549 		.ascii	"__UINT_FAST8_TYPE__ unsigned int\000"
 12967      4E545F46 
 12967      41535438 
 12967      5F545950 
 12967      455F5F20 
 12968              	.LASF1212:
 12969 3e1b 43616E5F 		.ascii	"Can_CurrentSensor_Energy_FromCan\000"
 12969      43757272 
 12969      656E7453 
 12969      656E736F 
 12969      725F456E 
 12970              	.LASF258:
 12971 3e3c 5F5F4C4C 		.ascii	"__LLACCUM_IBIT__ 32\000"
 12971      41434355 
 12971      4D5F4942 
 12971      49545F5F 
 12971      20333200 
 12972              	.LASF545:
 12973 3e50 5F5F4652 		.ascii	"__FRONT_CAN_NODE_DRIVER_OUTPUT__BRAKE_PRESSURE__sta"
 12973      4F4E545F 
 12973      43414E5F 
 12973      4E4F4445 
 12973      5F445249 
ARM GAS  /var/folders/9j/_txx49hn253_s3mnzkyxlj8m0000gp/T//ccxigpJH.s 			page 280


 12974 3e83 72742031 		.ascii	"rt 16\000"
 12974      3600
 12975              	.LASF201:
 12976 3e89 5F5F4652 		.ascii	"__FRACT_EPSILON__ 0x1P-15R\000"
 12976      4143545F 
 12976      45505349 
 12976      4C4F4E5F 
 12976      5F203078 
 12977              	.LASF947:
 12978 3ea4 43414E5F 		.ascii	"CAN_BMS_STATE_BALANCE\000"
 12978      424D535F 
 12978      53544154 
 12978      455F4241 
 12978      4C414E43 
 12979              	.LASF836:
 12980 3eba 5F5F5F5F 		.ascii	"____BMS_HEARTBEAT__FAN_ENABLE__ON 1\000"
 12980      424D535F 
 12980      48454152 
 12980      54424541 
 12980      545F5F46 
 12981              	.LASF745:
 12982 3ede 5F5F5F5F 		.ascii	"____VCU_DASH_HEARTBEAT__TSMS_OFF__OFF 1\000"
 12982      5643555F 
 12982      44415348 
 12982      5F484541 
 12982      52544245 
 12983              	.LASF1102:
 12984 3f06 7761726E 		.ascii	"warning_i2r_overload\000"
 12984      696E675F 
 12984      6932725F 
 12984      6F766572 
 12984      6C6F6164 
 12985              	.LASF996:
 12986 3f1b 6272616B 		.ascii	"brake_pressure\000"
 12986      655F7072 
 12986      65737375 
 12986      726500
 12987              	.LASF339:
 12988 3f2a 5F5F4152 		.ascii	"__ARM_PCS 1\000"
 12988      4D5F5043 
 12988      53203100 
 12989              	.LASF348:
 12990 3f36 5F4D5931 		.ascii	"_MY17_CAN_LIBRARY_TEST_H \000"
 12990      375F4341 
 12990      4E5F4C49 
 12990      42524152 
 12990      595F5445 
 12991              	.LASF752:
 12992 3f50 5F5F5F5F 		.ascii	"____VCU_DASH_HEARTBEAT__PRECHARGE_RUNNING__FALSE 0\000"
 12992      5643555F 
 12992      44415348 
 12992      5F484541 
 12992      52544245 
 12993              	.LASF89:
 12994 3f83 5F5F5549 		.ascii	"__UINT8_MAX__ 255\000"
 12994      4E54385F 
 12994      4D41585F 
ARM GAS  /var/folders/9j/_txx49hn253_s3mnzkyxlj8m0000gp/T//ccxigpJH.s 			page 281


 12994      5F203235 
 12994      3500
 12995              	.LASF522:
 12996 3f95 5F5F4355 		.ascii	"__CURRENT_SENSOR_POWER__PACK_POWER__end 47\000"
 12996      5252454E 
 12996      545F5345 
 12996      4E534F52 
 12996      5F504F57 
 12997              	.LASF944:
 12998 3fc0 43414E5F 		.ascii	"CAN_BMS_STATE_STANDBY\000"
 12998      424D535F 
 12998      53544154 
 12998      455F5354 
 12998      414E4442 
 12999              	.LASF575:
 13000 3fd6 52454152 		.ascii	"REAR_CAN_NODE_WHEEL_SPEED__id 50\000"
 13000      5F43414E 
 13000      5F4E4F44 
 13000      455F5748 
 13000      45454C5F 
 13001              	.LASF953:
 13002 3ff7 43414E5F 		.ascii	"CAN_BMS_ERROR_LTC6804_CVST\000"
 13002      424D535F 
 13002      4552524F 
 13002      525F4C54 
 13002      43363830 
 13003              	.LASF70:
 13004 4012 5F5F494E 		.ascii	"__INT_MAX__ 2147483647\000"
 13004      545F4D41 
 13004      585F5F20 
 13004      32313437 
 13004      34383336 
 13005              	.LASF783:
 13006 4029 4759524F 		.ascii	"GYRO_HORIZONTAL__id 851\000"
 13006      5F484F52 
 13006      495A4F4E 
 13006      54414C5F 
 13006      5F696420 
 13007              	.LASF54:
 13008 4041 5F5F5549 		.ascii	"__UINT_LEAST64_TYPE__ long long unsigned int\000"
 13008      4E545F4C 
 13008      45415354 
 13008      36345F54 
 13008      5950455F 
 13009              	.LASF185:
 13010 406e 5F5F4445 		.ascii	"__DEC128_EPSILON__ 1E-33DL\000"
 13010      43313238 
 13010      5F455053 
 13010      494C4F4E 
 13010      5F5F2031 
 13011              	.LASF161:
 13012 4089 5F5F4C44 		.ascii	"__LDBL_EPSILON__ 2.2204460492503131e-16L\000"
 13012      424C5F45 
 13012      5053494C 
 13012      4F4E5F5F 
 13012      20322E32 
 13013              	.LASF771:
ARM GAS  /var/folders/9j/_txx49hn253_s3mnzkyxlj8m0000gp/T//ccxigpJH.s 			page 282


 13014 40b2 5F5F5643 		.ascii	"__VCU_MC_MESSAGE__REG_ID__end 7\000"
 13014      555F4D43 
 13014      5F4D4553 
 13014      53414745 
 13014      5F5F5245 
 13015              	.LASF444:
 13016 40d2 494E545F 		.ascii	"INT_FAST64_MAX (__INT_FAST64_MAX__)\000"
 13016      46415354 
 13016      36345F4D 
 13016      41582028 
 13016      5F5F494E 
 13017              	.LASF309:
 13018 40f6 5F5F4743 		.ascii	"__GCC_ATOMIC_CHAR16_T_LOCK_FREE 1\000"
 13018      435F4154 
 13018      4F4D4943 
 13018      5F434841 
 13018      5231365F 
 13019              	.LASF825:
 13020 4118 5F5F5F5F 		.ascii	"____BMS_HEARTBEAT__STATE__BALANCE 3\000"
 13020      424D535F 
 13020      48454152 
 13020      54424541 
 13020      545F5F53 
 13021              	.LASF742:
 13022 413c 5F5F5643 		.ascii	"__VCU_DASH_HEARTBEAT__TSMS_OFF__start 31\000"
 13022      555F4441 
 13022      53485F48 
 13022      45415254 
 13022      42454154 
 13023              	.LASF142:
 13024 4165 5F5F4442 		.ascii	"__DBL_MAX_EXP__ 1024\000"
 13024      4C5F4D41 
 13024      585F4558 
 13024      505F5F20 
 13024      31303234 
 13025              	.LASF389:
 13026 417a 5F5F4641 		.ascii	"__FAST64 \"ll\"\000"
 13026      53543634 
 13026      20226C6C 
 13026      2200
 13027              	.LASF9:
 13028 4188 5F5F4154 		.ascii	"__ATOMIC_RELEASE 3\000"
 13028      4F4D4943 
 13028      5F52454C 
 13028      45415345 
 13028      203300
 13029              	.LASF376:
 13030 419b 756E7369 		.ascii	"unsigned +0\000"
 13030      676E6564 
 13030      202B3000 
 13031              	.LASF773:
 13032 41a7 5F5F5F5F 		.ascii	"____VCU_MC_MESSAGE__REG_ID__MSG_EVENT_REQUEST 81\000"
 13032      5643555F 
 13032      4D435F4D 
 13032      45535341 
 13032      47455F5F 
 13033              	.LASF760:
ARM GAS  /var/folders/9j/_txx49hn253_s3mnzkyxlj8m0000gp/T//ccxigpJH.s 			page 283


 13034 41d8 5F5F5F5F 		.ascii	"____VCU_DASH_HEARTBEAT__DRIVER_RESET_NOT_INITIALIZE"
 13034      5643555F 
 13034      44415348 
 13034      5F484541 
 13034      52544245 
 13035 420b 445F5F46 		.ascii	"D__FALSE 0\000"
 13035      414C5345 
 13035      203000
 13036              	.LASF124:
 13037 4216 5F5F464C 		.ascii	"__FLT_MANT_DIG__ 24\000"
 13037      545F4D41 
 13037      4E545F44 
 13037      49475F5F 
 13037      20323400 
 13038              	.LASF1201:
 13039 422a 43616E5F 		.ascii	"Can_MC_State_FromCan\000"
 13039      4D435F53 
 13039      74617465 
 13039      5F46726F 
 13039      6D43616E 
 13040              	.LASF563:
 13041 423f 5F5F5F5F 		.ascii	"____FRONT_CAN_NODE_DRIVER_OUTPUT__BRAKE_ENGAGED__RE"
 13041      46524F4E 
 13041      545F4341 
 13041      4E5F4E4F 
 13041      44455F44 
 13042 4272 4C454153 		.ascii	"LEASED 0\000"
 13042      45442030 
 13042      00
 13043              	.LASF284:
 13044 427b 5F5F5544 		.ascii	"__UDQ_IBIT__ 0\000"
 13044      515F4942 
 13044      49545F5F 
 13044      203000
 13045              	.LASF907:
 13046 428a 5F5F5F5F 		.ascii	"____DASH_REQUEST__REQUEST_TYPE__LIMP_MODE_DISABLE 4"
 13046      44415348 
 13046      5F524551 
 13046      55455354 
 13046      5F5F5245 
 13047 42bd 00       		.ascii	"\000"
 13048              	.LASF889:
 13049 42be 5F5F4D41 		.ascii	"__MAGNETOMETER_VERTICAL__Z_AXIS__start 0\000"
 13049      474E4554 
 13049      4F4D4554 
 13049      45525F56 
 13049      45525449 
 13050              	.LASF12:
 13051 42e7 5F5F4F50 		.ascii	"__OPTIMIZE__ 1\000"
 13051      54494D49 
 13051      5A455F5F 
 13051      203100
 13052              	.LASF731:
 13053 42f6 5F5F5643 		.ascii	"__VCU_DASH_HEARTBEAT__HEARTBEAT_DASH_DEAD__end 28\000"
 13053      555F4441 
 13053      53485F48 
 13053      45415254 
ARM GAS  /var/folders/9j/_txx49hn253_s3mnzkyxlj8m0000gp/T//ccxigpJH.s 			page 284


 13053      42454154 
 13054              	.LASF957:
 13055 4328 43414E5F 		.ascii	"CAN_BMS_ERROR_CELL_OVER_VOLTAGE\000"
 13055      424D535F 
 13055      4552524F 
 13055      525F4345 
 13055      4C4C5F4F 
 13056              	.LASF550:
 13057 4348 5F5F4652 		.ascii	"__FRONT_CAN_NODE_DRIVER_OUTPUT__STEERING_POSITION__"
 13057      4F4E545F 
 13057      43414E5F 
 13057      4E4F4445 
 13057      5F445249 
 13058 437b 656E6420 		.ascii	"end 31\000"
 13058      333100
 13059              	.LASF880:
 13060 4382 5F5F4D41 		.ascii	"__MAGNETOMETER_HORIZONTAL__X_AXIS__end 31\000"
 13060      474E4554 
 13060      4F4D4554 
 13060      45525F48 
 13060      4F52495A 
 13061              	.LASF388:
 13062 43ac 5F5F4641 		.ascii	"__FAST32 \000"
 13062      53543332 
 13062      2000
 13063              	.LASF733:
 13064 43b6 5F5F5F5F 		.ascii	"____VCU_DASH_HEARTBEAT__HEARTBEAT_DASH_DEAD__DEAD 1"
 13064      5643555F 
 13064      44415348 
 13064      5F484541 
 13064      52544245 
 13065 43e9 00       		.ascii	"\000"
 13066              	.LASF962:
 13067 43ea 43414E5F 		.ascii	"CAN_BMS_ERROR_CONFLICTING_MODE_REQUESTS\000"
 13067      424D535F 
 13067      4552524F 
 13067      525F434F 
 13067      4E464C49 
 13068              	.LASF912:
 13069 4412 5F4D5931 		.ascii	"_MY17_CAN_LIBRARY_DASH_H \000"
 13069      375F4341 
 13069      4E5F4C49 
 13069      42524152 
 13069      595F4441 
 13070              	.LASF724:
 13071 442c 5F5F5F5F 		.ascii	"____VCU_DASH_HEARTBEAT__HEARTBEAT_REAR_CAN_NODE_DEA"
 13071      5643555F 
 13071      44415348 
 13071      5F484541 
 13071      52544245 
 13072 445f 445F5F41 		.ascii	"D__ALIVE 0\000"
 13072      4C495645 
 13072      203000
 13073              	.LASF1154:
 13074 446a 43616E5F 		.ascii	"Can_Bms_Error_Test\000"
 13074      426D735F 
 13074      4572726F 
ARM GAS  /var/folders/9j/_txx49hn253_s3mnzkyxlj8m0000gp/T//ccxigpJH.s 			page 285


 13074      725F5465 
 13074      737400
 13075              	.LASF162:
 13076 447d 5F5F4C44 		.ascii	"__LDBL_DENORM_MIN__ 4.9406564584124654e-324L\000"
 13076      424C5F44 
 13076      454E4F52 
 13076      4D5F4D49 
 13076      4E5F5F20 
 13077              	.LASF711:
 13078 44aa 5F5F5F5F 		.ascii	"____VCU_DASH_HEARTBEAT__SHUTDOWN_MASTER_RESET__OPEN"
 13078      5643555F 
 13078      44415348 
 13078      5F484541 
 13078      52544245 
 13079 44dd 203100   		.ascii	" 1\000"
 13080              	.LASF544:
 13081 44e0 5F5F5F5F 		.ascii	"____FRONT_CAN_NODE_DRIVER_OUTPUT__REQUESTED_TORQUE_"
 13081      46524F4E 
 13081      545F4341 
 13081      4E5F4E4F 
 13081      44455F44 
 13082 4513 5F504F53 		.ascii	"_POSITIVE_TORQUE__TO 32767\000"
 13082      49544956 
 13082      455F544F 
 13082      52515545 
 13082      5F5F544F 
 13083              	.LASF1206:
 13084 452e 43616E5F 		.ascii	"Can_CurrentSensor_Power_ToCan\000"
 13084      43757272 
 13084      656E7453 
 13084      656E736F 
 13084      725F506F 
 13085              	.LASF63:
 13086 454c 5F5F494E 		.ascii	"__INTPTR_TYPE__ int\000"
 13086      54505452 
 13086      5F545950 
 13086      455F5F20 
 13086      696E7400 
 13087              	.LASF396:
 13088 4560 5F5F696E 		.ascii	"__int16_t_defined 1\000"
 13088      7431365F 
 13088      745F6465 
 13088      66696E65 
 13088      64203100 
 13089              	.LASF223:
 13090 4574 5F5F554C 		.ascii	"__ULLFRACT_IBIT__ 0\000"
 13090      4C465241 
 13090      43545F49 
 13090      4249545F 
 13090      5F203000 
 13091              	.LASF614:
 13092 4588 424D535F 		.ascii	"BMS_CELL_TEMPS__freq 0\000"
 13092      43454C4C 
 13092      5F54454D 
 13092      50535F5F 
 13092      66726571 
 13093              	.LASF949:
ARM GAS  /var/folders/9j/_txx49hn253_s3mnzkyxlj8m0000gp/T//ccxigpJH.s 			page 286


 13094 459f 43414E5F 		.ascii	"CAN_BMS_STATE_BMS_FAULT\000"
 13094      424D535F 
 13094      53544154 
 13094      455F424D 
 13094      535F4641 
 13095              	.LASF967:
 13096 45b7 43414E5F 		.ascii	"CAN_MC_REG_CURRENT_CMD\000"
 13096      4D435F52 
 13096      45475F43 
 13096      55525245 
 13096      4E545F43 
 13097              	.LASF1129:
 13098 45ce 43616E5F 		.ascii	"Can_CurrentSensor_Current_T\000"
 13098      43757272 
 13098      656E7453 
 13098      656E736F 
 13098      725F4375 
 13099              	.LASF661:
 13100 45ea 5F5F5643 		.ascii	"__VCU_DASH_HEARTBEAT__HV_LIGHT__end 3\000"
 13100      555F4441 
 13100      53485F48 
 13100      45415254 
 13100      42454154 
 13101              	.LASF1124:
 13102 4610 63757272 		.ascii	"current_reduction_via_motor_temp\000"
 13102      656E745F 
 13102      72656475 
 13102      6374696F 
 13102      6E5F7669 
 13103              	.LASF895:
 13104 4631 5F5F4441 		.ascii	"__DASH_HEARTBEAT__HEARTBEAT_ON__start 0\000"
 13104      53485F48 
 13104      45415254 
 13104      42454154 
 13104      5F5F4845 
 13105              	.LASF906:
 13106 4659 5F5F5F5F 		.ascii	"____DASH_REQUEST__REQUEST_TYPE__LIMP_MODE_ENABLE 3\000"
 13106      44415348 
 13106      5F524551 
 13106      55455354 
 13106      5F5F5245 
 13107              	.LASF680:
 13108 468c 5F5F5643 		.ascii	"__VCU_DASH_HEARTBEAT__REGEN__start 8\000"
 13108      555F4441 
 13108      53485F48 
 13108      45415254 
 13108      42454154 
 13109              	.LASF531:
 13110 46b1 43555252 		.ascii	"CURRENT_SENSOR_ENERGY__id 1320\000"
 13110      454E545F 
 13110      53454E53 
 13110      4F525F45 
 13110      4E455247 
 13111              	.LASF659:
 13112 46d0 5F5F5F5F 		.ascii	"____VCU_DASH_HEARTBEAT__IMD_LIGHT__ON 1\000"
 13112      5643555F 
 13112      44415348 
ARM GAS  /var/folders/9j/_txx49hn253_s3mnzkyxlj8m0000gp/T//ccxigpJH.s 			page 287


 13112      5F484541 
 13112      52544245 
 13113              	.LASF518:
 13114 46f8 5F5F5F5F 		.ascii	"____CURRENT_SENSOR_VOLTAGE__PACK_VOLTAGE__PACK_VOLT"
 13114      43555252 
 13114      454E545F 
 13114      53454E53 
 13114      4F525F56 
 13115 472b 4147455F 		.ascii	"AGE__TO 4294967295\000"
 13115      5F544F20 
 13115      34323934 
 13115      39363732 
 13115      393500
 13116              	.LASF1044:
 13117 473e 70726563 		.ascii	"precharge_running\000"
 13117      68617267 
 13117      655F7275 
 13117      6E6E696E 
 13117      6700
 13118              	.LASF859:
 13119 4750 5F5F5F5F 		.ascii	"____BMS_PACK_STATUS__AVE_CELL_VOLTAGE__AVE_CELL_VOL"
 13119      424D535F 
 13119      5041434B 
 13119      5F535441 
 13119      5455535F 
 13120 4783 54414745 		.ascii	"TAGE__FROM 0\000"
 13120      5F5F4652 
 13120      4F4D2030 
 13120      00
 13121              	.LASF131:
 13122 4790 5F5F464C 		.ascii	"__FLT_MAX__ 3.4028234663852886e+38F\000"
 13122      545F4D41 
 13122      585F5F20 
 13122      332E3430 
 13122      32383233 
 13123              	.LASF1087:
 13124 47b4 6572726F 		.ascii	"error_over_voltage\000"
 13124      725F6F76 
 13124      65725F76 
 13124      6F6C7461 
 13124      676500
 13125              	.LASF242:
 13126 47c7 5F5F5541 		.ascii	"__UACCUM_FBIT__ 16\000"
 13126      4343554D 
 13126      5F464249 
 13126      545F5F20 
 13126      313600
 13127              	.LASF942:
 13128 47da 4672616D 		.ascii	"Frame\000"
 13128      6500
 13129              	.LASF455:
 13130 47e0 57434841 		.ascii	"WCHAR_MAX (__WCHAR_MAX__)\000"
 13130      525F4D41 
 13130      5820285F 
 13130      5F574348 
 13130      41525F4D 
 13131              	.LASF91:
ARM GAS  /var/folders/9j/_txx49hn253_s3mnzkyxlj8m0000gp/T//ccxigpJH.s 			page 288


 13132 47fa 5F5F5549 		.ascii	"__UINT32_MAX__ 4294967295UL\000"
 13132      4E543332 
 13132      5F4D4158 
 13132      5F5F2034 
 13132      32393439 
 13133              	.LASF278:
 13134 4816 5F5F5551 		.ascii	"__UQQ_IBIT__ 0\000"
 13134      515F4942 
 13134      49545F5F 
 13134      203000
 13135              	.LASF555:
 13136 4825 5F5F5F5F 		.ascii	"____FRONT_CAN_NODE_DRIVER_OUTPUT__THROTTLE_IMPLAUSI"
 13136      46524F4E 
 13136      545F4341 
 13136      4E5F4E4F 
 13136      44455F44 
 13137 4858 424C455F 		.ascii	"BLE__PLAUSIBLE 0\000"
 13137      5F504C41 
 13137      55534942 
 13137      4C452030 
 13137      00
 13138              	.LASF314:
 13139 4869 5F5F4743 		.ascii	"__GCC_ATOMIC_LONG_LOCK_FREE 1\000"
 13139      435F4154 
 13139      4F4D4943 
 13139      5F4C4F4E 
 13139      475F4C4F 
 13140              	.LASF739:
 13141 4887 5F5F5643 		.ascii	"__VCU_DASH_HEARTBEAT__HEARTBEAT_CURRENT_SENSOR_DEAD"
 13141      555F4441 
 13141      53485F48 
 13141      45415254 
 13141      42454154 
 13142 48ba 5F5F656E 		.ascii	"__end 30\000"
 13142      64203330 
 13142      00
 13143              	.LASF254:
 13144 48c3 5F5F554C 		.ascii	"__ULACCUM_MIN__ 0.0ULK\000"
 13144      41434355 
 13144      4D5F4D49 
 13144      4E5F5F20 
 13144      302E3055 
 13145              	.LASF1202:
 13146 48da 43616E5F 		.ascii	"Can_CurrentSensor_Current_ToCan\000"
 13146      43757272 
 13146      656E7453 
 13146      656E736F 
 13146      725F4375 
 13147              	.LASF327:
 13148 48fa 5F5F4152 		.ascii	"__ARM_ARCH 6\000"
 13148      4D5F4152 
 13148      43482036 
 13148      00
 13149              	.LASF1125:
 13150 4907 63757272 		.ascii	"current_reduction_via_analog_input\000"
 13150      656E745F 
 13150      72656475 
ARM GAS  /var/folders/9j/_txx49hn253_s3mnzkyxlj8m0000gp/T//ccxigpJH.s 			page 289


 13150      6374696F 
 13150      6E5F7669 
 13151              	.LASF41:
 13152 492a 5F5F494E 		.ascii	"__INT32_TYPE__ long int\000"
 13152      5433325F 
 13152      54595045 
 13152      5F5F206C 
 13152      6F6E6720 
 13153              	.LASF671:
 13154 4942 5F5F5F5F 		.ascii	"____VCU_DASH_HEARTBEAT__LIMP_MODE__ON 1\000"
 13154      5643555F 
 13154      44415348 
 13154      5F484541 
 13154      52544245 
 13155              	.LASF123:
 13156 496a 5F5F464C 		.ascii	"__FLT_RADIX__ 2\000"
 13156      545F5241 
 13156      4449585F 
 13156      5F203200 
 13157              	.LASF698:
 13158 497a 5F5F5F5F 		.ascii	"____VCU_DASH_HEARTBEAT__SHUTDOWN_BSPD__CLOSED 0\000"
 13158      5643555F 
 13158      44415348 
 13158      5F484541 
 13158      52544245 
 13159              	.LASF930:
 13160 49aa 6C6F6E67 		.ascii	"long long int\000"
 13160      206C6F6E 
 13160      6720696E 
 13160      7400
 13161              	.LASF483:
 13162 49b8 5F5F4D43 		.ascii	"__MC_RESPONSE__REG_ID__start 0\000"
 13162      5F524553 
 13162      504F4E53 
 13162      455F5F52 
 13162      45475F49 
 13163              	.LASF573:
 13164 49d7 5F5F5F5F 		.ascii	"____FRONT_CAN_NODE_WHEEL_SPEED__FRONT_LEFT_WHEEL_SP"
 13164      46524F4E 
 13164      545F4341 
 13164      4E5F4E4F 
 13164      44455F57 
 13165 4a0a 4545445F 		.ascii	"EED__FRONT_LEFT_WHEEL_SPEED__FROM 0\000"
 13165      5F46524F 
 13165      4E545F4C 
 13165      4546545F 
 13165      57484545 
 13166              	.LASF424:
 13167 4a2e 55494E54 		.ascii	"UINT32_MAX (__UINT32_MAX__)\000"
 13167      33325F4D 
 13167      41582028 
 13167      5F5F5549 
 13167      4E543332 
 13168              	.LASF1164:
 13169 4a4a 43616E5F 		.ascii	"Can_All_Tests\000"
 13169      416C6C5F 
 13169      54657374 
ARM GAS  /var/folders/9j/_txx49hn253_s3mnzkyxlj8m0000gp/T//ccxigpJH.s 			page 290


 13169      7300
 13170              	.LASF1171:
 13171 4a58 43616E5F 		.ascii	"Can_FrontCanNode_WheelSpeed_FromCan\000"
 13171      46726F6E 
 13171      7443616E 
 13171      4E6F6465 
 13171      5F576865 
 13172              	.LASF914:
 13173 4a7c 5F4D5931 		.ascii	"_MY17_CAN_LIBRARY_CURRENT_SENSOR_H \000"
 13173      375F4341 
 13173      4E5F4C49 
 13173      42524152 
 13173      595F4355 
 13174              	.LASF702:
 13175 4aa0 5F5F5F5F 		.ascii	"____VCU_DASH_HEARTBEAT__SHUTDOWN_VCU__CLOSED 0\000"
 13175      5643555F 
 13175      44415348 
 13175      5F484541 
 13175      52544245 
 13176              	.LASF796:
 13177 4acf 5F5F4759 		.ascii	"__GYRO_VERTICAL__Z_AXIS__end 31\000"
 13177      524F5F56 
 13177      45525449 
 13177      43414C5F 
 13177      5F5A5F41 
 13178              	.LASF597:
 13179 4aef 5F5F4652 		.ascii	"__FRONT_CAN_NODE_RAW_VALUES__LEFT_THROTTLE_POT__sta"
 13179      4F4E545F 
 13179      43414E5F 
 13179      4E4F4445 
 13179      5F524157 
 13180 4b22 72742031 		.ascii	"rt 10\000"
 13180      3000
 13181              	.LASF821:
 13182 4b28 5F5F424D 		.ascii	"__BMS_HEARTBEAT__STATE__end 2\000"
 13182      535F4845 
 13182      41525442 
 13182      4541545F 
 13182      5F535441 
 13183              	.LASF983:
 13184 4b46 43414E5F 		.ascii	"CAN_MC_REG_STATE\000"
 13184      4D435F52 
 13184      45475F53 
 13184      54415445 
 13184      00
 13185              	.LASF1028:
 13186 4b57 73687574 		.ascii	"shutdown_esd_drain\000"
 13186      646F776E 
 13186      5F657364 
 13186      5F647261 
 13186      696E00
 13187              	.LASF548:
 13188 4b6a 5F5F5F5F 		.ascii	"____FRONT_CAN_NODE_DRIVER_OUTPUT__BRAKE_PRESSURE__B"
 13188      46524F4E 
 13188      545F4341 
 13188      4E5F4E4F 
 13188      44455F44 
ARM GAS  /var/folders/9j/_txx49hn253_s3mnzkyxlj8m0000gp/T//ccxigpJH.s 			page 291


 13189 4b9d 52414B45 		.ascii	"RAKE_PRESSURE__TO 255\000"
 13189      5F505245 
 13189      53535552 
 13189      455F5F54 
 13189      4F203235 
 13190              	.LASF445:
 13191 4bb3 55494E54 		.ascii	"UINT_FAST64_MAX (__UINT_FAST64_MAX__)\000"
 13191      5F464153 
 13191      5436345F 
 13191      4D415820 
 13191      285F5F55 
 13192              	.LASF536:
 13193 4bd9 5F5F5F5F 		.ascii	"____CURRENT_SENSOR_ENERGY__PACK_ENERGY__PACK_ENERGY"
 13193      43555252 
 13193      454E545F 
 13193      53454E53 
 13193      4F525F45 
 13194 4c0c 5F5F544F 		.ascii	"__TO 4294967295\000"
 13194      20343239 
 13194      34393637 
 13194      32393500 
 13195              	.LASF595:
 13196 4c1c 5F5F5F5F 		.ascii	"____FRONT_CAN_NODE_RAW_VALUES__RIGHT_THROTTLE_POT__"
 13196      46524F4E 
 13196      545F4341 
 13196      4E5F4E4F 
 13196      44455F52 
 13197 4c4f 52494748 		.ascii	"RIGHT_THROTTLE_POT__FROM 0\000"
 13197      545F5448 
 13197      524F5454 
 13197      4C455F50 
 13197      4F545F5F 
 13198              	.LASF288:
 13199 4c6a 5F5F4841 		.ascii	"__HA_IBIT__ 8\000"
 13199      5F494249 
 13199      545F5F20 
 13199      3800
 13200              	.LASF315:
 13201 4c78 5F5F4743 		.ascii	"__GCC_ATOMIC_LLONG_LOCK_FREE 1\000"
 13201      435F4154 
 13201      4F4D4943 
 13201      5F4C4C4F 
 13201      4E475F4C 
 13202              	.LASF1135:
 13203 4c97 43616E5F 		.ascii	"Can_CurrentSensor_Energy_T\000"
 13203      43757272 
 13203      656E7453 
 13203      656E736F 
 13203      725F456E 
 13204              	.LASF652:
 13205 4cb2 5F5F5643 		.ascii	"__VCU_DASH_HEARTBEAT__AMS_LIGHT__start 1\000"
 13205      555F4441 
 13205      53485F48 
 13205      45415254 
 13205      42454154 
 13206              	.LASF706:
 13207 4cdb 5F5F5F5F 		.ascii	"____VCU_DASH_HEARTBEAT__SHUTDOWN_PRECHARGE__CLOSED "
ARM GAS  /var/folders/9j/_txx49hn253_s3mnzkyxlj8m0000gp/T//ccxigpJH.s 			page 292


 13207      5643555F 
 13207      44415348 
 13207      5F484541 
 13207      52544245 
 13208 4d0e 3000     		.ascii	"0\000"
 13209              	.LASF868:
 13210 4d10 5F5F5F5F 		.ascii	"____BMS_PACK_STATUS__MIN_CELL_VOLTAGE_ID__MIN_CELL_"
 13210      424D535F 
 13210      5041434B 
 13210      5F535441 
 13210      5455535F 
 13211 4d43 564F4C54 		.ascii	"VOLTAGE_ID__TO 127\000"
 13211      4147455F 
 13211      49445F5F 
 13211      544F2031 
 13211      323700
 13212              	.LASF758:
 13213 4d56 5F5F5643 		.ascii	"__VCU_DASH_HEARTBEAT__DRIVER_RESET_NOT_INITIALIZED_"
 13213      555F4441 
 13213      53485F48 
 13213      45415254 
 13213      42454154 
 13214 4d89 5F737461 		.ascii	"_start 35\000"
 13214      72742033 
 13214      3500
 13215              	.LASF831:
 13216 4d93 5F5F5F5F 		.ascii	"____BMS_HEARTBEAT__SOC_PERCENTAGE__SOC_PERCENTAGE__"
 13216      424D535F 
 13216      48454152 
 13216      54424541 
 13216      545F5F53 
 13217 4dc6 46524F4D 		.ascii	"FROM 0\000"
 13217      203000
 13218              	.LASF608:
 13219 4dcd 5F5F5F5F 		.ascii	"____FRONT_CAN_NODE_RAW_VALUES__REAR_BRAKE_PRESSURE_"
 13219      46524F4E 
 13219      545F4341 
 13219      4E5F4E4F 
 13219      44455F52 
 13220 4e00 5F524541 		.ascii	"_REAR_BRAKE_PRESSURE__TO 255\000"
 13220      525F4252 
 13220      414B455F 
 13220      50524553 
 13220      53555245 
 13221              	.LASF605:
 13222 4e1d 5F5F4652 		.ascii	"__FRONT_CAN_NODE_RAW_VALUES__REAR_BRAKE_PRESSURE__s"
 13222      4F4E545F 
 13222      43414E5F 
 13222      4E4F4445 
 13222      5F524157 
 13223 4e50 74617274 		.ascii	"tart 30\000"
 13223      20333000 
 13224              	.LASF359:
 13225 4e58 5F5F5F69 		.ascii	"___int32_t_defined 1\000"
 13225      6E743332 
 13225      5F745F64 
 13225      6566696E 
ARM GAS  /var/folders/9j/_txx49hn253_s3mnzkyxlj8m0000gp/T//ccxigpJH.s 			page 293


 13225      65642031 
 13226              	.LASF497:
 13227 4e6d 5F5F5F5F 		.ascii	"____MC_RESPONSE__REG_ID__TORQUE_CMD 144\000"
 13227      4D435F52 
 13227      4553504F 
 13227      4E53455F 
 13227      5F524547 
 13228              	.LASF696:
 13229 4e95 5F5F5643 		.ascii	"__VCU_DASH_HEARTBEAT__SHUTDOWN_BSPD__start 12\000"
 13229      555F4441 
 13229      53485F48 
 13229      45415254 
 13229      42454154 
 13230              	.LASF602:
 13231 4ec3 5F5F4652 		.ascii	"__FRONT_CAN_NODE_RAW_VALUES__FRONT_BRAKE_PRESSURE__"
 13231      4F4E545F 
 13231      43414E5F 
 13231      4E4F4445 
 13231      5F524157 
 13232 4ef6 656E6420 		.ascii	"end 29\000"
 13232      323900
 13233              	.LASF42:
 13234 4efd 5F5F494E 		.ascii	"__INT64_TYPE__ long long int\000"
 13234      5436345F 
 13234      54595045 
 13234      5F5F206C 
 13234      6F6E6720 
 13235              	.LASF207:
 13236 4f1a 5F5F4C46 		.ascii	"__LFRACT_FBIT__ 31\000"
 13236      52414354 
 13236      5F464249 
 13236      545F5F20 
 13236      333100
 13237              	.LASF22:
 13238 4f2d 5F5F4348 		.ascii	"__CHAR_BIT__ 8\000"
 13238      41525F42 
 13238      49545F5F 
 13238      203800
 13239              	.LASF1045:
 13240 4f3c 6D617374 		.ascii	"master_reset_not_initialized\000"
 13240      65725F72 
 13240      65736574 
 13240      5F6E6F74 
 13240      5F696E69 
 13241              	.LASF320:
 13242 4f59 5F5F5349 		.ascii	"__SIZEOF_WCHAR_T__ 4\000"
 13242      5A454F46 
 13242      5F574348 
 13242      41525F54 
 13242      5F5F2034 
 13243              	.LASF802:
 13244 4f6e 5F5F424D 		.ascii	"__BMS_ERRORS__ERROR_TYPE__end 3\000"
 13244      535F4552 
 13244      524F5253 
 13244      5F5F4552 
 13244      524F525F 
 13245              	.LASF419:
ARM GAS  /var/folders/9j/_txx49hn253_s3mnzkyxlj8m0000gp/T//ccxigpJH.s 			page 294


 13246 4f8e 494E545F 		.ascii	"INT_LEAST16_MIN (-__INT_LEAST16_MAX__ - 1)\000"
 13246      4C454153 
 13246      5431365F 
 13246      4D494E20 
 13246      282D5F5F 
 13247              	.LASF1081:
 13248 4fb9 6572726F 		.ascii	"error_rfe_fault\000"
 13248      725F7266 
 13248      655F6661 
 13248      756C7400 
 13249              	.LASF1208:
 13250 4fc9 43616E5F 		.ascii	"Can_CurrentSensor_Energy_ToCan\000"
 13250      43757272 
 13250      656E7453 
 13250      656E736F 
 13250      725F456E 
 13251              	.LASF827:
 13252 4fe8 5F5F5F5F 		.ascii	"____BMS_HEARTBEAT__STATE__BATTERY_FAULT 5\000"
 13252      424D535F 
 13252      48454152 
 13252      54424541 
 13252      545F5F53 
 13253              	.LASF527:
 13254 5012 5F5F5245 		.ascii	"__REAR_CAN_NODE_HEARTBEAT__IS_OK__start 0\000"
 13254      41525F43 
 13254      414E5F4E 
 13254      4F44455F 
 13254      48454152 
 13255              	.LASF1131:
 13256 503c 43616E5F 		.ascii	"Can_CurrentSensor_Voltage_T\000"
 13256      43757272 
 13256      656E7453 
 13256      656E736F 
 13256      725F566F 
 13257              	.LASF205:
 13258 5058 5F5F5546 		.ascii	"__UFRACT_MAX__ 0XFFFFP-16UR\000"
 13258      52414354 
 13258      5F4D4158 
 13258      5F5F2030 
 13258      58464646 
 13259              	.LASF364:
 13260 5074 5F5F5F69 		.ascii	"___int_least64_t_defined 1\000"
 13260      6E745F6C 
 13260      65617374 
 13260      36345F74 
 13260      5F646566 
 13261              	.LASF587:
 13262 508f 5F5F4C56 		.ascii	"__LV_BATTERY_VOLTAGE__BATTERY_VOLTAGE__start 0\000"
 13262      5F424154 
 13262      54455259 
 13262      5F564F4C 
 13262      54414745 
 13263              	.LASF1186:
 13264 50be 43616E5F 		.ascii	"Can_Bms_CellTemps_ToCan\000"
 13264      426D735F 
 13264      43656C6C 
 13264      54656D70 
ARM GAS  /var/folders/9j/_txx49hn253_s3mnzkyxlj8m0000gp/T//ccxigpJH.s 			page 295


 13264      735F546F 
 13265              	.LASF1000:
 13266 50d6 6272616B 		.ascii	"brake_engaged\000"
 13266      655F656E 
 13266      67616765 
 13266      6400
 13267              	.LASF1163:
 13268 50e4 43616E5F 		.ascii	"Can_CurrentSensor_Energy_Test\000"
 13268      43757272 
 13268      656E7453 
 13268      656E736F 
 13268      725F456E 
 13269              	.LASF442:
 13270 5102 55494E54 		.ascii	"UINT_FAST32_MAX (__UINT_FAST32_MAX__)\000"
 13270      5F464153 
 13270      5433325F 
 13270      4D415820 
 13270      285F5F55 
 13271              	.LASF367:
 13272 5128 5F5F5354 		.ascii	"__STDINT_EXP(x) __ ##x ##__\000"
 13272      44494E54 
 13272      5F455850 
 13272      28782920 
 13272      5F5F2023 
 13273              	.LASF950:
 13274 5144 43616E5F 		.ascii	"Can_Bms_StateID_T\000"
 13274      426D735F 
 13274      53746174 
 13274      6549445F 
 13274      5400
 13275              	.LASF356:
 13276 5156 5F5F4558 		.ascii	"__EXP(x) __ ##x ##__\000"
 13276      50287829 
 13276      205F5F20 
 13276      23237820 
 13276      23235F5F 
 13277              	.LASF27:
 13278 516b 5F5F4259 		.ascii	"__BYTE_ORDER__ __ORDER_LITTLE_ENDIAN__\000"
 13278      54455F4F 
 13278      52444552 
 13278      5F5F205F 
 13278      5F4F5244 
 13279              	.LASF701:
 13280 5192 5F5F5643 		.ascii	"__VCU_DASH_HEARTBEAT__SHUTDOWN_VCU__end 13\000"
 13280      555F4441 
 13280      53485F48 
 13280      45415254 
 13280      42454154 
 13281              	.LASF1130:
 13282 51bd 766F6C74 		.ascii	"voltage_mV\000"
 13282      6167655F 
 13282      6D5600
 13283              	.LASF691:
 13284 51c8 5F5F5F5F 		.ascii	"____VCU_DASH_HEARTBEAT__SHUTDOWN_BMS__OPEN 1\000"
 13284      5643555F 
 13284      44415348 
 13284      5F484541 
ARM GAS  /var/folders/9j/_txx49hn253_s3mnzkyxlj8m0000gp/T//ccxigpJH.s 			page 296


 13284      52544245 
 13285              	.LASF202:
 13286 51f5 5F5F5546 		.ascii	"__UFRACT_FBIT__ 16\000"
 13286      52414354 
 13286      5F464249 
 13286      545F5F20 
 13286      313600
 13287              	.LASF590:
 13288 5208 5F5F5F5F 		.ascii	"____LV_BATTERY_VOLTAGE__BATTERY_VOLTAGE__BATTERY_VO"
 13288      4C565F42 
 13288      41545445 
 13288      52595F56 
 13288      4F4C5441 
 13289 523b 4C544147 		.ascii	"LTAGE__TO 65535\000"
 13289      455F5F54 
 13289      4F203635 
 13289      35333500 
 13290              	.LASF283:
 13291 524b 5F5F5544 		.ascii	"__UDQ_FBIT__ 64\000"
 13291      515F4642 
 13291      49545F5F 
 13291      20363400 
 13292              	.LASF404:
 13293 525b 5F5F696E 		.ascii	"__int_fast16_t_defined 1\000"
 13293      745F6661 
 13293      73743136 
 13293      5F745F64 
 13293      6566696E 
 13294              	.LASF965:
 13295 5274 43414E5F 		.ascii	"CAN_BMS_ERROR_OTHER\000"
 13295      424D535F 
 13295      4552524F 
 13295      525F4F54 
 13295      48455200 
 13296              	.LASF751:
 13297 5288 5F5F5643 		.ascii	"__VCU_DASH_HEARTBEAT__PRECHARGE_RUNNING__end 33\000"
 13297      555F4441 
 13297      53485F48 
 13297      45415254 
 13297      42454154 
 13298              	.LASF157:
 13299 52b8 5F5F4C44 		.ascii	"__LDBL_MAX_10_EXP__ 308\000"
 13299      424C5F4D 
 13299      41585F31 
 13299      305F4558 
 13299      505F5F20 
 13300              	.LASF886:
 13301 52d0 5F5F5F5F 		.ascii	"____MAGNETOMETER_HORIZONTAL__Y_AXIS__Y_AXIS__TO 429"
 13301      4D41474E 
 13301      45544F4D 
 13301      45544552 
 13301      5F484F52 
 13302 5303 34393637 		.ascii	"4967295\000"
 13302      32393500 
 13303              	.LASF1062:
 13304 530b 69645F6D 		.ascii	"id_min_cell_temp\000"
 13304      696E5F63 
ARM GAS  /var/folders/9j/_txx49hn253_s3mnzkyxlj8m0000gp/T//ccxigpJH.s 			page 297


 13304      656C6C5F 
 13304      74656D70 
 13304      00
 13305              	.LASF479:
 13306 531c 5F4D5931 		.ascii	"_MY17_CAN_LIBRARY_CAN_NODE_H \000"
 13306      375F4341 
 13306      4E5F4C49 
 13306      42524152 
 13306      595F4341 
 13307              	.LASF1079:
 13308 533a 6572726F 		.ascii	"error_parameter_damaged\000"
 13308      725F7061 
 13308      72616D65 
 13308      7465725F 
 13308      64616D61 
 13309              	.LASF429:
 13310 5352 494E5436 		.ascii	"INT64_MAX (__INT64_MAX__)\000"
 13310      345F4D41 
 13310      5820285F 
 13310      5F494E54 
 13310      36345F4D 
 13311              	.LASF16:
 13312 536c 5F5F5349 		.ascii	"__SIZEOF_LONG_LONG__ 8\000"
 13312      5A454F46 
 13312      5F4C4F4E 
 13312      475F4C4F 
 13312      4E475F5F 
 13313              	.LASF932:
 13314 5383 756E7369 		.ascii	"unsigned int\000"
 13314      676E6564 
 13314      20696E74 
 13314      00
 13315              	.LASF1179:
 13316 5390 43616E5F 		.ascii	"Can_Vcu_DashHeartbeat_FromCan\000"
 13316      5663755F 
 13316      44617368 
 13316      48656172 
 13316      74626561 
 13317              	.LASF200:
 13318 53ae 5F5F4652 		.ascii	"__FRACT_MAX__ 0X7FFFP-15R\000"
 13318      4143545F 
 13318      4D41585F 
 13318      5F203058 
 13318      37464646 
 13319              	.LASF353:
 13320 53c8 5F5F4E45 		.ascii	"__NEWLIB_MINOR__ 2\000"
 13320      574C4942 
 13320      5F4D494E 
 13320      4F525F5F 
 13320      203200
 13321              	.LASF1199:
 13322 53db 43616E5F 		.ascii	"Can_MC_ErrorAndWarning_FromCan\000"
 13322      4D435F45 
 13322      72726F72 
 13322      416E6457 
 13322      61726E69 
 13323              	.LASF126:
ARM GAS  /var/folders/9j/_txx49hn253_s3mnzkyxlj8m0000gp/T//ccxigpJH.s 			page 298


 13324 53fa 5F5F464C 		.ascii	"__FLT_MIN_EXP__ (-125)\000"
 13324      545F4D49 
 13324      4E5F4558 
 13324      505F5F20 
 13324      282D3132 
 13325              	.LASF122:
 13326 5411 5F5F4445 		.ascii	"__DEC_EVAL_METHOD__ 2\000"
 13326      435F4556 
 13326      414C5F4D 
 13326      4554484F 
 13326      445F5F20 
 13327              	.LASF1014:
 13328 5427 72656172 		.ascii	"rear_right_wheel_speed\000"
 13328      5F726967 
 13328      68745F77 
 13328      6865656C 
 13328      5F737065 
 13329              	.LASF579:
 13330 543e 5F5F5F5F 		.ascii	"____REAR_CAN_NODE_WHEEL_SPEED__REAR_RIGHT_WHEEL_SPE"
 13330      52454152 
 13330      5F43414E 
 13330      5F4E4F44 
 13330      455F5748 
 13331 5471 45445F5F 		.ascii	"ED__REAR_RIGHT_WHEEL_SPEED__FROM 0\000"
 13331      52454152 
 13331      5F524947 
 13331      48545F57 
 13331      4845454C 
 13332              	.LASF1080:
 13333 5494 6572726F 		.ascii	"error_output_stage_fault\000"
 13333      725F6F75 
 13333      74707574 
 13333      5F737461 
 13333      67655F66 
 13334              	.LASF233:
 13335 54ad 5F5F5553 		.ascii	"__USACCUM_IBIT__ 8\000"
 13335      41434355 
 13335      4D5F4942 
 13335      49545F5F 
 13335      203800
 13336              	.LASF844:
 13337 54c0 5F5F5F5F 		.ascii	"____BMS_HEARTBEAT__DCDC_FAULT__FAULT 1\000"
 13337      424D535F 
 13337      48454152 
 13337      54424541 
 13337      545F5F44 
 13338              	.LASF434:
 13339 54e7 494E545F 		.ascii	"INT_FAST8_MIN (-__INT_FAST8_MAX__ - 1)\000"
 13339      46415354 
 13339      385F4D49 
 13339      4E20282D 
 13339      5F5F494E 
 13340              	.LASF792:
 13341 550e 5F5F5F5F 		.ascii	"____GYRO_HORIZONTAL__Y_AXIS__Y_AXIS__TO 4294967295\000"
 13341      4759524F 
 13341      5F484F52 
 13341      495A4F4E 
ARM GAS  /var/folders/9j/_txx49hn253_s3mnzkyxlj8m0000gp/T//ccxigpJH.s 			page 299


 13341      54414C5F 
 13342              	.LASF118:
 13343 5541 5F5F5549 		.ascii	"__UINTPTR_MAX__ 4294967295U\000"
 13343      4E545054 
 13343      525F4D41 
 13343      585F5F20 
 13343      34323934 
 13344              	.LASF521:
 13345 555d 5F5F4355 		.ascii	"__CURRENT_SENSOR_POWER__PACK_POWER__start 16\000"
 13345      5252454E 
 13345      545F5345 
 13345      4E534F52 
 13345      5F504F57 
 13346              	.LASF973:
 13347 558a 43414E5F 		.ascii	"CAN_MC_REG_SPEED_CMD_BEFORE_RAMP\000"
 13347      4D435F52 
 13347      45475F53 
 13347      50454544 
 13347      5F434D44 
 13348              	.LASF125:
 13349 55ab 5F5F464C 		.ascii	"__FLT_DIG__ 6\000"
 13349      545F4449 
 13349      475F5F20 
 13349      3600
 13350              	.LASF246:
 13351 55b9 5F5F5541 		.ascii	"__UACCUM_EPSILON__ 0x1P-16UK\000"
 13351      4343554D 
 13351      5F455053 
 13351      494C4F4E 
 13351      5F5F2030 
 13352              	.LASF878:
 13353 55d6 4D41474E 		.ascii	"MAGNETOMETER_HORIZONTAL__freq 10\000"
 13353      45544F4D 
 13353      45544552 
 13353      5F484F52 
 13353      495A4F4E 
 13354              	.LASF524:
 13355 55f7 5F5F5F5F 		.ascii	"____CURRENT_SENSOR_POWER__PACK_POWER__PACK_POWER__T"
 13355      43555252 
 13355      454E545F 
 13355      53454E53 
 13355      4F525F50 
 13356 562a 4F203432 		.ascii	"O 4294967295\000"
 13356      39343936 
 13356      37323935 
 13356      00
 13357              	.LASF528:
 13358 5637 5F5F5245 		.ascii	"__REAR_CAN_NODE_HEARTBEAT__IS_OK__end 0\000"
 13358      41525F43 
 13358      414E5F4E 
 13358      4F44455F 
 13358      48454152 
 13359              	.LASF509:
 13360 565f 5F5F4355 		.ascii	"__CURRENT_SENSOR_CURRENT__PACK_CURRENT__start 16\000"
 13360      5252454E 
 13360      545F5345 
 13360      4E534F52 
ARM GAS  /var/folders/9j/_txx49hn253_s3mnzkyxlj8m0000gp/T//ccxigpJH.s 			page 300


 13360      5F435552 
 13361              	.LASF625:
 13362 5690 41434345 		.ascii	"ACCELEROMETER_HORIZONTAL__id 835\000"
 13362      4C45524F 
 13362      4D455445 
 13362      525F484F 
 13362      52495A4F 
 13363              	.LASF121:
 13364 56b1 5F5F464C 		.ascii	"__FLT_EVAL_METHOD__ 0\000"
 13364      545F4556 
 13364      414C5F4D 
 13364      4554484F 
 13364      445F5F20 
 13365              	.LASF814:
 13366 56c7 5F5F5F5F 		.ascii	"____BMS_ERRORS__ERROR_TYPE__CONFLICTING_MODE_REQUES"
 13366      424D535F 
 13366      4552524F 
 13366      52535F5F 
 13366      4552524F 
 13367 56fa 54532031 		.ascii	"TS 11\000"
 13367      3100
 13368              	.LASF853:
 13369 5700 5F5F5F5F 		.ascii	"____BMS_PACK_STATUS__PACK_CURRENT__NEGATIVE_PACK_CU"
 13369      424D535F 
 13369      5041434B 
 13369      5F535441 
 13369      5455535F 
 13370 5733 5252454E 		.ascii	"RRENT__FROM 1024\000"
 13370      545F5F46 
 13370      524F4D20 
 13370      31303234 
 13370      00
 13371              	.LASF981:
 13372 5744 43414E5F 		.ascii	"CAN_MC_REG_AIR_TEMP\000"
 13372      4D435F52 
 13372      45475F41 
 13372      49525F54 
 13372      454D5000 
 13373              	.LASF693:
 13374 5758 5F5F5643 		.ascii	"__VCU_DASH_HEARTBEAT__SHUTDOWN_IMD__end 11\000"
 13374      555F4441 
 13374      53485F48 
 13374      45415254 
 13374      42454154 
 13375              	.LASF383:
 13376 5783 5F5F494E 		.ascii	"__INT16 \"h\"\000"
 13376      54313620 
 13376      22682200 
 13377              	.LASF117:
 13378 578f 5F5F494E 		.ascii	"__INTPTR_MAX__ 2147483647\000"
 13378      54505452 
 13378      5F4D4158 
 13378      5F5F2032 
 13378      31343734 
 13379              	.LASF519:
 13380 57a9 43555252 		.ascii	"CURRENT_SENSOR_POWER__id 1318\000"
 13380      454E545F 
ARM GAS  /var/folders/9j/_txx49hn253_s3mnzkyxlj8m0000gp/T//ccxigpJH.s 			page 301


 13380      53454E53 
 13380      4F525F50 
 13380      4F574552 
 13381              	.LASF746:
 13382 57c7 5F5F5643 		.ascii	"__VCU_DASH_HEARTBEAT__RESET_LATCH_OPEN__start 32\000"
 13382      555F4441 
 13382      53485F48 
 13382      45415254 
 13382      42454154 
 13383              	.LASF1188:
 13384 57f8 43616E5F 		.ascii	"Can_Bms_PackStatus_ToCan\000"
 13384      426D735F 
 13384      5061636B 
 13384      53746174 
 13384      75735F54 
 13385              	.LASF741:
 13386 5811 5F5F5F5F 		.ascii	"____VCU_DASH_HEARTBEAT__HEARTBEAT_CURRENT_SENSOR_DE"
 13386      5643555F 
 13386      44415348 
 13386      5F484541 
 13386      52544245 
 13387 5844 41445F5F 		.ascii	"AD__DEAD 1\000"
 13387      44454144 
 13387      203100
 13388              	.LASF277:
 13389 584f 5F5F5551 		.ascii	"__UQQ_FBIT__ 8\000"
 13389      515F4642 
 13389      49545F5F 
 13389      203800
 13390              	.LASF33:
 13391 585e 5F5F5749 		.ascii	"__WINT_TYPE__ unsigned int\000"
 13391      4E545F54 
 13391      5950455F 
 13391      5F20756E 
 13391      7369676E 
 13392              	.LASF174:
 13393 5879 5F5F4445 		.ascii	"__DEC64_MIN_EXP__ (-382)\000"
 13393      4336345F 
 13393      4D494E5F 
 13393      4558505F 
 13393      5F20282D 
 13394              	.LASF245:
 13395 5892 5F5F5541 		.ascii	"__UACCUM_MAX__ 0XFFFFFFFFP-16UK\000"
 13395      4343554D 
 13395      5F4D4158 
 13395      5F5F2030 
 13395      58464646 
 13396              	.LASF498:
 13397 58b2 5F5F5F5F 		.ascii	"____MC_RESPONSE__REG_ID__SPEED_CMD_BEFORE_RAMP 49\000"
 13397      4D435F52 
 13397      4553504F 
 13397      4E53455F 
 13397      5F524547 
 13398              	.LASF700:
 13399 58e4 5F5F5643 		.ascii	"__VCU_DASH_HEARTBEAT__SHUTDOWN_VCU__start 13\000"
 13399      555F4441 
 13399      53485F48 
ARM GAS  /var/folders/9j/_txx49hn253_s3mnzkyxlj8m0000gp/T//ccxigpJH.s 			page 302


 13399      45415254 
 13399      42454154 
 13400              	.LASF377:
 13401 5911 63686172 		.ascii	"char +0\000"
 13401      202B3000 
 13402              	.LASF1172:
 13403 5919 43616E5F 		.ascii	"Can_RearCanNode_Heartbeat_ToCan\000"
 13403      52656172 
 13403      43616E4E 
 13403      6F64655F 
 13403      48656172 
 13404              	.LASF210:
 13405 5939 5F5F4C46 		.ascii	"__LFRACT_MAX__ 0X7FFFFFFFP-31LR\000"
 13405      52414354 
 13405      5F4D4158 
 13405      5F5F2030 
 13405      58374646 
 13406              	.LASF322:
 13407 5959 5F5F5349 		.ascii	"__SIZEOF_PTRDIFF_T__ 4\000"
 13407      5A454F46 
 13407      5F505452 
 13407      44494646 
 13407      5F545F5F 
 13408              	.LASF495:
 13409 5970 5F5F5F5F 		.ascii	"____MC_RESPONSE__REG_ID__STATE 64\000"
 13409      4D435F52 
 13409      4553504F 
 13409      4E53455F 
 13409      5F524547 
 13410              	.LASF0:
 13411 5992 5F5F5354 		.ascii	"__STDC__ 1\000"
 13411      44435F5F 
 13411      203100
 13412              	.LASF1093:
 13413 599d 6572726F 		.ascii	"error_ballast_overload\000"
 13413      725F6261 
 13413      6C6C6173 
 13413      745F6F76 
 13413      65726C6F 
 13414              	.LASF1110:
 13415 59b4 63757272 		.ascii	"current_limit_to_continuous\000"
 13415      656E745F 
 13415      6C696D69 
 13415      745F746F 
 13415      5F636F6E 
 13416              	.LASF361:
 13417 59d0 5F5F5F69 		.ascii	"___int_least8_t_defined 1\000"
 13417      6E745F6C 
 13417      65617374 
 13417      385F745F 
 13417      64656669 
 13418              	.LASF842:
 13419 59ea 5F5F424D 		.ascii	"__BMS_HEARTBEAT__DCDC_FAULT__end 15\000"
 13419      535F4845 
 13419      41525442 
 13419      4541545F 
 13419      5F444344 
ARM GAS  /var/folders/9j/_txx49hn253_s3mnzkyxlj8m0000gp/T//ccxigpJH.s 			page 303


 13420              	.LASF632:
 13421 5a0e 5F5F4143 		.ascii	"__ACCELEROMETER_HORIZONTAL__Y_AXIS__end 63\000"
 13421      43454C45 
 13421      524F4D45 
 13421      5445525F 
 13421      484F5249 
 13422              	.LASF28:
 13423 5a39 5F5F464C 		.ascii	"__FLOAT_WORD_ORDER__ __ORDER_LITTLE_ENDIAN__\000"
 13423      4F41545F 
 13423      574F5244 
 13423      5F4F5244 
 13423      45525F5F 
 13424              	.LASF1197:
 13425 5a66 43616E5F 		.ascii	"Can_MC_DataReading_FromCan\000"
 13425      4D435F44 
 13425      61746152 
 13425      65616469 
 13425      6E675F46 
 13426              	.LASF43:
 13427 5a81 5F5F5549 		.ascii	"__UINT8_TYPE__ unsigned char\000"
 13427      4E54385F 
 13427      54595045 
 13427      5F5F2075 
 13427      6E736967 
 13428              	.LASF403:
 13429 5a9e 5F5F696E 		.ascii	"__int_fast8_t_defined 1\000"
 13429      745F6661 
 13429      7374385F 
 13429      745F6465 
 13429      66696E65 
 13430              	.LASF622:
 13431 5ab6 5F5F424D 		.ascii	"__BMS_CELL_TEMPS__MAX_CELL_TEMP__end 53\000"
 13431      535F4345 
 13431      4C4C5F54 
 13431      454D5053 
 13431      5F5F4D41 
 13432              	.LASF38:
 13433 5ade 5F5F5349 		.ascii	"__SIG_ATOMIC_TYPE__ int\000"
 13433      475F4154 
 13433      4F4D4943 
 13433      5F545950 
 13433      455F5F20 
 13434              	.LASF615:
 13435 5af6 5F5F424D 		.ascii	"__BMS_CELL_TEMPS__AVE_CELL_TEMP__start 0\000"
 13435      535F4345 
 13435      4C4C5F54 
 13435      454D5053 
 13435      5F5F4156 
 13436              	.LASF1022:
 13437 5b1f 68765F6C 		.ascii	"hv_light\000"
 13437      69676874 
 13437      00
 13438              	.LASF262:
 13439 5b28 5F5F554C 		.ascii	"__ULLACCUM_FBIT__ 32\000"
 13439      4C414343 
 13439      554D5F46 
 13439      4249545F 
ARM GAS  /var/folders/9j/_txx49hn253_s3mnzkyxlj8m0000gp/T//ccxigpJH.s 			page 304


 13439      5F203332 
 13440              	.LASF588:
 13441 5b3d 5F5F4C56 		.ascii	"__LV_BATTERY_VOLTAGE__BATTERY_VOLTAGE__end 15\000"
 13441      5F424154 
 13441      54455259 
 13441      5F564F4C 
 13441      54414745 
 13442              	.LASF966:
 13443 5b6b 43616E5F 		.ascii	"Can_Bms_ErrorID_T\000"
 13443      426D735F 
 13443      4572726F 
 13443      7249445F 
 13443      5400
 13444              	.LASF180:
 13445 5b7d 5F5F4445 		.ascii	"__DEC128_MANT_DIG__ 34\000"
 13445      43313238 
 13445      5F4D414E 
 13445      545F4449 
 13445      475F5F20 
 13446              	.LASF83:
 13447 5b94 5F5F5349 		.ascii	"__SIG_ATOMIC_MAX__ 2147483647\000"
 13447      475F4154 
 13447      4F4D4943 
 13447      5F4D4158 
 13447      5F5F2032 
 13448              	.LASF297:
 13449 5bb2 5F5F5553 		.ascii	"__USA_FBIT__ 16\000"
 13449      415F4642 
 13449      49545F5F 
 13449      20313600 
 13450              	.LASF1169:
 13451 5bc2 43616E5F 		.ascii	"Can_FrontCanNode_RawValues_FromCan\000"
 13451      46726F6E 
 13451      7443616E 
 13451      4E6F6465 
 13451      5F526177 
 13452              	.LASF927:
 13453 5be5 6C6F6E67 		.ascii	"long int\000"
 13453      20696E74 
 13453      00
 13454              	.LASF137:
 13455 5bee 5F5F464C 		.ascii	"__FLT_HAS_QUIET_NAN__ 1\000"
 13455      545F4841 
 13455      535F5155 
 13455      4945545F 
 13455      4E414E5F 
 13456              	.LASF308:
 13457 5c06 5F5F4743 		.ascii	"__GCC_ATOMIC_CHAR_LOCK_FREE 1\000"
 13457      435F4154 
 13457      4F4D4943 
 13457      5F434841 
 13457      525F4C4F 
 13458              	.LASF511:
 13459 5c24 5F5F5F5F 		.ascii	"____CURRENT_SENSOR_CURRENT__PACK_CURRENT__PACK_CURR"
 13459      43555252 
 13459      454E545F 
 13459      53454E53 
ARM GAS  /var/folders/9j/_txx49hn253_s3mnzkyxlj8m0000gp/T//ccxigpJH.s 			page 305


 13459      4F525F43 
 13460 5c57 454E545F 		.ascii	"ENT__FROM 0\000"
 13460      5F46524F 
 13460      4D203000 
 13461              	.LASF820:
 13462 5c63 5F5F424D 		.ascii	"__BMS_HEARTBEAT__STATE__start 0\000"
 13462      535F4845 
 13462      41525442 
 13462      4541545F 
 13462      5F535441 
 13463              	.LASF211:
 13464 5c83 5F5F4C46 		.ascii	"__LFRACT_EPSILON__ 0x1P-31LR\000"
 13464      52414354 
 13464      5F455053 
 13464      494C4F4E 
 13464      5F5F2030 
 13465              	.LASF456:
 13466 5ca0 57494E54 		.ascii	"WINT_MAX (__WINT_MAX__)\000"
 13466      5F4D4158 
 13466      20285F5F 
 13466      57494E54 
 13466      5F4D4158 
 13467              	.LASF1137:
 13468 5cb8 43616E5F 		.ascii	"Can_BinaryPrint\000"
 13468      42696E61 
 13468      72795072 
 13468      696E7400 
 13469              	.LASF586:
 13470 5cc8 4C565F42 		.ascii	"LV_BATTERY_VOLTAGE__freq 1\000"
 13470      41545445 
 13470      52595F56 
 13470      4F4C5441 
 13470      47455F5F 
 13471              	.LASF567:
 13472 5ce3 5F5F4652 		.ascii	"__FRONT_CAN_NODE_WHEEL_SPEED__FRONT_RIGHT_WHEEL_SPE"
 13472      4F4E545F 
 13472      43414E5F 
 13472      4E4F4445 
 13472      5F574845 
 13473 5d16 45445F5F 		.ascii	"ED__start 0\000"
 13473      73746172 
 13473      74203000 
 13474              	.LASF323:
 13475 5d22 5F5F4152 		.ascii	"__ARM_SIZEOF_MINIMAL_ENUM 1\000"
 13475      4D5F5349 
 13475      5A454F46 
 13475      5F4D494E 
 13475      494D414C 
 13476              	.LASF93:
 13477 5d3e 5F5F494E 		.ascii	"__INT_LEAST8_MAX__ 127\000"
 13477      545F4C45 
 13477      41535438 
 13477      5F4D4158 
 13477      5F5F2031 
 13478              	.LASF1159:
 13479 5d55 43616E5F 		.ascii	"Can_MC_State_Test\000"
 13479      4D435F53 
ARM GAS  /var/folders/9j/_txx49hn253_s3mnzkyxlj8m0000gp/T//ccxigpJH.s 			page 306


 13479      74617465 
 13479      5F546573 
 13479      7400
 13480              	.LASF326:
 13481 5d67 5F5F6172 		.ascii	"__arm__ 1\000"
 13481      6D5F5F20 
 13481      3100
 13482              	.LASF870:
 13483 5d71 5F5F424D 		.ascii	"__BMS_PACK_STATUS__MAX_CELL_VOLTAGE__end 56\000"
 13483      535F5041 
 13483      434B5F53 
 13483      54415455 
 13483      535F5F4D 
 13484              	.LASF779:
 13485 5d9d 5F5F5643 		.ascii	"__VCU_MC_MESSAGE__DATA_2__start 16\000"
 13485      555F4D43 
 13485      5F4D4553 
 13485      53414745 
 13485      5F5F4441 
 13486              	.LASF867:
 13487 5dc0 5F5F5F5F 		.ascii	"____BMS_PACK_STATUS__MIN_CELL_VOLTAGE_ID__MIN_CELL_"
 13487      424D535F 
 13487      5041434B 
 13487      5F535441 
 13487      5455535F 
 13488 5df3 564F4C54 		.ascii	"VOLTAGE_ID__FROM 0\000"
 13488      4147455F 
 13488      49445F5F 
 13488      46524F4D 
 13488      203000
 13489              	.LASF884:
 13490 5e06 5F5F4D41 		.ascii	"__MAGNETOMETER_HORIZONTAL__Y_AXIS__end 63\000"
 13490      474E4554 
 13490      4F4D4554 
 13490      45525F48 
 13490      4F52495A 
 13491              	.LASF817:
 13492 5e30 5F5F5F5F 		.ascii	"____BMS_ERRORS__ERROR_TYPE__OTHER 14\000"
 13492      424D535F 
 13492      4552524F 
 13492      52535F5F 
 13492      4552524F 
 13493              	.LASF869:
 13494 5e55 5F5F424D 		.ascii	"__BMS_PACK_STATUS__MAX_CELL_VOLTAGE__start 47\000"
 13494      535F5041 
 13494      434B5F53 
 13494      54415455 
 13494      535F5F4D 
 13495              	.LASF791:
 13496 5e83 5F5F5F5F 		.ascii	"____GYRO_HORIZONTAL__Y_AXIS__Y_AXIS__FROM 0\000"
 13496      4759524F 
 13496      5F484F52 
 13496      495A4F4E 
 13496      54414C5F 
 13497              	.LASF416:
 13498 5eaf 494E5431 		.ascii	"INT16_MIN (-__INT16_MAX__ - 1)\000"
 13498      365F4D49 
ARM GAS  /var/folders/9j/_txx49hn253_s3mnzkyxlj8m0000gp/T//ccxigpJH.s 			page 307


 13498      4E20282D 
 13498      5F5F494E 
 13498      5431365F 
 13499              	.LASF530:
 13500 5ece 5F5F5F5F 		.ascii	"____REAR_CAN_NODE_HEARTBEAT__IS_OK__OK 1\000"
 13500      52454152 
 13500      5F43414E 
 13500      5F4E4F44 
 13500      455F4845 
 13501              	.LASF888:
 13502 5ef7 4D41474E 		.ascii	"MAGNETOMETER_VERTICAL__freq 10\000"
 13502      45544F4D 
 13502      45544552 
 13502      5F564552 
 13502      54494341 
 13503              	.LASF806:
 13504 5f16 5F5F5F5F 		.ascii	"____BMS_ERRORS__ERROR_TYPE__LTC6804_OWT 3\000"
 13504      424D535F 
 13504      4552524F 
 13504      52535F5F 
 13504      4552524F 
 13505              	.LASF166:
 13506 5f40 5F5F4445 		.ascii	"__DEC32_MANT_DIG__ 7\000"
 13506      4333325F 
 13506      4D414E54 
 13506      5F444947 
 13506      5F5F2037 
 13507              	.LASF489:
 13508 5f55 5F5F5F5F 		.ascii	"____MC_RESPONSE__REG_ID__CURRENT_CMD 38\000"
 13508      4D435F52 
 13508      4553504F 
 13508      4E53455F 
 13508      5F524547 
 13509              	.LASF1136:
 13510 5f7d 7072696E 		.ascii	"print\000"
 13510      7400
 13511              	.LASF350:
 13512 5f83 5F4D4143 		.ascii	"_MACHINE__DEFAULT_TYPES_H \000"
 13512      48494E45 
 13512      5F5F4445 
 13512      4641554C 
 13512      545F5459 
 13513              	.LASF23:
 13514 5f9e 5F5F4249 		.ascii	"__BIGGEST_ALIGNMENT__ 8\000"
 13514      47474553 
 13514      545F414C 
 13514      49474E4D 
 13514      454E545F 
 13515              	.LASF1103:
 13516 5fb6 7761726E 		.ascii	"warning_ballast_overload\000"
 13516      696E675F 
 13516      62616C6C 
 13516      6173745F 
 13516      6F766572 
 13517              	.LASF654:
 13518 5fcf 5F5F5F5F 		.ascii	"____VCU_DASH_HEARTBEAT__AMS_LIGHT__OFF 0\000"
 13518      5643555F 
ARM GAS  /var/folders/9j/_txx49hn253_s3mnzkyxlj8m0000gp/T//ccxigpJH.s 			page 308


 13518      44415348 
 13518      5F484541 
 13518      52544245 
 13519              	.LASF639:
 13520 5ff8 5F5F5F5F 		.ascii	"____ACCELEROMETER_VERTICAL__Z_AXIS__Z_AXIS__FROM 0\000"
 13520      41434345 
 13520      4C45524F 
 13520      4D455445 
 13520      525F5645 
 13521              	.LASF504:
 13522 602b 5F5F4D43 		.ascii	"__MC_RESPONSE__DATA__end 23\000"
 13522      5F524553 
 13522      504F4E53 
 13522      455F5F44 
 13522      4154415F 
 13523              	.LASF969:
 13524 6047 43414E5F 		.ascii	"CAN_MC_REG_CURRENT_ACTUAL\000"
 13524      4D435F52 
 13524      45475F43 
 13524      55525245 
 13524      4E545F41 
 13525              	.LASF393:
 13526 6061 5F5F4C45 		.ascii	"__LEAST64 \"ll\"\000"
 13526      41535436 
 13526      3420226C 
 13526      6C2200
 13527              	.LASF114:
 13528 6070 5F5F5549 		.ascii	"__UINT_FAST16_MAX__ 4294967295U\000"
 13528      4E545F46 
 13528      41535431 
 13528      365F4D41 
 13528      585F5F20 
 13529              	.LASF735:
 13530 6090 5F5F5643 		.ascii	"__VCU_DASH_HEARTBEAT__HEARTBEAT_MC_DEAD__end 29\000"
 13530      555F4441 
 13530      53485F48 
 13530      45415254 
 13530      42454154 
 13531              	.LASF712:
 13532 60c0 5F5F5643 		.ascii	"__VCU_DASH_HEARTBEAT__SHUTDOWN_DRIVER_RESET__start "
 13532      555F4441 
 13532      53485F48 
 13532      45415254 
 13532      42454154 
 13533 60f3 313600   		.ascii	"16\000"
 13534              	.LASF638:
 13535 60f6 5F5F4143 		.ascii	"__ACCELEROMETER_VERTICAL__Z_AXIS__end 31\000"
 13535      43454C45 
 13535      524F4D45 
 13535      5445525F 
 13535      56455254 
 13536              	.LASF732:
 13537 611f 5F5F5F5F 		.ascii	"____VCU_DASH_HEARTBEAT__HEARTBEAT_DASH_DEAD__ALIVE "
 13537      5643555F 
 13537      44415348 
 13537      5F484541 
 13537      52544245 
ARM GAS  /var/folders/9j/_txx49hn253_s3mnzkyxlj8m0000gp/T//ccxigpJH.s 			page 309


 13538 6152 3000     		.ascii	"0\000"
 13539              	.LASF1030:
 13540 6154 73687574 		.ascii	"shutdown_imd\000"
 13540      646F776E 
 13540      5F696D64 
 13540      00
 13541              	.LASF330:
 13542 6161 5F5F4152 		.ascii	"__ARM_ARCH_ISA_THUMB 1\000"
 13542      4D5F4152 
 13542      43485F49 
 13542      53415F54 
 13542      48554D42 
 13543              	.LASF107:
 13544 6178 5F5F5549 		.ascii	"__UINT_LEAST64_MAX__ 18446744073709551615ULL\000"
 13544      4E545F4C 
 13544      45415354 
 13544      36345F4D 
 13544      41585F5F 
 13545              	.LASF1184:
 13546 61a5 43616E5F 		.ascii	"Can_Bms_Heartbeat_ToCan\000"
 13546      426D735F 
 13546      48656172 
 13546      74626561 
 13546      745F546F 
 13547              	.LASF988:
 13548 61bd 43414E5F 		.ascii	"CAN_DASH_REQUEST_NO_REQUEST\000"
 13548      44415348 
 13548      5F524551 
 13548      55455354 
 13548      5F4E4F5F 
 13549              	.LASF994:
 13550 61d9 43616E5F 		.ascii	"Can_Dash_RequestID_T\000"
 13550      44617368 
 13550      5F526571 
 13550      75657374 
 13550      49445F54 
 13551              	.LASF109:
 13552 61ee 5F5F494E 		.ascii	"__INT_FAST8_MAX__ 2147483647\000"
 13552      545F4641 
 13552      5354385F 
 13552      4D41585F 
 13552      5F203231 
 13553              	.LASF374:
 13554 620b 6C6F6E67 		.ascii	"long\000"
 13554      00
 13555              	.LASF882:
 13556 6210 5F5F5F5F 		.ascii	"____MAGNETOMETER_HORIZONTAL__X_AXIS__X_AXIS__TO 429"
 13556      4D41474E 
 13556      45544F4D 
 13556      45544552 
 13556      5F484F52 
 13557 6243 34393637 		.ascii	"4967295\000"
 13557      32393500 
 13558              	.LASF373:
 13559 624b 73686F72 		.ascii	"short\000"
 13559      7400
 13560              	.LASF968:
ARM GAS  /var/folders/9j/_txx49hn253_s3mnzkyxlj8m0000gp/T//ccxigpJH.s 			page 310


 13561 6251 43414E5F 		.ascii	"CAN_MC_REG_CURRENT_CMD_AFTER_RAMP\000"
 13561      4D435F52 
 13561      45475F43 
 13561      55525245 
 13561      4E545F43 
 13562              	.LASF203:
 13563 6273 5F5F5546 		.ascii	"__UFRACT_IBIT__ 0\000"
 13563      52414354 
 13563      5F494249 
 13563      545F5F20 
 13563      3000
 13564              	.LASF1174:
 13565 6285 43616E5F 		.ascii	"Can_RearCanNode_WheelSpeed_ToCan\000"
 13565      52656172 
 13565      43616E4E 
 13565      6F64655F 
 13565      57686565 
 13566              	.LASF703:
 13567 62a6 5F5F5F5F 		.ascii	"____VCU_DASH_HEARTBEAT__SHUTDOWN_VCU__OPEN 1\000"
 13567      5643555F 
 13567      44415348 
 13567      5F484541 
 13567      52544245 
 13568              	.LASF94:
 13569 62d3 5F5F494E 		.ascii	"__INT8_C(c) c\000"
 13569      54385F43 
 13569      28632920 
 13569      6300
 13570              	.LASF208:
 13571 62e1 5F5F4C46 		.ascii	"__LFRACT_IBIT__ 0\000"
 13571      52414354 
 13571      5F494249 
 13571      545F5F20 
 13571      3000
 13572              	.LASF1138:
 13573 62f3 43616E5F 		.ascii	"Can_FrontCanNode_DriverOutput_Test\000"
 13573      46726F6E 
 13573      7443616E 
 13573      4E6F6465 
 13573      5F447269 
 13574              	.LASF317:
 13575 6316 5F5F4743 		.ascii	"__GCC_ATOMIC_POINTER_LOCK_FREE 1\000"
 13575      435F4154 
 13575      4F4D4943 
 13575      5F504F49 
 13575      4E544552 
 13576              	.LASF140:
 13577 6337 5F5F4442 		.ascii	"__DBL_MIN_EXP__ (-1021)\000"
 13577      4C5F4D49 
 13577      4E5F4558 
 13577      505F5F20 
 13577      282D3130 
 13578              	.LASF1088:
 13579 634f 6572726F 		.ascii	"error_over_current\000"
 13579      725F6F76 
 13579      65725F63 
 13579      75727265 
ARM GAS  /var/folders/9j/_txx49hn253_s3mnzkyxlj8m0000gp/T//ccxigpJH.s 			page 311


 13579      6E7400
 13580              	.LASF672:
 13581 6362 5F5F5643 		.ascii	"__VCU_DASH_HEARTBEAT__LV_WARNING__start 6\000"
 13581      555F4441 
 13581      53485F48 
 13581      45415254 
 13581      42454154 
 13582              	.LASF846:
 13583 638c 424D535F 		.ascii	"BMS_PACK_STATUS__freq 10\000"
 13583      5041434B 
 13583      5F535441 
 13583      5455535F 
 13583      5F667265 
 13584              	.LASF87:
 13585 63a5 5F5F494E 		.ascii	"__INT32_MAX__ 2147483647L\000"
 13585      5433325F 
 13585      4D41585F 
 13585      5F203231 
 13585      34373438 
 13586              	.LASF1071:
 13587 63bf 69645F6D 		.ascii	"id_max_cell_voltage\000"
 13587      61785F63 
 13587      656C6C5F 
 13587      766F6C74 
 13587      61676500 
 13588              	.LASF1139:
 13589 63d3 62656769 		.ascii	"begin\000"
 13589      6E00
 13590              	.LASF400:
 13591 63d9 5F5F696E 		.ascii	"__int_least16_t_defined 1\000"
 13591      745F6C65 
 13591      61737431 
 13591      365F745F 
 13591      64656669 
 13592              	.LASF611:
 13593 63f3 5F5F5F5F 		.ascii	"____FRONT_CAN_NODE_RAW_VALUES__STEERING_POT__STEERI"
 13593      46524F4E 
 13593      545F4341 
 13593      4E5F4E4F 
 13593      44455F52 
 13594 6426 4E475F50 		.ascii	"NG_POT__FROM 0\000"
 13594      4F545F5F 
 13594      46524F4D 
 13594      203000
 13595              	.LASF176:
 13596 6435 5F5F4445 		.ascii	"__DEC64_MIN__ 1E-383DD\000"
 13596      4336345F 
 13596      4D494E5F 
 13596      5F203145 
 13596      2D333833 
 13597              	.LASF476:
 13598 644c 544F5F43 		.ascii	"TO_CAN(name) void name ## _ToCan(name ## _T *type_i"
 13598      414E286E 
 13598      616D6529 
 13598      20766F69 
 13598      64206E61 
 13599 647f 6E2C2046 		.ascii	"n, Frame *can_out)\000"
ARM GAS  /var/folders/9j/_txx49hn253_s3mnzkyxlj8m0000gp/T//ccxigpJH.s 			page 312


 13599      72616D65 
 13599      202A6361 
 13599      6E5F6F75 
 13599      742900
 13600              	.LASF1100:
 13601 6492 7761726E 		.ascii	"warning_over_voltage\000"
 13601      696E675F 
 13601      6F766572 
 13601      5F766F6C 
 13601      74616765 
 13602              	.LASF1122:
 13603 64a7 63757272 		.ascii	"current_limited_via_igbt_temp\000"
 13603      656E745F 
 13603      6C696D69 
 13603      7465645F 
 13603      7669615F 
 13604              	.LASF777:
 13605 64c5 5F5F5F5F 		.ascii	"____VCU_MC_MESSAGE__DATA_1__DATA_LOW_BYTE__FROM 0\000"
 13605      5643555F 
 13605      4D435F4D 
 13605      45535341 
 13605      47455F5F 
 13606              	.LASF467:
 13607 64f7 55494E54 		.ascii	"UINTMAX_C(x) __UINTMAX_C(x)\000"
 13607      4D41585F 
 13607      43287829 
 13607      205F5F55 
 13607      494E544D 
 13608              	.LASF1092:
 13609 6513 6572726F 		.ascii	"error_incompatible_firmware\000"
 13609      725F696E 
 13609      636F6D70 
 13609      61746962 
 13609      6C655F66 
 13610              	.LASF365:
 13611 652f 5F5F4558 		.ascii	"__EXP\000"
 13611      5000
 13612              	.LASF1009:
 13613 6535 66726F6E 		.ascii	"front_right_wheel_speed\000"
 13613      745F7269 
 13613      6768745F 
 13613      77686565 
 13613      6C5F7370 
 13614              	.LASF360:
 13615 654d 5F5F5F69 		.ascii	"___int64_t_defined 1\000"
 13615      6E743634 
 13615      5F745F64 
 13615      6566696E 
 13615      65642031 
 13616              	.LASF163:
 13617 6562 5F5F4C44 		.ascii	"__LDBL_HAS_DENORM__ 1\000"
 13617      424C5F48 
 13617      41535F44 
 13617      454E4F52 
 13617      4D5F5F20 
 13618              	.LASF1090:
 13619 6578 6572726F 		.ascii	"error_user_selected_fault\000"
ARM GAS  /var/folders/9j/_txx49hn253_s3mnzkyxlj8m0000gp/T//ccxigpJH.s 			page 313


 13619      725F7573 
 13619      65725F73 
 13619      656C6563 
 13619      7465645F 
 13620              	.LASF1056:
 13621 6592 64636463 		.ascii	"dcdc_enable\000"
 13621      5F656E61 
 13621      626C6500 
 13622              	.LASF1105:
 13623 659e 68617264 		.ascii	"hardware_enable\000"
 13623      77617265 
 13623      5F656E61 
 13623      626C6500 
 13624              	.LASF108:
 13625 65ae 5F5F5549 		.ascii	"__UINT64_C(c) c ## ULL\000"
 13625      4E543634 
 13625      5F432863 
 13625      29206320 
 13625      23232055 
 13626              	.LASF347:
 13627 65c5 43414E5F 		.ascii	"CAN_ARCHITECTURE_ARM 1\000"
 13627      41524348 
 13627      49544543 
 13627      54555245 
 13627      5F41524D 
 13628              	.LASF1016:
 13629 65dc 43616E5F 		.ascii	"Can_RearCanNode_WheelSpeed_T\000"
 13629      52656172 
 13629      43616E4E 
 13629      6F64655F 
 13629      57686565 
 13630              	.LASF815:
 13631 65f9 5F5F5F5F 		.ascii	"____BMS_ERRORS__ERROR_TYPE__VCU_DEAD 12\000"
 13631      424D535F 
 13631      4552524F 
 13631      52535F5F 
 13631      4552524F 
 13632              	.LASF49:
 13633 6621 5F5F494E 		.ascii	"__INT_LEAST32_TYPE__ long int\000"
 13633      545F4C45 
 13633      41535433 
 13633      325F5459 
 13633      50455F5F 
 13634              	.LASF1126:
 13635 663f 68616E64 		.ascii	"handwheel_input_selected\000"
 13635      77686565 
 13635      6C5F696E 
 13635      7075745F 
 13635      73656C65 
 13636              	.LASF491:
 13637 6658 5F5F5F5F 		.ascii	"____MC_RESPONSE__REG_ID__MOTOR_TEMP 73\000"
 13637      4D435F52 
 13637      4553504F 
 13637      4E53455F 
 13637      5F524547 
 13638              	.LASF520:
 13639 667f 43555252 		.ascii	"CURRENT_SENSOR_POWER__freq 20\000"
ARM GAS  /var/folders/9j/_txx49hn253_s3mnzkyxlj8m0000gp/T//ccxigpJH.s 			page 314


 13639      454E545F 
 13639      53454E53 
 13639      4F525F50 
 13639      4F574552 
 13640              	.LASF515:
 13641 669d 5F5F4355 		.ascii	"__CURRENT_SENSOR_VOLTAGE__PACK_VOLTAGE__start 16\000"
 13641      5252454E 
 13641      545F5345 
 13641      4E534F52 
 13641      5F564F4C 
 13642              	.LASF857:
 13643 66ce 5F5F424D 		.ascii	"__BMS_PACK_STATUS__AVE_CELL_VOLTAGE__start 20\000"
 13643      535F5041 
 13643      434B5F53 
 13643      54415455 
 13643      535F5F41 
 13644              	.LASF919:
 13645 66fc 5F5F696E 		.ascii	"__int8_t\000"
 13645      74385F74 
 13645      00
 13646              	.LASF198:
 13647 6705 5F5F4652 		.ascii	"__FRACT_IBIT__ 0\000"
 13647      4143545F 
 13647      49424954 
 13647      5F5F2030 
 13647      00
 13648              	.LASF24:
 13649 6716 5F5F4F52 		.ascii	"__ORDER_LITTLE_ENDIAN__ 1234\000"
 13649      4445525F 
 13649      4C495454 
 13649      4C455F45 
 13649      4E444941 
 13650              	.LASF647:
 13651 6733 5643555F 		.ascii	"VCU_DASH_HEARTBEAT__freq 10\000"
 13651      44415348 
 13651      5F484541 
 13651      52544245 
 13651      41545F5F 
 13652              	.LASF173:
 13653 674f 5F5F4445 		.ascii	"__DEC64_MANT_DIG__ 16\000"
 13653      4336345F 
 13653      4D414E54 
 13653      5F444947 
 13653      5F5F2031 
 13654              	.LASF917:
 13655 6765 6C6F6E67 		.ascii	"long long unsigned int\000"
 13655      206C6F6E 
 13655      6720756E 
 13655      7369676E 
 13655      65642069 
 13656              	.LASF433:
 13657 677c 55494E54 		.ascii	"UINT_LEAST64_MAX (__UINT_LEAST64_MAX__)\000"
 13657      5F4C4541 
 13657      53543634 
 13657      5F4D4158 
 13657      20285F5F 
 13658              	.LASF658:
ARM GAS  /var/folders/9j/_txx49hn253_s3mnzkyxlj8m0000gp/T//ccxigpJH.s 			page 315


 13659 67a4 5F5F5F5F 		.ascii	"____VCU_DASH_HEARTBEAT__IMD_LIGHT__OFF 0\000"
 13659      5643555F 
 13659      44415348 
 13659      5F484541 
 13659      52544245 
 13660              	.LASF1048:
 13661 67cd 43616E5F 		.ascii	"Can_Vcu_DashHeartbeat_T\000"
 13661      5663755F 
 13661      44617368 
 13661      48656172 
 13661      74626561 
 13662              	.LASF253:
 13663 67e5 5F5F554C 		.ascii	"__ULACCUM_IBIT__ 32\000"
 13663      41434355 
 13663      4D5F4942 
 13663      49545F5F 
 13663      20333200 
 13664              	.LASF1026:
 13665 67f9 61637469 		.ascii	"active_aero\000"
 13665      76655F61 
 13665      65726F00 
 13666              	.LASF488:
 13667 6805 5F5F5F5F 		.ascii	"____MC_RESPONSE__REG_ID__AIR_TEMP 75\000"
 13667      4D435F52 
 13667      4553504F 
 13667      4E53455F 
 13667      5F524547 
 13668              	.LASF436:
 13669 682a 55494E54 		.ascii	"UINT_FAST8_MAX (__UINT_FAST8_MAX__)\000"
 13669      5F464153 
 13669      54385F4D 
 13669      41582028 
 13669      5F5F5549 
 13670              	.LASF266:
 13671 684e 5F5F554C 		.ascii	"__ULLACCUM_EPSILON__ 0x1P-32ULLK\000"
 13671      4C414343 
 13671      554D5F45 
 13671      5053494C 
 13671      4F4E5F5F 
 13672              	.LASF328:
 13673 686f 5F5F4150 		.ascii	"__APCS_32__ 1\000"
 13673      43535F33 
 13673      325F5F20 
 13673      3100
 13674              	.LASF273:
 13675 687d 5F5F4451 		.ascii	"__DQ_FBIT__ 63\000"
 13675      5F464249 
 13675      545F5F20 
 13675      363300
 13676              	.LASF808:
 13677 688c 5F5F5F5F 		.ascii	"____BMS_ERRORS__ERROR_TYPE__CELL_UNDER_VOLTAGE 5\000"
 13677      424D535F 
 13677      4552524F 
 13677      52535F5F 
 13677      4552524F 
 13678              	.LASF936:
 13679 68bd 75696E74 		.ascii	"uint16_t\000"
ARM GAS  /var/folders/9j/_txx49hn253_s3mnzkyxlj8m0000gp/T//ccxigpJH.s 			page 316


 13679      31365F74 
 13679      00
 13680              	.LASF577:
 13681 68c6 5F5F5245 		.ascii	"__REAR_CAN_NODE_WHEEL_SPEED__REAR_RIGHT_WHEEL_SPEED"
 13681      41525F43 
 13681      414E5F4E 
 13681      4F44455F 
 13681      57484545 
 13682 68f9 5F5F7374 		.ascii	"__start 0\000"
 13682      61727420 
 13682      3000
 13683              	.LASF280:
 13684 6903 5F5F5548 		.ascii	"__UHQ_IBIT__ 0\000"
 13684      515F4942 
 13684      49545F5F 
 13684      203000
 13685              	.LASF753:
 13686 6912 5F5F5F5F 		.ascii	"____VCU_DASH_HEARTBEAT__PRECHARGE_RUNNING__TRUE 1\000"
 13686      5643555F 
 13686      44415348 
 13686      5F484541 
 13686      52544245 
 13687              	.LASF909:
 13688 6944 5F4D5931 		.ascii	"_MY17_CAN_LIBRARY_IDS_H \000"
 13688      375F4341 
 13688      4E5F4C49 
 13688      42524152 
 13688      595F4944 
 13689              	.LASF487:
 13690 695d 5F5F5F5F 		.ascii	"____MC_RESPONSE__REG_ID__CURRENT_CMD_AFTER_RAMP 34\000"
 13690      4D435F52 
 13690      4553504F 
 13690      4E53455F 
 13690      5F524547 
 13691              	.LASF56:
 13692 6990 5F5F494E 		.ascii	"__INT_FAST16_TYPE__ int\000"
 13692      545F4641 
 13692      53543136 
 13692      5F545950 
 13692      455F5F20 
 13693              	.LASF57:
 13694 69a8 5F5F494E 		.ascii	"__INT_FAST32_TYPE__ int\000"
 13694      545F4641 
 13694      53543332 
 13694      5F545950 
 13694      455F5F20 
 13695              	.LASF229:
 13696 69c0 5F5F5341 		.ascii	"__SACCUM_MIN__ (-0X1P7HK-0X1P7HK)\000"
 13696      4343554D 
 13696      5F4D494E 
 13696      5F5F2028 
 13696      2D305831 
 13697              	.LASF215:
 13698 69e2 5F5F554C 		.ascii	"__ULFRACT_MAX__ 0XFFFFFFFFP-32ULR\000"
 13698      46524143 
 13698      545F4D41 
 13698      585F5F20 
ARM GAS  /var/folders/9j/_txx49hn253_s3mnzkyxlj8m0000gp/T//ccxigpJH.s 			page 317


 13698      30584646 
 13699              	.LASF52:
 13700 6a04 5F5F5549 		.ascii	"__UINT_LEAST16_TYPE__ short unsigned int\000"
 13700      4E545F4C 
 13700      45415354 
 13700      31365F54 
 13700      5950455F 
 13701              	.LASF1147:
 13702 6a2d 43616E5F 		.ascii	"Can_Vcu_BmsHeartbeat_Test\000"
 13702      5663755F 
 13702      426D7348 
 13702      65617274 
 13702      62656174 
 13703              	.LASF250:
 13704 6a47 5F5F4C41 		.ascii	"__LACCUM_MAX__ 0X7FFFFFFFFFFFFFFFP-31LK\000"
 13704      4343554D 
 13704      5F4D4158 
 13704      5F5F2030 
 13704      58374646 
 13705              	.LASF36:
 13706 6a6f 5F5F4348 		.ascii	"__CHAR16_TYPE__ short unsigned int\000"
 13706      41523136 
 13706      5F545950 
 13706      455F5F20 
 13706      73686F72 
 13707              	.LASF910:
 13708 6a92 5F4D5931 		.ascii	"_MY17_CAN_LIBRARY_VCU_H \000"
 13708      375F4341 
 13708      4E5F4C49 
 13708      42524152 
 13708      595F5643 
 13709              	.LASF833:
 13710 6aab 5F5F424D 		.ascii	"__BMS_HEARTBEAT__FAN_ENABLE__start 13\000"
 13710      535F4845 
 13710      41525442 
 13710      4541545F 
 13710      5F46414E 
 13711              	.LASF1195:
 13712 6ad1 43616E5F 		.ascii	"Can_Dash_Request_FromCan\000"
 13712      44617368 
 13712      5F526571 
 13712      75657374 
 13712      5F46726F 
 13713              	.LASF103:
 13714 6aea 5F5F5549 		.ascii	"__UINT_LEAST16_MAX__ 65535\000"
 13714      4E545F4C 
 13714      45415354 
 13714      31365F4D 
 13714      41585F5F 
 13715              	.LASF285:
 13716 6b05 5F5F5554 		.ascii	"__UTQ_FBIT__ 128\000"
 13716      515F4642 
 13716      49545F5F 
 13716      20313238 
 13716      00
 13717              	.LASF499:
 13718 6b16 5F5F5F5F 		.ascii	"____MC_RESPONSE__REG_ID__SPEED_CMD_AFTER_RAMP 50\000"
ARM GAS  /var/folders/9j/_txx49hn253_s3mnzkyxlj8m0000gp/T//ccxigpJH.s 			page 318


 13718      4D435F52 
 13718      4553504F 
 13718      4E53455F 
 13718      5F524547 
 13719              	.LASF1068:
 13720 6b47 6D696E5F 		.ascii	"min_cell_voltage\000"
 13720      63656C6C 
 13720      5F766F6C 
 13720      74616765 
 13720      00
 13721              	.LASF837:
 13722 6b58 5F5F424D 		.ascii	"__BMS_HEARTBEAT__DCDC_ENABLE__start 14\000"
 13722      535F4845 
 13722      41525442 
 13722      4541545F 
 13722      5F444344 
 13723              	.LASF694:
 13724 6b7f 5F5F5F5F 		.ascii	"____VCU_DASH_HEARTBEAT__SHUTDOWN_IMD__CLOSED 0\000"
 13724      5643555F 
 13724      44415348 
 13724      5F484541 
 13724      52544245 
 13725              	.LASF13:
 13726 6bae 5F5F4649 		.ascii	"__FINITE_MATH_ONLY__ 0\000"
 13726      4E495445 
 13726      5F4D4154 
 13726      485F4F4E 
 13726      4C595F5F 
 13727              	.LASF782:
 13728 6bc5 5F5F5F5F 		.ascii	"____VCU_MC_MESSAGE__DATA_2__DATA_HIGH_BYTE__TO 255\000"
 13728      5643555F 
 13728      4D435F4D 
 13728      45535341 
 13728      47455F5F 
 13729              	.LASF368:
 13730 6bf8 5F5F6861 		.ascii	"__have_longlong64 1\000"
 13730      76655F6C 
 13730      6F6E676C 
 13730      6F6E6736 
 13730      34203100 
 13731              	.LASF1123:
 13732 6c0c 63757272 		.ascii	"current_reduction_low_frequency\000"
 13732      656E745F 
 13732      72656475 
 13732      6374696F 
 13732      6E5F6C6F 
 13733              	.LASF620:
 13734 6c2c 5F5F424D 		.ascii	"__BMS_CELL_TEMPS__MIN_CELL_TEMP_ID__end 38\000"
 13734      535F4345 
 13734      4C4C5F54 
 13734      454D5053 
 13734      5F5F4D49 
 13735              	.LASF971:
 13736 6c57 43414E5F 		.ascii	"CAN_MC_REG_CURRENT_LIMIT_MOTOR_TEMP\000"
 13736      4D435F52 
 13736      45475F43 
 13736      55525245 
ARM GAS  /var/folders/9j/_txx49hn253_s3mnzkyxlj8m0000gp/T//ccxigpJH.s 			page 319


 13736      4E545F4C 
 13737              	.LASF624:
 13738 6c7b 5F5F424D 		.ascii	"__BMS_CELL_TEMPS__MAX_CELL_TEMP_ID__end 62\000"
 13738      535F4345 
 13738      4C4C5F54 
 13738      454D5053 
 13738      5F5F4D41 
 13739              	.LASF799:
 13740 6ca6 424D535F 		.ascii	"BMS_ERRORS__id 608\000"
 13740      4552524F 
 13740      52535F5F 
 13740      69642036 
 13740      303800
 13741              	.LASF592:
 13742 6cb9 46524F4E 		.ascii	"FRONT_CAN_NODE_RAW_VALUES__freq 10\000"
 13742      545F4341 
 13742      4E5F4E4F 
 13742      44455F52 
 13742      41575F56 
 13743              	.LASF1205:
 13744 6cdc 43616E5F 		.ascii	"Can_CurrentSensor_Voltage_FromCan\000"
 13744      43757272 
 13744      656E7453 
 13744      656E736F 
 13744      725F566F 
 13745              	.LASF686:
 13746 6cfe 5F5F5F5F 		.ascii	"____VCU_DASH_HEARTBEAT__SHUTDOWN_ESD_DRAIN__CLOSED "
 13746      5643555F 
 13746      44415348 
 13746      5F484541 
 13746      52544245 
 13747 6d31 3000     		.ascii	"0\000"
 13748              	.LASF255:
 13749 6d33 5F5F554C 		.ascii	"__ULACCUM_MAX__ 0XFFFFFFFFFFFFFFFFP-32ULK\000"
 13749      41434355 
 13749      4D5F4D41 
 13749      585F5F20 
 13749      30584646 
 13750              	.LASF96:
 13751 6d5d 5F5F494E 		.ascii	"__INT16_C(c) c\000"
 13751      5431365F 
 13751      43286329 
 13751      206300
 13752              	.LASF1040:
 13753 6d6c 68656172 		.ascii	"heartbeat_mc_dead\000"
 13753      74626561 
 13753      745F6D63 
 13753      5F646561 
 13753      6400
 13754              	.LASF1152:
 13755 6d7e 43616E5F 		.ascii	"Can_Bms_CellTemps_Test\000"
 13755      426D735F 
 13755      43656C6C 
 13755      54656D70 
 13755      735F5465 
 13756              	.LASF687:
 13757 6d95 5F5F5F5F 		.ascii	"____VCU_DASH_HEARTBEAT__SHUTDOWN_ESD_DRAIN__OPEN 1\000"
ARM GAS  /var/folders/9j/_txx49hn253_s3mnzkyxlj8m0000gp/T//ccxigpJH.s 			page 320


 13757      5643555F 
 13757      44415348 
 13757      5F484541 
 13757      52544245 
 13758              	.LASF677:
 13759 6dc8 5F5F5643 		.ascii	"__VCU_DASH_HEARTBEAT__ACTIVE_AERO__end 7\000"
 13759      555F4441 
 13759      53485F48 
 13759      45415254 
 13759      42454154 
 13760              	.LASF214:
 13761 6df1 5F5F554C 		.ascii	"__ULFRACT_MIN__ 0.0ULR\000"
 13761      46524143 
 13761      545F4D49 
 13761      4E5F5F20 
 13761      302E3055 
 13762              	.LASF838:
 13763 6e08 5F5F424D 		.ascii	"__BMS_HEARTBEAT__DCDC_ENABLE__end 14\000"
 13763      535F4845 
 13763      41525442 
 13763      4541545F 
 13763      5F444344 
 13764              	.LASF274:
 13765 6e2d 5F5F4451 		.ascii	"__DQ_IBIT__ 0\000"
 13765      5F494249 
 13765      545F5F20 
 13765      3000
 13766              	.LASF1059:
 13767 6e3b 6176675F 		.ascii	"avg_cell_temp\000"
 13767      63656C6C 
 13767      5F74656D 
 13767      7000
 13768              	.LASF172:
 13769 6e49 5F5F4445 		.ascii	"__DEC32_SUBNORMAL_MIN__ 0.000001E-95DF\000"
 13769      4333325F 
 13769      5355424E 
 13769      4F524D41 
 13769      4C5F4D49 
 13770              	.LASF1151:
 13771 6e70 43616E5F 		.ascii	"Can_Bms_Heartbeat_Test\000"
 13771      426D735F 
 13771      48656172 
 13771      74626561 
 13771      745F5465 
 13772              	.LASF695:
 13773 6e87 5F5F5F5F 		.ascii	"____VCU_DASH_HEARTBEAT__SHUTDOWN_IMD__OPEN 1\000"
 13773      5643555F 
 13773      44415348 
 13773      5F484541 
 13773      52544245 
 13774              	.LASF668:
 13775 6eb4 5F5F5643 		.ascii	"__VCU_DASH_HEARTBEAT__LIMP_MODE__start 5\000"
 13775      555F4441 
 13775      53485F48 
 13775      45415254 
 13775      42454154 
 13776              	.LASF790:
ARM GAS  /var/folders/9j/_txx49hn253_s3mnzkyxlj8m0000gp/T//ccxigpJH.s 			page 321


 13777 6edd 5F5F4759 		.ascii	"__GYRO_HORIZONTAL__Y_AXIS__end 63\000"
 13777      524F5F48 
 13777      4F52495A 
 13777      4F4E5441 
 13777      4C5F5F59 
 13778              	.LASF75:
 13779 6eff 5F5F5749 		.ascii	"__WINT_MAX__ 4294967295U\000"
 13779      4E545F4D 
 13779      41585F5F 
 13779      20343239 
 13779      34393637 
 13780              	.LASF641:
 13781 6f18 5643555F 		.ascii	"VCU_BMS_HEARTBEAT__id 80\000"
 13781      424D535F 
 13781      48454152 
 13781      54424541 
 13781      545F5F69 
 13782              	.LASF484:
 13783 6f31 5F5F4D43 		.ascii	"__MC_RESPONSE__REG_ID__end 7\000"
 13783      5F524553 
 13783      504F4E53 
 13783      455F5F52 
 13783      45475F49 
 13784              	.LASF1118:
 13785 6f4e 73706565 		.ascii	"speed_limited_via_switch\000"
 13785      645F6C69 
 13785      6D697465 
 13785      645F7669 
 13785      615F7377 
 13786              	.LASF899:
 13787 6f67 44415348 		.ascii	"DASH_REQUEST__id 113\000"
 13787      5F524551 
 13787      55455354 
 13787      5F5F6964 
 13787      20313133 
 13788              	.LASF99:
 13789 6f7c 5F5F494E 		.ascii	"__INT_LEAST64_MAX__ 9223372036854775807LL\000"
 13789      545F4C45 
 13789      41535436 
 13789      345F4D41 
 13789      585F5F20 
 13790              	.LASF1113:
 13791 6fa6 73706565 		.ascii	"speed_control_mode\000"
 13791      645F636F 
 13791      6E74726F 
 13791      6C5F6D6F 
 13791      646500
 13792              	.LASF1050:
 13793 6fb9 70657269 		.ascii	"period\000"
 13793      6F6400
 13794              	.LASF1157:
 13795 6fc0 43616E5F 		.ascii	"Can_MC_DataReading_Test\000"
 13795      4D435F44 
 13795      61746152 
 13795      65616469 
 13795      6E675F54 
 13796              	.LASF599:
ARM GAS  /var/folders/9j/_txx49hn253_s3mnzkyxlj8m0000gp/T//ccxigpJH.s 			page 322


 13797 6fd8 5F5F5F5F 		.ascii	"____FRONT_CAN_NODE_RAW_VALUES__LEFT_THROTTLE_POT__L"
 13797      46524F4E 
 13797      545F4341 
 13797      4E5F4E4F 
 13797      44455F52 
 13798 700b 4546545F 		.ascii	"EFT_THROTTLE_POT__FROM 0\000"
 13798      5448524F 
 13798      54544C45 
 13798      5F504F54 
 13798      5F5F4652 
 13799              	.LASF541:
 13800 7024 5F5F5F5F 		.ascii	"____FRONT_CAN_NODE_DRIVER_OUTPUT__REQUESTED_TORQUE_"
 13800      46524F4E 
 13800      545F4341 
 13800      4E5F4E4F 
 13800      44455F44 
 13801 7057 5F4E4547 		.ascii	"_NEGATIVE_TORQUE__FROM 32768\000"
 13801      41544956 
 13801      455F544F 
 13801      52515545 
 13801      5F5F4652 
 13802              	.LASF999:
 13803 7074 6272616B 		.ascii	"brake_throttle_conflict\000"
 13803      655F7468 
 13803      726F7474 
 13803      6C655F63 
 13803      6F6E666C 
 13804              	.LASF727:
 13805 708c 5F5F5643 		.ascii	"__VCU_DASH_HEARTBEAT__HEARTBEAT_BMS_DEAD__end 27\000"
 13805      555F4441 
 13805      53485F48 
 13805      45415254 
 13805      42454154 
 13806              	.LASF335:
 13807 70bd 5F5F4152 		.ascii	"__ARM_FP 12\000"
 13807      4D5F4650 
 13807      20313200 
 13808              	.LASF863:
 13809 70c9 5F5F5F5F 		.ascii	"____BMS_PACK_STATUS__MIN_CELL_VOLTAGE__MIN_CELL_VOL"
 13809      424D535F 
 13809      5041434B 
 13809      5F535441 
 13809      5455535F 
 13810 70fc 54414745 		.ascii	"TAGE__FROM 0\000"
 13810      5F5F4652 
 13810      4F4D2030 
 13810      00
 13811              	.LASF78:
 13812 7109 5F5F5349 		.ascii	"__SIZE_MAX__ 4294967295U\000"
 13812      5A455F4D 
 13812      41585F5F 
 13812      20343239 
 13812      34393637 
 13813              	.LASF803:
 13814 7122 5F5F5F5F 		.ascii	"____BMS_ERRORS__ERROR_TYPE__NONE 0\000"
 13814      424D535F 
 13814      4552524F 
ARM GAS  /var/folders/9j/_txx49hn253_s3mnzkyxlj8m0000gp/T//ccxigpJH.s 			page 323


 13814      52535F5F 
 13814      4552524F 
 13815              	.LASF922:
 13816 7145 5F5F696E 		.ascii	"__int16_t\000"
 13816      7431365F 
 13816      7400
 13817              	.LASF617:
 13818 714f 5F5F424D 		.ascii	"__BMS_CELL_TEMPS__MIN_CELL_TEMP__start 15\000"
 13818      535F4345 
 13818      4C4C5F54 
 13818      454D5053 
 13818      5F5F4D49 
 13819              	.LASF626:
 13820 7179 41434345 		.ascii	"ACCELEROMETER_HORIZONTAL__freq 10\000"
 13820      4C45524F 
 13820      4D455445 
 13820      525F484F 
 13820      52495A4F 
 13821              	.LASF286:
 13822 719b 5F5F5554 		.ascii	"__UTQ_IBIT__ 0\000"
 13822      515F4942 
 13822      49545F5F 
 13822      203000
 13823              	.LASF705:
 13824 71aa 5F5F5643 		.ascii	"__VCU_DASH_HEARTBEAT__SHUTDOWN_PRECHARGE__end 14\000"
 13824      555F4441 
 13824      53485F48 
 13824      45415254 
 13824      42454154 
 13825              	.LASF1187:
 13826 71db 43616E5F 		.ascii	"Can_Bms_CellTemps_FromCan\000"
 13826      426D735F 
 13826      43656C6C 
 13826      54656D70 
 13826      735F4672 
 13827              	.LASF811:
 13828 71f5 5F5F5F5F 		.ascii	"____BMS_ERRORS__ERROR_TYPE__CELL_OVER_TEMP 8\000"
 13828      424D535F 
 13828      4552524F 
 13828      52535F5F 
 13828      4552524F 
 13829              	.LASF596:
 13830 7222 5F5F5F5F 		.ascii	"____FRONT_CAN_NODE_RAW_VALUES__RIGHT_THROTTLE_POT__"
 13830      46524F4E 
 13830      545F4341 
 13830      4E5F4E4F 
 13830      44455F52 
 13831 7255 52494748 		.ascii	"RIGHT_THROTTLE_POT__TO 255\000"
 13831      545F5448 
 13831      524F5454 
 13831      4C455F50 
 13831      4F545F5F 
 13832              	.LASF1058:
 13833 7270 43616E5F 		.ascii	"Can_Bms_Heartbeat_T\000"
 13833      426D735F 
 13833      48656172 
 13833      74626561 
ARM GAS  /var/folders/9j/_txx49hn253_s3mnzkyxlj8m0000gp/T//ccxigpJH.s 			page 324


 13833      745F5400 
 13834              	.LASF618:
 13835 7284 5F5F424D 		.ascii	"__BMS_CELL_TEMPS__MIN_CELL_TEMP__end 29\000"
 13835      535F4345 
 13835      4C4C5F54 
 13835      454D5053 
 13835      5F5F4D49 
 13836              	.LASF560:
 13837 72ac 5F5F5F5F 		.ascii	"____FRONT_CAN_NODE_DRIVER_OUTPUT__BRAKE_THROTTLE_CO"
 13837      46524F4E 
 13837      545F4341 
 13837      4E5F4E4F 
 13837      44455F44 
 13838 72df 4E464C49 		.ascii	"NFLICT__CONFLICT 1\000"
 13838      43545F5F 
 13838      434F4E46 
 13838      4C494354 
 13838      203100
 13839              	.LASF801:
 13840 72f2 5F5F424D 		.ascii	"__BMS_ERRORS__ERROR_TYPE__start 0\000"
 13840      535F4552 
 13840      524F5253 
 13840      5F5F4552 
 13840      524F525F 
 13841              	.LASF342:
 13842 7314 5F5F454C 		.ascii	"__ELF__ 1\000"
 13842      465F5F20 
 13842      3100
 13843              	.LASF422:
 13844 731e 494E5433 		.ascii	"INT32_MIN (-__INT32_MAX__ - 1)\000"
 13844      325F4D49 
 13844      4E20282D 
 13844      5F5F494E 
 13844      5433325F 
 13845              	.LASF332:
 13846 733d 5F5F5448 		.ascii	"__THUMBEL__ 1\000"
 13846      554D4245 
 13846      4C5F5F20 
 13846      3100
 13847              	.LASF866:
 13848 734b 5F5F424D 		.ascii	"__BMS_PACK_STATUS__MIN_CELL_VOLTAGE_ID__end 46\000"
 13848      535F5041 
 13848      434B5F53 
 13848      54415455 
 13848      535F5F4D 
 13849              	.LASF542:
 13850 737a 5F5F5F5F 		.ascii	"____FRONT_CAN_NODE_DRIVER_OUTPUT__REQUESTED_TORQUE_"
 13850      46524F4E 
 13850      545F4341 
 13850      4E5F4E4F 
 13850      44455F44 
 13851 73ad 5F4E4547 		.ascii	"_NEGATIVE_TORQUE__TO 65535\000"
 13851      41544956 
 13851      455F544F 
 13851      52515545 
 13851      5F5F544F 
 13852              	.LASF755:
ARM GAS  /var/folders/9j/_txx49hn253_s3mnzkyxlj8m0000gp/T//ccxigpJH.s 			page 325


 13853 73c8 5F5F5643 		.ascii	"__VCU_DASH_HEARTBEAT__MASTER_RESET_NOT_INITIALIZED_"
 13853      555F4441 
 13853      53485F48 
 13853      45415254 
 13853      42454154 
 13854 73fb 5F656E64 		.ascii	"_end 34\000"
 13854      20333400 
 13855              	.LASF268:
 13856 7403 5F5F5151 		.ascii	"__QQ_IBIT__ 0\000"
 13856      5F494249 
 13856      545F5F20 
 13856      3000
 13857              	.LASF871:
 13858 7411 5F5F5F5F 		.ascii	"____BMS_PACK_STATUS__MAX_CELL_VOLTAGE__MAX_CELL_VOL"
 13858      424D535F 
 13858      5041434B 
 13858      5F535441 
 13858      5455535F 
 13859 7444 54414745 		.ascii	"TAGE__FROM 0\000"
 13859      5F5F4652 
 13859      4F4D2030 
 13859      00
 13860              	.LASF685:
 13861 7451 5F5F5643 		.ascii	"__VCU_DASH_HEARTBEAT__SHUTDOWN_ESD_DRAIN__end 9\000"
 13861      555F4441 
 13861      53485F48 
 13861      45415254 
 13861      42454154 
 13862              	.LASF699:
 13863 7481 5F5F5F5F 		.ascii	"____VCU_DASH_HEARTBEAT__SHUTDOWN_BSPD__OPEN 1\000"
 13863      5643555F 
 13863      44415348 
 13863      5F484541 
 13863      52544245 
 13864              	.LASF465:
 13865 74af 55494E54 		.ascii	"UINT64_C(x) __UINT64_C(x)\000"
 13865      36345F43 
 13865      28782920 
 13865      5F5F5549 
 13865      4E543634 
 13866              	.LASF257:
 13867 74c9 5F5F4C4C 		.ascii	"__LLACCUM_FBIT__ 31\000"
 13867      41434355 
 13867      4D5F4642 
 13867      49545F5F 
 13867      20333100 
 13868              	.LASF747:
 13869 74dd 5F5F5643 		.ascii	"__VCU_DASH_HEARTBEAT__RESET_LATCH_OPEN__end 32\000"
 13869      555F4441 
 13869      53485F48 
 13869      45415254 
 13869      42454154 
 13870              	.LASF81:
 13871 750c 5F5F5549 		.ascii	"__UINTMAX_MAX__ 18446744073709551615ULL\000"
 13871      4E544D41 
 13871      585F4D41 
 13871      585F5F20 
ARM GAS  /var/folders/9j/_txx49hn253_s3mnzkyxlj8m0000gp/T//ccxigpJH.s 			page 326


 13871      31383434 
 13872              	.LASF1210:
 13873 7534 2E2E2F4D 		.ascii	"../MY17/lib/MY17_Can_Library/MY17_Can_Library_Test."
 13873      5931372F 
 13873      6C69622F 
 13873      4D593137 
 13873      5F43616E 
 13874 7567 6300     		.ascii	"c\000"
 13875              	.LASF570:
 13876 7569 5F5F5F5F 		.ascii	"____FRONT_CAN_NODE_WHEEL_SPEED__FRONT_RIGHT_WHEEL_S"
 13876      46524F4E 
 13876      545F4341 
 13876      4E5F4E4F 
 13876      44455F57 
 13877 759c 50454544 		.ascii	"PEED__FRONT_RIGHT_WHEEL_SPEED__TO 4294967295\000"
 13877      5F5F4652 
 13877      4F4E545F 
 13877      52494748 
 13877      545F5748 
 13878              	.LASF415:
 13879 75c9 55494E54 		.ascii	"UINT_LEAST8_MAX (__UINT_LEAST8_MAX__)\000"
 13879      5F4C4541 
 13879      5354385F 
 13879      4D415820 
 13879      285F5F55 
 13880              	.LASF282:
 13881 75ef 5F5F5553 		.ascii	"__USQ_IBIT__ 0\000"
 13881      515F4942 
 13881      49545F5F 
 13881      203000
 13882              	.LASF494:
 13883 75fe 5F5F5F5F 		.ascii	"____MC_RESPONSE__REG_ID__CURRENT_LIMIT_MOTOR_TEMP 1"
 13883      4D435F52 
 13883      4553504F 
 13883      4E53455F 
 13883      5F524547 
 13884 7631 363200   		.ascii	"62\000"
 13885              	.LASF53:
 13886 7634 5F5F5549 		.ascii	"__UINT_LEAST32_TYPE__ long unsigned int\000"
 13886      4E545F4C 
 13886      45415354 
 13886      33325F54 
 13886      5950455F 
 13887              	.LASF823:
 13888 765c 5F5F5F5F 		.ascii	"____BMS_HEARTBEAT__STATE__STANDBY 1\000"
 13888      424D535F 
 13888      48454152 
 13888      54424541 
 13888      545F5F53 
 13889              	.LASF3:
 13890 7680 5F5F474E 		.ascii	"__GNUC_MINOR__ 9\000"
 13890      55435F4D 
 13890      494E4F52 
 13890      5F5F2039 
 13890      00
 13891              	.LASF34:
 13892 7691 5F5F494E 		.ascii	"__INTMAX_TYPE__ long long int\000"
ARM GAS  /var/folders/9j/_txx49hn253_s3mnzkyxlj8m0000gp/T//ccxigpJH.s 			page 327


 13892      544D4158 
 13892      5F545950 
 13892      455F5F20 
 13892      6C6F6E67 
 13893              	.LASF313:
 13894 76af 5F5F4743 		.ascii	"__GCC_ATOMIC_INT_LOCK_FREE 1\000"
 13894      435F4154 
 13894      4F4D4943 
 13894      5F494E54 
 13894      5F4C4F43 
 13895              	.LASF97:
 13896 76cc 5F5F494E 		.ascii	"__INT_LEAST32_MAX__ 2147483647L\000"
 13896      545F4C45 
 13896      41535433 
 13896      325F4D41 
 13896      585F5F20 
 13897              	.LASF306:
 13898 76ec 5F5F4348 		.ascii	"__CHAR_UNSIGNED__ 1\000"
 13898      41525F55 
 13898      4E534947 
 13898      4E45445F 
 13898      5F203100 
 13899              	.LASF764:
 13900 7700 5F5F5643 		.ascii	"__VCU_DASH_HEARTBEAT__LV_BATTERY_VOLTAGE__start 40\000"
 13900      555F4441 
 13900      53485F48 
 13900      45415254 
 13900      42454154 
 13901              	.LASF787:
 13902 7733 5F5F5F5F 		.ascii	"____GYRO_HORIZONTAL__X_AXIS__X_AXIS__FROM 0\000"
 13902      4759524F 
 13902      5F484F52 
 13902      495A4F4E 
 13902      54414C5F 
 13903              	.LASF879:
 13904 775f 5F5F4D41 		.ascii	"__MAGNETOMETER_HORIZONTAL__X_AXIS__start 0\000"
 13904      474E4554 
 13904      4F4D4554 
 13904      45525F48 
 13904      4F52495A 
 13905              	.LASF529:
 13906 778a 5F5F5F5F 		.ascii	"____REAR_CAN_NODE_HEARTBEAT__IS_OK__NOT_OK 0\000"
 13906      52454152 
 13906      5F43414E 
 13906      5F4E4F44 
 13906      455F4845 
 13907              	.LASF875:
 13908 77b7 5F5F5F5F 		.ascii	"____BMS_PACK_STATUS__MAX_CELL_VOLTAGE_ID__MAX_CELL_"
 13908      424D535F 
 13908      5041434B 
 13908      5F535441 
 13908      5455535F 
 13909 77ea 564F4C54 		.ascii	"VOLTAGE_ID__FROM 0\000"
 13909      4147455F 
 13909      49445F5F 
 13909      46524F4D 
 13909      203000
ARM GAS  /var/folders/9j/_txx49hn253_s3mnzkyxlj8m0000gp/T//ccxigpJH.s 			page 328


 13910              	.LASF363:
 13911 77fd 5F5F5F69 		.ascii	"___int_least32_t_defined 1\000"
 13911      6E745F6C 
 13911      65617374 
 13911      33325F74 
 13911      5F646566 
 13912              	.LASF734:
 13913 7818 5F5F5643 		.ascii	"__VCU_DASH_HEARTBEAT__HEARTBEAT_MC_DEAD__start 29\000"
 13913      555F4441 
 13913      53485F48 
 13913      45415254 
 13913      42454154 
 13914              	.LASF513:
 13915 784a 43555252 		.ascii	"CURRENT_SENSOR_VOLTAGE__id 1314\000"
 13915      454E545F 
 13915      53454E53 
 13915      4F525F56 
 13915      4F4C5441 
 13916              	.LASF236:
 13917 786a 5F5F5553 		.ascii	"__USACCUM_EPSILON__ 0x1P-8UHK\000"
 13917      41434355 
 13917      4D5F4550 
 13917      53494C4F 
 13917      4E5F5F20 
 13918              	.LASF151:
 13919 7888 5F5F4442 		.ascii	"__DBL_HAS_QUIET_NAN__ 1\000"
 13919      4C5F4841 
 13919      535F5155 
 13919      4945545F 
 13919      4E414E5F 
 13920              	.LASF1086:
 13921 78a0 6572726F 		.ascii	"error_device_temp_high\000"
 13921      725F6465 
 13921      76696365 
 13921      5F74656D 
 13921      705F6869 
 13922              	.LASF439:
 13923 78b7 55494E54 		.ascii	"UINT_FAST16_MAX (__UINT_FAST16_MAX__)\000"
 13923      5F464153 
 13923      5431365F 
 13923      4D415820 
 13923      285F5F55 
 13924              	.LASF627:
 13925 78dd 5F5F4143 		.ascii	"__ACCELEROMETER_HORIZONTAL__X_AXIS__start 0\000"
 13925      43454C45 
 13925      524F4D45 
 13925      5445525F 
 13925      484F5249 
 13926              	.LASF582:
 13927 7909 5F5F5245 		.ascii	"__REAR_CAN_NODE_WHEEL_SPEED__REAR_LEFT_WHEEL_SPEED_"
 13927      41525F43 
 13927      414E5F4E 
 13927      4F44455F 
 13927      57484545 
 13928 793c 5F656E64 		.ascii	"_end 63\000"
 13928      20363300 
 13929              	.LASF220:
ARM GAS  /var/folders/9j/_txx49hn253_s3mnzkyxlj8m0000gp/T//ccxigpJH.s 			page 329


 13930 7944 5F5F4C4C 		.ascii	"__LLFRACT_MAX__ 0X7FFFFFFFFFFFFFFFP-63LLR\000"
 13930      46524143 
 13930      545F4D41 
 13930      585F5F20 
 13930      30583746 
 13931              	.LASF182:
 13932 796e 5F5F4445 		.ascii	"__DEC128_MAX_EXP__ 6145\000"
 13932      43313238 
 13932      5F4D4158 
 13932      5F455850 
 13932      5F5F2036 
 13933              	.LASF427:
 13934 7986 55494E54 		.ascii	"UINT_LEAST32_MAX (__UINT_LEAST32_MAX__)\000"
 13934      5F4C4541 
 13934      53543332 
 13934      5F4D4158 
 13934      20285F5F 
 13935              	.LASF816:
 13936 79ae 5F5F5F5F 		.ascii	"____BMS_ERRORS__ERROR_TYPE__CONTROL_FLOW 13\000"
 13936      424D535F 
 13936      4552524F 
 13936      52535F5F 
 13936      4552524F 
 13937              	.LASF744:
 13938 79da 5F5F5F5F 		.ascii	"____VCU_DASH_HEARTBEAT__TSMS_OFF__ON 0\000"
 13938      5643555F 
 13938      44415348 
 13938      5F484541 
 13938      52544245 
 13939              	.LASF1181:
 13940 7a01 43616E5F 		.ascii	"Can_Vcu_MCRequest_FromCan\000"
 13940      5663755F 
 13940      4D435265 
 13940      71756573 
 13940      745F4672 
 13941              	.LASF995:
 13942 7a1b 746F7271 		.ascii	"torque\000"
 13942      756500
 13943              	.LASF77:
 13944 7a22 5F5F5054 		.ascii	"__PTRDIFF_MAX__ 2147483647\000"
 13944      52444946 
 13944      465F4D41 
 13944      585F5F20 
 13944      32313437 
 13945              	.LASF230:
 13946 7a3d 5F5F5341 		.ascii	"__SACCUM_MAX__ 0X7FFFP-7HK\000"
 13946      4343554D 
 13946      5F4D4158 
 13946      5F5F2030 
 13946      58374646 
 13947              	.LASF960:
 13948 7a58 43414E5F 		.ascii	"CAN_BMS_ERROR_OVER_CURRENT\000"
 13948      424D535F 
 13948      4552524F 
 13948      525F4F56 
 13948      45525F43 
 13949              	.LASF722:
ARM GAS  /var/folders/9j/_txx49hn253_s3mnzkyxlj8m0000gp/T//ccxigpJH.s 			page 330


 13950 7a73 5F5F5643 		.ascii	"__VCU_DASH_HEARTBEAT__HEARTBEAT_REAR_CAN_NODE_DEAD_"
 13950      555F4441 
 13950      53485F48 
 13950      45415254 
 13950      42454154 
 13951 7aa6 5F737461 		.ascii	"_start 26\000"
 13951      72742032 
 13951      3600
 13952              	.LASF64:
 13953 7ab0 5F5F5549 		.ascii	"__UINTPTR_TYPE__ unsigned int\000"
 13953      4E545054 
 13953      525F5459 
 13953      50455F5F 
 13953      20756E73 
 13954              	.LASF303:
 13955 7ace 5F5F5245 		.ascii	"__REGISTER_PREFIX__ \000"
 13955      47495354 
 13955      45525F50 
 13955      52454649 
 13955      585F5F20 
 13956              	.LASF186:
 13957 7ae3 5F5F4445 		.ascii	"__DEC128_SUBNORMAL_MIN__ 0.000000000000000000000000"
 13957      43313238 
 13957      5F535542 
 13957      4E4F524D 
 13957      414C5F4D 
 13958 7b16 30303030 		.ascii	"000000001E-6143DL\000"
 13958      30303030 
 13958      31452D36 
 13958      31343344 
 13958      4C00
 13959              	.LASF139:
 13960 7b28 5F5F4442 		.ascii	"__DBL_DIG__ 15\000"
 13960      4C5F4449 
 13960      475F5F20 
 13960      313500
 13961              	.LASF216:
 13962 7b37 5F5F554C 		.ascii	"__ULFRACT_EPSILON__ 0x1P-32ULR\000"
 13962      46524143 
 13962      545F4550 
 13962      53494C4F 
 13962      4E5F5F20 
 13963              	.LASF338:
 13964 7b56 5F5F4152 		.ascii	"__ARM_ARCH_6M__ 1\000"
 13964      4D5F4152 
 13964      43485F36 
 13964      4D5F5F20 
 13964      3100
 13965              	.LASF757:
 13966 7b68 5F5F5F5F 		.ascii	"____VCU_DASH_HEARTBEAT__MASTER_RESET_NOT_INITIALIZE"
 13966      5643555F 
 13966      44415348 
 13966      5F484541 
 13966      52544245 
 13967 7b9b 445F5F54 		.ascii	"D__TRUE 1\000"
 13967      52554520 
 13967      3100
ARM GAS  /var/folders/9j/_txx49hn253_s3mnzkyxlj8m0000gp/T//ccxigpJH.s 			page 331


 13968              	.LASF21:
 13969 7ba5 5F5F5349 		.ascii	"__SIZEOF_SIZE_T__ 4\000"
 13969      5A454F46 
 13969      5F53495A 
 13969      455F545F 
 13969      5F203400 
 13970              	.LASF951:
 13971 7bb9 43414E5F 		.ascii	"CAN_BMS_ERROR_NONE\000"
 13971      424D535F 
 13971      4552524F 
 13971      525F4E4F 
 13971      4E4500
 13972              	.LASF401:
 13973 7bcc 5F5F696E 		.ascii	"__int_least32_t_defined 1\000"
 13973      745F6C65 
 13973      61737433 
 13973      325F745F 
 13973      64656669 
 13974              	.LASF100:
 13975 7be6 5F5F494E 		.ascii	"__INT64_C(c) c ## LL\000"
 13975      5436345F 
 13975      43286329 
 13975      20632023 
 13975      23204C4C 
 13976              	.LASF539:
 13977 7bfb 5F5F4652 		.ascii	"__FRONT_CAN_NODE_DRIVER_OUTPUT__REQUESTED_TORQUE__s"
 13977      4F4E545F 
 13977      43414E5F 
 13977      4E4F4445 
 13977      5F445249 
 13978 7c2e 74617274 		.ascii	"tart 0\000"
 13978      203000
 13979              	.LASF523:
 13980 7c35 5F5F5F5F 		.ascii	"____CURRENT_SENSOR_POWER__PACK_POWER__PACK_POWER__F"
 13980      43555252 
 13980      454E545F 
 13980      53454E53 
 13980      4F525F50 
 13981 7c68 524F4D20 		.ascii	"ROM 0\000"
 13981      3000
 13982              	.LASF598:
 13983 7c6e 5F5F4652 		.ascii	"__FRONT_CAN_NODE_RAW_VALUES__LEFT_THROTTLE_POT__end"
 13983      4F4E545F 
 13983      43414E5F 
 13983      4E4F4445 
 13983      5F524157 
 13984 7ca1 20313900 		.ascii	" 19\000"
 13985              	.LASF865:
 13986 7ca5 5F5F424D 		.ascii	"__BMS_PACK_STATUS__MIN_CELL_VOLTAGE_ID__start 40\000"
 13986      535F5041 
 13986      434B5F53 
 13986      54415455 
 13986      535F5F4D 
 13987              	.LASF553:
 13988 7cd6 5F5F4652 		.ascii	"__FRONT_CAN_NODE_DRIVER_OUTPUT__THROTTLE_IMPLAUSIBL"
 13988      4F4E545F 
 13988      43414E5F 
ARM GAS  /var/folders/9j/_txx49hn253_s3mnzkyxlj8m0000gp/T//ccxigpJH.s 			page 332


 13988      4E4F4445 
 13988      5F445249 
 13989 7d09 455F5F73 		.ascii	"E__start 32\000"
 13989      74617274 
 13989      20333200 
 13990              	.LASF610:
 13991 7d15 5F5F4652 		.ascii	"__FRONT_CAN_NODE_RAW_VALUES__STEERING_POT__end 49\000"
 13991      4F4E545F 
 13991      43414E5F 
 13991      4E4F4445 
 13991      5F524157 
 13992              	.LASF160:
 13993 7d47 5F5F4C44 		.ascii	"__LDBL_MIN__ 2.2250738585072014e-308L\000"
 13993      424C5F4D 
 13993      494E5F5F 
 13993      20322E32 
 13993      32353037 
 13994              	.LASF776:
 13995 7d6d 5F5F5643 		.ascii	"__VCU_MC_MESSAGE__DATA_1__end 15\000"
 13995      555F4D43 
 13995      5F4D4553 
 13995      53414745 
 13995      5F5F4441 
 13996              	.LASF1204:
 13997 7d8e 43616E5F 		.ascii	"Can_CurrentSensor_Voltage_ToCan\000"
 13997      43757272 
 13997      656E7453 
 13997      656E736F 
 13997      725F566F 
 13998              	.LASF238:
 13999 7dae 5F5F4143 		.ascii	"__ACCUM_IBIT__ 16\000"
 13999      43554D5F 
 13999      49424954 
 13999      5F5F2031 
 13999      3600
 14000              	.LASF993:
 14001 7dc0 43414E5F 		.ascii	"CAN_DASH_REQUEST_DATA_FLAG\000"
 14001      44415348 
 14001      5F524551 
 14001      55455354 
 14001      5F444154 
 14002              	.LASF945:
 14003 7ddb 43414E5F 		.ascii	"CAN_BMS_STATE_CHARGE\000"
 14003      424D535F 
 14003      53544154 
 14003      455F4348 
 14003      41524745 
 14004              	.LASF371:
 14005 7df0 756E7369 		.ascii	"unsigned\000"
 14005      676E6564 
 14005      00
 14006              	.LASF572:
 14007 7df9 5F5F4652 		.ascii	"__FRONT_CAN_NODE_WHEEL_SPEED__FRONT_LEFT_WHEEL_SPEE"
 14007      4F4E545F 
 14007      43414E5F 
 14007      4E4F4445 
 14007      5F574845 
ARM GAS  /var/folders/9j/_txx49hn253_s3mnzkyxlj8m0000gp/T//ccxigpJH.s 			page 333


 14008 7e2c 445F5F65 		.ascii	"D__end 63\000"
 14008      6E642036 
 14008      3300
 14009              	.LASF812:
 14010 7e36 5F5F5F5F 		.ascii	"____BMS_ERRORS__ERROR_TYPE__OVER_CURRENT 9\000"
 14010      424D535F 
 14010      4552524F 
 14010      52535F5F 
 14010      4552524F 
 14011              	.LASF1167:
 14012 7e61 43616E5F 		.ascii	"Can_FrontCanNode_DriverOutput_FromCan\000"
 14012      46726F6E 
 14012      7443616E 
 14012      4E6F6465 
 14012      5F447269 
 14013              	.LASF923:
 14014 7e87 73686F72 		.ascii	"short int\000"
 14014      7420696E 
 14014      7400
 14015              	.LASF635:
 14016 7e91 41434345 		.ascii	"ACCELEROMETER_VERTICAL__id 836\000"
 14016      4C45524F 
 14016      4D455445 
 14016      525F5645 
 14016      52544943 
 14017              	.LASF1145:
 14018 7eb0 43616E5F 		.ascii	"Can_RearCanNode_Heartbeat_Test\000"
 14018      52656172 
 14018      43616E4E 
 14018      6F64655F 
 14018      48656172 
 14019              	.LASF104:
 14020 7ecf 5F5F5549 		.ascii	"__UINT16_C(c) c\000"
 14020      4E543136 
 14020      5F432863 
 14020      29206300 
 14021              	.LASF670:
 14022 7edf 5F5F5F5F 		.ascii	"____VCU_DASH_HEARTBEAT__LIMP_MODE__OFF 0\000"
 14022      5643555F 
 14022      44415348 
 14022      5F484541 
 14022      52544245 
 14023              	.LASF874:
 14024 7f08 5F5F424D 		.ascii	"__BMS_PACK_STATUS__MAX_CELL_VOLTAGE_ID__end 63\000"
 14024      535F5041 
 14024      434B5F53 
 14024      54415455 
 14024      535F5F4D 
 14025              	.LASF1055:
 14026 7f37 66616E5F 		.ascii	"fan_enable\000"
 14026      656E6162 
 14026      6C6500
 14027              	.LASF300:
 14028 7f42 5F5F5544 		.ascii	"__UDA_IBIT__ 32\000"
 14028      415F4942 
 14028      49545F5F 
 14028      20333200 
ARM GAS  /var/folders/9j/_txx49hn253_s3mnzkyxlj8m0000gp/T//ccxigpJH.s 			page 334


 14029              	.LASF391:
 14030 7f52 5F5F4C45 		.ascii	"__LEAST16 \"h\"\000"
 14030      41535431 
 14030      36202268 
 14030      2200
 14031              	.LASF738:
 14032 7f60 5F5F5643 		.ascii	"__VCU_DASH_HEARTBEAT__HEARTBEAT_CURRENT_SENSOR_DEAD"
 14032      555F4441 
 14032      53485F48 
 14032      45415254 
 14032      42454154 
 14033 7f93 5F5F7374 		.ascii	"__start 30\000"
 14033      61727420 
 14033      333000
 14034              	.LASF408:
 14035 7f9e 494E5450 		.ascii	"INTPTR_MAX (__INTPTR_MAX__)\000"
 14035      54525F4D 
 14035      41582028 
 14035      5F5F494E 
 14035      54505452 
 14036              	.LASF1046:
 14037 7fba 64726976 		.ascii	"driver_reset_not_initialized\000"
 14037      65725F72 
 14037      65736574 
 14037      5F6E6F74 
 14037      5F696E69 
 14038              	.LASF428:
 14039 7fd7 494E5436 		.ascii	"INT64_MIN (-__INT64_MAX__ - 1)\000"
 14039      345F4D49 
 14039      4E20282D 
 14039      5F5F494E 
 14039      5436345F 
 14040              	.LASF1010:
 14041 7ff6 66726F6E 		.ascii	"front_left_wheel_speed\000"
 14041      745F6C65 
 14041      66745F77 
 14041      6865656C 
 14041      5F737065 
 14042              	.LASF6:
 14043 800d 5F5F4154 		.ascii	"__ATOMIC_RELAXED 0\000"
 14043      4F4D4943 
 14043      5F52454C 
 14043      41584544 
 14043      203000
 14044              	.LASF754:
 14045 8020 5F5F5643 		.ascii	"__VCU_DASH_HEARTBEAT__MASTER_RESET_NOT_INITIALIZED_"
 14045      555F4441 
 14045      53485F48 
 14045      45415254 
 14045      42454154 
 14046 8053 5F737461 		.ascii	"_start 34\000"
 14046      72742033 
 14046      3400
 14047              	.LASF841:
 14048 805d 5F5F424D 		.ascii	"__BMS_HEARTBEAT__DCDC_FAULT__start 15\000"
 14048      535F4845 
 14048      41525442 
ARM GAS  /var/folders/9j/_txx49hn253_s3mnzkyxlj8m0000gp/T//ccxigpJH.s 			page 335


 14048      4541545F 
 14048      5F444344 
 14049              	.LASF736:
 14050 8083 5F5F5F5F 		.ascii	"____VCU_DASH_HEARTBEAT__HEARTBEAT_MC_DEAD__ALIVE 0\000"
 14050      5643555F 
 14050      44415348 
 14050      5F484541 
 14050      52544245 
 14051              	.LASF1095:
 14052 80b6 7761726E 		.ascii	"warning_illegal_status_emi\000"
 14052      696E675F 
 14052      696C6C65 
 14052      67616C5F 
 14052      73746174 
 14053              	.LASF150:
 14054 80d1 5F5F4442 		.ascii	"__DBL_HAS_INFINITY__ 1\000"
 14054      4C5F4841 
 14054      535F494E 
 14054      46494E49 
 14054      54595F5F 
 14055              	.LASF935:
 14056 80e8 696E7431 		.ascii	"int16_t\000"
 14056      365F7400 
 14057              	.LASF982:
 14058 80f0 43414E5F 		.ascii	"CAN_MC_REG_TORQUE_CMD\000"
 14058      4D435F52 
 14058      45475F54 
 14058      4F525155 
 14058      455F434D 
 14059              	.LASF642:
 14060 8106 5643555F 		.ascii	"VCU_BMS_HEARTBEAT__freq 1\000"
 14060      424D535F 
 14060      48454152 
 14060      54424541 
 14060      545F5F66 
 14061              	.LASF486:
 14062 8120 5F5F5F5F 		.ascii	"____MC_RESPONSE__REG_ID__SPEED_ACTUAL_RPM 48\000"
 14062      4D435F52 
 14062      4553504F 
 14062      4E53455F 
 14062      5F524547 
 14063              	.LASF1002:
 14064 814d 43616E5F 		.ascii	"Can_FrontCanNode_DriverOutput_T\000"
 14064      46726F6E 
 14064      7443616E 
 14064      4E6F6465 
 14064      5F447269 
 14065              	.LASF989:
 14066 816d 43414E5F 		.ascii	"CAN_DASH_REQUEST_RTD_ENABLE\000"
 14066      44415348 
 14066      5F524551 
 14066      55455354 
 14066      5F525444 
 14067              	.LASF526:
 14068 8189 52454152 		.ascii	"REAR_CAN_NODE_HEARTBEAT__freq 1\000"
 14068      5F43414E 
 14068      5F4E4F44 
ARM GAS  /var/folders/9j/_txx49hn253_s3mnzkyxlj8m0000gp/T//ccxigpJH.s 			page 336


 14068      455F4845 
 14068      41525442 
 14069              	.LASF986:
 14070 81a9 43414E5F 		.ascii	"CAN_MC_REG_MSG_REQUEST\000"
 14070      4D435F52 
 14070      45475F4D 
 14070      53475F52 
 14070      45515545 
 14071              	.LASF343:
 14072 81c0 5F5F5553 		.ascii	"__USES_INITFINI__ 1\000"
 14072      45535F49 
 14072      4E495446 
 14072      494E495F 
 14072      5F203100 
 14073              	.LASF1007:
 14074 81d4 73746565 		.ascii	"steering_raw\000"
 14074      72696E67 
 14074      5F726177 
 14074      00
 14075              	.LASF952:
 14076 81e1 43414E5F 		.ascii	"CAN_BMS_ERROR_LTC6804_PEC\000"
 14076      424D535F 
 14076      4552524F 
 14076      525F4C54 
 14076      43363830 
 14077              	.LASF69:
 14078 81fb 5F5F5348 		.ascii	"__SHRT_MAX__ 32767\000"
 14078      52545F4D 
 14078      41585F5F 
 14078      20333237 
 14078      363700
 14079              	.LASF1098:
 14080 820e 7761726E 		.ascii	"warning_motor_temp_high\000"
 14080      696E675F 
 14080      6D6F746F 
 14080      725F7465 
 14080      6D705F68 
 14081              	.LASF144:
 14082 8226 5F5F4442 		.ascii	"__DBL_DECIMAL_DIG__ 17\000"
 14082      4C5F4445 
 14082      43494D41 
 14082      4C5F4449 
 14082      475F5F20 
 14083              	.LASF534:
 14084 823d 5F5F4355 		.ascii	"__CURRENT_SENSOR_ENERGY__PACK_ENERGY__end 47\000"
 14084      5252454E 
 14084      545F5345 
 14084      4E534F52 
 14084      5F454E45 
 14085              	.LASF369:
 14086 826a 5F5F6861 		.ascii	"__have_long32 1\000"
 14086      76655F6C 
 14086      6F6E6733 
 14086      32203100 
 14087              	.LASF800:
 14088 827a 424D535F 		.ascii	"BMS_ERRORS__freq 0\000"
 14088      4552524F 
ARM GAS  /var/folders/9j/_txx49hn253_s3mnzkyxlj8m0000gp/T//ccxigpJH.s 			page 337


 14088      52535F5F 
 14088      66726571 
 14088      203000
 14089              	.LASF990:
 14090 828d 43414E5F 		.ascii	"CAN_DASH_REQUEST_RTD_DISABLE\000"
 14090      44415348 
 14090      5F524551 
 14090      55455354 
 14090      5F525444 
 14091              	.LASF252:
 14092 82aa 5F5F554C 		.ascii	"__ULACCUM_FBIT__ 32\000"
 14092      41434355 
 14092      4D5F4642 
 14092      49545F5F 
 14092      20333200 
 14093              	.LASF1194:
 14094 82be 43616E5F 		.ascii	"Can_Dash_Request_ToCan\000"
 14094      44617368 
 14094      5F526571 
 14094      75657374 
 14094      5F546F43 
 14095              	.LASF517:
 14096 82d5 5F5F5F5F 		.ascii	"____CURRENT_SENSOR_VOLTAGE__PACK_VOLTAGE__PACK_VOLT"
 14096      43555252 
 14096      454E545F 
 14096      53454E53 
 14096      4F525F56 
 14097 8308 4147455F 		.ascii	"AGE__FROM 0\000"
 14097      5F46524F 
 14097      4D203000 
 14098              	.LASF643:
 14099 8314 5F5F5643 		.ascii	"__VCU_BMS_HEARTBEAT__STATE__start 0\000"
 14099      555F424D 
 14099      535F4845 
 14099      41525442 
 14099      4541545F 
 14100              	.LASF646:
 14101 8338 5643555F 		.ascii	"VCU_DASH_HEARTBEAT__id 81\000"
 14101      44415348 
 14101      5F484541 
 14101      52544245 
 14101      41545F5F 
 14102              	.LASF398:
 14103 8352 5F5F696E 		.ascii	"__int64_t_defined 1\000"
 14103      7436345F 
 14103      745F6465 
 14103      66696E65 
 14103      64203100 
 14104              	.LASF992:
 14105 8366 43414E5F 		.ascii	"CAN_DASH_REQUEST_LIMP_MODE_DISABLE\000"
 14105      44415348 
 14105      5F524551 
 14105      55455354 
 14105      5F4C494D 
 14106              	.LASF872:
 14107 8389 5F5F5F5F 		.ascii	"____BMS_PACK_STATUS__MAX_CELL_VOLTAGE__MAX_CELL_VOL"
 14107      424D535F 
ARM GAS  /var/folders/9j/_txx49hn253_s3mnzkyxlj8m0000gp/T//ccxigpJH.s 			page 338


 14107      5041434B 
 14107      5F535441 
 14107      5455535F 
 14108 83bc 54414745 		.ascii	"TAGE__TO 1023\000"
 14108      5F5F544F 
 14108      20313032 
 14108      3300
 14109              	.LASF386:
 14110 83ca 5F5F4641 		.ascii	"__FAST8 \000"
 14110      53543820 
 14110      00
 14111              	.LASF556:
 14112 83d3 5F5F5F5F 		.ascii	"____FRONT_CAN_NODE_DRIVER_OUTPUT__THROTTLE_IMPLAUSI"
 14112      46524F4E 
 14112      545F4341 
 14112      4E5F4E4F 
 14112      44455F44 
 14113 8406 424C455F 		.ascii	"BLE__IMPLAUSIBLE 1\000"
 14113      5F494D50 
 14113      4C415553 
 14113      49424C45 
 14113      203100
 14114              	.LASF1196:
 14115 8419 43616E5F 		.ascii	"Can_MC_DataReading_ToCan\000"
 14115      4D435F44 
 14115      61746152 
 14115      65616469 
 14115      6E675F54 
 14116              	.LASF71:
 14117 8432 5F5F4C4F 		.ascii	"__LONG_MAX__ 2147483647L\000"
 14117      4E475F4D 
 14117      41585F5F 
 14117      20323134 
 14117      37343833 
 14118              	.LASF1031:
 14119 844b 73687574 		.ascii	"shutdown_bspd\000"
 14119      646F776E 
 14119      5F627370 
 14119      6400
 14120              	.LASF956:
 14121 8459 43414E5F 		.ascii	"CAN_BMS_ERROR_CELL_UNDER_VOLTAGE\000"
 14121      424D535F 
 14121      4552524F 
 14121      525F4345 
 14121      4C4C5F55 
 14122              	.LASF717:
 14123 847a 5F5F5643 		.ascii	"__VCU_DASH_HEARTBEAT__UNUSED__end 24\000"
 14123      555F4441 
 14123      53485F48 
 14123      45415254 
 14123      42454154 
 14124              	.LASF267:
 14125 849f 5F5F5151 		.ascii	"__QQ_FBIT__ 7\000"
 14125      5F464249 
 14125      545F5F20 
 14125      3700
 14126              	.LASF708:
ARM GAS  /var/folders/9j/_txx49hn253_s3mnzkyxlj8m0000gp/T//ccxigpJH.s 			page 339


 14127 84ad 5F5F5643 		.ascii	"__VCU_DASH_HEARTBEAT__SHUTDOWN_MASTER_RESET__start "
 14127      555F4441 
 14127      53485F48 
 14127      45415254 
 14127      42454154 
 14128 84e0 313500   		.ascii	"15\000"
 14129              	.LASF963:
 14130 84e3 43414E5F 		.ascii	"CAN_BMS_ERROR_VCU_DEAD\000"
 14130      424D535F 
 14130      4552524F 
 14130      525F5643 
 14130      555F4445 
 14131              	.LASF893:
 14132 84fa 44415348 		.ascii	"DASH_HEARTBEAT__id 112\000"
 14132      5F484541 
 14132      52544245 
 14132      41545F5F 
 14132      69642031 
 14133              	.LASF961:
 14134 8511 43414E5F 		.ascii	"CAN_BMS_ERROR_CAN\000"
 14134      424D535F 
 14134      4552524F 
 14134      525F4341 
 14134      4E00
 14135              	.LASF1185:
 14136 8523 43616E5F 		.ascii	"Can_Bms_Heartbeat_FromCan\000"
 14136      426D735F 
 14136      48656172 
 14136      74626561 
 14136      745F4672 
 14137              	.LASF1061:
 14138 853d 6D61785F 		.ascii	"max_cell_temp\000"
 14138      63656C6C 
 14138      5F74656D 
 14138      7000
 14139              	.LASF862:
 14140 854b 5F5F424D 		.ascii	"__BMS_PACK_STATUS__MIN_CELL_VOLTAGE__end 39\000"
 14140      535F5041 
 14140      434B5F53 
 14140      54415455 
 14140      535F5F4D 
 14141              	.LASF766:
 14142 8577 5F5F5F5F 		.ascii	"____VCU_DASH_HEARTBEAT__LV_BATTERY_VOLTAGE__LV_BATT"
 14142      5643555F 
 14142      44415348 
 14142      5F484541 
 14142      52544245 
 14143 85aa 4552595F 		.ascii	"ERY_VOLTAGE__FROM 0\000"
 14143      564F4C54 
 14143      4147455F 
 14143      5F46524F 
 14143      4D203000 
 14144              	.LASF355:
 14145 85be 5F5F474E 		.ascii	"__GNUC_PREREQ__(ma,mi) __GNUC_PREREQ(ma, mi)\000"
 14145      55435F50 
 14145      52455245 
 14145      515F5F28 
ARM GAS  /var/folders/9j/_txx49hn253_s3mnzkyxlj8m0000gp/T//ccxigpJH.s 			page 340


 14145      6D612C6D 
 14146              	.LASF1198:
 14147 85eb 43616E5F 		.ascii	"Can_MC_ErrorAndWarning_ToCan\000"
 14147      4D435F45 
 14147      72726F72 
 14147      416E6457 
 14147      61726E69 
 14148              	.LASF765:
 14149 8608 5F5F5643 		.ascii	"__VCU_DASH_HEARTBEAT__LV_BATTERY_VOLTAGE__end 49\000"
 14149      555F4441 
 14149      53485F48 
 14149      45415254 
 14149      42454154 
 14150              	.LASF302:
 14151 8639 5F5F5554 		.ascii	"__UTA_IBIT__ 64\000"
 14151      415F4942 
 14151      49545F5F 
 14151      20363400 
 14152              	.LASF263:
 14153 8649 5F5F554C 		.ascii	"__ULLACCUM_IBIT__ 32\000"
 14153      4C414343 
 14153      554D5F49 
 14153      4249545F 
 14153      5F203332 
 14154              	.LASF818:
 14155 865e 424D535F 		.ascii	"BMS_HEARTBEAT__id 96\000"
 14155      48454152 
 14155      54424541 
 14155      545F5F69 
 14155      64203936 
 14156              	.LASF1084:
 14157 8673 6572726F 		.ascii	"error_power_voltage_missing\000"
 14157      725F706F 
 14157      7765725F 
 14157      766F6C74 
 14157      6167655F 
 14158              	.LASF226:
 14159 868f 5F5F554C 		.ascii	"__ULLFRACT_EPSILON__ 0x1P-64ULLR\000"
 14159      4C465241 
 14159      43545F45 
 14159      5053494C 
 14159      4F4E5F5F 
 14160              	.LASF1075:
 14161 86b0 43616E5F 		.ascii	"Can_Dash_Heartbeat_T\000"
 14161      44617368 
 14161      5F486561 
 14161      72746265 
 14161      61745F54 
 14162              	.LASF1:
 14163 86c5 5F5F5354 		.ascii	"__STDC_HOSTED__ 1\000"
 14163      44435F48 
 14163      4F535445 
 14163      445F5F20 
 14163      3100
 14164              	.LASF321:
 14165 86d7 5F5F5349 		.ascii	"__SIZEOF_WINT_T__ 4\000"
 14165      5A454F46 
ARM GAS  /var/folders/9j/_txx49hn253_s3mnzkyxlj8m0000gp/T//ccxigpJH.s 			page 341


 14165      5F57494E 
 14165      545F545F 
 14165      5F203400 
 14166              	.LASF689:
 14167 86eb 5F5F5643 		.ascii	"__VCU_DASH_HEARTBEAT__SHUTDOWN_BMS__end 10\000"
 14167      555F4441 
 14167      53485F48 
 14167      45415254 
 14167      42454154 
 14168              	.LASF601:
 14169 8716 5F5F4652 		.ascii	"__FRONT_CAN_NODE_RAW_VALUES__FRONT_BRAKE_PRESSURE__"
 14169      4F4E545F 
 14169      43414E5F 
 14169      4E4F4445 
 14169      5F524157 
 14170 8749 73746172 		.ascii	"start 20\000"
 14170      74203230 
 14170      00
 14171              	.LASF341:
 14172 8752 5F5F4758 		.ascii	"__GXX_TYPEINFO_EQUALITY_INLINE 0\000"
 14172      585F5459 
 14172      5045494E 
 14172      464F5F45 
 14172      5155414C 
 14173              	.LASF793:
 14174 8773 4759524F 		.ascii	"GYRO_VERTICAL__id 852\000"
 14174      5F564552 
 14174      54494341 
 14174      4C5F5F69 
 14174      64203835 
 14175              	.LASF559:
 14176 8789 5F5F5F5F 		.ascii	"____FRONT_CAN_NODE_DRIVER_OUTPUT__BRAKE_THROTTLE_CO"
 14176      46524F4E 
 14176      545F4341 
 14176      4E5F4E4F 
 14176      44455F44 
 14177 87bc 4E464C49 		.ascii	"NFLICT__NO_CONFLICT 0\000"
 14177      43545F5F 
 14177      4E4F5F43 
 14177      4F4E464C 
 14177      49435420 
 14178              	.LASF1057:
 14179 87d2 64636463 		.ascii	"dcdc_fault\000"
 14179      5F666175 
 14179      6C7400
 14180              	.LASF249:
 14181 87dd 5F5F4C41 		.ascii	"__LACCUM_MIN__ (-0X1P31LK-0X1P31LK)\000"
 14181      4343554D 
 14181      5F4D494E 
 14181      5F5F2028 
 14181      2D305831 
 14182              	.LASF1023:
 14183 8801 74726163 		.ascii	"traction_control\000"
 14183      74696F6E 
 14183      5F636F6E 
 14183      74726F6C 
 14183      00
ARM GAS  /var/folders/9j/_txx49hn253_s3mnzkyxlj8m0000gp/T//ccxigpJH.s 			page 342


 14184              	.LASF972:
 14185 8812 43414E5F 		.ascii	"CAN_MC_REG_CURRENT_LIMIT_IGBT_TEMP\000"
 14185      4D435F52 
 14185      45475F43 
 14185      55525245 
 14185      4E545F4C 
 14186              	.LASF1119:
 14187 8835 63757272 		.ascii	"current_limited_via_switch\000"
 14187      656E745F 
 14187      6C696D69 
 14187      7465645F 
 14187      7669615F 
 14188              	.LASF1209:
 14189 8850 474E5520 		.ascii	"GNU C 4.9.3 20150529 (release) [ARM/embedded-4_9-br"
 14189      4320342E 
 14189      392E3320 
 14189      32303135 
 14189      30353239 
 14190 8883 616E6368 		.ascii	"anch revision 227977] -mcpu=cortex-m0 -mthumb -g -g"
 14190      20726576 
 14190      6973696F 
 14190      6E203232 
 14190      37393737 
 14191 88b6 67646233 		.ascii	"gdb3 -O2 -std=gnu90 -ffunction-sections -fdata-sect"
 14191      202D4F32 
 14191      202D7374 
 14191      643D676E 
 14191      75393020 
 14192 88e9 696F6E73 		.ascii	"ions\000"
 14192      00
 14193              	.LASF167:
 14194 88ee 5F5F4445 		.ascii	"__DEC32_MIN_EXP__ (-94)\000"
 14194      4333325F 
 14194      4D494E5F 
 14194      4558505F 
 14194      5F20282D 
 14195              	.LASF1173:
 14196 8906 43616E5F 		.ascii	"Can_RearCanNode_Heartbeat_FromCan\000"
 14196      52656172 
 14196      43616E4E 
 14196      6F64655F 
 14196      48656172 
 14197              	.LASF707:
 14198 8928 5F5F5F5F 		.ascii	"____VCU_DASH_HEARTBEAT__SHUTDOWN_PRECHARGE__OPEN 1\000"
 14198      5643555F 
 14198      44415348 
 14198      5F484541 
 14198      52544245 
 14199              	.LASF119:
 14200 895b 5F5F4743 		.ascii	"__GCC_IEC_559 0\000"
 14200      435F4945 
 14200      435F3535 
 14200      39203000 
 14201              	.LASF1166:
 14202 896b 746F5F62 		.ascii	"to_bitstring\000"
 14202      69747374 
 14202      72696E67 
ARM GAS  /var/folders/9j/_txx49hn253_s3mnzkyxlj8m0000gp/T//ccxigpJH.s 			page 343


 14202      00
 14203              	.LASF1183:
 14204 8978 43616E5F 		.ascii	"Can_Vcu_MCTorque_FromCan\000"
 14204      5663755F 
 14204      4D43546F 
 14204      72717565 
 14204      5F46726F 
 14205              	.LASF688:
 14206 8991 5F5F5643 		.ascii	"__VCU_DASH_HEARTBEAT__SHUTDOWN_BMS__start 10\000"
 14206      555F4441 
 14206      53485F48 
 14206      45415254 
 14206      42454154 
 14207              	.LASF655:
 14208 89be 5F5F5F5F 		.ascii	"____VCU_DASH_HEARTBEAT__AMS_LIGHT__ON 1\000"
 14208      5643555F 
 14208      44415348 
 14208      5F484541 
 14208      52544245 
 14209              	.LASF384:
 14210 89e6 5F5F494E 		.ascii	"__INT32 \"l\"\000"
 14210      54333220 
 14210      226C2200 
 14211              	.LASF683:
 14212 89f2 5F5F5F5F 		.ascii	"____VCU_DASH_HEARTBEAT__REGEN__ON 1\000"
 14212      5643555F 
 14212      44415348 
 14212      5F484541 
 14212      52544245 
 14213              	.LASF571:
 14214 8a16 5F5F4652 		.ascii	"__FRONT_CAN_NODE_WHEEL_SPEED__FRONT_LEFT_WHEEL_SPEE"
 14214      4F4E545F 
 14214      43414E5F 
 14214      4E4F4445 
 14214      5F574845 
 14215 8a49 445F5F73 		.ascii	"D__start 32\000"
 14215      74617274 
 14215      20333200 
 14216              	.LASF637:
 14217 8a55 5F5F4143 		.ascii	"__ACCELEROMETER_VERTICAL__Z_AXIS__start 0\000"
 14217      43454C45 
 14217      524F4D45 
 14217      5445525F 
 14217      56455254 
 14218              	.LASF915:
 14219 8a7f 4445434C 		.ascii	"DECLARE\000"
 14219      41524500 
 14220              	.LASF1013:
 14221 8a87 43616E5F 		.ascii	"Can_RearCanNode_Heartbeat_T\000"
 14221      52656172 
 14221      43616E4E 
 14221      6F64655F 
 14221      48656172 
 14222              	.LASF876:
 14223 8aa3 5F5F5F5F 		.ascii	"____BMS_PACK_STATUS__MAX_CELL_VOLTAGE_ID__MAX_CELL_"
 14223      424D535F 
 14223      5041434B 
ARM GAS  /var/folders/9j/_txx49hn253_s3mnzkyxlj8m0000gp/T//ccxigpJH.s 			page 344


 14223      5F535441 
 14223      5455535F 
 14224 8ad6 564F4C54 		.ascii	"VOLTAGE_ID__TO 127\000"
 14224      4147455F 
 14224      49445F5F 
 14224      544F2031 
 14224      323700
 14225              	.LASF45:
 14226 8ae9 5F5F5549 		.ascii	"__UINT32_TYPE__ long unsigned int\000"
 14226      4E543332 
 14226      5F545950 
 14226      455F5F20 
 14226      6C6F6E67 
 14227              	.LASF852:
 14228 8b0b 5F5F424D 		.ascii	"__BMS_PACK_STATUS__PACK_CURRENT__end 19\000"
 14228      535F5041 
 14228      434B5F53 
 14228      54415455 
 14228      535F5F50 
 14229              	.LASF1107:
 14230 8b33 6C696D5F 		.ascii	"lim_plus_assigned\000"
 14230      706C7573 
 14230      5F617373 
 14230      69676E65 
 14230      6400
 14231              	.LASF345:
 14232 8b45 434F5245 		.ascii	"CORE_M0 1\000"
 14232      5F4D3020 
 14232      3100
 14233              	.LASF508:
 14234 8b4f 43555252 		.ascii	"CURRENT_SENSOR_CURRENT__freq 20\000"
 14234      454E545F 
 14234      53454E53 
 14234      4F525F43 
 14234      55525245 
 14235              	.LASF795:
 14236 8b6f 5F5F4759 		.ascii	"__GYRO_VERTICAL__Z_AXIS__start 0\000"
 14236      524F5F56 
 14236      45525449 
 14236      43414C5F 
 14236      5F5A5F41 
 14237              	.LASF224:
 14238 8b90 5F5F554C 		.ascii	"__ULLFRACT_MIN__ 0.0ULLR\000"
 14238      4C465241 
 14238      43545F4D 
 14238      494E5F5F 
 14238      20302E30 
 14239              	.LASF470:
 14240 8ba9 5F535444 		.ascii	"_STDBOOL_H \000"
 14240      424F4F4C 
 14240      5F482000 
 14241              	.LASF797:
 14242 8bb5 5F5F5F5F 		.ascii	"____GYRO_VERTICAL__Z_AXIS__Z_AXIS__FROM 0\000"
 14242      4759524F 
 14242      5F564552 
 14242      54494341 
 14242      4C5F5F5A 
ARM GAS  /var/folders/9j/_txx49hn253_s3mnzkyxlj8m0000gp/T//ccxigpJH.s 			page 345


 14243              	.LASF885:
 14244 8bdf 5F5F5F5F 		.ascii	"____MAGNETOMETER_HORIZONTAL__Y_AXIS__Y_AXIS__FROM 0"
 14244      4D41474E 
 14244      45544F4D 
 14244      45544552 
 14244      5F484F52 
 14245 8c12 00       		.ascii	"\000"
 14246              	.LASF14:
 14247 8c13 5F5F5349 		.ascii	"__SIZEOF_INT__ 4\000"
 14247      5A454F46 
 14247      5F494E54 
 14247      5F5F2034 
 14247      00
 14248              	.LASF481:
 14249 8c24 4D435F52 		.ascii	"MC_RESPONSE__id 784\000"
 14249      4553504F 
 14249      4E53455F 
 14249      5F696420 
 14249      37383400 
 14250              	.LASF980:
 14251 8c38 43414E5F 		.ascii	"CAN_MC_REG_IGBT_TEMP\000"
 14251      4D435F52 
 14251      45475F49 
 14251      4742545F 
 14251      54454D50 
 14252              	.LASF218:
 14253 8c4d 5F5F4C4C 		.ascii	"__LLFRACT_IBIT__ 0\000"
 14253      46524143 
 14253      545F4942 
 14253      49545F5F 
 14253      203000
 14254              	.LASF461:
 14255 8c60 55494E54 		.ascii	"UINT16_C(x) __UINT16_C(x)\000"
 14255      31365F43 
 14255      28782920 
 14255      5F5F5549 
 14255      4E543136 
 14256              	.LASF485:
 14257 8c7a 5F5F5F5F 		.ascii	"____MC_RESPONSE__REG_ID__CURRENT_ACTUAL 32\000"
 14257      4D435F52 
 14257      4553504F 
 14257      4E53455F 
 14257      5F524547 
 14258              	.LASF1060:
 14259 8ca5 6D696E5F 		.ascii	"min_cell_temp\000"
 14259      63656C6C 
 14259      5F74656D 
 14259      7000
 14260              	.LASF938:
 14261 8cb3 75696E74 		.ascii	"uint32_t\000"
 14261      33325F74 
 14261      00
 14262              	.LASF653:
 14263 8cbc 5F5F5643 		.ascii	"__VCU_DASH_HEARTBEAT__AMS_LIGHT__end 1\000"
 14263      555F4441 
 14263      53485F48 
 14263      45415254 
ARM GAS  /var/folders/9j/_txx49hn253_s3mnzkyxlj8m0000gp/T//ccxigpJH.s 			page 346


 14263      42454154 
 14264              	.LASF786:
 14265 8ce3 5F5F4759 		.ascii	"__GYRO_HORIZONTAL__X_AXIS__end 31\000"
 14265      524F5F48 
 14265      4F52495A 
 14265      4F4E5441 
 14265      4C5F5F58 
 14266              	.LASF366:
 14267 8d05 5F535953 		.ascii	"_SYS__INTSUP_H \000"
 14267      5F5F494E 
 14267      54535550 
 14267      5F482000 
 14268              	.LASF510:
 14269 8d15 5F5F4355 		.ascii	"__CURRENT_SENSOR_CURRENT__PACK_CURRENT__end 47\000"
 14269      5252454E 
 14269      545F5345 
 14269      4E534F52 
 14269      5F435552 
 14270              	.LASF231:
 14271 8d44 5F5F5341 		.ascii	"__SACCUM_EPSILON__ 0x1P-7HK\000"
 14271      4343554D 
 14271      5F455053 
 14271      494C4F4E 
 14271      5F5F2030 
 14272              	.LASF898:
 14273 8d60 5F5F5F5F 		.ascii	"____DASH_HEARTBEAT__HEARTBEAT_ON__ON 1\000"
 14273      44415348 
 14273      5F484541 
 14273      52544245 
 14273      41545F5F 
 14274              	.LASF849:
 14275 8d87 5F5F5F5F 		.ascii	"____BMS_PACK_STATUS__PACK_VOLTAGE__PACK_VOLTAGE__FR"
 14275      424D535F 
 14275      5041434B 
 14275      5F535441 
 14275      5455535F 
 14276 8dba 4F4D2030 		.ascii	"OM 0\000"
 14276      00
 14277              	.LASF673:
 14278 8dbf 5F5F5643 		.ascii	"__VCU_DASH_HEARTBEAT__LV_WARNING__end 6\000"
 14278      555F4441 
 14278      53485F48 
 14278      45415254 
 14278      42454154 
 14279              	.LASF1149:
 14280 8de7 43616E5F 		.ascii	"Can_Vcu_MCRequest_Test\000"
 14280      5663755F 
 14280      4D435265 
 14280      71756573 
 14280      745F5465 
 14281              	.LASF763:
 14282 8dfe 5F5F5643 		.ascii	"__VCU_DASH_HEARTBEAT__RESERVED__end 39\000"
 14282      555F4441 
 14282      53485F48 
 14282      45415254 
 14282      42454154 
 14283              	.LASF633:
ARM GAS  /var/folders/9j/_txx49hn253_s3mnzkyxlj8m0000gp/T//ccxigpJH.s 			page 347


 14284 8e25 5F5F5F5F 		.ascii	"____ACCELEROMETER_HORIZONTAL__Y_AXIS__Y_AXIS__FROM "
 14284      41434345 
 14284      4C45524F 
 14284      4D455445 
 14284      525F484F 
 14285 8e58 3000     		.ascii	"0\000"
 14286              	.LASF60:
 14287 8e5a 5F5F5549 		.ascii	"__UINT_FAST16_TYPE__ unsigned int\000"
 14287      4E545F46 
 14287      41535431 
 14287      365F5459 
 14287      50455F5F 
 14288              	.LASF296:
 14289 8e7c 5F5F5548 		.ascii	"__UHA_IBIT__ 8\000"
 14289      415F4942 
 14289      49545F5F 
 14289      203800
 14290              	.LASF241:
 14291 8e8b 5F5F4143 		.ascii	"__ACCUM_EPSILON__ 0x1P-15K\000"
 14291      43554D5F 
 14291      45505349 
 14291      4C4F4E5F 
 14291      5F203078 
 14292              	.LASF256:
 14293 8ea6 5F5F554C 		.ascii	"__ULACCUM_EPSILON__ 0x1P-32ULK\000"
 14293      41434355 
 14293      4D5F4550 
 14293      53494C4F 
 14293      4E5F5F20 
 14294              	.LASF153:
 14295 8ec5 5F5F4C44 		.ascii	"__LDBL_DIG__ 15\000"
 14295      424C5F44 
 14295      49475F5F 
 14295      20313500 
 14296              	.LASF76:
 14297 8ed5 5F5F5749 		.ascii	"__WINT_MIN__ 0U\000"
 14297      4E545F4D 
 14297      494E5F5F 
 14297      20305500 
 14298              	.LASF603:
 14299 8ee5 5F5F5F5F 		.ascii	"____FRONT_CAN_NODE_RAW_VALUES__FRONT_BRAKE_PRESSURE"
 14299      46524F4E 
 14299      545F4341 
 14299      4E5F4E4F 
 14299      44455F52 
 14300 8f18 5F5F4652 		.ascii	"__FRONT_BRAKE_PRESSURE__FROM 0\000"
 14300      4F4E545F 
 14300      4252414B 
 14300      455F5052 
 14300      45535355 
 14301              	.LASF804:
 14302 8f37 5F5F5F5F 		.ascii	"____BMS_ERRORS__ERROR_TYPE__LTC6804_PEC 1\000"
 14302      424D535F 
 14302      4552524F 
 14302      52535F5F 
 14302      4552524F 
 14303              	.LASF178:
ARM GAS  /var/folders/9j/_txx49hn253_s3mnzkyxlj8m0000gp/T//ccxigpJH.s 			page 348


 14304 8f61 5F5F4445 		.ascii	"__DEC64_EPSILON__ 1E-15DD\000"
 14304      4336345F 
 14304      45505349 
 14304      4C4F4E5F 
 14304      5F203145 
 14305              	.LASF1180:
 14306 8f7b 43616E5F 		.ascii	"Can_Vcu_MCRequest_ToCan\000"
 14306      5663755F 
 14306      4D435265 
 14306      71756573 
 14306      745F546F 
 14307              	.LASF810:
 14308 8f93 5F5F5F5F 		.ascii	"____BMS_ERRORS__ERROR_TYPE__CELL_UNDER_TEMP 7\000"
 14308      424D535F 
 14308      4552524F 
 14308      52535F5F 
 14308      4552524F 
 14309              	.LASF48:
 14310 8fc1 5F5F494E 		.ascii	"__INT_LEAST16_TYPE__ short int\000"
 14310      545F4C45 
 14310      41535431 
 14310      365F5459 
 14310      50455F5F 
 14311              	.LASF903:
 14312 8fe0 5F5F5F5F 		.ascii	"____DASH_REQUEST__REQUEST_TYPE__NO_REQUEST 0\000"
 14312      44415348 
 14312      5F524551 
 14312      55455354 
 14312      5F5F5245 
 14313              	.LASF648:
 14314 900d 5F5F5643 		.ascii	"__VCU_DASH_HEARTBEAT__RTD_LIGHT__start 0\000"
 14314      555F4441 
 14314      53485F48 
 14314      45415254 
 14314      42454154 
 14315              	.LASF145:
 14316 9036 5F5F4442 		.ascii	"__DBL_MAX__ ((double)1.7976931348623157e+308L)\000"
 14316      4C5F4D41 
 14316      585F5F20 
 14316      2828646F 
 14316      75626C65 
 14317              	.LASF925:
 14318 9065 73686F72 		.ascii	"short unsigned int\000"
 14318      7420756E 
 14318      7369676E 
 14318      65642069 
 14318      6E7400
 14319              	.LASF217:
 14320 9078 5F5F4C4C 		.ascii	"__LLFRACT_FBIT__ 63\000"
 14320      46524143 
 14320      545F4642 
 14320      49545F5F 
 14320      20363300 
 14321              	.LASF768:
 14322 908c 5643555F 		.ascii	"VCU_MC_MESSAGE__id 82\000"
 14322      4D435F4D 
 14322      45535341 
ARM GAS  /var/folders/9j/_txx49hn253_s3mnzkyxlj8m0000gp/T//ccxigpJH.s 			page 349


 14322      47455F5F 
 14322      69642038 
 14323              	.LASF329:
 14324 90a2 5F5F7468 		.ascii	"__thumb__ 1\000"
 14324      756D625F 
 14324      5F203100 
 14325              	.LASF535:
 14326 90ae 5F5F5F5F 		.ascii	"____CURRENT_SENSOR_ENERGY__PACK_ENERGY__PACK_ENERGY"
 14326      43555252 
 14326      454E545F 
 14326      53454E53 
 14326      4F525F45 
 14327 90e1 5F5F4652 		.ascii	"__FROM 0\000"
 14327      4F4D2030 
 14327      00
 14328              	.LASF1128:
 14329 90ea 63757272 		.ascii	"current_mA\000"
 14329      656E745F 
 14329      6D4100
 14330              	.LASF568:
 14331 90f5 5F5F4652 		.ascii	"__FRONT_CAN_NODE_WHEEL_SPEED__FRONT_RIGHT_WHEEL_SPE"
 14331      4F4E545F 
 14331      43414E5F 
 14331      4E4F4445 
 14331      5F574845 
 14332 9128 45445F5F 		.ascii	"ED__end 31\000"
 14332      656E6420 
 14332      333100
 14333              	.LASF1165:
 14334 9133 43616E5F 		.ascii	"Can_FrontCanNode_DriverOutput_ToCan\000"
 14334      46726F6E 
 14334      7443616E 
 14334      4E6F6465 
 14334      5F447269 
 14335              	.LASF331:
 14336 9157 5F5F4152 		.ascii	"__ARMEL__ 1\000"
 14336      4D454C5F 
 14336      5F203100 
 14337              	.LASF269:
 14338 9163 5F5F4851 		.ascii	"__HQ_FBIT__ 15\000"
 14338      5F464249 
 14338      545F5F20 
 14338      313500
 14339              	.LASF978:
 14340 9172 43414E5F 		.ascii	"CAN_MC_REG_OUTPUT_VOLTAGE_LIMIT\000"
 14340      4D435F52 
 14340      45475F4F 
 14340      55545055 
 14340      545F564F 
 14341              	.LASF1072:
 14342 9192 43616E5F 		.ascii	"Can_Bms_PackStatus_T\000"
 14342      426D735F 
 14342      5061636B 
 14342      53746174 
 14342      75735F54 
 14343              	.LASF240:
 14344 91a7 5F5F4143 		.ascii	"__ACCUM_MAX__ 0X7FFFFFFFP-15K\000"
ARM GAS  /var/folders/9j/_txx49hn253_s3mnzkyxlj8m0000gp/T//ccxigpJH.s 			page 350


 14344      43554D5F 
 14344      4D41585F 
 14344      5F203058 
 14344      37464646 
 14345              	.LASF381:
 14346 91c5 5F494E54 		.ascii	"_INT32_EQ_LONG \000"
 14346      33325F45 
 14346      515F4C4F 
 14346      4E472000 
 14347              	.LASF305:
 14348 91d5 5F5F474E 		.ascii	"__GNUC_GNU_INLINE__ 1\000"
 14348      55435F47 
 14348      4E555F49 
 14348      4E4C494E 
 14348      455F5F20 
 14349              	.LASF1032:
 14350 91eb 73687574 		.ascii	"shutdown_vcu\000"
 14350      646F776E 
 14350      5F766375 
 14350      00
 14351              	.LASF767:
 14352 91f8 5F5F5F5F 		.ascii	"____VCU_DASH_HEARTBEAT__LV_BATTERY_VOLTAGE__LV_BATT"
 14352      5643555F 
 14352      44415348 
 14352      5F484541 
 14352      52544245 
 14353 922b 4552595F 		.ascii	"ERY_VOLTAGE__TO 1023\000"
 14353      564F4C54 
 14353      4147455F 
 14353      5F544F20 
 14353      31303233 
 14354              	.LASF5:
 14355 9240 5F5F5645 		.ascii	"__VERSION__ \"4.9.3 20150529 (release) [ARM/embedde"
 14355      5253494F 
 14355      4E5F5F20 
 14355      22342E39 
 14355      2E332032 
 14356 9272 642D345F 		.ascii	"d-4_9-branch revision 227977]\"\000"
 14356      392D6272 
 14356      616E6368 
 14356      20726576 
 14356      6973696F 
 14357              	.LASF159:
 14358 9291 5F5F4C44 		.ascii	"__LDBL_MAX__ 1.7976931348623157e+308L\000"
 14358      424C5F4D 
 14358      41585F5F 
 14358      20312E37 
 14358      39373639 
 14359              	.LASF896:
 14360 92b7 5F5F4441 		.ascii	"__DASH_HEARTBEAT__HEARTBEAT_ON__end 0\000"
 14360      53485F48 
 14360      45415254 
 14360      42454154 
 14360      5F5F4845 
 14361              	.LASF412:
 14362 92dd 55494E54 		.ascii	"UINT8_MAX (__UINT8_MAX__)\000"
 14362      385F4D41 
ARM GAS  /var/folders/9j/_txx49hn253_s3mnzkyxlj8m0000gp/T//ccxigpJH.s 			page 351


 14362      5820285F 
 14362      5F55494E 
 14362      54385F4D 
 14363              	.LASF188:
 14364 92f7 5F5F5346 		.ascii	"__SFRACT_IBIT__ 0\000"
 14364      52414354 
 14364      5F494249 
 14364      545F5F20 
 14364      3000
 14365              	.LASF649:
 14366 9309 5F5F5643 		.ascii	"__VCU_DASH_HEARTBEAT__RTD_LIGHT__end 0\000"
 14366      555F4441 
 14366      53485F48 
 14366      45415254 
 14366      42454154 
 14367              	.LASF1104:
 14368 9330 43616E5F 		.ascii	"Can_MC_ErrorAndWarning_T\000"
 14368      4D435F45 
 14368      72726F72 
 14368      416E6457 
 14368      61726E69 
 14369              	.LASF399:
 14370 9349 5F5F696E 		.ascii	"__int_least8_t_defined 1\000"
 14370      745F6C65 
 14370      61737438 
 14370      5F745F64 
 14370      6566696E 
 14371              	.LASF824:
 14372 9362 5F5F5F5F 		.ascii	"____BMS_HEARTBEAT__STATE__CHARGE 2\000"
 14372      424D535F 
 14372      48454152 
 14372      54424541 
 14372      545F5F53 
 14373              	.LASF410:
 14374 9385 494E5438 		.ascii	"INT8_MIN (-__INT8_MAX__ - 1)\000"
 14374      5F4D494E 
 14374      20282D5F 
 14374      5F494E54 
 14374      385F4D41 
 14375              	.LASF926:
 14376 93a2 5F5F696E 		.ascii	"__int32_t\000"
 14376      7433325F 
 14376      7400
 14377              	.LASF860:
 14378 93ac 5F5F5F5F 		.ascii	"____BMS_PACK_STATUS__AVE_CELL_VOLTAGE__AVE_CELL_VOL"
 14378      424D535F 
 14378      5041434B 
 14378      5F535441 
 14378      5455535F 
 14379 93df 54414745 		.ascii	"TAGE__TO 1023\000"
 14379      5F5F544F 
 14379      20313032 
 14379      3300
 14380              	.LASF830:
 14381 93ed 5F5F424D 		.ascii	"__BMS_HEARTBEAT__SOC_PERCENTAGE__end 12\000"
 14381      535F4845 
 14381      41525442 
ARM GAS  /var/folders/9j/_txx49hn253_s3mnzkyxlj8m0000gp/T//ccxigpJH.s 			page 352


 14381      4541545F 
 14381      5F534F43 
 14382              	.LASF600:
 14383 9415 5F5F5F5F 		.ascii	"____FRONT_CAN_NODE_RAW_VALUES__LEFT_THROTTLE_POT__L"
 14383      46524F4E 
 14383      545F4341 
 14383      4E5F4E4F 
 14383      44455F52 
 14384 9448 4546545F 		.ascii	"EFT_THROTTLE_POT__TO 255\000"
 14384      5448524F 
 14384      54544C45 
 14384      5F504F54 
 14384      5F5F544F 
 14385              	.LASF1064:
 14386 9461 43616E5F 		.ascii	"Can_Bms_CellTemps_T\000"
 14386      426D735F 
 14386      43656C6C 
 14386      54656D70 
 14386      735F5400 
 14387              	.LASF492:
 14388 9475 5F5F5F5F 		.ascii	"____MC_RESPONSE__REG_ID__OUTPUT_VOLTAGE 138\000"
 14388      4D435F52 
 14388      4553504F 
 14388      4E53455F 
 14388      5F524547 
 14389              	.LASF589:
 14390 94a1 5F5F5F5F 		.ascii	"____LV_BATTERY_VOLTAGE__BATTERY_VOLTAGE__BATTERY_VO"
 14390      4C565F42 
 14390      41545445 
 14390      52595F56 
 14390      4F4C5441 
 14391 94d4 4C544147 		.ascii	"LTAGE__FROM 0\000"
 14391      455F5F46 
 14391      524F4D20 
 14391      3000
 14392              	.LASF221:
 14393 94e2 5F5F4C4C 		.ascii	"__LLFRACT_EPSILON__ 0x1P-63LLR\000"
 14393      46524143 
 14393      545F4550 
 14393      53494C4F 
 14393      4E5F5F20 
 14394              	.LASF190:
 14395 9501 5F5F5346 		.ascii	"__SFRACT_MAX__ 0X7FP-7HR\000"
 14395      52414354 
 14395      5F4D4158 
 14395      5F5F2030 
 14395      58374650 
 14396              	.LASF1035:
 14397 951a 73687574 		.ascii	"shutdown_driver_reset\000"
 14397      646F776E 
 14397      5F647269 
 14397      7665725F 
 14397      72657365 
 14398              	.LASF1133:
 14399 9530 43616E5F 		.ascii	"Can_CurrentSensor_Power_T\000"
 14399      43757272 
 14399      656E7453 
ARM GAS  /var/folders/9j/_txx49hn253_s3mnzkyxlj8m0000gp/T//ccxigpJH.s 			page 353


 14399      656E736F 
 14399      725F506F 
 14400              	.LASF864:
 14401 954a 5F5F5F5F 		.ascii	"____BMS_PACK_STATUS__MIN_CELL_VOLTAGE__MIN_CELL_VOL"
 14401      424D535F 
 14401      5041434B 
 14401      5F535441 
 14401      5455535F 
 14402 957d 54414745 		.ascii	"TAGE__TO 1023\000"
 14402      5F5F544F 
 14402      20313032 
 14402      3300
 14403              	.LASF607:
 14404 958b 5F5F5F5F 		.ascii	"____FRONT_CAN_NODE_RAW_VALUES__REAR_BRAKE_PRESSURE_"
 14404      46524F4E 
 14404      545F4341 
 14404      4E5F4E4F 
 14404      44455F52 
 14405 95be 5F524541 		.ascii	"_REAR_BRAKE_PRESSURE__FROM 0\000"
 14405      525F4252 
 14405      414B455F 
 14405      50524553 
 14405      53555245 
 14406              	.LASF507:
 14407 95db 43555252 		.ascii	"CURRENT_SENSOR_CURRENT__id 1313\000"
 14407      454E545F 
 14407      53454E53 
 14407      4F525F43 
 14407      55525245 
 14408              	.LASF606:
 14409 95fb 5F5F4652 		.ascii	"__FRONT_CAN_NODE_RAW_VALUES__REAR_BRAKE_PRESSURE__e"
 14409      4F4E545F 
 14409      43414E5F 
 14409      4E4F4445 
 14409      5F524157 
 14410 962e 6E642033 		.ascii	"nd 39\000"
 14410      3900
 14411              	.LASF292:
 14412 9634 5F5F4441 		.ascii	"__DA_IBIT__ 32\000"
 14412      5F494249 
 14412      545F5F20 
 14412      333200
 14413              	.LASF193:
 14414 9643 5F5F5553 		.ascii	"__USFRACT_IBIT__ 0\000"
 14414      46524143 
 14414      545F4942 
 14414      49545F5F 
 14414      203000
 14415              	.LASF378:
 14416 9656 73686F72 		.ascii	"short +1\000"
 14416      74202B31 
 14416      00
 14417              	.LASF1175:
 14418 965f 43616E5F 		.ascii	"Can_RearCanNode_WheelSpeed_FromCan\000"
 14418      52656172 
 14418      43616E4E 
 14418      6F64655F 
ARM GAS  /var/folders/9j/_txx49hn253_s3mnzkyxlj8m0000gp/T//ccxigpJH.s 			page 354


 14418      57686565 
 14419              	.LASF1112:
 14420 9682 706F7369 		.ascii	"position_control_mode\000"
 14420      74696F6E 
 14420      5F636F6E 
 14420      74726F6C 
 14420      5F6D6F64 
 14421              	.LASF10:
 14422 9698 5F5F4154 		.ascii	"__ATOMIC_ACQ_REL 4\000"
 14422      4F4D4943 
 14422      5F414351 
 14422      5F52454C 
 14422      203400
 14423              	.LASF47:
 14424 96ab 5F5F494E 		.ascii	"__INT_LEAST8_TYPE__ signed char\000"
 14424      545F4C45 
 14424      41535438 
 14424      5F545950 
 14424      455F5F20 
 14425              	.LASF270:
 14426 96cb 5F5F4851 		.ascii	"__HQ_IBIT__ 0\000"
 14426      5F494249 
 14426      545F5F20 
 14426      3000
 14427              	.LASF141:
 14428 96d9 5F5F4442 		.ascii	"__DBL_MIN_10_EXP__ (-307)\000"
 14428      4C5F4D49 
 14428      4E5F3130 
 14428      5F455850 
 14428      5F5F2028 
 14429              	.LASF469:
 14430 96f3 5F4D5931 		.ascii	"_MY17_CAN_LIBRARY_H \000"
 14430      375F4341 
 14430      4E5F4C49 
 14430      42524152 
 14430      595F4820 
 14431              	.LASF1160:
 14432 9708 43616E5F 		.ascii	"Can_CurrentSensor_Current_Test\000"
 14432      43757272 
 14432      656E7453 
 14432      656E736F 
 14432      725F4375 
 14433              	.LASF940:
 14434 9727 64617461 		.ascii	"data\000"
 14434      00
 14435              	.LASF877:
 14436 972c 4D41474E 		.ascii	"MAGNETOMETER_HORIZONTAL__id 867\000"
 14436      45544F4D 
 14436      45544552 
 14436      5F484F52 
 14436      495A4F4E 
 14437              	.LASF1070:
 14438 974c 6D61785F 		.ascii	"max_cell_voltage\000"
 14438      63656C6C 
 14438      5F766F6C 
 14438      74616765 
 14438      00
ARM GAS  /var/folders/9j/_txx49hn253_s3mnzkyxlj8m0000gp/T//ccxigpJH.s 			page 355


 14439              	.LASF887:
 14440 975d 4D41474E 		.ascii	"MAGNETOMETER_VERTICAL__id 868\000"
 14440      45544F4D 
 14440      45544552 
 14440      5F564552 
 14440      54494341 
 14441              	.LASF1182:
 14442 977b 43616E5F 		.ascii	"Can_Vcu_MCTorque_ToCan\000"
 14442      5663755F 
 14442      4D43546F 
 14442      72717565 
 14442      5F546F43 
 14443              	.LASF913:
 14444 9792 5F4D5931 		.ascii	"_MY17_CAN_LIBRARY_MC_H \000"
 14444      375F4341 
 14444      4E5F4C49 
 14444      42524152 
 14444      595F4D43 
 14445              	.LASF441:
 14446 97aa 494E545F 		.ascii	"INT_FAST32_MAX (__INT_FAST32_MAX__)\000"
 14446      46415354 
 14446      33325F4D 
 14446      41582028 
 14446      5F5F494E 
 14447              	.LASF675:
 14448 97ce 5F5F5F5F 		.ascii	"____VCU_DASH_HEARTBEAT__LV_WARNING__ON 1\000"
 14448      5643555F 
 14448      44415348 
 14448      5F484541 
 14448      52544245 
 14449              	.LASF471:
 14450 97f7 626F6F6C 		.ascii	"bool _Bool\000"
 14450      205F426F 
 14450      6F6C00
 14451              	.LASF115:
 14452 9802 5F5F5549 		.ascii	"__UINT_FAST32_MAX__ 4294967295U\000"
 14452      4E545F46 
 14452      41535433 
 14452      325F4D41 
 14452      585F5F20 
 14453              	.LASF101:
 14454 9822 5F5F5549 		.ascii	"__UINT_LEAST8_MAX__ 255\000"
 14454      4E545F4C 
 14454      45415354 
 14454      385F4D41 
 14454      585F5F20 
 14455              	.LASF1053:
 14456 983a 43616E5F 		.ascii	"Can_Vcu_MCTorque_T\000"
 14456      5663755F 
 14456      4D43546F 
 14456      72717565 
 14456      5F5400
 14457              	.LASF975:
 14458 984d 43414E5F 		.ascii	"CAN_MC_REG_SPEED_ACTUAL_RPM\000"
 14458      4D435F52 
 14458      45475F53 
 14458      50454544 
ARM GAS  /var/folders/9j/_txx49hn253_s3mnzkyxlj8m0000gp/T//ccxigpJH.s 			page 356


 14458      5F414354 
 14459              	.LASF138:
 14460 9869 5F5F4442 		.ascii	"__DBL_MANT_DIG__ 53\000"
 14460      4C5F4D41 
 14460      4E545F44 
 14460      49475F5F 
 14460      20353300 
 14461              	.LASF552:
 14462 987d 5F5F5F5F 		.ascii	"____FRONT_CAN_NODE_DRIVER_OUTPUT__STEERING_POSITION"
 14462      46524F4E 
 14462      545F4341 
 14462      4E5F4E4F 
 14462      44455F44 
 14463 98b0 5F5F5354 		.ascii	"__STEERING_TRAVEL_LEFTWARDS__TO 255\000"
 14463      45455249 
 14463      4E475F54 
 14463      52415645 
 14463      4C5F4C45 
 14464              	.LASF213:
 14465 98d4 5F5F554C 		.ascii	"__ULFRACT_IBIT__ 0\000"
 14465      46524143 
 14465      545F4942 
 14465      49545F5F 
 14465      203000
 14466              	.LASF1146:
 14467 98e7 43616E5F 		.ascii	"Can_RearCanNode_WheelSpeed_Test\000"
 14467      52656172 
 14467      43616E4E 
 14467      6F64655F 
 14467      57686565 
 14468              	.LASF644:
 14469 9907 5F5F5643 		.ascii	"__VCU_BMS_HEARTBEAT__STATE__end 0\000"
 14469      555F424D 
 14469      535F4845 
 14469      41525442 
 14469      4541545F 
 14470              	.LASF1162:
 14471 9929 43616E5F 		.ascii	"Can_CurrentSensor_Power_Test\000"
 14471      43757272 
 14471      656E7453 
 14471      656E736F 
 14471      725F506F 
 14472              	.LASF340:
 14473 9946 5F5F4152 		.ascii	"__ARM_EABI__ 1\000"
 14473      4D5F4541 
 14473      42495F5F 
 14473      203100
 14474              	.LASF50:
 14475 9955 5F5F494E 		.ascii	"__INT_LEAST64_TYPE__ long long int\000"
 14475      545F4C45 
 14475      41535436 
 14475      345F5459 
 14475      50455F5F 
 14476              	.LASF540:
 14477 9978 5F5F4652 		.ascii	"__FRONT_CAN_NODE_DRIVER_OUTPUT__REQUESTED_TORQUE__e"
 14477      4F4E545F 
 14477      43414E5F 
ARM GAS  /var/folders/9j/_txx49hn253_s3mnzkyxlj8m0000gp/T//ccxigpJH.s 			page 357


 14477      4E4F4445 
 14477      5F445249 
 14478 99ab 6E642031 		.ascii	"nd 15\000"
 14478      3500
 14479              	.LASF665:
 14480 99b1 5F5F5643 		.ascii	"__VCU_DASH_HEARTBEAT__TRACTION_CONTROL__end 4\000"
 14480      555F4441 
 14480      53485F48 
 14480      45415254 
 14480      42454154 
 14481              	.LASF370:
 14482 99df 7369676E 		.ascii	"signed\000"
 14482      656400
 14483              	.LASF227:
 14484 99e6 5F5F5341 		.ascii	"__SACCUM_FBIT__ 7\000"
 14484      4343554D 
 14484      5F464249 
 14484      545F5F20 
 14484      3700
 14485              	.LASF943:
 14486 99f8 43414E5F 		.ascii	"CAN_BMS_STATE_INIT\000"
 14486      424D535F 
 14486      53544154 
 14486      455F494E 
 14486      495400
 14487              	.LASF475:
 14488 9a0b 5F4D5931 		.ascii	"_MY17_CAN_LIBRARY_CAN_RAW_H \000"
 14488      375F4341 
 14488      4E5F4C49 
 14488      42524152 
 14488      595F4341 
 14489              	.LASF564:
 14490 9a28 5F5F5F5F 		.ascii	"____FRONT_CAN_NODE_DRIVER_OUTPUT__BRAKE_ENGAGED__EN"
 14490      46524F4E 
 14490      545F4341 
 14490      4E5F4E4F 
 14490      44455F44 
 14491 9a5b 47414745 		.ascii	"GAGED 1\000"
 14491      44203100 
 14492              	.LASF881:
 14493 9a63 5F5F5F5F 		.ascii	"____MAGNETOMETER_HORIZONTAL__X_AXIS__X_AXIS__FROM 0"
 14493      4D41474E 
 14493      45544F4D 
 14493      45544552 
 14493      5F484F52 
 14494 9a96 00       		.ascii	"\000"
 14495              		.ident	"GCC: (GNU Tools for ARM Embedded Processors) 4.9.3 20150529 (release) [ARM/embedded-4_9-br
ARM GAS  /var/folders/9j/_txx49hn253_s3mnzkyxlj8m0000gp/T//ccxigpJH.s 			page 358


DEFINED SYMBOLS
                            *ABS*:0000000000000000 MY17_Can_Library_Test.c
/var/folders/9j/_txx49hn253_s3mnzkyxlj8m0000gp/T//ccxigpJH.s:72     .text.Can_BinaryPrint:0000000000000000 $t
/var/folders/9j/_txx49hn253_s3mnzkyxlj8m0000gp/T//ccxigpJH.s:77     .text.Can_BinaryPrint:0000000000000000 Can_BinaryPrint
/var/folders/9j/_txx49hn253_s3mnzkyxlj8m0000gp/T//ccxigpJH.s:177    .text.Can_BinaryPrint:0000000000000068 $d
/var/folders/9j/_txx49hn253_s3mnzkyxlj8m0000gp/T//ccxigpJH.s:183    .text.Can_FrontCanNode_DriverOutput_Test:0000000000000000 $t
/var/folders/9j/_txx49hn253_s3mnzkyxlj8m0000gp/T//ccxigpJH.s:188    .text.Can_FrontCanNode_DriverOutput_Test:0000000000000000 Can_FrontCanNode_DriverOutput_Test
/var/folders/9j/_txx49hn253_s3mnzkyxlj8m0000gp/T//ccxigpJH.s:292    .text.Can_FrontCanNode_DriverOutput_Test:0000000000000078 $d
/var/folders/9j/_txx49hn253_s3mnzkyxlj8m0000gp/T//ccxigpJH.s:299    .text.Can_FrontCanNode_RawValues_Test:0000000000000000 $t
/var/folders/9j/_txx49hn253_s3mnzkyxlj8m0000gp/T//ccxigpJH.s:304    .text.Can_FrontCanNode_RawValues_Test:0000000000000000 Can_FrontCanNode_RawValues_Test
/var/folders/9j/_txx49hn253_s3mnzkyxlj8m0000gp/T//ccxigpJH.s:408    .text.Can_FrontCanNode_RawValues_Test:000000000000007c $d
/var/folders/9j/_txx49hn253_s3mnzkyxlj8m0000gp/T//ccxigpJH.s:414    .text.Can_FrontCanNode_WheelSpeed_Test:0000000000000000 $t
/var/folders/9j/_txx49hn253_s3mnzkyxlj8m0000gp/T//ccxigpJH.s:419    .text.Can_FrontCanNode_WheelSpeed_Test:0000000000000000 Can_FrontCanNode_WheelSpeed_Test
/var/folders/9j/_txx49hn253_s3mnzkyxlj8m0000gp/T//ccxigpJH.s:492    .text.Can_FrontCanNode_WheelSpeed_Test:000000000000004c $d
/var/folders/9j/_txx49hn253_s3mnzkyxlj8m0000gp/T//ccxigpJH.s:500    .text.Can_RearCanNode_Heartbeat_Test:0000000000000000 $t
/var/folders/9j/_txx49hn253_s3mnzkyxlj8m0000gp/T//ccxigpJH.s:505    .text.Can_RearCanNode_Heartbeat_Test:0000000000000000 Can_RearCanNode_Heartbeat_Test
/var/folders/9j/_txx49hn253_s3mnzkyxlj8m0000gp/T//ccxigpJH.s:570    .text.Can_RearCanNode_Heartbeat_Test:0000000000000048 $d
/var/folders/9j/_txx49hn253_s3mnzkyxlj8m0000gp/T//ccxigpJH.s:576    .text.Can_RearCanNode_WheelSpeed_Test:0000000000000000 $t
/var/folders/9j/_txx49hn253_s3mnzkyxlj8m0000gp/T//ccxigpJH.s:581    .text.Can_RearCanNode_WheelSpeed_Test:0000000000000000 Can_RearCanNode_WheelSpeed_Test
/var/folders/9j/_txx49hn253_s3mnzkyxlj8m0000gp/T//ccxigpJH.s:654    .text.Can_RearCanNode_WheelSpeed_Test:000000000000004c $d
/var/folders/9j/_txx49hn253_s3mnzkyxlj8m0000gp/T//ccxigpJH.s:662    .text.Can_Vcu_BmsHeartbeat_Test:0000000000000000 $t
/var/folders/9j/_txx49hn253_s3mnzkyxlj8m0000gp/T//ccxigpJH.s:667    .text.Can_Vcu_BmsHeartbeat_Test:0000000000000000 Can_Vcu_BmsHeartbeat_Test
/var/folders/9j/_txx49hn253_s3mnzkyxlj8m0000gp/T//ccxigpJH.s:732    .text.Can_Vcu_BmsHeartbeat_Test:0000000000000048 $d
/var/folders/9j/_txx49hn253_s3mnzkyxlj8m0000gp/T//ccxigpJH.s:738    .text.Can_Vcu_DashHeartbeat_Test:0000000000000000 $t
/var/folders/9j/_txx49hn253_s3mnzkyxlj8m0000gp/T//ccxigpJH.s:743    .text.Can_Vcu_DashHeartbeat_Test:0000000000000000 Can_Vcu_DashHeartbeat_Test
/var/folders/9j/_txx49hn253_s3mnzkyxlj8m0000gp/T//ccxigpJH.s:983    .text.Can_Vcu_DashHeartbeat_Test:0000000000000140 $d
/var/folders/9j/_txx49hn253_s3mnzkyxlj8m0000gp/T//ccxigpJH.s:990    .text.Can_Vcu_MCRequest_Test:0000000000000000 $t
/var/folders/9j/_txx49hn253_s3mnzkyxlj8m0000gp/T//ccxigpJH.s:995    .text.Can_Vcu_MCRequest_Test:0000000000000000 Can_Vcu_MCRequest_Test
/var/folders/9j/_txx49hn253_s3mnzkyxlj8m0000gp/T//ccxigpJH.s:1070   .text.Can_Vcu_MCRequest_Test:0000000000000054 $d
/var/folders/9j/_txx49hn253_s3mnzkyxlj8m0000gp/T//ccxigpJH.s:1076   .text.Can_Vcu_MCTorque_Test:0000000000000000 $t
/var/folders/9j/_txx49hn253_s3mnzkyxlj8m0000gp/T//ccxigpJH.s:1081   .text.Can_Vcu_MCTorque_Test:0000000000000000 Can_Vcu_MCTorque_Test
/var/folders/9j/_txx49hn253_s3mnzkyxlj8m0000gp/T//ccxigpJH.s:1148   .text.Can_Vcu_MCTorque_Test:000000000000004c $d
/var/folders/9j/_txx49hn253_s3mnzkyxlj8m0000gp/T//ccxigpJH.s:1155   .text.Can_Bms_Heartbeat_Test:0000000000000000 $t
/var/folders/9j/_txx49hn253_s3mnzkyxlj8m0000gp/T//ccxigpJH.s:1160   .text.Can_Bms_Heartbeat_Test:0000000000000000 Can_Bms_Heartbeat_Test
/var/folders/9j/_txx49hn253_s3mnzkyxlj8m0000gp/T//ccxigpJH.s:1258   .text.Can_Bms_Heartbeat_Test:0000000000000070 $d
/var/folders/9j/_txx49hn253_s3mnzkyxlj8m0000gp/T//ccxigpJH.s:1264   .text.Can_Bms_CellTemps_Test:0000000000000000 $t
/var/folders/9j/_txx49hn253_s3mnzkyxlj8m0000gp/T//ccxigpJH.s:1269   .text.Can_Bms_CellTemps_Test:0000000000000000 Can_Bms_CellTemps_Test
/var/folders/9j/_txx49hn253_s3mnzkyxlj8m0000gp/T//ccxigpJH.s:1382   .text.Can_Bms_CellTemps_Test:000000000000008c $d
/var/folders/9j/_txx49hn253_s3mnzkyxlj8m0000gp/T//ccxigpJH.s:1390   .text.Can_Bms_PackStatus_Test:0000000000000000 $t
/var/folders/9j/_txx49hn253_s3mnzkyxlj8m0000gp/T//ccxigpJH.s:1395   .text.Can_Bms_PackStatus_Test:0000000000000000 Can_Bms_PackStatus_Test
/var/folders/9j/_txx49hn253_s3mnzkyxlj8m0000gp/T//ccxigpJH.s:1531   .text.Can_Bms_PackStatus_Test:00000000000000b0 $d
/var/folders/9j/_txx49hn253_s3mnzkyxlj8m0000gp/T//ccxigpJH.s:1538   .text.Can_Bms_Error_Test:0000000000000000 $t
/var/folders/9j/_txx49hn253_s3mnzkyxlj8m0000gp/T//ccxigpJH.s:1543   .text.Can_Bms_Error_Test:0000000000000000 Can_Bms_Error_Test
/var/folders/9j/_txx49hn253_s3mnzkyxlj8m0000gp/T//ccxigpJH.s:1608   .text.Can_Bms_Error_Test:0000000000000048 $d
/var/folders/9j/_txx49hn253_s3mnzkyxlj8m0000gp/T//ccxigpJH.s:1614   .text.Can_Dash_Heartbeat_Test:0000000000000000 $t
/var/folders/9j/_txx49hn253_s3mnzkyxlj8m0000gp/T//ccxigpJH.s:1619   .text.Can_Dash_Heartbeat_Test:0000000000000000 Can_Dash_Heartbeat_Test
/var/folders/9j/_txx49hn253_s3mnzkyxlj8m0000gp/T//ccxigpJH.s:1684   .text.Can_Dash_Heartbeat_Test:0000000000000048 $d
/var/folders/9j/_txx49hn253_s3mnzkyxlj8m0000gp/T//ccxigpJH.s:1690   .text.Can_Dash_Request_Test:0000000000000000 $t
/var/folders/9j/_txx49hn253_s3mnzkyxlj8m0000gp/T//ccxigpJH.s:1695   .text.Can_Dash_Request_Test:0000000000000000 Can_Dash_Request_Test
/var/folders/9j/_txx49hn253_s3mnzkyxlj8m0000gp/T//ccxigpJH.s:1760   .text.Can_Dash_Request_Test:0000000000000048 $d
/var/folders/9j/_txx49hn253_s3mnzkyxlj8m0000gp/T//ccxigpJH.s:1766   .text.Can_MC_DataReading_Test:0000000000000000 $t
/var/folders/9j/_txx49hn253_s3mnzkyxlj8m0000gp/T//ccxigpJH.s:1771   .text.Can_MC_DataReading_Test:0000000000000000 Can_MC_DataReading_Test
/var/folders/9j/_txx49hn253_s3mnzkyxlj8m0000gp/T//ccxigpJH.s:1848   .text.Can_MC_DataReading_Test:0000000000000058 $d
/var/folders/9j/_txx49hn253_s3mnzkyxlj8m0000gp/T//ccxigpJH.s:1855   .text.Can_MC_ErrorAndWarning_Test:0000000000000000 $t
/var/folders/9j/_txx49hn253_s3mnzkyxlj8m0000gp/T//ccxigpJH.s:1860   .text.Can_MC_ErrorAndWarning_Test:0000000000000000 Can_MC_ErrorAndWarning_Test
/var/folders/9j/_txx49hn253_s3mnzkyxlj8m0000gp/T//ccxigpJH.s:2183   .text.Can_MC_ErrorAndWarning_Test:00000000000001d0 $d
/var/folders/9j/_txx49hn253_s3mnzkyxlj8m0000gp/T//ccxigpJH.s:2189   .text.Can_MC_State_Test:0000000000000000 $t
ARM GAS  /var/folders/9j/_txx49hn253_s3mnzkyxlj8m0000gp/T//ccxigpJH.s 			page 359


/var/folders/9j/_txx49hn253_s3mnzkyxlj8m0000gp/T//ccxigpJH.s:2194   .text.Can_MC_State_Test:0000000000000000 Can_MC_State_Test
/var/folders/9j/_txx49hn253_s3mnzkyxlj8m0000gp/T//ccxigpJH.s:2493   .text.Can_MC_State_Test:00000000000001ac $d
/var/folders/9j/_txx49hn253_s3mnzkyxlj8m0000gp/T//ccxigpJH.s:2499   .text.Can_CurrentSensor_Current_Test:0000000000000000 $t
/var/folders/9j/_txx49hn253_s3mnzkyxlj8m0000gp/T//ccxigpJH.s:2504   .text.Can_CurrentSensor_Current_Test:0000000000000000 Can_CurrentSensor_Current_Test
/var/folders/9j/_txx49hn253_s3mnzkyxlj8m0000gp/T//ccxigpJH.s:2566   .text.Can_CurrentSensor_Current_Test:0000000000000040 $d
/var/folders/9j/_txx49hn253_s3mnzkyxlj8m0000gp/T//ccxigpJH.s:2573   .text.Can_CurrentSensor_Voltage_Test:0000000000000000 $t
/var/folders/9j/_txx49hn253_s3mnzkyxlj8m0000gp/T//ccxigpJH.s:2578   .text.Can_CurrentSensor_Voltage_Test:0000000000000000 Can_CurrentSensor_Voltage_Test
/var/folders/9j/_txx49hn253_s3mnzkyxlj8m0000gp/T//ccxigpJH.s:2640   .text.Can_CurrentSensor_Voltage_Test:0000000000000040 $d
/var/folders/9j/_txx49hn253_s3mnzkyxlj8m0000gp/T//ccxigpJH.s:2647   .text.Can_CurrentSensor_Power_Test:0000000000000000 $t
/var/folders/9j/_txx49hn253_s3mnzkyxlj8m0000gp/T//ccxigpJH.s:2652   .text.Can_CurrentSensor_Power_Test:0000000000000000 Can_CurrentSensor_Power_Test
/var/folders/9j/_txx49hn253_s3mnzkyxlj8m0000gp/T//ccxigpJH.s:2714   .text.Can_CurrentSensor_Power_Test:0000000000000040 $d
/var/folders/9j/_txx49hn253_s3mnzkyxlj8m0000gp/T//ccxigpJH.s:2721   .text.Can_CurrentSensor_Energy_Test:0000000000000000 $t
/var/folders/9j/_txx49hn253_s3mnzkyxlj8m0000gp/T//ccxigpJH.s:2726   .text.Can_CurrentSensor_Energy_Test:0000000000000000 Can_CurrentSensor_Energy_Test
/var/folders/9j/_txx49hn253_s3mnzkyxlj8m0000gp/T//ccxigpJH.s:2788   .text.Can_CurrentSensor_Energy_Test:0000000000000040 $d
/var/folders/9j/_txx49hn253_s3mnzkyxlj8m0000gp/T//ccxigpJH.s:2795   .text.Can_All_Tests:0000000000000000 $t
/var/folders/9j/_txx49hn253_s3mnzkyxlj8m0000gp/T//ccxigpJH.s:2800   .text.Can_All_Tests:0000000000000000 Can_All_Tests
/var/folders/9j/_txx49hn253_s3mnzkyxlj8m0000gp/T//ccxigpJH.s:2911   .text.Can_All_Tests:0000000000000090 $d
/var/folders/9j/_txx49hn253_s3mnzkyxlj8m0000gp/T//ccxigpJH.s:2916   .rodata.str1.4:0000000000000000 $d
                     .debug_frame:0000000000000010 $d
                           .group:0000000000000000 wm4.0.5c92e6baa7608753a1db66ee6c2bbf90
                           .group:0000000000000000 wm4.features.h.22.2e382148a0560adabf236cddd4e880f4
                           .group:0000000000000000 wm4._default_types.h.15.933e8edd27a65e0b69af4a865eb623d2
                           .group:0000000000000000 wm4._intsup.h.10.35a45952db64d30146faa63a55c20c1c
                           .group:0000000000000000 wm4._stdint.h.10.f76354baea1c7088202064e6f3d4f5e3
                           .group:0000000000000000 wm4.stdint.h.23.373a9d32a9e4c2e88fd347156532d281
                           .group:0000000000000000 wm4.stdbool.h.29.1c9ee6859ce8145f7838a4f2549ccec2
                           .group:0000000000000000 wm4.MY17_Can_Library.h.53.536c51f7e49918bccf00c573c45b28e1
                           .group:0000000000000000 wm4.fsae_can_spec.h.2.31666b6e7e49ec85aefd24f51984692d

UNDEFINED SYMBOLS
Can_FrontCanNode_DriverOutput_ToCan
to_bitstring
Can_FrontCanNode_DriverOutput_FromCan
Can_FrontCanNode_RawValues_ToCan
Can_FrontCanNode_RawValues_FromCan
Can_FrontCanNode_WheelSpeed_ToCan
Can_FrontCanNode_WheelSpeed_FromCan
Can_RearCanNode_Heartbeat_ToCan
Can_RearCanNode_Heartbeat_FromCan
Can_RearCanNode_WheelSpeed_ToCan
Can_RearCanNode_WheelSpeed_FromCan
Can_Vcu_BmsHeartbeat_ToCan
Can_Vcu_BmsHeartbeat_FromCan
Can_Vcu_DashHeartbeat_ToCan
Can_Vcu_DashHeartbeat_FromCan
Can_Vcu_MCRequest_ToCan
Can_Vcu_MCRequest_FromCan
Can_Vcu_MCTorque_ToCan
Can_Vcu_MCTorque_FromCan
Can_Bms_Heartbeat_ToCan
Can_Bms_Heartbeat_FromCan
Can_Bms_CellTemps_ToCan
Can_Bms_CellTemps_FromCan
Can_Bms_PackStatus_ToCan
Can_Bms_PackStatus_FromCan
Can_Bms_Error_ToCan
Can_Bms_Error_FromCan
ARM GAS  /var/folders/9j/_txx49hn253_s3mnzkyxlj8m0000gp/T//ccxigpJH.s 			page 360


Can_Dash_Heartbeat_ToCan
Can_Dash_Heartbeat_FromCan
Can_Dash_Request_ToCan
Can_Dash_Request_FromCan
Can_MC_DataReading_ToCan
Can_MC_DataReading_FromCan
Can_MC_ErrorAndWarning_ToCan
Can_MC_ErrorAndWarning_FromCan
Can_MC_State_ToCan
Can_MC_State_FromCan
Can_CurrentSensor_Current_ToCan
Can_CurrentSensor_Current_FromCan
Can_CurrentSensor_Voltage_ToCan
Can_CurrentSensor_Voltage_FromCan
Can_CurrentSensor_Power_ToCan
Can_CurrentSensor_Power_FromCan
Can_CurrentSensor_Energy_ToCan
Can_CurrentSensor_Energy_FromCan
