ARM GAS  /var/folders/9j/_txx49hn253_s3mnzkyxlj8m0000gp/T//cc5dK8On.s 			page 1


   1              		.cpu cortex-m0
   2              		.fpu softvfp
   3              		.eabi_attribute 20, 1	@ Tag_ABI_FP_denormal
   4              		.eabi_attribute 21, 1	@ Tag_ABI_FP_exceptions
   5              		.eabi_attribute 23, 3	@ Tag_ABI_FP_number_model
   6              		.eabi_attribute 24, 1	@ Tag_ABI_align8_needed
   7              		.eabi_attribute 25, 1	@ Tag_ABI_align8_preserved
   8              		.eabi_attribute 26, 1	@ Tag_ABI_enum_size
   9              		.eabi_attribute 30, 2	@ Tag_ABI_optimization_goals
  10              		.eabi_attribute 34, 0	@ Tag_CPU_unaligned_access
  11              		.eabi_attribute 18, 4	@ Tag_ABI_PCS_wchar_t
  12              		.file	"MY17_Can_Library.c"
  13              	@ GNU C (GNU Tools for ARM Embedded Processors) version 4.9.3 20150529 (release) [ARM/embedded-4_9-
  14              	@	compiled by GNU C version 4.2.1 (Based on Apple Inc. build 5658) (LLVM build 2336.9.00), GMP vers
  15              	@ GGC heuristics: --param ggc-min-expand=100 --param ggc-min-heapsize=131072
  16              	@ options passed:  -I . -I inc/
  17              	@ -I ../lpc11cx4-library/lpc_chip_11cxx_lib/inc
  18              	@ -I ../lpc11cx4-library/evt_lib/inc/ -I ../MY17/lib/MY17_Can_Library
  19              	@ -imultilib armv6-m
  20              	@ -iprefix /usr/local/Cellar/gcc-arm-none-eabi/20150925/bin/../lib/gcc/arm-none-eabi/4.9.3/
  21              	@ -isysroot /usr/local/Cellar/gcc-arm-none-eabi/20150925/bin/../arm-none-eabi
  22              	@ -MD bin/MY17_Can_Library.d -MF bin/MY17_Can_Library.d -MP
  23              	@ -MQ bin/MY17_Can_Library.o -D__USES_INITFINI__ -D UART_BAUD=115200
  24              	@ -D CORE_M0 -D DEBUG_ENABLE -D CAN_ARCHITECTURE_ARM
  25              	@ ../MY17/lib/MY17_Can_Library/MY17_Can_Library.c -mcpu=cortex-m0 -mthumb
  26              	@ -auxbase-strip bin/MY17_Can_Library.o -g -ggdb3 -O2 -Wall
  27              	@ -Wstrict-prototypes -Wextra -std=gnu90 -ffunction-sections
  28              	@ -fdata-sections -fdiagnostics-color=always -fverbose-asm
  29              	@ options enabled:  -faggressive-loop-optimizations -fauto-inc-dec
  30              	@ -fbranch-count-reg -fcaller-saves -fcombine-stack-adjustments -fcommon
  31              	@ -fcompare-elim -fcprop-registers -fcrossjumping -fcse-follow-jumps
  32              	@ -fdata-sections -fdefer-pop -fdelete-null-pointer-checks -fdevirtualize
  33              	@ -fdevirtualize-speculatively -fdwarf2-cfi-asm -fearly-inlining
  34              	@ -feliminate-unused-debug-types -fexpensive-optimizations
  35              	@ -fforward-propagate -ffunction-cse -ffunction-sections -fgcse -fgcse-lm
  36              	@ -fgnu-runtime -fgnu-unique -fguess-branch-probability
  37              	@ -fhoist-adjacent-loads -fident -fif-conversion -fif-conversion2
  38              	@ -findirect-inlining -finline -finline-atomics
  39              	@ -finline-functions-called-once -finline-small-functions -fipa-cp
  40              	@ -fipa-profile -fipa-pure-const -fipa-reference -fipa-sra
  41              	@ -fira-hoist-pressure -fira-share-save-slots -fira-share-spill-slots
  42              	@ -fisolate-erroneous-paths-dereference -fivopts -fkeep-static-consts
  43              	@ -fleading-underscore -flifetime-dse -fmath-errno -fmerge-constants
  44              	@ -fmerge-debug-strings -fmove-loop-invariants -fomit-frame-pointer
  45              	@ -foptimize-sibling-calls -foptimize-strlen -fpartial-inlining -fpeephole
  46              	@ -fpeephole2 -fprefetch-loop-arrays -freg-struct-return -freorder-blocks
  47              	@ -freorder-functions -frerun-cse-after-loop
  48              	@ -fsched-critical-path-heuristic -fsched-dep-count-heuristic
  49              	@ -fsched-group-heuristic -fsched-interblock -fsched-last-insn-heuristic
  50              	@ -fsched-pressure -fsched-rank-heuristic -fsched-spec
  51              	@ -fsched-spec-insn-heuristic -fsched-stalled-insns-dep -fschedule-insns2
  52              	@ -fsection-anchors -fshow-column -fshrink-wrap -fsigned-zeros
  53              	@ -fsplit-ivs-in-unroller -fsplit-wide-types -fstrict-aliasing
  54              	@ -fstrict-overflow -fstrict-volatile-bitfields -fsync-libcalls
  55              	@ -fthread-jumps -ftoplevel-reorder -ftrapping-math -ftree-bit-ccp
  56              	@ -ftree-builtin-call-dce -ftree-ccp -ftree-ch -ftree-coalesce-vars
  57              	@ -ftree-copy-prop -ftree-copyrename -ftree-cselim -ftree-dce
ARM GAS  /var/folders/9j/_txx49hn253_s3mnzkyxlj8m0000gp/T//cc5dK8On.s 			page 2


  58              	@ -ftree-dominator-opts -ftree-dse -ftree-forwprop -ftree-fre
  59              	@ -ftree-loop-if-convert -ftree-loop-im -ftree-loop-ivcanon
  60              	@ -ftree-loop-optimize -ftree-parallelize-loops= -ftree-phiprop -ftree-pre
  61              	@ -ftree-pta -ftree-reassoc -ftree-scev-cprop -ftree-sink -ftree-slsr
  62              	@ -ftree-sra -ftree-switch-conversion -ftree-tail-merge -ftree-ter
  63              	@ -ftree-vrp -funit-at-a-time -fvar-tracking -fvar-tracking-assignments
  64              	@ -fverbose-asm -fzero-initialized-in-bss -mlittle-endian -mlra
  65              	@ -mpic-data-is-text-relative -msched-prolog -mthumb
  66              	@ -mvectorize-with-neon-quad
  67              	
  68              		.text
  69              	.Ltext0:
  70              		.cfi_sections	.debug_frame
  71              		.section	.text.data_transfer,"ax",%progbits
  72              		.align	2
  73              		.global	data_transfer
  74              		.code	16
  75              		.thumb_func
  76              		.type	data_transfer, %function
  77              	data_transfer:
  78              	.LFB0:
  79              		.file 1 "../MY17/lib/MY17_Can_Library/MY17_Can_Library.c"
   1:../MY17/lib/MY17_Can_Library/MY17_Can_Library.c **** #include "MY17_Can_Library.h"
   2:../MY17/lib/MY17_Can_Library/MY17_Can_Library.c **** #include "evil_macros.h"
   3:../MY17/lib/MY17_Can_Library/MY17_Can_Library.c **** 
   4:../MY17/lib/MY17_Can_Library/MY17_Can_Library.c **** static Frame lastMessage;
   5:../MY17/lib/MY17_Can_Library/MY17_Can_Library.c **** static Can_ErrorID_T lastError = Can_Error_NO_RX;
   6:../MY17/lib/MY17_Can_Library/MY17_Can_Library.c **** 
   7:../MY17/lib/MY17_Can_Library/MY17_Can_Library.c **** #define DEFINE(name) \
   8:../MY17/lib/MY17_Can_Library/MY17_Can_Library.c ****   Can_ErrorID_T name ##_Read(name ## _T *type) { \
   9:../MY17/lib/MY17_Can_Library/MY17_Can_Library.c ****     if (lastError == Can_Error_NONE) { \
  10:../MY17/lib/MY17_Can_Library/MY17_Can_Library.c ****       name ## _FromCan(&lastMessage, type); \
  11:../MY17/lib/MY17_Can_Library/MY17_Can_Library.c ****       lastError = Can_Error_NO_RX; \
  12:../MY17/lib/MY17_Can_Library/MY17_Can_Library.c ****       return Can_Error_NONE; \
  13:../MY17/lib/MY17_Can_Library/MY17_Can_Library.c ****     } else { \
  14:../MY17/lib/MY17_Can_Library/MY17_Can_Library.c ****       return lastError; \
  15:../MY17/lib/MY17_Can_Library/MY17_Can_Library.c ****     } \
  16:../MY17/lib/MY17_Can_Library/MY17_Can_Library.c ****   } \
  17:../MY17/lib/MY17_Can_Library/MY17_Can_Library.c ****   Can_ErrorID_T name ##_Write(name ## _T *type) { \
  18:../MY17/lib/MY17_Can_Library/MY17_Can_Library.c ****     Frame frame; \
  19:../MY17/lib/MY17_Can_Library/MY17_Can_Library.c ****     name ## _ToCan(type, &frame); \
  20:../MY17/lib/MY17_Can_Library/MY17_Can_Library.c ****     return Can_RawWrite(&frame); \
  21:../MY17/lib/MY17_Can_Library/MY17_Can_Library.c ****   }
  22:../MY17/lib/MY17_Can_Library/MY17_Can_Library.c **** 
  23:../MY17/lib/MY17_Can_Library/MY17_Can_Library.c **** typedef enum {
  24:../MY17/lib/MY17_Can_Library/MY17_Can_Library.c ****   LITTLE,
  25:../MY17/lib/MY17_Can_Library/MY17_Can_Library.c ****   BIG,
  26:../MY17/lib/MY17_Can_Library/MY17_Can_Library.c **** } ENDIAN_T;
  27:../MY17/lib/MY17_Can_Library/MY17_Can_Library.c **** 
  28:../MY17/lib/MY17_Can_Library/MY17_Can_Library.c **** typedef union {
  29:../MY17/lib/MY17_Can_Library/MY17_Can_Library.c ****   uint8_t byte[8];
  30:../MY17/lib/MY17_Can_Library/MY17_Can_Library.c ****   uint64_t bitstring;
  31:../MY17/lib/MY17_Can_Library/MY17_Can_Library.c **** } DATA_T;
  32:../MY17/lib/MY17_Can_Library/MY17_Can_Library.c **** 
  33:../MY17/lib/MY17_Can_Library/MY17_Can_Library.c **** void data_transfer(DATA_T *in, DATA_T *out) {
  80              		.loc 1 33 0
  81              		.cfi_startproc
ARM GAS  /var/folders/9j/_txx49hn253_s3mnzkyxlj8m0000gp/T//cc5dK8On.s 			page 3


  82              	.LVL0:
  83 0000 021C     		mov	r2, r0	@ D.9171, ivtmp.269
  84 0002 0731     		add	r1, r1, #7	@ ivtmp.270,
  85              	.LVL1:
  86 0004 0832     		add	r2, r2, #8	@ D.9171,
  87              	.LVL2:
  88              	.L2:
  34:../MY17/lib/MY17_Can_Library/MY17_Can_Library.c ****   uint8_t i;
  35:../MY17/lib/MY17_Can_Library/MY17_Can_Library.c ****   for (i = 0; i < 8; i++) {
  36:../MY17/lib/MY17_Can_Library/MY17_Can_Library.c ****     (*out).byte[7-i] = (*in).byte[i];
  89              		.loc 1 36 0 discriminator 3
  90 0006 0378     		ldrb	r3, [r0]	@ D.9167, MEM[base: _20, offset: 0B]
  91 0008 0130     		add	r0, r0, #1	@ ivtmp.269,
  92              	.LVL3:
  93 000a 0B70     		strb	r3, [r1]	@ D.9167, MEM[base: _21, offset: 0B]
  94 000c 0139     		sub	r1, r1, #1	@ ivtmp.270,
  35:../MY17/lib/MY17_Can_Library/MY17_Can_Library.c ****     (*out).byte[7-i] = (*in).byte[i];
  95              		.loc 1 35 0 discriminator 3
  96 000e 9042     		cmp	r0, r2	@ ivtmp.269, D.9171
  97 0010 F9D1     		bne	.L2	@,
  37:../MY17/lib/MY17_Can_Library/MY17_Can_Library.c ****   }
  38:../MY17/lib/MY17_Can_Library/MY17_Can_Library.c **** }
  98              		.loc 1 38 0
  99              		@ sp needed	@
 100 0012 7047     		bx	lr
 101              		.cfi_endproc
 102              	.LFE0:
 103              		.size	data_transfer, .-data_transfer
 104              		.section	.text.to_bitstring,"ax",%progbits
 105              		.align	2
 106              		.global	to_bitstring
 107              		.code	16
 108              		.thumb_func
 109              		.type	to_bitstring, %function
 110              	to_bitstring:
 111              	.LFB1:
  39:../MY17/lib/MY17_Can_Library/MY17_Can_Library.c **** 
  40:../MY17/lib/MY17_Can_Library/MY17_Can_Library.c **** void to_bitstring(uint8_t in[], uint64_t *out) {
 112              		.loc 1 40 0
 113              		.cfi_startproc
 114              	.LVL4:
 115 0000 021C     		mov	r2, r0	@ D.9187, ivtmp.282
 116 0002 0731     		add	r1, r1, #7	@ ivtmp.283,
 117              	.LVL5:
 118 0004 0832     		add	r2, r2, #8	@ D.9187,
 119              	.LVL6:
 120              	.L6:
 121              	.LBB375:
 122              	.LBB376:
  36:../MY17/lib/MY17_Can_Library/MY17_Can_Library.c ****   }
 123              		.loc 1 36 0
 124 0006 0378     		ldrb	r3, [r0]	@ D.9184, MEM[base: _20, offset: 0B]
 125 0008 0130     		add	r0, r0, #1	@ ivtmp.282,
 126              	.LVL7:
 127 000a 0B70     		strb	r3, [r1]	@ D.9184, MEM[base: _21, offset: 0B]
 128 000c 0139     		sub	r1, r1, #1	@ ivtmp.283,
  35:../MY17/lib/MY17_Can_Library/MY17_Can_Library.c ****     (*out).byte[7-i] = (*in).byte[i];
ARM GAS  /var/folders/9j/_txx49hn253_s3mnzkyxlj8m0000gp/T//cc5dK8On.s 			page 4


 129              		.loc 1 35 0
 130 000e 9042     		cmp	r0, r2	@ ivtmp.282, D.9187
 131 0010 F9D1     		bne	.L6	@,
 132              	.LBE376:
 133              	.LBE375:
  41:../MY17/lib/MY17_Can_Library/MY17_Can_Library.c ****   data_transfer((DATA_T*)in, (DATA_T*)out);
  42:../MY17/lib/MY17_Can_Library/MY17_Can_Library.c **** }
 134              		.loc 1 42 0
 135              		@ sp needed	@
 136 0012 7047     		bx	lr
 137              		.cfi_endproc
 138              	.LFE1:
 139              		.size	to_bitstring, .-to_bitstring
 140              		.section	.text.from_bitstring,"ax",%progbits
 141              		.align	2
 142              		.global	from_bitstring
 143              		.code	16
 144              		.thumb_func
 145              		.type	from_bitstring, %function
 146              	from_bitstring:
 147              	.LFB2:
  43:../MY17/lib/MY17_Can_Library/MY17_Can_Library.c **** 
  44:../MY17/lib/MY17_Can_Library/MY17_Can_Library.c **** void from_bitstring(uint64_t *in, uint8_t out[]) {
 148              		.loc 1 44 0
 149              		.cfi_startproc
 150              	.LVL8:
 151 0000 CB1D     		add	r3, r1, #7	@ ivtmp.295, out,
 152 0002 0139     		sub	r1, r1, #1	@ D.9203,
 153              	.LVL9:
 154              	.L9:
 155              	.LBB377:
 156              	.LBB378:
  36:../MY17/lib/MY17_Can_Library/MY17_Can_Library.c ****   }
 157              		.loc 1 36 0
 158 0004 0278     		ldrb	r2, [r0]	@ D.9200, MEM[base: _20, offset: 0B]
 159 0006 013B     		sub	r3, r3, #1	@ ivtmp.295,
 160 0008 5A70     		strb	r2, [r3, #1]	@ D.9200, MEM[base: _21, offset: 0B]
 161              	.LVL10:
 162 000a 0130     		add	r0, r0, #1	@ ivtmp.294,
 163              	.LVL11:
  35:../MY17/lib/MY17_Can_Library/MY17_Can_Library.c ****     (*out).byte[7-i] = (*in).byte[i];
 164              		.loc 1 35 0
 165 000c 8B42     		cmp	r3, r1	@ ivtmp.295, D.9203
 166 000e F9D1     		bne	.L9	@,
 167              	.LBE378:
 168              	.LBE377:
  45:../MY17/lib/MY17_Can_Library/MY17_Can_Library.c ****   data_transfer((DATA_T*)in, (DATA_T*)out);
  46:../MY17/lib/MY17_Can_Library/MY17_Can_Library.c **** }
 169              		.loc 1 46 0
 170              		@ sp needed	@
 171 0010 7047     		bx	lr
 172              		.cfi_endproc
 173              	.LFE2:
 174              		.size	from_bitstring, .-from_bitstring
 175 0012 C046     		.section	.text.swap_uint16,"ax",%progbits
 176              		.align	2
 177              		.global	swap_uint16
ARM GAS  /var/folders/9j/_txx49hn253_s3mnzkyxlj8m0000gp/T//cc5dK8On.s 			page 5


 178              		.code	16
 179              		.thumb_func
 180              		.type	swap_uint16, %function
 181              	swap_uint16:
 182              	.LFB3:
  47:../MY17/lib/MY17_Can_Library/MY17_Can_Library.c **** 
  48:../MY17/lib/MY17_Can_Library/MY17_Can_Library.c **** // Shameless copypasta-ing from Stack Overflow for trivial endian swap.
  49:../MY17/lib/MY17_Can_Library/MY17_Can_Library.c **** // https://stackoverflow.com/a/2637138
  50:../MY17/lib/MY17_Can_Library/MY17_Can_Library.c **** uint16_t swap_uint16( uint16_t val ) {
 183              		.loc 1 50 0
 184              		.cfi_startproc
 185              	.LVL12:
 186 0000 40BA     		rev16	r0, r0	@ tmp113, val
 187              	.LVL13:
 188 0002 80B2     		uxth	r0, r0	@ D.9206, tmp113
  51:../MY17/lib/MY17_Can_Library/MY17_Can_Library.c ****     return (val << 8) | (val >> 8 );
  52:../MY17/lib/MY17_Can_Library/MY17_Can_Library.c **** }
 189              		.loc 1 52 0
 190              		@ sp needed	@
 191 0004 7047     		bx	lr
 192              		.cfi_endproc
 193              	.LFE3:
 194              		.size	swap_uint16, .-swap_uint16
 195 0006 C046     		.section	.text.swap_int16,"ax",%progbits
 196              		.align	2
 197              		.global	swap_int16
 198              		.code	16
 199              		.thumb_func
 200              		.type	swap_int16, %function
 201              	swap_int16:
 202              	.LFB4:
  53:../MY17/lib/MY17_Can_Library/MY17_Can_Library.c **** 
  54:../MY17/lib/MY17_Can_Library/MY17_Can_Library.c **** int16_t swap_int16( int16_t val ) {
 203              		.loc 1 54 0
 204              		.cfi_startproc
 205              	.LVL14:
  55:../MY17/lib/MY17_Can_Library/MY17_Can_Library.c ****     return (val << 8) | ((val >> 8) & 0xFF);
 206              		.loc 1 55 0
 207 0000 83B2     		uxth	r3, r0	@ val, val
 208 0002 1B0A     		lsr	r3, r3, #8	@ tmp121, val,
 209 0004 0002     		lsl	r0, r0, #8	@ D.9209, val,
 210              	.LVL15:
 211 0006 1843     		orr	r0, r3	@ tmp125, tmp121
 212 0008 00B2     		sxth	r0, r0	@ tmp126, tmp125
  56:../MY17/lib/MY17_Can_Library/MY17_Can_Library.c **** }
 213              		.loc 1 56 0
 214              		@ sp needed	@
 215 000a 7047     		bx	lr
 216              		.cfi_endproc
 217              	.LFE4:
 218              		.size	swap_int16, .-swap_int16
 219              		.section	.text.swap_uint32,"ax",%progbits
 220              		.align	2
 221              		.global	swap_uint32
 222              		.code	16
 223              		.thumb_func
 224              		.type	swap_uint32, %function
ARM GAS  /var/folders/9j/_txx49hn253_s3mnzkyxlj8m0000gp/T//cc5dK8On.s 			page 6


 225              	swap_uint32:
 226              	.LFB5:
  57:../MY17/lib/MY17_Can_Library/MY17_Can_Library.c **** 
  58:../MY17/lib/MY17_Can_Library/MY17_Can_Library.c **** uint32_t swap_uint32( uint32_t val ) {
 227              		.loc 1 58 0
 228              		.cfi_startproc
 229              	.LVL16:
  59:../MY17/lib/MY17_Can_Library/MY17_Can_Library.c ****     val = ((val << 8) & 0xFF00FF00 ) | ((val >> 8) & 0xFF00FF ); 
 230              		.loc 1 59 0
 231 0000 044B     		ldr	r3, .L14	@ tmp119,
 232 0002 0202     		lsl	r2, r0, #8	@ D.9215, val,
 233 0004 1340     		and	r3, r2	@ D.9215, D.9215
 234 0006 044A     		ldr	r2, .L14+4	@ tmp121,
 235 0008 000A     		lsr	r0, r0, #8	@ D.9215, val,
 236              	.LVL17:
 237 000a 1040     		and	r0, r2	@ D.9215, tmp121
 238              	.LVL18:
 239 000c 1843     		orr	r0, r3	@ val, D.9215
 240              	.LVL19:
  60:../MY17/lib/MY17_Can_Library/MY17_Can_Library.c ****     return (val << 16) | (val >> 16);
 241              		.loc 1 60 0
 242 000e 1023     		mov	r3, #16	@ tmp124,
  61:../MY17/lib/MY17_Can_Library/MY17_Can_Library.c **** }
 243              		.loc 1 61 0
 244              		@ sp needed	@
  60:../MY17/lib/MY17_Can_Library/MY17_Can_Library.c ****     return (val << 16) | (val >> 16);
 245              		.loc 1 60 0
 246 0010 D841     		ror	r0, r0, r3	@ D.9216, tmp124
 247              	.LVL20:
 248              		.loc 1 61 0
 249 0012 7047     		bx	lr
 250              	.L15:
 251              		.align	2
 252              	.L14:
 253 0014 00FF00FF 		.word	-16711936
 254 0018 FF00FF00 		.word	16711935
 255              		.cfi_endproc
 256              	.LFE5:
 257              		.size	swap_uint32, .-swap_uint32
 258              		.section	.text.swap_int32,"ax",%progbits
 259              		.align	2
 260              		.global	swap_int32
 261              		.code	16
 262              		.thumb_func
 263              		.type	swap_int32, %function
 264              	swap_int32:
 265              	.LFB6:
  62:../MY17/lib/MY17_Can_Library/MY17_Can_Library.c **** 
  63:../MY17/lib/MY17_Can_Library/MY17_Can_Library.c **** int32_t swap_int32( int32_t val ) {
 266              		.loc 1 63 0
 267              		.cfi_startproc
 268              	.LVL21:
  64:../MY17/lib/MY17_Can_Library/MY17_Can_Library.c ****     val = ((val << 8) & 0xFF00FF00) | ((val >> 8) & 0xFF00FF ); 
 269              		.loc 1 64 0
 270 0000 054B     		ldr	r3, .L17	@ tmp126,
 271 0002 0212     		asr	r2, r0, #8	@ D.9219, val,
 272 0004 1340     		and	r3, r2	@ D.9220, D.9219
ARM GAS  /var/folders/9j/_txx49hn253_s3mnzkyxlj8m0000gp/T//cc5dK8On.s 			page 7


 273 0006 054A     		ldr	r2, .L17+4	@ tmp129,
 274 0008 0002     		lsl	r0, r0, #8	@ D.9219, val,
 275              	.LVL22:
 276 000a 1040     		and	r0, r2	@ D.9220, tmp129
 277 000c 0343     		orr	r3, r0	@ D.9220, D.9220
 278              	.LVL23:
  65:../MY17/lib/MY17_Can_Library/MY17_Can_Library.c ****     return (val << 16) | ((val >> 16) & 0xFFFF);
 279              		.loc 1 65 0
 280 000e 180C     		lsr	r0, r3, #16	@ D.9221, D.9220,
 281 0010 1B04     		lsl	r3, r3, #16	@ D.9219, D.9220,
 282              	.LVL24:
 283 0012 1843     		orr	r0, r3	@ D.9222, D.9219
  66:../MY17/lib/MY17_Can_Library/MY17_Can_Library.c **** }
 284              		.loc 1 66 0
 285              		@ sp needed	@
 286 0014 7047     		bx	lr
 287              	.L18:
 288 0016 C046     		.align	2
 289              	.L17:
 290 0018 FF00FF00 		.word	16711935
 291 001c 00FF00FF 		.word	-16711936
 292              		.cfi_endproc
 293              	.LFE6:
 294              		.size	swap_int32, .-swap_int32
 295              		.section	.text.Can_Init,"ax",%progbits
 296              		.align	2
 297              		.global	Can_Init
 298              		.code	16
 299              		.thumb_func
 300              		.type	Can_Init, %function
 301              	Can_Init:
 302              	.LFB205:
 303              		.file 2 "../MY17/lib/MY17_Can_Library/arm_src/arm_can_drivers.c"
   1:../MY17/lib/MY17_Can_Library/arm_src/arm_can_drivers.c **** #include "can_raw.h"
   2:../MY17/lib/MY17_Can_Library/arm_src/arm_can_drivers.c **** 
   3:../MY17/lib/MY17_Can_Library/arm_src/arm_can_drivers.c **** #include <stdint.h>
   4:../MY17/lib/MY17_Can_Library/arm_src/arm_can_drivers.c **** 
   5:../MY17/lib/MY17_Can_Library/arm_src/arm_can_drivers.c **** #include "chip.h"
   6:../MY17/lib/MY17_Can_Library/arm_src/arm_can_drivers.c **** #include "can.h"
   7:../MY17/lib/MY17_Can_Library/arm_src/arm_can_drivers.c **** #include "ccand_11xx.h"
   8:../MY17/lib/MY17_Can_Library/arm_src/arm_can_drivers.c **** 
   9:../MY17/lib/MY17_Can_Library/arm_src/arm_can_drivers.c **** void Can_Init(uint32_t baudrate) {
 304              		.loc 2 9 0
 305              		.cfi_startproc
 306              	.LVL25:
 307 0000 08B5     		push	{r3, lr}	@
 308              		.cfi_def_cfa_offset 8
 309              		.cfi_offset 3, -8
 310              		.cfi_offset 14, -4
  10:../MY17/lib/MY17_Can_Library/arm_src/arm_can_drivers.c ****   CAN_Init(baudrate);
 311              		.loc 2 10 0
 312 0002 FFF7FEFF 		bl	CAN_Init	@
 313              	.LVL26:
  11:../MY17/lib/MY17_Can_Library/arm_src/arm_can_drivers.c **** }
 314              		.loc 2 11 0
 315              		@ sp needed	@
 316 0006 08BD     		pop	{r3, pc}
ARM GAS  /var/folders/9j/_txx49hn253_s3mnzkyxlj8m0000gp/T//cc5dK8On.s 			page 8


 317              		.cfi_endproc
 318              	.LFE205:
 319              		.size	Can_Init, .-Can_Init
 320              		.section	.text.Can_RawWrite,"ax",%progbits
 321              		.align	2
 322              		.global	Can_RawWrite
 323              		.code	16
 324              		.thumb_func
 325              		.type	Can_RawWrite, %function
 326              	Can_RawWrite:
 327              	.LFB206:
  12:../MY17/lib/MY17_Can_Library/arm_src/arm_can_drivers.c **** 
  13:../MY17/lib/MY17_Can_Library/arm_src/arm_can_drivers.c **** Can_ErrorID_T Can_RawWrite(Frame *frame) {
 328              		.loc 2 13 0
 329              		.cfi_startproc
 330              	.LVL27:
 331 0000 08B5     		push	{r3, lr}	@
 332              		.cfi_def_cfa_offset 8
 333              		.cfi_offset 3, -8
 334              		.cfi_offset 14, -4
 335              		.loc 2 13 0
 336 0002 031C     		mov	r3, r0	@ frame, frame
  14:../MY17/lib/MY17_Can_Library/arm_src/arm_can_drivers.c ****   const uint32_t can_out_id = (uint32_t) (frame->id);
 337              		.loc 2 14 0
 338 0004 0088     		ldrh	r0, [r0]	@ can_out_id, *frame_2(D)
 339              	.LVL28:
  15:../MY17/lib/MY17_Can_Library/arm_src/arm_can_drivers.c ****   const uint8_t can_out_bytes = frame->len;
  16:../MY17/lib/MY17_Can_Library/arm_src/arm_can_drivers.c **** 
  17:../MY17/lib/MY17_Can_Library/arm_src/arm_can_drivers.c ****   // TODO actually convert this later, for now just hackily cast it
  18:../MY17/lib/MY17_Can_Library/arm_src/arm_can_drivers.c ****   Can_ErrorID_T err =  (Can_ErrorID_T) CAN_Transmit(can_out_id, frame->data, can_out_bytes);
 340              		.loc 2 18 0
 341 0006 D91C     		add	r1, r3, #3	@ D.9228, frame,
 342 0008 9A78     		ldrb	r2, [r3, #2]	@ tmp119,
 343 000a FFF7FEFF 		bl	CAN_Transmit	@
 344              	.LVL29:
  19:../MY17/lib/MY17_Can_Library/arm_src/arm_can_drivers.c ****   return err;
  20:../MY17/lib/MY17_Can_Library/arm_src/arm_can_drivers.c **** }
 345              		.loc 2 20 0
 346              		@ sp needed	@
 347 000e 08BD     		pop	{r3, pc}
 348              		.cfi_endproc
 349              	.LFE206:
 350              		.size	Can_RawWrite, .-Can_RawWrite
 351              		.section	.text.Can_RawRead,"ax",%progbits
 352              		.align	2
 353              		.global	Can_RawRead
 354              		.code	16
 355              		.thumb_func
 356              		.type	Can_RawRead, %function
 357              	Can_RawRead:
 358              	.LFB207:
  21:../MY17/lib/MY17_Can_Library/arm_src/arm_can_drivers.c **** 
  22:../MY17/lib/MY17_Can_Library/arm_src/arm_can_drivers.c **** Can_ErrorID_T Can_RawRead(Frame *frame) {
 359              		.loc 2 22 0
 360              		.cfi_startproc
 361              	.LVL30:
 362 0000 30B5     		push	{r4, r5, lr}	@
ARM GAS  /var/folders/9j/_txx49hn253_s3mnzkyxlj8m0000gp/T//cc5dK8On.s 			page 9


 363              		.cfi_def_cfa_offset 12
 364              		.cfi_offset 4, -12
 365              		.cfi_offset 5, -8
 366              		.cfi_offset 14, -4
 367 0002 87B0     		sub	sp, sp, #28	@,,
 368              		.cfi_def_cfa_offset 40
 369              		.loc 2 22 0
 370 0004 041C     		mov	r4, r0	@ frame, frame
  23:../MY17/lib/MY17_Can_Library/arm_src/arm_can_drivers.c ****   CCAN_MSG_OBJ_T rx_msg;
  24:../MY17/lib/MY17_Can_Library/arm_src/arm_can_drivers.c **** 
  25:../MY17/lib/MY17_Can_Library/arm_src/arm_can_drivers.c ****   // TODO actually convert this later, for now just hackily cast it
  26:../MY17/lib/MY17_Can_Library/arm_src/arm_can_drivers.c ****   Can_ErrorID_T err = (Can_ErrorID_T) CAN_Receive(&rx_msg);
 371              		.loc 2 26 0
 372 0006 6846     		mov	r0, sp	@,
 373              	.LVL31:
 374 0008 FFF7FEFF 		bl	CAN_Receive	@
 375              	.LVL32:
  27:../MY17/lib/MY17_Can_Library/arm_src/arm_can_drivers.c **** 
  28:../MY17/lib/MY17_Can_Library/arm_src/arm_can_drivers.c ****   if (err == Can_Error_NONE) {
 376              		.loc 2 28 0
 377 000c 0028     		cmp	r0, #0	@ tmp136,
 378 000e 10D1     		bne	.L26	@,
 379              	.LBB379:
  29:../MY17/lib/MY17_Can_Library/arm_src/arm_can_drivers.c ****     frame->id = rx_msg.mode_id;
 380              		.loc 2 29 0
 381 0010 009B     		ldr	r3, [sp]	@ tmp151, rx_msg.mode_id
 382 0012 2380     		strh	r3, [r4]	@ tmp151, frame_9(D)->id
  30:../MY17/lib/MY17_Can_Library/arm_src/arm_can_drivers.c ****     frame->len = rx_msg.dlc;
 383              		.loc 2 30 0
 384 0014 6B46     		mov	r3, sp	@ tmp152,
 385 0016 1D7C     		ldrb	r5, [r3, #16]	@ D.9240,
 386 0018 A570     		strb	r5, [r4, #2]	@ D.9240, frame_9(D)->len
 387              	.LVL33:
  31:../MY17/lib/MY17_Can_Library/arm_src/arm_can_drivers.c **** 
  32:../MY17/lib/MY17_Can_Library/arm_src/arm_can_drivers.c ****     uint8_t i;
  33:../MY17/lib/MY17_Can_Library/arm_src/arm_can_drivers.c ****     for (i = 0; i < frame->len; i++) {
 388              		.loc 2 33 0
 389 001a 002D     		cmp	r5, #0	@ D.9240,
 390 001c 09D0     		beq	.L26	@,
 391 001e 0023     		mov	r3, #0	@ ivtmp.312,
 392              	.LVL34:
 393              	.L24:
 394 0020 191C     		mov	r1, r3	@ D.9241, ivtmp.312
 395 0022 6944     		add	r1, r1, sp	@ D.9241,
  34:../MY17/lib/MY17_Can_Library/arm_src/arm_can_drivers.c ****       frame->data[i] = rx_msg.data[i];
 396              		.loc 2 34 0 discriminator 3
 397 0024 097A     		ldrb	r1, [r1, #8]	@ MEM[base: _18, offset: 8B], MEM[base: _18, offset: 8B]
 398 0026 E218     		add	r2, r4, r3	@ D.9242, frame, ivtmp.312
 399 0028 0133     		add	r3, r3, #1	@ ivtmp.312,
 400              	.LVL35:
 401 002a D170     		strb	r1, [r2, #3]	@ MEM[base: _18, offset: 8B], MEM[base: _22, offset: 3B]
  33:../MY17/lib/MY17_Can_Library/arm_src/arm_can_drivers.c ****       frame->data[i] = rx_msg.data[i];
 402              		.loc 2 33 0 discriminator 3
 403 002c DAB2     		uxtb	r2, r3	@ ivtmp.312, ivtmp.312
 404 002e 9542     		cmp	r5, r2	@ D.9240, ivtmp.312
 405 0030 F6D8     		bhi	.L24	@,
 406              	.L26:
ARM GAS  /var/folders/9j/_txx49hn253_s3mnzkyxlj8m0000gp/T//cc5dK8On.s 			page 10


 407              	.LBE379:
  35:../MY17/lib/MY17_Can_Library/arm_src/arm_can_drivers.c ****     }
  36:../MY17/lib/MY17_Can_Library/arm_src/arm_can_drivers.c ****   }
  37:../MY17/lib/MY17_Can_Library/arm_src/arm_can_drivers.c ****   return err;
  38:../MY17/lib/MY17_Can_Library/arm_src/arm_can_drivers.c **** }
 408              		.loc 2 38 0
 409 0032 07B0     		add	sp, sp, #28	@,,
 410              		@ sp needed	@
 411              	.LVL36:
 412 0034 30BD     		pop	{r4, r5, pc}
 413              		.cfi_endproc
 414              	.LFE207:
 415              		.size	Can_RawRead, .-Can_RawRead
 416 0036 C046     		.section	.text.Can_MsgType,"ax",%progbits
 417              		.align	2
 418              		.global	Can_MsgType
 419              		.code	16
 420              		.thumb_func
 421              		.type	Can_MsgType, %function
 422              	Can_MsgType:
 423              	.LFB208:
  67:../MY17/lib/MY17_Can_Library/MY17_Can_Library.c **** 
  68:../MY17/lib/MY17_Can_Library/MY17_Can_Library.c **** #ifdef CAN_ARCHITECTURE_ARM
  69:../MY17/lib/MY17_Can_Library/MY17_Can_Library.c **** #include "arm_src/arm_can_drivers.c"
  70:../MY17/lib/MY17_Can_Library/MY17_Can_Library.c **** #elif CAN_ARCHITECTURE_AVR
  71:../MY17/lib/MY17_Can_Library/MY17_Can_Library.c **** #include "avr_src/avr_can_drivers.c"
  72:../MY17/lib/MY17_Can_Library/MY17_Can_Library.c **** #elif CAN_ARCHITECTURE_TEST
  73:../MY17/lib/MY17_Can_Library/MY17_Can_Library.c **** 
  74:../MY17/lib/MY17_Can_Library/MY17_Can_Library.c **** void Can_Init(uint32_t baudrate) {
  75:../MY17/lib/MY17_Can_Library/MY17_Can_Library.c ****   // TODO test harness
  76:../MY17/lib/MY17_Can_Library/MY17_Can_Library.c **** }
  77:../MY17/lib/MY17_Can_Library/MY17_Can_Library.c **** 
  78:../MY17/lib/MY17_Can_Library/MY17_Can_Library.c **** Can_ErrorID_T Can_RawWrite(Frame *frame) {
  79:../MY17/lib/MY17_Can_Library/MY17_Can_Library.c ****   // TODO test harness
  80:../MY17/lib/MY17_Can_Library/MY17_Can_Library.c ****   return 0;
  81:../MY17/lib/MY17_Can_Library/MY17_Can_Library.c **** }
  82:../MY17/lib/MY17_Can_Library/MY17_Can_Library.c **** 
  83:../MY17/lib/MY17_Can_Library/MY17_Can_Library.c **** Can_ErrorID_T Can_RawRead(Frame *frame) {
  84:../MY17/lib/MY17_Can_Library/MY17_Can_Library.c ****   // TODO test harness
  85:../MY17/lib/MY17_Can_Library/MY17_Can_Library.c ****   return 0;
  86:../MY17/lib/MY17_Can_Library/MY17_Can_Library.c **** }
  87:../MY17/lib/MY17_Can_Library/MY17_Can_Library.c **** 
  88:../MY17/lib/MY17_Can_Library/MY17_Can_Library.c **** #else
  89:../MY17/lib/MY17_Can_Library/MY17_Can_Library.c ****   // Define nothing so that there is a linker error!
  90:../MY17/lib/MY17_Can_Library/MY17_Can_Library.c **** #endif
  91:../MY17/lib/MY17_Can_Library/MY17_Can_Library.c **** 
  92:../MY17/lib/MY17_Can_Library/MY17_Can_Library.c **** Can_MsgID_T Can_MsgType(void) {
 424              		.loc 1 92 0
 425              		.cfi_startproc
 426 0000 10B5     		push	{r4, lr}	@
 427              		.cfi_def_cfa_offset 8
 428              		.cfi_offset 4, -8
 429              		.cfi_offset 14, -4
  93:../MY17/lib/MY17_Can_Library/MY17_Can_Library.c ****   lastError = Can_RawRead(&lastMessage);
 430              		.loc 1 93 0
 431 0002 3F4C     		ldr	r4, .L82	@ tmp116,
 432 0004 201C     		mov	r0, r4	@, tmp116
ARM GAS  /var/folders/9j/_txx49hn253_s3mnzkyxlj8m0000gp/T//cc5dK8On.s 			page 11


 433 0006 FFF7FEFF 		bl	Can_RawRead	@
 434              	.LVL37:
 435 000a 3E4A     		ldr	r2, .L82+4	@ tmp119,
 436 000c 031E     		sub	r3, r0, #0	@ tmp117,,
 437 000e 1070     		strb	r0, [r2]	@ tmp117, lastError
  94:../MY17/lib/MY17_Can_Library/MY17_Can_Library.c ****   if (lastError == Can_Error_NO_RX) {
 438              		.loc 1 94 0
 439 0010 012B     		cmp	r3, #1	@ tmp117,
 440 0012 2AD0     		beq	.L58	@,
  95:../MY17/lib/MY17_Can_Library/MY17_Can_Library.c ****     return Can_No_Msg;
  96:../MY17/lib/MY17_Can_Library/MY17_Can_Library.c ****   } else if (lastError != Can_Error_NONE) {
  97:../MY17/lib/MY17_Can_Library/MY17_Can_Library.c ****     return Can_Error_Msg;
 441              		.loc 1 97 0
 442 0014 0220     		mov	r0, #2	@ D.9247,
  96:../MY17/lib/MY17_Can_Library/MY17_Can_Library.c ****     return Can_Error_Msg;
 443              		.loc 1 96 0
 444 0016 002B     		cmp	r3, #0	@ tmp117,
 445 0018 00D0     		beq	.L76	@,
 446              	.L31:
  98:../MY17/lib/MY17_Can_Library/MY17_Can_Library.c ****   }
  99:../MY17/lib/MY17_Can_Library/MY17_Can_Library.c **** 
 100:../MY17/lib/MY17_Can_Library/MY17_Can_Library.c ****   uint16_t id = lastMessage.id;
 101:../MY17/lib/MY17_Can_Library/MY17_Can_Library.c ****   uint16_t first_byte = lastMessage.data[0];
 102:../MY17/lib/MY17_Can_Library/MY17_Can_Library.c ****   switch(id) {
 103:../MY17/lib/MY17_Can_Library/MY17_Can_Library.c ****     case FRONT_CAN_NODE_DRIVER_OUTPUT__id:
 104:../MY17/lib/MY17_Can_Library/MY17_Can_Library.c ****       return Can_FrontCanNode_DriverOutput_Msg;
 105:../MY17/lib/MY17_Can_Library/MY17_Can_Library.c ****     case FRONT_CAN_NODE_RAW_VALUES__id:
 106:../MY17/lib/MY17_Can_Library/MY17_Can_Library.c ****       return Can_FrontCanNode_RawValues_Msg;
 107:../MY17/lib/MY17_Can_Library/MY17_Can_Library.c ****     case FRONT_CAN_NODE_WHEEL_SPEED__id:
 108:../MY17/lib/MY17_Can_Library/MY17_Can_Library.c ****       return Can_FrontCanNode_WheelSpeed_Msg;
 109:../MY17/lib/MY17_Can_Library/MY17_Can_Library.c ****     case REAR_CAN_NODE_HEARTBEAT__id:
 110:../MY17/lib/MY17_Can_Library/MY17_Can_Library.c ****       return Can_RearCanNode_Heartbeat_Msg;
 111:../MY17/lib/MY17_Can_Library/MY17_Can_Library.c ****     case REAR_CAN_NODE_WHEEL_SPEED__id:
 112:../MY17/lib/MY17_Can_Library/MY17_Can_Library.c ****       return Can_RearCanNode_WheelSpeed_Msg;
 113:../MY17/lib/MY17_Can_Library/MY17_Can_Library.c **** 
 114:../MY17/lib/MY17_Can_Library/MY17_Can_Library.c ****     case VCU_BMS_HEARTBEAT__id:
 115:../MY17/lib/MY17_Can_Library/MY17_Can_Library.c ****       return Can_Vcu_BmsHeartbeat_Msg;
 116:../MY17/lib/MY17_Can_Library/MY17_Can_Library.c ****     case VCU_DASH_HEARTBEAT__id:
 117:../MY17/lib/MY17_Can_Library/MY17_Can_Library.c ****       return Can_Vcu_DashHeartbeat_Msg;
 118:../MY17/lib/MY17_Can_Library/MY17_Can_Library.c ****     case VCU_MC_MESSAGE__id:
 119:../MY17/lib/MY17_Can_Library/MY17_Can_Library.c ****       if (first_byte == CAN_MC_REG_MSG_REQUEST || first_byte == CAN_MC_REG_MSG_EVENT_REQUEST) {
 120:../MY17/lib/MY17_Can_Library/MY17_Can_Library.c ****         return Can_Vcu_MCRequest_Msg;
 121:../MY17/lib/MY17_Can_Library/MY17_Can_Library.c ****       } else if (first_byte == CAN_MC_REG_TORQUE_CMD) {
 122:../MY17/lib/MY17_Can_Library/MY17_Can_Library.c ****         return Can_Vcu_MCTorque_Msg;
 123:../MY17/lib/MY17_Can_Library/MY17_Can_Library.c ****       } else {
 124:../MY17/lib/MY17_Can_Library/MY17_Can_Library.c ****         return Can_Unknown_Msg;
 125:../MY17/lib/MY17_Can_Library/MY17_Can_Library.c ****       }
 126:../MY17/lib/MY17_Can_Library/MY17_Can_Library.c **** 
 127:../MY17/lib/MY17_Can_Library/MY17_Can_Library.c ****     case BMS_HEARTBEAT__id:
 128:../MY17/lib/MY17_Can_Library/MY17_Can_Library.c ****       return Can_Bms_Heartbeat_Msg;
 129:../MY17/lib/MY17_Can_Library/MY17_Can_Library.c ****     case BMS_CELL_TEMPS__id:
 130:../MY17/lib/MY17_Can_Library/MY17_Can_Library.c ****       return Can_Bms_CellTemps_Msg;
 131:../MY17/lib/MY17_Can_Library/MY17_Can_Library.c ****     case BMS_PACK_STATUS__id:
 132:../MY17/lib/MY17_Can_Library/MY17_Can_Library.c ****       return Can_Bms_PackStatus_Msg;
 133:../MY17/lib/MY17_Can_Library/MY17_Can_Library.c ****     case BMS_ERRORS__id:
 134:../MY17/lib/MY17_Can_Library/MY17_Can_Library.c ****       return Can_Bms_Error_Msg;
 135:../MY17/lib/MY17_Can_Library/MY17_Can_Library.c **** 
ARM GAS  /var/folders/9j/_txx49hn253_s3mnzkyxlj8m0000gp/T//cc5dK8On.s 			page 12


 136:../MY17/lib/MY17_Can_Library/MY17_Can_Library.c ****     case DASH_HEARTBEAT__id:
 137:../MY17/lib/MY17_Can_Library/MY17_Can_Library.c ****       return Can_Dash_Heartbeat_Msg;
 138:../MY17/lib/MY17_Can_Library/MY17_Can_Library.c ****     case DASH_REQUEST__id:
 139:../MY17/lib/MY17_Can_Library/MY17_Can_Library.c ****       return Can_Dash_Request_Msg;
 140:../MY17/lib/MY17_Can_Library/MY17_Can_Library.c **** 
 141:../MY17/lib/MY17_Can_Library/MY17_Can_Library.c ****     case MC_RESPONSE__id:
 142:../MY17/lib/MY17_Can_Library/MY17_Can_Library.c ****       if (first_byte == CAN_MC_REG_ERRORS_AND_WARNINGS) {
 143:../MY17/lib/MY17_Can_Library/MY17_Can_Library.c ****         return Can_MC_ErrorAndWarning_Msg;
 144:../MY17/lib/MY17_Can_Library/MY17_Can_Library.c ****       } else if (first_byte == CAN_MC_REG_STATE) {
 145:../MY17/lib/MY17_Can_Library/MY17_Can_Library.c ****         return Can_MC_State_Msg;
 146:../MY17/lib/MY17_Can_Library/MY17_Can_Library.c ****       } else {
 147:../MY17/lib/MY17_Can_Library/MY17_Can_Library.c ****         return Can_MC_DataReading_Msg;
 148:../MY17/lib/MY17_Can_Library/MY17_Can_Library.c ****       }
 149:../MY17/lib/MY17_Can_Library/MY17_Can_Library.c **** 
 150:../MY17/lib/MY17_Can_Library/MY17_Can_Library.c ****     case CURRENT_SENSOR_VOLTAGE__id:
 151:../MY17/lib/MY17_Can_Library/MY17_Can_Library.c ****       return Can_CurrentSensor_Voltage_Msg;
 152:../MY17/lib/MY17_Can_Library/MY17_Can_Library.c ****     case CURRENT_SENSOR_CURRENT__id:
 153:../MY17/lib/MY17_Can_Library/MY17_Can_Library.c ****       return Can_CurrentSensor_Current_Msg;
 154:../MY17/lib/MY17_Can_Library/MY17_Can_Library.c ****     case CURRENT_SENSOR_POWER__id:
 155:../MY17/lib/MY17_Can_Library/MY17_Can_Library.c ****       return Can_CurrentSensor_Power_Msg;
 156:../MY17/lib/MY17_Can_Library/MY17_Can_Library.c ****     case CURRENT_SENSOR_ENERGY__id:
 157:../MY17/lib/MY17_Can_Library/MY17_Can_Library.c ****       return Can_CurrentSensor_Energy_Msg;
 158:../MY17/lib/MY17_Can_Library/MY17_Can_Library.c **** 
 159:../MY17/lib/MY17_Can_Library/MY17_Can_Library.c ****     default:
 160:../MY17/lib/MY17_Can_Library/MY17_Can_Library.c ****       return Can_Unknown_Msg;
 161:../MY17/lib/MY17_Can_Library/MY17_Can_Library.c ****   }
 162:../MY17/lib/MY17_Can_Library/MY17_Can_Library.c **** }
 447              		.loc 1 162 0
 448              		@ sp needed	@
 449 001a 10BD     		pop	{r4, pc}
 450              	.L76:
 451              	.LVL38:
 102:../MY17/lib/MY17_Can_Library/MY17_Can_Library.c ****     case FRONT_CAN_NODE_DRIVER_OUTPUT__id:
 452              		.loc 1 102 0
 453 001c B022     		mov	r2, #176	@ tmp126,
 454 001e 2388     		ldrh	r3, [r4]	@ lastMessage, lastMessage
 101:../MY17/lib/MY17_Can_Library/MY17_Can_Library.c ****   switch(id) {
 455              		.loc 1 101 0
 456 0020 E178     		ldrb	r1, [r4, #3]	@ first_byte,
 457              	.LVL39:
 102:../MY17/lib/MY17_Can_Library/MY17_Can_Library.c ****     case FRONT_CAN_NODE_DRIVER_OUTPUT__id:
 458              		.loc 1 102 0
 459 0022 5200     		lsl	r2, r2, #1	@ tmp126, tmp126,
 460 0024 9342     		cmp	r3, r2	@ lastMessage, tmp126
 461 0026 67D0     		beq	.L33	@,
 462 0028 12D9     		bls	.L77	@,
 463 002a C422     		mov	r2, #196	@ tmp128,
 464 002c 9200     		lsl	r2, r2, #2	@ tmp128, tmp128,
 465 002e 9342     		cmp	r3, r2	@ lastMessage, tmp128
 466 0030 58D0     		beq	.L46	@,
 467 0032 26D8     		bhi	.L47	@,
 468 0034 E03A     		sub	r2, r2, #224	@ tmp130,
 469 0036 9342     		cmp	r3, r2	@ lastMessage, tmp130
 470 0038 32D0     		beq	.L48	@,
 471 003a 4CD9     		bls	.L78	@,
 472 003c 324A     		ldr	r2, .L82+8	@ tmp133,
 108:../MY17/lib/MY17_Can_Library/MY17_Can_Library.c ****     case REAR_CAN_NODE_HEARTBEAT__id:
ARM GAS  /var/folders/9j/_txx49hn253_s3mnzkyxlj8m0000gp/T//cc5dK8On.s 			page 13


 473              		.loc 1 108 0
 474 003e 0520     		mov	r0, #5	@ D.9247,
 102:../MY17/lib/MY17_Can_Library/MY17_Can_Library.c ****     case FRONT_CAN_NODE_DRIVER_OUTPUT__id:
 475              		.loc 1 102 0
 476 0040 9342     		cmp	r3, r2	@ lastMessage, tmp133
 477 0042 EAD0     		beq	.L31	@,
 478 0044 2F32     		add	r2, r2, #47	@ tmp134,
 134:../MY17/lib/MY17_Can_Library/MY17_Can_Library.c **** 
 479              		.loc 1 134 0
 480 0046 0A30     		add	r0, r0, #10	@ D.9247,
 102:../MY17/lib/MY17_Can_Library/MY17_Can_Library.c ****     case FRONT_CAN_NODE_DRIVER_OUTPUT__id:
 481              		.loc 1 102 0
 482 0048 9342     		cmp	r3, r2	@ lastMessage, tmp134
 483 004a E6D0     		beq	.L31	@,
 484              	.L32:
 160:../MY17/lib/MY17_Can_Library/MY17_Can_Library.c ****   }
 485              		.loc 1 160 0
 486 004c 0120     		mov	r0, #1	@ D.9247,
 487 004e E4E7     		b	.L31	@
 488              	.L77:
 102:../MY17/lib/MY17_Can_Library/MY17_Can_Library.c ****     case FRONT_CAN_NODE_DRIVER_OUTPUT__id:
 489              		.loc 1 102 0
 490 0050 512B     		cmp	r3, #81	@ lastMessage,
 491 0052 4FD0     		beq	.L35	@,
 492 0054 0BD8     		bhi	.L36	@,
 493 0056 312B     		cmp	r3, #49	@ lastMessage,
 494 0058 26D0     		beq	.L37	@,
 495 005a 2CD9     		bls	.L79	@,
 112:../MY17/lib/MY17_Can_Library/MY17_Can_Library.c **** 
 496              		.loc 1 112 0
 497 005c 0720     		mov	r0, #7	@ D.9247,
 102:../MY17/lib/MY17_Can_Library/MY17_Can_Library.c ****     case FRONT_CAN_NODE_DRIVER_OUTPUT__id:
 498              		.loc 1 102 0
 499 005e 322B     		cmp	r3, #50	@ lastMessage,
 500 0060 DBD0     		beq	.L31	@,
 115:../MY17/lib/MY17_Can_Library/MY17_Can_Library.c ****     case VCU_DASH_HEARTBEAT__id:
 501              		.loc 1 115 0
 502 0062 0130     		add	r0, r0, #1	@ D.9247,
 102:../MY17/lib/MY17_Can_Library/MY17_Can_Library.c ****     case FRONT_CAN_NODE_DRIVER_OUTPUT__id:
 503              		.loc 1 102 0
 504 0064 502B     		cmp	r3, #80	@ lastMessage,
 505 0066 D8D0     		beq	.L31	@,
 506 0068 F0E7     		b	.L32	@
 507              	.LVL40:
 508              	.L58:
  95:../MY17/lib/MY17_Can_Library/MY17_Can_Library.c ****   } else if (lastError != Can_Error_NONE) {
 509              		.loc 1 95 0
 510 006a 0020     		mov	r0, #0	@ D.9247,
 511 006c D5E7     		b	.L31	@
 512              	.LVL41:
 513              	.L36:
 102:../MY17/lib/MY17_Can_Library/MY17_Can_Library.c ****     case FRONT_CAN_NODE_DRIVER_OUTPUT__id:
 514              		.loc 1 102 0
 515 006e 602B     		cmp	r3, #96	@ lastMessage,
 516 0070 18D0     		beq	.L41	@,
 517 0072 24D9     		bls	.L80	@,
 137:../MY17/lib/MY17_Can_Library/MY17_Can_Library.c ****     case DASH_REQUEST__id:
ARM GAS  /var/folders/9j/_txx49hn253_s3mnzkyxlj8m0000gp/T//cc5dK8On.s 			page 14


 518              		.loc 1 137 0
 519 0074 1020     		mov	r0, #16	@ D.9247,
 102:../MY17/lib/MY17_Can_Library/MY17_Can_Library.c ****     case FRONT_CAN_NODE_DRIVER_OUTPUT__id:
 520              		.loc 1 102 0
 521 0076 702B     		cmp	r3, #112	@ lastMessage,
 522 0078 CFD0     		beq	.L31	@,
 139:../MY17/lib/MY17_Can_Library/MY17_Can_Library.c **** 
 523              		.loc 1 139 0
 524 007a 0130     		add	r0, r0, #1	@ D.9247,
 102:../MY17/lib/MY17_Can_Library/MY17_Can_Library.c ****     case FRONT_CAN_NODE_DRIVER_OUTPUT__id:
 525              		.loc 1 102 0
 526 007c 712B     		cmp	r3, #113	@ lastMessage,
 527 007e CCD0     		beq	.L31	@,
 528 0080 E4E7     		b	.L32	@
 529              	.L47:
 530 0082 224A     		ldr	r2, .L82+12	@ tmp135,
 531 0084 9342     		cmp	r3, r2	@ lastMessage, tmp135
 532 0086 09D0     		beq	.L53	@,
 533 0088 10D9     		bls	.L81	@,
 534 008a 214A     		ldr	r2, .L82+16	@ tmp138,
 155:../MY17/lib/MY17_Can_Library/MY17_Can_Library.c ****     case CURRENT_SENSOR_ENERGY__id:
 535              		.loc 1 155 0
 536 008c 1720     		mov	r0, #23	@ D.9247,
 102:../MY17/lib/MY17_Can_Library/MY17_Can_Library.c ****     case FRONT_CAN_NODE_DRIVER_OUTPUT__id:
 537              		.loc 1 102 0
 538 008e 9342     		cmp	r3, r2	@ lastMessage, tmp138
 539 0090 C3D0     		beq	.L31	@,
 540 0092 0232     		add	r2, r2, #2	@ tmp139,
 157:../MY17/lib/MY17_Can_Library/MY17_Can_Library.c **** 
 541              		.loc 1 157 0
 542 0094 0130     		add	r0, r0, #1	@ D.9247,
 102:../MY17/lib/MY17_Can_Library/MY17_Can_Library.c ****     case FRONT_CAN_NODE_DRIVER_OUTPUT__id:
 543              		.loc 1 102 0
 544 0096 9342     		cmp	r3, r2	@ lastMessage, tmp139
 545 0098 BFD0     		beq	.L31	@,
 546 009a D7E7     		b	.L32	@
 547              	.L53:
 151:../MY17/lib/MY17_Can_Library/MY17_Can_Library.c ****     case CURRENT_SENSOR_CURRENT__id:
 548              		.loc 1 151 0
 549 009c 1620     		mov	r0, #22	@ D.9247,
 550 009e BCE7     		b	.L31	@
 551              	.L48:
 106:../MY17/lib/MY17_Can_Library/MY17_Can_Library.c ****     case FRONT_CAN_NODE_WHEEL_SPEED__id:
 552              		.loc 1 106 0
 553 00a0 0420     		mov	r0, #4	@ D.9247,
 554 00a2 BAE7     		b	.L31	@
 555              	.L41:
 128:../MY17/lib/MY17_Can_Library/MY17_Can_Library.c ****     case BMS_CELL_TEMPS__id:
 556              		.loc 1 128 0
 557 00a4 0C20     		mov	r0, #12	@ D.9247,
 558 00a6 B8E7     		b	.L31	@
 559              	.L37:
 110:../MY17/lib/MY17_Can_Library/MY17_Can_Library.c ****     case REAR_CAN_NODE_WHEEL_SPEED__id:
 560              		.loc 1 110 0
 561 00a8 0620     		mov	r0, #6	@ D.9247,
 562 00aa B6E7     		b	.L31	@
 563              	.L81:
ARM GAS  /var/folders/9j/_txx49hn253_s3mnzkyxlj8m0000gp/T//cc5dK8On.s 			page 15


 102:../MY17/lib/MY17_Can_Library/MY17_Can_Library.c ****     case FRONT_CAN_NODE_DRIVER_OUTPUT__id:
 564              		.loc 1 102 0
 565 00ac 194A     		ldr	r2, .L82+20	@ tmp137,
 153:../MY17/lib/MY17_Can_Library/MY17_Can_Library.c ****     case CURRENT_SENSOR_POWER__id:
 566              		.loc 1 153 0
 567 00ae 1520     		mov	r0, #21	@ D.9247,
 102:../MY17/lib/MY17_Can_Library/MY17_Can_Library.c ****     case FRONT_CAN_NODE_DRIVER_OUTPUT__id:
 568              		.loc 1 102 0
 569 00b0 9342     		cmp	r3, r2	@ lastMessage, tmp137
 570 00b2 B2D0     		beq	.L31	@,
 571 00b4 CAE7     		b	.L32	@
 572              	.L79:
 104:../MY17/lib/MY17_Can_Library/MY17_Can_Library.c ****     case FRONT_CAN_NODE_RAW_VALUES__id:
 573              		.loc 1 104 0
 574 00b6 0130     		add	r0, r0, #1	@ D.9247,
 102:../MY17/lib/MY17_Can_Library/MY17_Can_Library.c ****     case FRONT_CAN_NODE_DRIVER_OUTPUT__id:
 575              		.loc 1 102 0
 576 00b8 302B     		cmp	r3, #48	@ lastMessage,
 577 00ba AED0     		beq	.L31	@,
 578 00bc C6E7     		b	.L32	@
 579              	.L80:
 580 00be 522B     		cmp	r3, #82	@ lastMessage,
 581 00c0 C4D1     		bne	.L32	@,
 120:../MY17/lib/MY17_Can_Library/MY17_Can_Library.c ****       } else if (first_byte == CAN_MC_REG_TORQUE_CMD) {
 582              		.loc 1 120 0
 583 00c2 0A20     		mov	r0, #10	@ D.9247,
 119:../MY17/lib/MY17_Can_Library/MY17_Can_Library.c ****         return Can_Vcu_MCRequest_Msg;
 584              		.loc 1 119 0
 585 00c4 3D29     		cmp	r1, #61	@ first_byte,
 586 00c6 A8D0     		beq	.L31	@,
 119:../MY17/lib/MY17_Can_Library/MY17_Can_Library.c ****         return Can_Vcu_MCRequest_Msg;
 587              		.loc 1 119 0 is_stmt 0 discriminator 1
 588 00c8 5129     		cmp	r1, #81	@ first_byte,
 589 00ca A6D0     		beq	.L31	@,
 122:../MY17/lib/MY17_Can_Library/MY17_Can_Library.c ****       } else {
 590              		.loc 1 122 0 is_stmt 1
 591 00cc 0130     		add	r0, r0, #1	@ D.9247,
 121:../MY17/lib/MY17_Can_Library/MY17_Can_Library.c ****         return Can_Vcu_MCTorque_Msg;
 592              		.loc 1 121 0
 593 00ce 9029     		cmp	r1, #144	@ first_byte,
 594 00d0 A3D0     		beq	.L31	@,
 160:../MY17/lib/MY17_Can_Library/MY17_Can_Library.c ****   }
 595              		.loc 1 160 0
 596 00d2 0120     		mov	r0, #1	@ D.9247,
 597 00d4 A1E7     		b	.L31	@
 598              	.L78:
 102:../MY17/lib/MY17_Can_Library/MY17_Can_Library.c ****     case FRONT_CAN_NODE_DRIVER_OUTPUT__id:
 599              		.loc 1 102 0
 600 00d6 6222     		mov	r2, #98	@ tmp132,
 601 00d8 FF32     		add	r2, r2, #255	@ tmp132,
 132:../MY17/lib/MY17_Can_Library/MY17_Can_Library.c ****     case BMS_ERRORS__id:
 602              		.loc 1 132 0
 603 00da 0E20     		mov	r0, #14	@ D.9247,
 102:../MY17/lib/MY17_Can_Library/MY17_Can_Library.c ****     case FRONT_CAN_NODE_DRIVER_OUTPUT__id:
 604              		.loc 1 102 0
 605 00dc 9342     		cmp	r3, r2	@ lastMessage, tmp132
 606 00de 00D1     		bne	.LCB491	@
ARM GAS  /var/folders/9j/_txx49hn253_s3mnzkyxlj8m0000gp/T//cc5dK8On.s 			page 16


 607 00e0 9BE7     		b	.L31	@long jump	@
 608              	.LCB491:
 609 00e2 B3E7     		b	.L32	@
 610              	.L46:
 143:../MY17/lib/MY17_Can_Library/MY17_Can_Library.c ****       } else if (first_byte == CAN_MC_REG_STATE) {
 611              		.loc 1 143 0
 612 00e4 1320     		mov	r0, #19	@ D.9247,
 142:../MY17/lib/MY17_Can_Library/MY17_Can_Library.c ****         return Can_MC_ErrorAndWarning_Msg;
 613              		.loc 1 142 0
 614 00e6 8F29     		cmp	r1, #143	@ first_byte,
 615 00e8 00D1     		bne	.LCB498	@
 616 00ea 96E7     		b	.L31	@long jump	@
 617              	.LCB498:
 144:../MY17/lib/MY17_Can_Library/MY17_Can_Library.c ****         return Can_MC_State_Msg;
 618              		.loc 1 144 0
 619 00ec 4029     		cmp	r1, #64	@ first_byte,
 620 00ee 05D0     		beq	.L65	@,
 147:../MY17/lib/MY17_Can_Library/MY17_Can_Library.c ****       }
 621              		.loc 1 147 0
 622 00f0 0138     		sub	r0, r0, #1	@ D.9247,
 623 00f2 92E7     		b	.L31	@
 624              	.L35:
 117:../MY17/lib/MY17_Can_Library/MY17_Can_Library.c ****     case VCU_MC_MESSAGE__id:
 625              		.loc 1 117 0
 626 00f4 0920     		mov	r0, #9	@ D.9247,
 627 00f6 90E7     		b	.L31	@
 628              	.L33:
 130:../MY17/lib/MY17_Can_Library/MY17_Can_Library.c ****     case BMS_PACK_STATUS__id:
 629              		.loc 1 130 0
 630 00f8 0D20     		mov	r0, #13	@ D.9247,
 631 00fa 8EE7     		b	.L31	@
 632              	.L65:
 145:../MY17/lib/MY17_Can_Library/MY17_Can_Library.c ****       } else {
 633              		.loc 1 145 0
 634 00fc 1420     		mov	r0, #20	@ D.9247,
 635 00fe 8CE7     		b	.L31	@
 636              	.L83:
 637              		.align	2
 638              	.L82:
 639 0100 00000000 		.word	.LANCHOR0
 640 0104 00000000 		.word	.LANCHOR1
 641 0108 31020000 		.word	561
 642 010c 22050000 		.word	1314
 643 0110 26050000 		.word	1318
 644 0114 21050000 		.word	1313
 645              		.cfi_endproc
 646              	.LFE208:
 647              		.size	Can_MsgType, .-Can_MsgType
 648              		.section	.text.Can_Unknown_Read,"ax",%progbits
 649              		.align	2
 650              		.global	Can_Unknown_Read
 651              		.code	16
 652              		.thumb_func
 653              		.type	Can_Unknown_Read, %function
 654              	Can_Unknown_Read:
 655              	.LFB209:
 163:../MY17/lib/MY17_Can_Library/MY17_Can_Library.c **** 
ARM GAS  /var/folders/9j/_txx49hn253_s3mnzkyxlj8m0000gp/T//cc5dK8On.s 			page 17


 164:../MY17/lib/MY17_Can_Library/MY17_Can_Library.c **** // TODO this is a bit of a hack...unknown reads should follow same as regular reads
 165:../MY17/lib/MY17_Can_Library/MY17_Can_Library.c **** // and use of Can_RawRead must be banned.
 166:../MY17/lib/MY17_Can_Library/MY17_Can_Library.c **** Can_ErrorID_T Can_Unknown_Read(Frame *frame) {
 656              		.loc 1 166 0
 657              		.cfi_startproc
 658              	.LVL42:
 659 0000 70B5     		push	{r4, r5, r6, lr}	@
 660              		.cfi_def_cfa_offset 16
 661              		.cfi_offset 4, -16
 662              		.cfi_offset 5, -12
 663              		.cfi_offset 6, -8
 664              		.cfi_offset 14, -4
 167:../MY17/lib/MY17_Can_Library/MY17_Can_Library.c ****   if (lastError == Can_Error_NONE) {
 665              		.loc 1 167 0
 666 0002 0A4E     		ldr	r6, .L88	@ tmp161,
 667 0004 3578     		ldrb	r5, [r6]	@ D.9272, lastError
 668 0006 002D     		cmp	r5, #0	@ D.9272,
 669 0008 0ED1     		bne	.L85	@,
 670              	.LBB380:
 168:../MY17/lib/MY17_Can_Library/MY17_Can_Library.c ****     frame->id = lastMessage.id;
 671              		.loc 1 168 0
 672 000a 094C     		ldr	r4, .L88+4	@ tmp160,
 673 000c 2388     		ldrh	r3, [r4]	@ D.9273, lastMessage
 674 000e 0380     		strh	r3, [r0]	@ D.9273, frame_8(D)->id
 169:../MY17/lib/MY17_Can_Library/MY17_Can_Library.c ****     frame->len = lastMessage.len;
 675              		.loc 1 169 0
 676 0010 A378     		ldrb	r3, [r4, #2]	@ D.9274,
 677 0012 8370     		strb	r3, [r0, #2]	@ D.9274, frame_8(D)->len
 678              	.LVL43:
 679 0014 0023     		mov	r3, #0	@ ivtmp.323,
 680              	.LVL44:
 681              	.L86:
 682 0016 E218     		add	r2, r4, r3	@ D.9275, tmp160, ivtmp.323
 170:../MY17/lib/MY17_Can_Library/MY17_Can_Library.c ****     uint8_t i;
 171:../MY17/lib/MY17_Can_Library/MY17_Can_Library.c ****     for (i = 0; i < 8; i++) {
 172:../MY17/lib/MY17_Can_Library/MY17_Can_Library.c ****       frame->data[i] = lastMessage.data[i];
 683              		.loc 1 172 0 discriminator 3
 684 0018 D178     		ldrb	r1, [r2, #3]	@ D.9274, MEM[base: _21, offset: 3B]
 685 001a C218     		add	r2, r0, r3	@ D.9275, frame, ivtmp.323
 686 001c 0133     		add	r3, r3, #1	@ ivtmp.323,
 687              	.LVL45:
 688 001e D170     		strb	r1, [r2, #3]	@ D.9274, MEM[base: _22, offset: 3B]
 171:../MY17/lib/MY17_Can_Library/MY17_Can_Library.c ****       frame->data[i] = lastMessage.data[i];
 689              		.loc 1 171 0 discriminator 3
 690 0020 082B     		cmp	r3, #8	@ ivtmp.323,
 691 0022 F8D1     		bne	.L86	@,
 173:../MY17/lib/MY17_Can_Library/MY17_Can_Library.c ****     }
 174:../MY17/lib/MY17_Can_Library/MY17_Can_Library.c ****     lastError = Can_Error_NO_RX;
 692              		.loc 1 174 0
 693 0024 073B     		sub	r3, r3, #7	@ tmp157,
 694 0026 3370     		strb	r3, [r6]	@ tmp157, lastError
 695              	.L85:
 696              	.LBE380:
 175:../MY17/lib/MY17_Can_Library/MY17_Can_Library.c ****     return Can_Error_NONE;
 176:../MY17/lib/MY17_Can_Library/MY17_Can_Library.c ****   } else {
 177:../MY17/lib/MY17_Can_Library/MY17_Can_Library.c ****     return lastError;
 178:../MY17/lib/MY17_Can_Library/MY17_Can_Library.c ****   }
ARM GAS  /var/folders/9j/_txx49hn253_s3mnzkyxlj8m0000gp/T//cc5dK8On.s 			page 18


 179:../MY17/lib/MY17_Can_Library/MY17_Can_Library.c **** }
 697              		.loc 1 179 0
 698 0028 281C     		mov	r0, r5	@, D.9272
 699              	.LVL46:
 700              		@ sp needed	@
 701 002a 70BD     		pop	{r4, r5, r6, pc}
 702              	.L89:
 703              		.align	2
 704              	.L88:
 705 002c 00000000 		.word	.LANCHOR1
 706 0030 00000000 		.word	.LANCHOR0
 707              		.cfi_endproc
 708              	.LFE209:
 709              		.size	Can_Unknown_Read, .-Can_Unknown_Read
 710              		.section	.text.Can_Error_Read,"ax",%progbits
 711              		.align	2
 712              		.global	Can_Error_Read
 713              		.code	16
 714              		.thumb_func
 715              		.type	Can_Error_Read, %function
 716              	Can_Error_Read:
 717              	.LFB210:
 180:../MY17/lib/MY17_Can_Library/MY17_Can_Library.c **** 
 181:../MY17/lib/MY17_Can_Library/MY17_Can_Library.c **** Can_ErrorID_T Can_Error_Read(void) {
 718              		.loc 1 181 0
 719              		.cfi_startproc
 182:../MY17/lib/MY17_Can_Library/MY17_Can_Library.c ****   Can_ErrorID_T cachedError = lastError;
 183:../MY17/lib/MY17_Can_Library/MY17_Can_Library.c ****   lastError = Can_Error_NO_RX;
 720              		.loc 1 183 0
 721 0000 0122     		mov	r2, #1	@ tmp114,
 182:../MY17/lib/MY17_Can_Library/MY17_Can_Library.c ****   Can_ErrorID_T cachedError = lastError;
 722              		.loc 1 182 0
 723 0002 024B     		ldr	r3, .L91	@ tmp112,
 184:../MY17/lib/MY17_Can_Library/MY17_Can_Library.c ****   return cachedError;
 185:../MY17/lib/MY17_Can_Library/MY17_Can_Library.c **** }
 724              		.loc 1 185 0
 725              		@ sp needed	@
 182:../MY17/lib/MY17_Can_Library/MY17_Can_Library.c ****   Can_ErrorID_T cachedError = lastError;
 726              		.loc 1 182 0
 727 0004 1878     		ldrb	r0, [r3]	@ cachedError, lastError
 728              	.LVL47:
 183:../MY17/lib/MY17_Can_Library/MY17_Can_Library.c ****   return cachedError;
 729              		.loc 1 183 0
 730 0006 1A70     		strb	r2, [r3]	@ tmp114, lastError
 731              		.loc 1 185 0
 732 0008 7047     		bx	lr
 733              	.L92:
 734 000a C046     		.align	2
 735              	.L91:
 736 000c 00000000 		.word	.LANCHOR1
 737              		.cfi_endproc
 738              	.LFE210:
 739              		.size	Can_Error_Read, .-Can_Error_Read
 740              		.section	.text.Can_FrontCanNode_DriverOutput_ToCan,"ax",%progbits
 741              		.align	2
 742              		.global	Can_FrontCanNode_DriverOutput_ToCan
 743              		.code	16
ARM GAS  /var/folders/9j/_txx49hn253_s3mnzkyxlj8m0000gp/T//cc5dK8On.s 			page 19


 744              		.thumb_func
 745              		.type	Can_FrontCanNode_DriverOutput_ToCan, %function
 746              	Can_FrontCanNode_DriverOutput_ToCan:
 747              	.LFB211:
 186:../MY17/lib/MY17_Can_Library/MY17_Can_Library.c **** 
 187:../MY17/lib/MY17_Can_Library/MY17_Can_Library.c **** TO_CAN(Can_FrontCanNode_DriverOutput) {
 748              		.loc 1 187 0
 749              		.cfi_startproc
 750              	.LVL48:
 751 0000 70B5     		push	{r4, r5, r6, lr}	@
 752              		.cfi_def_cfa_offset 16
 753              		.cfi_offset 4, -16
 754              		.cfi_offset 5, -12
 755              		.cfi_offset 6, -8
 756              		.cfi_offset 14, -4
 188:../MY17/lib/MY17_Can_Library/MY17_Can_Library.c ****   uint64_t bitstring = 0;
 189:../MY17/lib/MY17_Can_Library/MY17_Can_Library.c ****   bitstring = INSERT(type_in->torque, bitstring, 0, 16);
 190:../MY17/lib/MY17_Can_Library/MY17_Can_Library.c ****   bitstring = INSERT(type_in->brake_pressure, bitstring, 16, 8);
 757              		.loc 1 190 0
 758 0002 8378     		ldrb	r3, [r0, #2]	@ tmp150,
 191:../MY17/lib/MY17_Can_Library/MY17_Can_Library.c ****   bitstring = INSERT(type_in->steering_position, bitstring, 24, 8);
 192:../MY17/lib/MY17_Can_Library/MY17_Can_Library.c ****   bitstring = INSERT(type_in->throttle_implausible, bitstring, 32, 1);
 193:../MY17/lib/MY17_Can_Library/MY17_Can_Library.c ****   bitstring = INSERT(type_in->brake_throttle_conflict, bitstring, 33, 1);
 194:../MY17/lib/MY17_Can_Library/MY17_Can_Library.c ****   bitstring = INSERT(type_in->brake_engaged, bitstring, 34, 1);
 195:../MY17/lib/MY17_Can_Library/MY17_Can_Library.c ****   from_bitstring(&bitstring, can_out->data);
 196:../MY17/lib/MY17_Can_Library/MY17_Can_Library.c ****   can_out->id = FRONT_CAN_NODE_DRIVER_OUTPUT__id;
 197:../MY17/lib/MY17_Can_Library/MY17_Can_Library.c ****   can_out->len = 5;
 198:../MY17/lib/MY17_Can_Library/MY17_Can_Library.c **** }
 759              		.loc 1 198 0
 760              		@ sp needed	@
 190:../MY17/lib/MY17_Can_Library/MY17_Can_Library.c ****   bitstring = INSERT(type_in->steering_position, bitstring, 24, 8);
 761              		.loc 1 190 0
 762 0004 1A02     		lsl	r2, r3, #8	@ D.9283, tmp150,
 189:../MY17/lib/MY17_Can_Library/MY17_Can_Library.c ****   bitstring = INSERT(type_in->brake_pressure, bitstring, 16, 8);
 763              		.loc 1 189 0
 764 0006 0024     		mov	r4, #0	@ tmp275,
 765 0008 035F     		ldrsh	r3, [r0, r4]	@ *type_in_2(D), type_in, tmp275
 192:../MY17/lib/MY17_Can_Library/MY17_Can_Library.c ****   bitstring = INSERT(type_in->brake_throttle_conflict, bitstring, 33, 1);
 766              		.loc 1 192 0
 767 000a 0479     		ldrb	r4, [r0, #4]	@ tmp177,
 189:../MY17/lib/MY17_Can_Library/MY17_Can_Library.c ****   bitstring = INSERT(type_in->brake_pressure, bitstring, 16, 8);
 768              		.loc 1 189 0
 769 000c 1B04     		lsl	r3, r3, #16	@ D.9283, *type_in_2(D),
 191:../MY17/lib/MY17_Can_Library/MY17_Can_Library.c ****   bitstring = INSERT(type_in->throttle_implausible, bitstring, 32, 1);
 770              		.loc 1 191 0
 771 000e 1343     		orr	r3, r2	@ D.9283, D.9283
 772              	.LVL49:
 773 0010 C278     		ldrb	r2, [r0, #3]	@ tmp167,
 192:../MY17/lib/MY17_Can_Library/MY17_Can_Library.c ****   bitstring = INSERT(type_in->brake_throttle_conflict, bitstring, 33, 1);
 774              		.loc 1 192 0
 775 0012 6608     		lsr	r6, r4, #1	@ tmp180, tmp177,
 191:../MY17/lib/MY17_Can_Library/MY17_Can_Library.c ****   bitstring = INSERT(type_in->throttle_implausible, bitstring, 32, 1);
 776              		.loc 1 191 0
 777 0014 1A43     		orr	r2, r3	@ bitstring, D.9283
 778              	.LVL50:
 193:../MY17/lib/MY17_Can_Library/MY17_Can_Library.c ****   bitstring = INSERT(type_in->brake_engaged, bitstring, 34, 1);
 779              		.loc 1 193 0
ARM GAS  /var/folders/9j/_txx49hn253_s3mnzkyxlj8m0000gp/T//cc5dK8On.s 			page 20


 780 0016 E307     		lsl	r3, r4, #31	@ D.9283, tmp177,
 781 0018 4479     		ldrb	r4, [r0, #5]	@ tmp187,
 192:../MY17/lib/MY17_Can_Library/MY17_Can_Library.c ****   bitstring = INSERT(type_in->brake_throttle_conflict, bitstring, 33, 1);
 782              		.loc 1 192 0
 783 001a 3243     		orr	r2, r6	@ bitstring, tmp180
 784              	.LVL51:
 193:../MY17/lib/MY17_Can_Library/MY17_Can_Library.c ****   bitstring = INSERT(type_in->brake_engaged, bitstring, 34, 1);
 785              		.loc 1 193 0
 786 001c A608     		lsr	r6, r4, #2	@ tmp190, tmp187,
 787 001e 3243     		orr	r2, r6	@ bitstring, tmp190
 788              	.LVL52:
 789 0020 151C     		mov	r5, r2	@ bitstring, bitstring
 194:../MY17/lib/MY17_Can_Library/MY17_Can_Library.c ****   from_bitstring(&bitstring, can_out->data);
 790              		.loc 1 194 0
 791 0022 8279     		ldrb	r2, [r0, #6]	@ tmp197,
 193:../MY17/lib/MY17_Can_Library/MY17_Can_Library.c ****   bitstring = INSERT(type_in->brake_engaged, bitstring, 34, 1);
 792              		.loc 1 193 0
 793 0024 A407     		lsl	r4, r4, #30	@ D.9283, tmp187,
 194:../MY17/lib/MY17_Can_Library/MY17_Can_Library.c ****   from_bitstring(&bitstring, can_out->data);
 794              		.loc 1 194 0
 795 0026 D008     		lsr	r0, r2, #3	@ tmp200, tmp197,
 796              	.LVL53:
 797 0028 2343     		orr	r3, r4	@ D.9283, D.9283
 798              	.LVL54:
 799 002a 5207     		lsl	r2, r2, #29	@ D.9283, tmp197,
 800 002c 1343     		orr	r3, r2	@ bitstring, D.9283
 801 002e 2A1C     		mov	r2, r5	@ bitstring, bitstring
 802              	.LBB381:
 803              	.LBB382:
 804              	.LBB383:
  36:../MY17/lib/MY17_Can_Library/MY17_Can_Library.c ****   }
 805              		.loc 1 36 0
 806 0030 8B72     		strb	r3, [r1, #10]	@ bitstring, MEM[(union DATA_T *)can_out_30(D) + 3B].byte
 807              	.LVL55:
 808              	.LBE383:
 809              	.LBE382:
 810              	.LBE381:
 194:../MY17/lib/MY17_Can_Library/MY17_Can_Library.c ****   from_bitstring(&bitstring, can_out->data);
 811              		.loc 1 194 0
 812 0032 0243     		orr	r2, r0	@ bitstring, tmp200
 813              	.LVL56:
 814              	.LBB392:
 815              	.LBB388:
 816              	.LBB384:
  36:../MY17/lib/MY17_Can_Library/MY17_Can_Library.c ****   }
 817              		.loc 1 36 0
 818 0034 1B0E     		lsr	r3, r3, #24	@ D.9284, bitstring,
 819              	.LVL57:
 820 0036 CB71     		strb	r3, [r1, #7]	@ D.9284, MEM[(union DATA_T *)can_out_30(D) + 3B].byte
 821 0038 130A     		lsr	r3, r2, #8	@ D.9284, bitstring,
 822 003a 4B71     		strb	r3, [r1, #5]	@ D.9284, MEM[(union DATA_T *)can_out_30(D) + 3B].byte
 823 003c 130C     		lsr	r3, r2, #16	@ D.9284, bitstring,
 824 003e 0B71     		strb	r3, [r1, #4]	@ D.9284, MEM[(union DATA_T *)can_out_30(D) + 3B].byte
 825              	.LBE384:
 826              	.LBE388:
 827              	.LBE392:
 196:../MY17/lib/MY17_Can_Library/MY17_Can_Library.c ****   can_out->len = 5;
ARM GAS  /var/folders/9j/_txx49hn253_s3mnzkyxlj8m0000gp/T//cc5dK8On.s 			page 21


 828              		.loc 1 196 0
 829 0040 3023     		mov	r3, #48	@ tmp229,
 830              	.LBB393:
 831              	.LBB389:
 832              	.LBB385:
  36:../MY17/lib/MY17_Can_Library/MY17_Can_Library.c ****   }
 833              		.loc 1 36 0
 834 0042 0024     		mov	r4, #0	@ D.9284,
 835 0044 8A71     		strb	r2, [r1, #6]	@ bitstring, MEM[(union DATA_T *)can_out_30(D) + 3B].byte
 836              	.LBE385:
 837              	.LBE389:
 838              	.LBE393:
 196:../MY17/lib/MY17_Can_Library/MY17_Can_Library.c ****   can_out->len = 5;
 839              		.loc 1 196 0
 840 0046 0B80     		strh	r3, [r1]	@ tmp229, can_out_30(D)->id
 841              	.LBB394:
 842              	.LBB390:
 843              	.LBB386:
  36:../MY17/lib/MY17_Can_Library/MY17_Can_Library.c ****   }
 844              		.loc 1 36 0
 845 0048 120E     		lsr	r2, r2, #24	@ D.9284, bitstring,
 846              	.LBE386:
 847              	.LBE390:
 848              	.LBE394:
 197:../MY17/lib/MY17_Can_Library/MY17_Can_Library.c **** }
 849              		.loc 1 197 0
 850 004a 2B3B     		sub	r3, r3, #43	@ tmp231,
 851              	.LBB395:
 852              	.LBB391:
 853              	.LBB387:
  36:../MY17/lib/MY17_Can_Library/MY17_Can_Library.c ****   }
 854              		.loc 1 36 0
 855 004c 4C72     		strb	r4, [r1, #9]	@ D.9284, MEM[(union DATA_T *)can_out_30(D) + 3B].byte
 856              	.LVL58:
 857 004e 0C72     		strb	r4, [r1, #8]	@ D.9284, MEM[(union DATA_T *)can_out_30(D) + 3B].byte
 858              	.LVL59:
 859 0050 CA70     		strb	r2, [r1, #3]	@ D.9284, MEM[(union DATA_T *)can_out_30(D) + 3B].byte
 860              	.LVL60:
 861              	.LBE387:
 862              	.LBE391:
 863              	.LBE395:
 197:../MY17/lib/MY17_Can_Library/MY17_Can_Library.c **** }
 864              		.loc 1 197 0
 865 0052 8B70     		strb	r3, [r1, #2]	@ tmp231, can_out_30(D)->len
 866              		.loc 1 198 0
 867 0054 70BD     		pop	{r4, r5, r6, pc}
 868              		.cfi_endproc
 869              	.LFE211:
 870              		.size	Can_FrontCanNode_DriverOutput_ToCan, .-Can_FrontCanNode_DriverOutput_ToCan
 871 0056 C046     		.section	.text.Can_FrontCanNode_DriverOutput_FromCan,"ax",%progbits
 872              		.align	2
 873              		.global	Can_FrontCanNode_DriverOutput_FromCan
 874              		.code	16
 875              		.thumb_func
 876              		.type	Can_FrontCanNode_DriverOutput_FromCan, %function
 877              	Can_FrontCanNode_DriverOutput_FromCan:
 878              	.LFB212:
ARM GAS  /var/folders/9j/_txx49hn253_s3mnzkyxlj8m0000gp/T//cc5dK8On.s 			page 22


 199:../MY17/lib/MY17_Can_Library/MY17_Can_Library.c **** 
 200:../MY17/lib/MY17_Can_Library/MY17_Can_Library.c **** FROM_CAN(Can_FrontCanNode_DriverOutput) {
 879              		.loc 1 200 0
 880              		.cfi_startproc
 881              	.LVL61:
 201:../MY17/lib/MY17_Can_Library/MY17_Can_Library.c ****   uint64_t bitstring = 0;
 882              		.loc 1 201 0
 883 0000 0022     		mov	r2, #0	@ tmp162,
 884 0002 0023     		mov	r3, #0	@,
 200:../MY17/lib/MY17_Can_Library/MY17_Can_Library.c ****   uint64_t bitstring = 0;
 885              		.loc 1 200 0
 886 0004 30B5     		push	{r4, r5, lr}	@
 887              		.cfi_def_cfa_offset 12
 888              		.cfi_offset 4, -12
 889              		.cfi_offset 5, -8
 890              		.cfi_offset 14, -4
 891 0006 83B0     		sub	sp, sp, #12	@,,
 892              		.cfi_def_cfa_offset 24
 893              		.loc 1 201 0
 894 0008 0092     		str	r2, [sp]	@ tmp162, bitstring
 895 000a 0193     		str	r3, [sp, #4]	@ tmp162,
 896              	.LVL62:
 897 000c 6A46     		mov	r2, sp	@ tmp212,
 898 000e C31C     		add	r3, r0, #3	@ ivtmp.345, can_in,
 899 0010 0732     		add	r2, r2, #7	@ ivtmp.347,
 900 0012 0B30     		add	r0, r0, #11	@ D.9307,
 901              	.LVL63:
 902              	.L95:
 903              	.LBB396:
 904              	.LBB397:
 905              	.LBB398:
  36:../MY17/lib/MY17_Can_Library/MY17_Can_Library.c ****   }
 906              		.loc 1 36 0
 907 0014 1C78     		ldrb	r4, [r3]	@ MEM[base: _42, offset: 0B], MEM[base: _42, offset: 0B]
 908 0016 0133     		add	r3, r3, #1	@ ivtmp.345,
 909              	.LVL64:
 910 0018 1470     		strb	r4, [r2]	@ MEM[base: _42, offset: 0B], MEM[base: _43, offset: 0B]
 911 001a 013A     		sub	r2, r2, #1	@ ivtmp.347,
  35:../MY17/lib/MY17_Can_Library/MY17_Can_Library.c ****     (*out).byte[7-i] = (*in).byte[i];
 912              		.loc 1 35 0
 913 001c 8342     		cmp	r3, r0	@ ivtmp.345, D.9307
 914 001e F9D1     		bne	.L95	@,
 915              	.LBE398:
 916              	.LBE397:
 917              	.LBE396:
 202:../MY17/lib/MY17_Can_Library/MY17_Can_Library.c ****   to_bitstring(can_in->data, &bitstring);
 203:../MY17/lib/MY17_Can_Library/MY17_Can_Library.c ****   type_out->torque = SIGN(EXTRACT(bitstring, 0, 16), 16);
 204:../MY17/lib/MY17_Can_Library/MY17_Can_Library.c ****   type_out->brake_pressure = EXTRACT(bitstring, 16, 8);
 205:../MY17/lib/MY17_Can_Library/MY17_Can_Library.c ****   type_out->steering_position = EXTRACT(bitstring, 24, 8);
 206:../MY17/lib/MY17_Can_Library/MY17_Can_Library.c ****   type_out->throttle_implausible = EXTRACT(bitstring, 32, 1);
 918              		.loc 1 206 0
 919 0020 0124     		mov	r4, #1	@ tmp180,
 203:../MY17/lib/MY17_Can_Library/MY17_Can_Library.c ****   type_out->brake_pressure = EXTRACT(bitstring, 16, 8);
 920              		.loc 1 203 0
 921 0022 019A     		ldr	r2, [sp, #4]	@ D.9299, bitstring
 922 0024 009B     		ldr	r3, [sp]	@ D.9299, bitstring
 923 0026 1014     		asr	r0, r2, #16	@ D.9300, D.9299,
ARM GAS  /var/folders/9j/_txx49hn253_s3mnzkyxlj8m0000gp/T//cc5dK8On.s 			page 23


 924              	.LVL65:
 925 0028 0880     		strh	r0, [r1]	@ D.9300, type_out_9(D)->torque
 204:../MY17/lib/MY17_Can_Library/MY17_Can_Library.c ****   type_out->steering_position = EXTRACT(bitstring, 24, 8);
 926              		.loc 1 204 0
 927 002a 100A     		lsr	r0, r2, #8	@ D.9299, D.9299,
 928 002c 8870     		strb	r0, [r1, #2]	@ D.9299, type_out_9(D)->brake_pressure
 929              		.loc 1 206 0
 930 002e D80F     		lsr	r0, r3, #31	@ tmp179, D.9299,
 207:../MY17/lib/MY17_Can_Library/MY17_Can_Library.c ****   type_out->brake_throttle_conflict = EXTRACT(bitstring, 33, 1);
 931              		.loc 1 207 0
 932 0030 9500     		lsl	r5, r2, #2	@ tmp183, D.9299,
 205:../MY17/lib/MY17_Can_Library/MY17_Can_Library.c ****   type_out->throttle_implausible = EXTRACT(bitstring, 32, 1);
 933              		.loc 1 205 0
 934 0032 CA70     		strb	r2, [r1, #3]	@ D.9299, type_out_9(D)->steering_position
 206:../MY17/lib/MY17_Can_Library/MY17_Can_Library.c ****   type_out->brake_throttle_conflict = EXTRACT(bitstring, 33, 1);
 935              		.loc 1 206 0
 936 0034 0871     		strb	r0, [r1, #4]	@ tmp179, type_out_9(D)->throttle_implausible
 208:../MY17/lib/MY17_Can_Library/MY17_Can_Library.c ****   type_out->brake_engaged = EXTRACT(bitstring, 34, 1);
 937              		.loc 1 208 0
 938 0036 D200     		lsl	r2, r2, #3	@ tmp191, D.9299,
 207:../MY17/lib/MY17_Can_Library/MY17_Can_Library.c ****   type_out->brake_engaged = EXTRACT(bitstring, 34, 1);
 939              		.loc 1 207 0
 940 0038 980F     		lsr	r0, r3, #30	@ D.9299, D.9299,
 941              		.loc 1 208 0
 942 003a 5B0F     		lsr	r3, r3, #29	@ D.9299, D.9299,
 207:../MY17/lib/MY17_Can_Library/MY17_Can_Library.c ****   type_out->brake_engaged = EXTRACT(bitstring, 34, 1);
 943              		.loc 1 207 0
 944 003c 2843     		orr	r0, r5	@ D.9299, tmp183
 945              		.loc 1 208 0
 946 003e 1343     		orr	r3, r2	@ D.9299, tmp191
 207:../MY17/lib/MY17_Can_Library/MY17_Can_Library.c ****   type_out->brake_engaged = EXTRACT(bitstring, 34, 1);
 947              		.loc 1 207 0
 948 0040 2040     		and	r0, r4	@ tmp187, tmp180
 949              		.loc 1 208 0
 950 0042 2340     		and	r3, r4	@ tmp195, tmp180
 207:../MY17/lib/MY17_Can_Library/MY17_Can_Library.c ****   type_out->brake_engaged = EXTRACT(bitstring, 34, 1);
 951              		.loc 1 207 0
 952 0044 4871     		strb	r0, [r1, #5]	@ tmp187, type_out_9(D)->brake_throttle_conflict
 953              		.loc 1 208 0
 954 0046 8B71     		strb	r3, [r1, #6]	@ tmp195, type_out_9(D)->brake_engaged
 209:../MY17/lib/MY17_Can_Library/MY17_Can_Library.c **** }
 955              		.loc 1 209 0
 956 0048 03B0     		add	sp, sp, #12	@,,
 957              	.LVL66:
 958              		@ sp needed	@
 959 004a 30BD     		pop	{r4, r5, pc}
 960              		.cfi_endproc
 961              	.LFE212:
 962              		.size	Can_FrontCanNode_DriverOutput_FromCan, .-Can_FrontCanNode_DriverOutput_FromCan
 963              		.section	.text.Can_FrontCanNode_RawValues_ToCan,"ax",%progbits
 964              		.align	2
 965              		.global	Can_FrontCanNode_RawValues_ToCan
 966              		.code	16
 967              		.thumb_func
 968              		.type	Can_FrontCanNode_RawValues_ToCan, %function
 969              	Can_FrontCanNode_RawValues_ToCan:
 970              	.LFB213:
ARM GAS  /var/folders/9j/_txx49hn253_s3mnzkyxlj8m0000gp/T//cc5dK8On.s 			page 24


 210:../MY17/lib/MY17_Can_Library/MY17_Can_Library.c **** 
 211:../MY17/lib/MY17_Can_Library/MY17_Can_Library.c **** TO_CAN(Can_FrontCanNode_RawValues) {
 971              		.loc 1 211 0
 972              		.cfi_startproc
 973              	.LVL67:
 212:../MY17/lib/MY17_Can_Library/MY17_Can_Library.c ****   uint64_t bitstring = 0;
 213:../MY17/lib/MY17_Can_Library/MY17_Can_Library.c ****   bitstring = INSERT(type_in->accel_1_raw, bitstring, 0, 10);
 214:../MY17/lib/MY17_Can_Library/MY17_Can_Library.c ****   bitstring = INSERT(type_in->accel_2_raw, bitstring, 10, 10);
 974              		.loc 1 214 0
 975 0000 4288     		ldrh	r2, [r0, #2]	@ tmp147,
 213:../MY17/lib/MY17_Can_Library/MY17_Can_Library.c ****   bitstring = INSERT(type_in->accel_2_raw, bitstring, 10, 10);
 976              		.loc 1 213 0
 977 0002 0388     		ldrh	r3, [r0]	@ *type_in_4(D), *type_in_4(D)
 978              		.loc 1 214 0
 979 0004 9205     		lsl	r2, r2, #22	@ tmp149, tmp147,
 213:../MY17/lib/MY17_Can_Library/MY17_Can_Library.c ****   bitstring = INSERT(type_in->accel_2_raw, bitstring, 10, 10);
 980              		.loc 1 213 0
 981 0006 9B05     		lsl	r3, r3, #22	@ D.9311, *type_in_4(D),
 982              		.loc 1 214 0
 983 0008 920A     		lsr	r2, r2, #10	@ D.9311, tmp149,
 215:../MY17/lib/MY17_Can_Library/MY17_Can_Library.c ****   bitstring = INSERT(type_in->brake_1_raw, bitstring, 20, 10);
 984              		.loc 1 215 0
 985 000a 1A43     		orr	r2, r3	@ D.9311, D.9311
 986              	.LVL68:
 987 000c 8388     		ldrh	r3, [r0, #4]	@ tmp166,
 211:../MY17/lib/MY17_Can_Library/MY17_Can_Library.c ****   uint64_t bitstring = 0;
 988              		.loc 1 211 0
 989 000e 30B5     		push	{r4, r5, lr}	@
 990              		.cfi_def_cfa_offset 12
 991              		.cfi_offset 4, -12
 992              		.cfi_offset 5, -8
 993              		.cfi_offset 14, -4
 994              		.loc 1 215 0
 995 0010 9B05     		lsl	r3, r3, #22	@ tmp168, tmp166,
 996 0012 1B0D     		lsr	r3, r3, #20	@ D.9311, tmp168,
 216:../MY17/lib/MY17_Can_Library/MY17_Can_Library.c ****   bitstring = INSERT(type_in->brake_2_raw, bitstring, 30, 10);
 997              		.loc 1 216 0
 998 0014 1A43     		orr	r2, r3	@ D.9311, D.9311
 999              	.LVL69:
 1000 0016 C388     		ldrh	r3, [r0, #6]	@ tmp178,
 217:../MY17/lib/MY17_Can_Library/MY17_Can_Library.c ****   bitstring = INSERT(type_in->steering_raw, bitstring, 40, 10);
 218:../MY17/lib/MY17_Can_Library/MY17_Can_Library.c ****   from_bitstring(&bitstring, can_out->data);
 219:../MY17/lib/MY17_Can_Library/MY17_Can_Library.c ****   can_out->id = FRONT_CAN_NODE_RAW_VALUES__id;
 220:../MY17/lib/MY17_Can_Library/MY17_Can_Library.c ****   can_out->len = 8;
 221:../MY17/lib/MY17_Can_Library/MY17_Can_Library.c **** }
 1001              		.loc 1 221 0
 1002              		@ sp needed	@
 216:../MY17/lib/MY17_Can_Library/MY17_Can_Library.c ****   bitstring = INSERT(type_in->brake_2_raw, bitstring, 30, 10);
 1003              		.loc 1 216 0
 1004 0018 9B05     		lsl	r3, r3, #22	@ tmp180, tmp178,
 1005 001a 9B0D     		lsr	r3, r3, #22	@ tmp182, tmp180,
 217:../MY17/lib/MY17_Can_Library/MY17_Can_Library.c ****   bitstring = INSERT(type_in->steering_raw, bitstring, 40, 10);
 1006              		.loc 1 217 0
 1007 001c 1D06     		lsl	r5, r3, #24	@ D.9311, tmp182,
 216:../MY17/lib/MY17_Can_Library/MY17_Can_Library.c ****   bitstring = INSERT(type_in->brake_2_raw, bitstring, 30, 10);
 1008              		.loc 1 216 0
 1009 001e 1C0A     		lsr	r4, r3, #8	@ tmp185, tmp182,
ARM GAS  /var/folders/9j/_txx49hn253_s3mnzkyxlj8m0000gp/T//cc5dK8On.s 			page 25


 217:../MY17/lib/MY17_Can_Library/MY17_Can_Library.c ****   bitstring = INSERT(type_in->steering_raw, bitstring, 40, 10);
 1010              		.loc 1 217 0
 1011 0020 0389     		ldrh	r3, [r0, #8]	@ tmp190,
 1012 0022 2243     		orr	r2, r4	@ bitstring, tmp185
 1013              	.LVL70:
 1014 0024 9B05     		lsl	r3, r3, #22	@ tmp192, tmp190,
 1015 0026 1B0A     		lsr	r3, r3, #8	@ D.9311, tmp192,
 1016 0028 2B43     		orr	r3, r5	@ bitstring, D.9311
 1017              	.LVL71:
 1018              	.LBB399:
 1019              	.LBB400:
 1020              	.LBB401:
  36:../MY17/lib/MY17_Can_Library/MY17_Can_Library.c ****   }
 1021              		.loc 1 36 0
 1022 002a 1C0A     		lsr	r4, r3, #8	@ D.9312, bitstring,
 1023 002c 8B72     		strb	r3, [r1, #10]	@ bitstring, MEM[(union DATA_T *)can_out_27(D) + 3B].byte
 1024              	.LVL72:
 1025 002e 4C72     		strb	r4, [r1, #9]	@ D.9312, MEM[(union DATA_T *)can_out_27(D) + 3B].byte
 1026              	.LVL73:
 1027 0030 1C0C     		lsr	r4, r3, #16	@ D.9312, bitstring,
 1028 0032 1B0E     		lsr	r3, r3, #24	@ D.9312, bitstring,
 1029              	.LVL74:
 1030 0034 CB71     		strb	r3, [r1, #7]	@ D.9312, MEM[(union DATA_T *)can_out_27(D) + 3B].byte
 1031 0036 130A     		lsr	r3, r2, #8	@ D.9312, bitstring,
 1032 0038 4B71     		strb	r3, [r1, #5]	@ D.9312, MEM[(union DATA_T *)can_out_27(D) + 3B].byte
 1033 003a 130C     		lsr	r3, r2, #16	@ D.9312, bitstring,
 1034 003c 0B71     		strb	r3, [r1, #4]	@ D.9312, MEM[(union DATA_T *)can_out_27(D) + 3B].byte
 1035              	.LBE401:
 1036              	.LBE400:
 1037              	.LBE399:
 219:../MY17/lib/MY17_Can_Library/MY17_Can_Library.c ****   can_out->len = 8;
 1038              		.loc 1 219 0
 1039 003e 8C23     		mov	r3, #140	@ tmp226,
 1040 0040 9B00     		lsl	r3, r3, #2	@ tmp226, tmp226,
 1041 0042 0B80     		strh	r3, [r1]	@ tmp226, can_out_27(D)->id
 220:../MY17/lib/MY17_Can_Library/MY17_Can_Library.c **** }
 1042              		.loc 1 220 0
 1043 0044 0823     		mov	r3, #8	@ tmp228,
 1044              	.LBB404:
 1045              	.LBB403:
 1046              	.LBB402:
  36:../MY17/lib/MY17_Can_Library/MY17_Can_Library.c ****   }
 1047              		.loc 1 36 0
 1048 0046 8A71     		strb	r2, [r1, #6]	@ bitstring, MEM[(union DATA_T *)can_out_27(D) + 3B].byte
 1049 0048 120E     		lsr	r2, r2, #24	@ D.9312, bitstring,
 1050 004a 0C72     		strb	r4, [r1, #8]	@ D.9312, MEM[(union DATA_T *)can_out_27(D) + 3B].byte
 1051              	.LVL75:
 1052 004c CA70     		strb	r2, [r1, #3]	@ D.9312, MEM[(union DATA_T *)can_out_27(D) + 3B].byte
 1053              	.LVL76:
 1054              	.LBE402:
 1055              	.LBE403:
 1056              	.LBE404:
 220:../MY17/lib/MY17_Can_Library/MY17_Can_Library.c **** }
 1057              		.loc 1 220 0
 1058 004e 8B70     		strb	r3, [r1, #2]	@ tmp228, can_out_27(D)->len
 1059              		.loc 1 221 0
 1060 0050 30BD     		pop	{r4, r5, pc}
ARM GAS  /var/folders/9j/_txx49hn253_s3mnzkyxlj8m0000gp/T//cc5dK8On.s 			page 26


 1061              		.cfi_endproc
 1062              	.LFE213:
 1063              		.size	Can_FrontCanNode_RawValues_ToCan, .-Can_FrontCanNode_RawValues_ToCan
 1064 0052 C046     		.section	.text.Can_FrontCanNode_RawValues_FromCan,"ax",%progbits
 1065              		.align	2
 1066              		.global	Can_FrontCanNode_RawValues_FromCan
 1067              		.code	16
 1068              		.thumb_func
 1069              		.type	Can_FrontCanNode_RawValues_FromCan, %function
 1070              	Can_FrontCanNode_RawValues_FromCan:
 1071              	.LFB214:
 222:../MY17/lib/MY17_Can_Library/MY17_Can_Library.c **** 
 223:../MY17/lib/MY17_Can_Library/MY17_Can_Library.c **** FROM_CAN(Can_FrontCanNode_RawValues) {
 1072              		.loc 1 223 0
 1073              		.cfi_startproc
 1074              	.LVL77:
 224:../MY17/lib/MY17_Can_Library/MY17_Can_Library.c ****   uint64_t bitstring = 0;
 1075              		.loc 1 224 0
 1076 0000 0022     		mov	r2, #0	@ tmp163,
 1077 0002 0023     		mov	r3, #0	@,
 223:../MY17/lib/MY17_Can_Library/MY17_Can_Library.c ****   uint64_t bitstring = 0;
 1078              		.loc 1 223 0
 1079 0004 10B5     		push	{r4, lr}	@
 1080              		.cfi_def_cfa_offset 8
 1081              		.cfi_offset 4, -8
 1082              		.cfi_offset 14, -4
 1083 0006 82B0     		sub	sp, sp, #8	@,,
 1084              		.cfi_def_cfa_offset 16
 1085              		.loc 1 224 0
 1086 0008 0092     		str	r2, [sp]	@ tmp163, bitstring
 1087 000a 0193     		str	r3, [sp, #4]	@ tmp163,
 1088              	.LVL78:
 1089 000c 6A46     		mov	r2, sp	@ tmp206,
 1090 000e C31C     		add	r3, r0, #3	@ ivtmp.360, can_in,
 1091 0010 0732     		add	r2, r2, #7	@ ivtmp.362,
 1092 0012 0B30     		add	r0, r0, #11	@ D.9332,
 1093              	.LVL79:
 1094              	.L99:
 1095              	.LBB405:
 1096              	.LBB406:
 1097              	.LBB407:
  36:../MY17/lib/MY17_Can_Library/MY17_Can_Library.c ****   }
 1098              		.loc 1 36 0
 1099 0014 1C78     		ldrb	r4, [r3]	@ MEM[base: _42, offset: 0B], MEM[base: _42, offset: 0B]
 1100 0016 0133     		add	r3, r3, #1	@ ivtmp.360,
 1101              	.LVL80:
 1102 0018 1470     		strb	r4, [r2]	@ MEM[base: _42, offset: 0B], MEM[base: _43, offset: 0B]
 1103 001a 013A     		sub	r2, r2, #1	@ ivtmp.362,
  35:../MY17/lib/MY17_Can_Library/MY17_Can_Library.c ****     (*out).byte[7-i] = (*in).byte[i];
 1104              		.loc 1 35 0
 1105 001c 8342     		cmp	r3, r0	@ ivtmp.360, D.9332
 1106 001e F9D1     		bne	.L99	@,
 1107              	.LBE407:
 1108              	.LBE406:
 1109              	.LBE405:
 225:../MY17/lib/MY17_Can_Library/MY17_Can_Library.c ****   to_bitstring(can_in->data, &bitstring);
 226:../MY17/lib/MY17_Can_Library/MY17_Can_Library.c ****   type_out->accel_1_raw = EXTRACT(bitstring, 0, 10);
ARM GAS  /var/folders/9j/_txx49hn253_s3mnzkyxlj8m0000gp/T//cc5dK8On.s 			page 27


 1110              		.loc 1 226 0
 1111 0020 019B     		ldr	r3, [sp, #4]	@ D.9326, bitstring
 1112 0022 009A     		ldr	r2, [sp]	@ D.9326, bitstring
 1113 0024 980D     		lsr	r0, r3, #22	@ D.9326, D.9326,
 1114              	.LVL81:
 1115 0026 0880     		strh	r0, [r1]	@ D.9326, type_out_8(D)->accel_1_raw
 227:../MY17/lib/MY17_Can_Library/MY17_Can_Library.c ****   type_out->accel_2_raw = EXTRACT(bitstring, 10, 10);
 1116              		.loc 1 227 0
 1117 0028 9802     		lsl	r0, r3, #10	@ tmp174, D.9326,
 1118 002a 800D     		lsr	r0, r0, #22	@ tmp173, tmp174,
 1119 002c 4880     		strh	r0, [r1, #2]	@ tmp173, type_out_8(D)->accel_2_raw
 228:../MY17/lib/MY17_Can_Library/MY17_Can_Library.c ****   type_out->brake_1_raw = EXTRACT(bitstring, 20, 10);
 1120              		.loc 1 228 0
 1121 002e 1805     		lsl	r0, r3, #20	@ tmp180, D.9326,
 1122 0030 800D     		lsr	r0, r0, #22	@ tmp179, tmp180,
 1123 0032 8880     		strh	r0, [r1, #4]	@ tmp179, type_out_8(D)->brake_1_raw
 229:../MY17/lib/MY17_Can_Library/MY17_Can_Library.c ****   type_out->brake_2_raw = EXTRACT(bitstring, 30, 10);
 1124              		.loc 1 229 0
 1125 0034 1802     		lsl	r0, r3, #8	@ tmp183, D.9326,
 1126 0036 130E     		lsr	r3, r2, #24	@ D.9326, D.9326,
 1127 0038 0343     		orr	r3, r0	@ D.9326, tmp183
 1128 003a 9B05     		lsl	r3, r3, #22	@ tmp186, D.9326,
 230:../MY17/lib/MY17_Can_Library/MY17_Can_Library.c ****   type_out->steering_raw = EXTRACT(bitstring, 40, 10);
 1129              		.loc 1 230 0
 1130 003c 1202     		lsl	r2, r2, #8	@ tmp192, D.9326,
 229:../MY17/lib/MY17_Can_Library/MY17_Can_Library.c ****   type_out->brake_2_raw = EXTRACT(bitstring, 30, 10);
 1131              		.loc 1 229 0
 1132 003e 9B0D     		lsr	r3, r3, #22	@ tmp185, tmp186,
 1133              		.loc 1 230 0
 1134 0040 920D     		lsr	r2, r2, #22	@ tmp191, tmp192,
 229:../MY17/lib/MY17_Can_Library/MY17_Can_Library.c ****   type_out->brake_2_raw = EXTRACT(bitstring, 30, 10);
 1135              		.loc 1 229 0
 1136 0042 CB80     		strh	r3, [r1, #6]	@ tmp185, type_out_8(D)->brake_2_raw
 1137              		.loc 1 230 0
 1138 0044 0A81     		strh	r2, [r1, #8]	@ tmp191, type_out_8(D)->steering_raw
 231:../MY17/lib/MY17_Can_Library/MY17_Can_Library.c **** }
 1139              		.loc 1 231 0
 1140 0046 02B0     		add	sp, sp, #8	@,,
 1141              	.LVL82:
 1142              		@ sp needed	@
 1143 0048 10BD     		pop	{r4, pc}
 1144              		.cfi_endproc
 1145              	.LFE214:
 1146              		.size	Can_FrontCanNode_RawValues_FromCan, .-Can_FrontCanNode_RawValues_FromCan
 1147 004a C046     		.section	.text.Can_FrontCanNode_WheelSpeed_ToCan,"ax",%progbits
 1148              		.align	2
 1149              		.global	Can_FrontCanNode_WheelSpeed_ToCan
 1150              		.code	16
 1151              		.thumb_func
 1152              		.type	Can_FrontCanNode_WheelSpeed_ToCan, %function
 1153              	Can_FrontCanNode_WheelSpeed_ToCan:
 1154              	.LFB215:
 232:../MY17/lib/MY17_Can_Library/MY17_Can_Library.c **** 
 233:../MY17/lib/MY17_Can_Library/MY17_Can_Library.c **** TO_CAN(Can_FrontCanNode_WheelSpeed) {
 1155              		.loc 1 233 0
 1156              		.cfi_startproc
 1157              	.LVL83:
ARM GAS  /var/folders/9j/_txx49hn253_s3mnzkyxlj8m0000gp/T//cc5dK8On.s 			page 28


 234:../MY17/lib/MY17_Can_Library/MY17_Can_Library.c ****   uint64_t bitstring = 0;
 235:../MY17/lib/MY17_Can_Library/MY17_Can_Library.c ****   bitstring = INSERT(type_in->front_right_wheel_speed, bitstring, 0, 32);
 236:../MY17/lib/MY17_Can_Library/MY17_Can_Library.c ****   bitstring = INSERT(type_in->front_left_wheel_speed, bitstring, 32, 32);
 237:../MY17/lib/MY17_Can_Library/MY17_Can_Library.c ****   from_bitstring(&bitstring, can_out->data);
 238:../MY17/lib/MY17_Can_Library/MY17_Can_Library.c ****   can_out->id = FRONT_CAN_NODE_WHEEL_SPEED__id;
 1158              		.loc 1 238 0
 1159 0000 0A4B     		ldr	r3, .L102	@ tmp162,
 235:../MY17/lib/MY17_Can_Library/MY17_Can_Library.c ****   bitstring = INSERT(type_in->front_left_wheel_speed, bitstring, 32, 32);
 1160              		.loc 1 235 0
 1161 0002 0268     		ldr	r2, [r0]	@ type_in_2(D)->front_right_wheel_speed, type_in_2(D)->front_right_wheel_speed
 236:../MY17/lib/MY17_Can_Library/MY17_Can_Library.c ****   from_bitstring(&bitstring, can_out->data);
 1162              		.loc 1 236 0
 1163 0004 4068     		ldr	r0, [r0, #4]	@ type_in_2(D)->front_left_wheel_speed, type_in_2(D)->front_left_wheel_speed
 1164              	.LVL84:
 1165              		.loc 1 238 0
 1166 0006 0B80     		strh	r3, [r1]	@ tmp162, can_out_9(D)->id
 239:../MY17/lib/MY17_Can_Library/MY17_Can_Library.c ****   can_out->len = 8;
 1167              		.loc 1 239 0
 1168 0008 0823     		mov	r3, #8	@ tmp164,
 233:../MY17/lib/MY17_Can_Library/MY17_Can_Library.c ****   uint64_t bitstring = 0;
 1169              		.loc 1 233 0
 1170 000a 10B5     		push	{r4, lr}	@
 1171              		.cfi_def_cfa_offset 8
 1172              		.cfi_offset 4, -8
 1173              		.cfi_offset 14, -4
 1174              	.LBB408:
 1175              	.LBB409:
 1176              	.LBB410:
  36:../MY17/lib/MY17_Can_Library/MY17_Can_Library.c ****   }
 1177              		.loc 1 36 0
 1178 000c 040A     		lsr	r4, r0, #8	@ D.9337, type_in_2(D)->front_left_wheel_speed,
 1179 000e 8872     		strb	r0, [r1, #10]	@ type_in_2(D)->front_left_wheel_speed, MEM[(union DATA_T *)can_out_9(D) + 3B].
 1180              	.LVL85:
 1181 0010 4C72     		strb	r4, [r1, #9]	@ D.9337, MEM[(union DATA_T *)can_out_9(D) + 3B].byte
 1182              	.LVL86:
 1183 0012 040C     		lsr	r4, r0, #16	@ D.9337, type_in_2(D)->front_left_wheel_speed,
 1184 0014 000E     		lsr	r0, r0, #24	@ D.9337, type_in_2(D)->front_left_wheel_speed,
 1185              	.LVL87:
 1186 0016 C871     		strb	r0, [r1, #7]	@ D.9337, MEM[(union DATA_T *)can_out_9(D) + 3B].byte
 1187 0018 100A     		lsr	r0, r2, #8	@ D.9337, type_in_2(D)->front_right_wheel_speed,
 1188 001a 8A71     		strb	r2, [r1, #6]	@ type_in_2(D)->front_right_wheel_speed, MEM[(union DATA_T *)can_out_9(D) + 3B].
 1189 001c 4871     		strb	r0, [r1, #5]	@ D.9337, MEM[(union DATA_T *)can_out_9(D) + 3B].byte
 1190 001e 100C     		lsr	r0, r2, #16	@ D.9337, type_in_2(D)->front_right_wheel_speed,
 1191 0020 120E     		lsr	r2, r2, #24	@ D.9337, type_in_2(D)->front_right_wheel_speed,
 1192 0022 0C72     		strb	r4, [r1, #8]	@ D.9337, MEM[(union DATA_T *)can_out_9(D) + 3B].byte
 1193              	.LVL88:
 1194 0024 0871     		strb	r0, [r1, #4]	@ D.9337, MEM[(union DATA_T *)can_out_9(D) + 3B].byte
 1195              	.LVL89:
 1196 0026 CA70     		strb	r2, [r1, #3]	@ D.9337, MEM[(union DATA_T *)can_out_9(D) + 3B].byte
 1197              	.LVL90:
 1198              	.LBE410:
 1199              	.LBE409:
 1200              	.LBE408:
 1201              		.loc 1 239 0
 1202 0028 8B70     		strb	r3, [r1, #2]	@ tmp164, can_out_9(D)->len
 240:../MY17/lib/MY17_Can_Library/MY17_Can_Library.c **** }
 1203              		.loc 1 240 0
ARM GAS  /var/folders/9j/_txx49hn253_s3mnzkyxlj8m0000gp/T//cc5dK8On.s 			page 29


 1204              		@ sp needed	@
 1205 002a 10BD     		pop	{r4, pc}
 1206              	.L103:
 1207              		.align	2
 1208              	.L102:
 1209 002c 31020000 		.word	561
 1210              		.cfi_endproc
 1211              	.LFE215:
 1212              		.size	Can_FrontCanNode_WheelSpeed_ToCan, .-Can_FrontCanNode_WheelSpeed_ToCan
 1213              		.section	.text.Can_FrontCanNode_WheelSpeed_FromCan,"ax",%progbits
 1214              		.align	2
 1215              		.global	Can_FrontCanNode_WheelSpeed_FromCan
 1216              		.code	16
 1217              		.thumb_func
 1218              		.type	Can_FrontCanNode_WheelSpeed_FromCan, %function
 1219              	Can_FrontCanNode_WheelSpeed_FromCan:
 1220              	.LFB216:
 241:../MY17/lib/MY17_Can_Library/MY17_Can_Library.c **** 
 242:../MY17/lib/MY17_Can_Library/MY17_Can_Library.c **** FROM_CAN(Can_FrontCanNode_WheelSpeed) {
 1221              		.loc 1 242 0
 1222              		.cfi_startproc
 1223              	.LVL91:
 243:../MY17/lib/MY17_Can_Library/MY17_Can_Library.c ****   uint64_t bitstring = 0;
 1224              		.loc 1 243 0
 1225 0000 0022     		mov	r2, #0	@ tmp152,
 1226 0002 0023     		mov	r3, #0	@,
 242:../MY17/lib/MY17_Can_Library/MY17_Can_Library.c ****   uint64_t bitstring = 0;
 1227              		.loc 1 242 0
 1228 0004 10B5     		push	{r4, lr}	@
 1229              		.cfi_def_cfa_offset 8
 1230              		.cfi_offset 4, -8
 1231              		.cfi_offset 14, -4
 1232 0006 82B0     		sub	sp, sp, #8	@,,
 1233              		.cfi_def_cfa_offset 16
 1234              		.loc 1 243 0
 1235 0008 0092     		str	r2, [sp]	@ tmp152, bitstring
 1236 000a 0193     		str	r3, [sp, #4]	@ tmp152,
 1237              	.LVL92:
 1238 000c 6A46     		mov	r2, sp	@ tmp164,
 1239 000e C31C     		add	r3, r0, #3	@ ivtmp.375, can_in,
 1240 0010 0732     		add	r2, r2, #7	@ ivtmp.377,
 1241 0012 0B30     		add	r0, r0, #11	@ D.9357,
 1242              	.LVL93:
 1243              	.L105:
 1244              	.LBB411:
 1245              	.LBB412:
 1246              	.LBB413:
  36:../MY17/lib/MY17_Can_Library/MY17_Can_Library.c ****   }
 1247              		.loc 1 36 0
 1248 0014 1C78     		ldrb	r4, [r3]	@ MEM[base: _28, offset: 0B], MEM[base: _28, offset: 0B]
 1249 0016 0133     		add	r3, r3, #1	@ ivtmp.375,
 1250              	.LVL94:
 1251 0018 1470     		strb	r4, [r2]	@ MEM[base: _28, offset: 0B], MEM[base: _29, offset: 0B]
 1252 001a 013A     		sub	r2, r2, #1	@ ivtmp.377,
  35:../MY17/lib/MY17_Can_Library/MY17_Can_Library.c ****     (*out).byte[7-i] = (*in).byte[i];
 1253              		.loc 1 35 0
 1254 001c 8342     		cmp	r3, r0	@ ivtmp.375, D.9357
ARM GAS  /var/folders/9j/_txx49hn253_s3mnzkyxlj8m0000gp/T//cc5dK8On.s 			page 30


 1255 001e F9D1     		bne	.L105	@,
 1256              	.LBE413:
 1257              	.LBE412:
 1258              	.LBE411:
 244:../MY17/lib/MY17_Can_Library/MY17_Can_Library.c ****   to_bitstring(can_in->data, &bitstring);
 245:../MY17/lib/MY17_Can_Library/MY17_Can_Library.c ****   type_out->front_right_wheel_speed = EXTRACT(bitstring, 0, 32);
 1259              		.loc 1 245 0
 1260 0020 019B     		ldr	r3, [sp, #4]	@ tmp165, bitstring
 1261 0022 0B60     		str	r3, [r1]	@ tmp165, type_out_8(D)->front_right_wheel_speed
 246:../MY17/lib/MY17_Can_Library/MY17_Can_Library.c ****   type_out->front_left_wheel_speed = EXTRACT(bitstring, 32, 32);
 1262              		.loc 1 246 0
 1263 0024 009B     		ldr	r3, [sp]	@ tmp166, bitstring
 1264 0026 4B60     		str	r3, [r1, #4]	@ tmp166, type_out_8(D)->front_left_wheel_speed
 247:../MY17/lib/MY17_Can_Library/MY17_Can_Library.c **** }
 1265              		.loc 1 247 0
 1266 0028 02B0     		add	sp, sp, #8	@,,
 1267              	.LVL95:
 1268              		@ sp needed	@
 1269 002a 10BD     		pop	{r4, pc}
 1270              		.cfi_endproc
 1271              	.LFE216:
 1272              		.size	Can_FrontCanNode_WheelSpeed_FromCan, .-Can_FrontCanNode_WheelSpeed_FromCan
 1273              		.section	.text.Can_RearCanNode_Heartbeat_ToCan,"ax",%progbits
 1274              		.align	2
 1275              		.global	Can_RearCanNode_Heartbeat_ToCan
 1276              		.code	16
 1277              		.thumb_func
 1278              		.type	Can_RearCanNode_Heartbeat_ToCan, %function
 1279              	Can_RearCanNode_Heartbeat_ToCan:
 1280              	.LFB217:
 248:../MY17/lib/MY17_Can_Library/MY17_Can_Library.c **** 
 249:../MY17/lib/MY17_Can_Library/MY17_Can_Library.c **** TO_CAN(Can_RearCanNode_Heartbeat) {
 1281              		.loc 1 249 0
 1282              		.cfi_startproc
 1283              	.LVL96:
 250:../MY17/lib/MY17_Can_Library/MY17_Can_Library.c ****   uint64_t bitstring = 0;
 251:../MY17/lib/MY17_Can_Library/MY17_Can_Library.c ****   bitstring = INSERT(type_in->is_alive, bitstring, 0, 1);
 252:../MY17/lib/MY17_Can_Library/MY17_Can_Library.c ****   from_bitstring(&bitstring, can_out->data);
 253:../MY17/lib/MY17_Can_Library/MY17_Can_Library.c ****   can_out->id = REAR_CAN_NODE_HEARTBEAT__id;
 1284              		.loc 1 253 0
 1285 0000 3123     		mov	r3, #49	@ tmp157,
 251:../MY17/lib/MY17_Can_Library/MY17_Can_Library.c ****   from_bitstring(&bitstring, can_out->data);
 1286              		.loc 1 251 0
 1287 0002 0278     		ldrb	r2, [r0]	@ *type_in_2(D), *type_in_2(D)
 249:../MY17/lib/MY17_Can_Library/MY17_Can_Library.c ****   uint64_t bitstring = 0;
 1288              		.loc 1 249 0
 1289 0004 10B5     		push	{r4, lr}	@
 1290              		.cfi_def_cfa_offset 8
 1291              		.cfi_offset 4, -8
 1292              		.cfi_offset 14, -4
 251:../MY17/lib/MY17_Can_Library/MY17_Can_Library.c ****   from_bitstring(&bitstring, can_out->data);
 1293              		.loc 1 251 0
 1294 0006 0020     		mov	r0, #0	@ tmp128,
 1295              	.LVL97:
 1296              	.LBB414:
 1297              	.LBB415:
 1298              	.LBB416:
ARM GAS  /var/folders/9j/_txx49hn253_s3mnzkyxlj8m0000gp/T//cc5dK8On.s 			page 31


  36:../MY17/lib/MY17_Can_Library/MY17_Can_Library.c ****   }
 1299              		.loc 1 36 0
 1300 0008 0024     		mov	r4, #0	@ D.9362,
 1301              	.LBE416:
 1302              	.LBE415:
 1303              	.LBE414:
 251:../MY17/lib/MY17_Can_Library/MY17_Can_Library.c ****   from_bitstring(&bitstring, can_out->data);
 1304              		.loc 1 251 0
 1305 000a D207     		lsl	r2, r2, #31	@ D.9361, *type_in_2(D),
 1306              	.LVL98:
 1307              	.LBB423:
 1308              	.LBB420:
 1309              	.LBB417:
  36:../MY17/lib/MY17_Can_Library/MY17_Can_Library.c ****   }
 1310              		.loc 1 36 0
 1311 000c 8A71     		strb	r2, [r1, #6]	@ D.9361, MEM[(union DATA_T *)can_out_6(D) + 3B].byte
 1312              	.LBE417:
 1313              	.LBE420:
 1314              	.LBE423:
 1315              		.loc 1 253 0
 1316 000e 0B80     		strh	r3, [r1]	@ tmp157, can_out_6(D)->id
 1317              	.LBB424:
 1318              	.LBB421:
 1319              	.LBB418:
  36:../MY17/lib/MY17_Can_Library/MY17_Can_Library.c ****   }
 1320              		.loc 1 36 0
 1321 0010 120E     		lsr	r2, r2, #24	@ D.9362, D.9361,
 1322              	.LVL99:
 1323              	.LBE418:
 1324              	.LBE421:
 1325              	.LBE424:
 254:../MY17/lib/MY17_Can_Library/MY17_Can_Library.c ****   can_out->len = 1;
 1326              		.loc 1 254 0
 1327 0012 303B     		sub	r3, r3, #48	@ tmp159,
 1328              	.LBB425:
 1329              	.LBB422:
 1330              	.LBB419:
  36:../MY17/lib/MY17_Can_Library/MY17_Can_Library.c ****   }
 1331              		.loc 1 36 0
 1332 0014 8872     		strb	r0, [r1, #10]	@ tmp128, MEM[(union DATA_T *)can_out_6(D) + 3B].byte
 1333              	.LVL100:
 1334 0016 4872     		strb	r0, [r1, #9]	@ tmp128, MEM[(union DATA_T *)can_out_6(D) + 3B].byte
 1335              	.LVL101:
 1336 0018 0872     		strb	r0, [r1, #8]	@ tmp128, MEM[(union DATA_T *)can_out_6(D) + 3B].byte
 1337              	.LVL102:
 1338 001a CC71     		strb	r4, [r1, #7]	@ D.9362, MEM[(union DATA_T *)can_out_6(D) + 3B].byte
 1339              	.LVL103:
 1340 001c 4871     		strb	r0, [r1, #5]	@ tmp128, MEM[(union DATA_T *)can_out_6(D) + 3B].byte
 1341              	.LVL104:
 1342 001e 0871     		strb	r0, [r1, #4]	@ tmp128, MEM[(union DATA_T *)can_out_6(D) + 3B].byte
 1343              	.LVL105:
 1344 0020 CA70     		strb	r2, [r1, #3]	@ D.9362, MEM[(union DATA_T *)can_out_6(D) + 3B].byte
 1345              	.LVL106:
 1346              	.LBE419:
 1347              	.LBE422:
 1348              	.LBE425:
 1349              		.loc 1 254 0
ARM GAS  /var/folders/9j/_txx49hn253_s3mnzkyxlj8m0000gp/T//cc5dK8On.s 			page 32


 1350 0022 8B70     		strb	r3, [r1, #2]	@ tmp159, can_out_6(D)->len
 255:../MY17/lib/MY17_Can_Library/MY17_Can_Library.c **** }
 1351              		.loc 1 255 0
 1352              		@ sp needed	@
 1353 0024 10BD     		pop	{r4, pc}
 1354              		.cfi_endproc
 1355              	.LFE217:
 1356              		.size	Can_RearCanNode_Heartbeat_ToCan, .-Can_RearCanNode_Heartbeat_ToCan
 1357 0026 C046     		.section	.text.Can_RearCanNode_Heartbeat_FromCan,"ax",%progbits
 1358              		.align	2
 1359              		.global	Can_RearCanNode_Heartbeat_FromCan
 1360              		.code	16
 1361              		.thumb_func
 1362              		.type	Can_RearCanNode_Heartbeat_FromCan, %function
 1363              	Can_RearCanNode_Heartbeat_FromCan:
 1364              	.LFB218:
 256:../MY17/lib/MY17_Can_Library/MY17_Can_Library.c **** 
 257:../MY17/lib/MY17_Can_Library/MY17_Can_Library.c **** FROM_CAN(Can_RearCanNode_Heartbeat) {
 1365              		.loc 1 257 0
 1366              		.cfi_startproc
 1367              	.LVL107:
 258:../MY17/lib/MY17_Can_Library/MY17_Can_Library.c ****   uint64_t bitstring = 0;
 1368              		.loc 1 258 0
 1369 0000 0022     		mov	r2, #0	@ tmp151,
 1370 0002 0023     		mov	r3, #0	@,
 257:../MY17/lib/MY17_Can_Library/MY17_Can_Library.c ****   uint64_t bitstring = 0;
 1371              		.loc 1 257 0
 1372 0004 10B5     		push	{r4, lr}	@
 1373              		.cfi_def_cfa_offset 8
 1374              		.cfi_offset 4, -8
 1375              		.cfi_offset 14, -4
 1376 0006 82B0     		sub	sp, sp, #8	@,,
 1377              		.cfi_def_cfa_offset 16
 1378              		.loc 1 258 0
 1379 0008 0092     		str	r2, [sp]	@ tmp151, bitstring
 1380 000a 0193     		str	r3, [sp, #4]	@ tmp151,
 1381              	.LVL108:
 1382 000c 6A46     		mov	r2, sp	@ tmp165,
 1383 000e C31C     		add	r3, r0, #3	@ ivtmp.390, can_in,
 1384 0010 0732     		add	r2, r2, #7	@ ivtmp.392,
 1385 0012 0B30     		add	r0, r0, #11	@ D.9382,
 1386              	.LVL109:
 1387              	.L109:
 1388              	.LBB426:
 1389              	.LBB427:
 1390              	.LBB428:
  36:../MY17/lib/MY17_Can_Library/MY17_Can_Library.c ****   }
 1391              		.loc 1 36 0
 1392 0014 1C78     		ldrb	r4, [r3]	@ MEM[base: _26, offset: 0B], MEM[base: _26, offset: 0B]
 1393 0016 0133     		add	r3, r3, #1	@ ivtmp.390,
 1394              	.LVL110:
 1395 0018 1470     		strb	r4, [r2]	@ MEM[base: _26, offset: 0B], MEM[base: _27, offset: 0B]
 1396 001a 013A     		sub	r2, r2, #1	@ ivtmp.392,
  35:../MY17/lib/MY17_Can_Library/MY17_Can_Library.c ****     (*out).byte[7-i] = (*in).byte[i];
 1397              		.loc 1 35 0
 1398 001c 8342     		cmp	r3, r0	@ ivtmp.390, D.9382
 1399 001e F9D1     		bne	.L109	@,
ARM GAS  /var/folders/9j/_txx49hn253_s3mnzkyxlj8m0000gp/T//cc5dK8On.s 			page 33


 1400              	.LBE428:
 1401              	.LBE427:
 1402              	.LBE426:
 259:../MY17/lib/MY17_Can_Library/MY17_Can_Library.c ****   to_bitstring(can_in->data, &bitstring);
 260:../MY17/lib/MY17_Can_Library/MY17_Can_Library.c ****   type_out->is_alive = EXTRACT(bitstring, 0, 1);
 1403              		.loc 1 260 0
 1404 0020 019B     		ldr	r3, [sp, #4]	@ tmp166, bitstring
 1405 0022 DB0F     		lsr	r3, r3, #31	@ D.9376, tmp166,
 1406 0024 0B70     		strb	r3, [r1]	@ D.9376, type_out_8(D)->is_alive
 261:../MY17/lib/MY17_Can_Library/MY17_Can_Library.c **** }
 1407              		.loc 1 261 0
 1408 0026 02B0     		add	sp, sp, #8	@,,
 1409              	.LVL111:
 1410              		@ sp needed	@
 1411 0028 10BD     		pop	{r4, pc}
 1412              		.cfi_endproc
 1413              	.LFE218:
 1414              		.size	Can_RearCanNode_Heartbeat_FromCan, .-Can_RearCanNode_Heartbeat_FromCan
 1415 002a C046     		.section	.text.Can_RearCanNode_WheelSpeed_ToCan,"ax",%progbits
 1416              		.align	2
 1417              		.global	Can_RearCanNode_WheelSpeed_ToCan
 1418              		.code	16
 1419              		.thumb_func
 1420              		.type	Can_RearCanNode_WheelSpeed_ToCan, %function
 1421              	Can_RearCanNode_WheelSpeed_ToCan:
 1422              	.LFB219:
 262:../MY17/lib/MY17_Can_Library/MY17_Can_Library.c **** 
 263:../MY17/lib/MY17_Can_Library/MY17_Can_Library.c **** TO_CAN(Can_RearCanNode_WheelSpeed) {
 1423              		.loc 1 263 0
 1424              		.cfi_startproc
 1425              	.LVL112:
 264:../MY17/lib/MY17_Can_Library/MY17_Can_Library.c ****   uint64_t bitstring = 0;
 265:../MY17/lib/MY17_Can_Library/MY17_Can_Library.c ****   bitstring = INSERT(type_in->rear_right_wheel_speed, bitstring, 0, 32);
 266:../MY17/lib/MY17_Can_Library/MY17_Can_Library.c ****   bitstring = INSERT(type_in->rear_left_wheel_speed, bitstring, 32, 32);
 267:../MY17/lib/MY17_Can_Library/MY17_Can_Library.c ****   from_bitstring(&bitstring, can_out->data);
 268:../MY17/lib/MY17_Can_Library/MY17_Can_Library.c ****   can_out->id = REAR_CAN_NODE_WHEEL_SPEED__id;
 1426              		.loc 1 268 0
 1427 0000 3223     		mov	r3, #50	@ tmp162,
 265:../MY17/lib/MY17_Can_Library/MY17_Can_Library.c ****   bitstring = INSERT(type_in->rear_left_wheel_speed, bitstring, 32, 32);
 1428              		.loc 1 265 0
 1429 0002 0268     		ldr	r2, [r0]	@ type_in_2(D)->rear_right_wheel_speed, type_in_2(D)->rear_right_wheel_speed
 266:../MY17/lib/MY17_Can_Library/MY17_Can_Library.c ****   from_bitstring(&bitstring, can_out->data);
 1430              		.loc 1 266 0
 1431 0004 4068     		ldr	r0, [r0, #4]	@ type_in_2(D)->rear_left_wheel_speed, type_in_2(D)->rear_left_wheel_speed
 1432              	.LVL113:
 263:../MY17/lib/MY17_Can_Library/MY17_Can_Library.c ****   uint64_t bitstring = 0;
 1433              		.loc 1 263 0
 1434 0006 10B5     		push	{r4, lr}	@
 1435              		.cfi_def_cfa_offset 8
 1436              		.cfi_offset 4, -8
 1437              		.cfi_offset 14, -4
 1438              	.LBB429:
 1439              	.LBB430:
 1440              	.LBB431:
  36:../MY17/lib/MY17_Can_Library/MY17_Can_Library.c ****   }
 1441              		.loc 1 36 0
 1442 0008 040A     		lsr	r4, r0, #8	@ D.9387, type_in_2(D)->rear_left_wheel_speed,
ARM GAS  /var/folders/9j/_txx49hn253_s3mnzkyxlj8m0000gp/T//cc5dK8On.s 			page 34


 1443 000a 8872     		strb	r0, [r1, #10]	@ type_in_2(D)->rear_left_wheel_speed, MEM[(union DATA_T *)can_out_9(D) + 3B].b
 1444              	.LVL114:
 1445 000c 4C72     		strb	r4, [r1, #9]	@ D.9387, MEM[(union DATA_T *)can_out_9(D) + 3B].byte
 1446              	.LVL115:
 1447 000e 040C     		lsr	r4, r0, #16	@ D.9387, type_in_2(D)->rear_left_wheel_speed,
 1448 0010 000E     		lsr	r0, r0, #24	@ D.9387, type_in_2(D)->rear_left_wheel_speed,
 1449              	.LVL116:
 1450 0012 C871     		strb	r0, [r1, #7]	@ D.9387, MEM[(union DATA_T *)can_out_9(D) + 3B].byte
 1451 0014 100A     		lsr	r0, r2, #8	@ D.9387, type_in_2(D)->rear_right_wheel_speed,
 1452 0016 8A71     		strb	r2, [r1, #6]	@ type_in_2(D)->rear_right_wheel_speed, MEM[(union DATA_T *)can_out_9(D) + 3B].b
 1453 0018 4871     		strb	r0, [r1, #5]	@ D.9387, MEM[(union DATA_T *)can_out_9(D) + 3B].byte
 1454              	.LBE431:
 1455              	.LBE430:
 1456              	.LBE429:
 1457              		.loc 1 268 0
 1458 001a 0B80     		strh	r3, [r1]	@ tmp162, can_out_9(D)->id
 1459              	.LBB436:
 1460              	.LBB434:
 1461              	.LBB432:
  36:../MY17/lib/MY17_Can_Library/MY17_Can_Library.c ****   }
 1462              		.loc 1 36 0
 1463 001c 100C     		lsr	r0, r2, #16	@ D.9387, type_in_2(D)->rear_right_wheel_speed,
 1464              	.LBE432:
 1465              	.LBE434:
 1466              	.LBE436:
 269:../MY17/lib/MY17_Can_Library/MY17_Can_Library.c ****   can_out->len = 8;
 1467              		.loc 1 269 0
 1468 001e 2A3B     		sub	r3, r3, #42	@ tmp164,
 1469              	.LBB437:
 1470              	.LBB435:
 1471              	.LBB433:
  36:../MY17/lib/MY17_Can_Library/MY17_Can_Library.c ****   }
 1472              		.loc 1 36 0
 1473 0020 120E     		lsr	r2, r2, #24	@ D.9387, type_in_2(D)->rear_right_wheel_speed,
 1474 0022 0C72     		strb	r4, [r1, #8]	@ D.9387, MEM[(union DATA_T *)can_out_9(D) + 3B].byte
 1475              	.LVL117:
 1476 0024 0871     		strb	r0, [r1, #4]	@ D.9387, MEM[(union DATA_T *)can_out_9(D) + 3B].byte
 1477              	.LVL118:
 1478 0026 CA70     		strb	r2, [r1, #3]	@ D.9387, MEM[(union DATA_T *)can_out_9(D) + 3B].byte
 1479              	.LVL119:
 1480              	.LBE433:
 1481              	.LBE435:
 1482              	.LBE437:
 1483              		.loc 1 269 0
 1484 0028 8B70     		strb	r3, [r1, #2]	@ tmp164, can_out_9(D)->len
 270:../MY17/lib/MY17_Can_Library/MY17_Can_Library.c **** }
 1485              		.loc 1 270 0
 1486              		@ sp needed	@
 1487 002a 10BD     		pop	{r4, pc}
 1488              		.cfi_endproc
 1489              	.LFE219:
 1490              		.size	Can_RearCanNode_WheelSpeed_ToCan, .-Can_RearCanNode_WheelSpeed_ToCan
 1491              		.section	.text.Can_RearCanNode_WheelSpeed_FromCan,"ax",%progbits
 1492              		.align	2
 1493              		.global	Can_RearCanNode_WheelSpeed_FromCan
 1494              		.code	16
 1495              		.thumb_func
ARM GAS  /var/folders/9j/_txx49hn253_s3mnzkyxlj8m0000gp/T//cc5dK8On.s 			page 35


 1496              		.type	Can_RearCanNode_WheelSpeed_FromCan, %function
 1497              	Can_RearCanNode_WheelSpeed_FromCan:
 1498              	.LFB220:
 271:../MY17/lib/MY17_Can_Library/MY17_Can_Library.c **** 
 272:../MY17/lib/MY17_Can_Library/MY17_Can_Library.c **** FROM_CAN(Can_RearCanNode_WheelSpeed) {
 1499              		.loc 1 272 0
 1500              		.cfi_startproc
 1501              	.LVL120:
 273:../MY17/lib/MY17_Can_Library/MY17_Can_Library.c ****   uint64_t bitstring = 0;
 1502              		.loc 1 273 0
 1503 0000 0022     		mov	r2, #0	@ tmp152,
 1504 0002 0023     		mov	r3, #0	@,
 272:../MY17/lib/MY17_Can_Library/MY17_Can_Library.c ****   uint64_t bitstring = 0;
 1505              		.loc 1 272 0
 1506 0004 10B5     		push	{r4, lr}	@
 1507              		.cfi_def_cfa_offset 8
 1508              		.cfi_offset 4, -8
 1509              		.cfi_offset 14, -4
 1510 0006 82B0     		sub	sp, sp, #8	@,,
 1511              		.cfi_def_cfa_offset 16
 1512              		.loc 1 273 0
 1513 0008 0092     		str	r2, [sp]	@ tmp152, bitstring
 1514 000a 0193     		str	r3, [sp, #4]	@ tmp152,
 1515              	.LVL121:
 1516 000c 6A46     		mov	r2, sp	@ tmp164,
 1517 000e C31C     		add	r3, r0, #3	@ ivtmp.405, can_in,
 1518 0010 0732     		add	r2, r2, #7	@ ivtmp.407,
 1519 0012 0B30     		add	r0, r0, #11	@ D.9407,
 1520              	.LVL122:
 1521              	.L113:
 1522              	.LBB438:
 1523              	.LBB439:
 1524              	.LBB440:
  36:../MY17/lib/MY17_Can_Library/MY17_Can_Library.c ****   }
 1525              		.loc 1 36 0
 1526 0014 1C78     		ldrb	r4, [r3]	@ MEM[base: _28, offset: 0B], MEM[base: _28, offset: 0B]
 1527 0016 0133     		add	r3, r3, #1	@ ivtmp.405,
 1528              	.LVL123:
 1529 0018 1470     		strb	r4, [r2]	@ MEM[base: _28, offset: 0B], MEM[base: _29, offset: 0B]
 1530 001a 013A     		sub	r2, r2, #1	@ ivtmp.407,
  35:../MY17/lib/MY17_Can_Library/MY17_Can_Library.c ****     (*out).byte[7-i] = (*in).byte[i];
 1531              		.loc 1 35 0
 1532 001c 8342     		cmp	r3, r0	@ ivtmp.405, D.9407
 1533 001e F9D1     		bne	.L113	@,
 1534              	.LBE440:
 1535              	.LBE439:
 1536              	.LBE438:
 274:../MY17/lib/MY17_Can_Library/MY17_Can_Library.c ****   to_bitstring(can_in->data, &bitstring);
 275:../MY17/lib/MY17_Can_Library/MY17_Can_Library.c ****   type_out->rear_right_wheel_speed = EXTRACT(bitstring, 0, 32);
 1537              		.loc 1 275 0
 1538 0020 019B     		ldr	r3, [sp, #4]	@ tmp165, bitstring
 1539 0022 0B60     		str	r3, [r1]	@ tmp165, type_out_8(D)->rear_right_wheel_speed
 276:../MY17/lib/MY17_Can_Library/MY17_Can_Library.c ****   type_out->rear_left_wheel_speed = EXTRACT(bitstring, 32, 32);
 1540              		.loc 1 276 0
 1541 0024 009B     		ldr	r3, [sp]	@ tmp166, bitstring
 1542 0026 4B60     		str	r3, [r1, #4]	@ tmp166, type_out_8(D)->rear_left_wheel_speed
 277:../MY17/lib/MY17_Can_Library/MY17_Can_Library.c **** }
ARM GAS  /var/folders/9j/_txx49hn253_s3mnzkyxlj8m0000gp/T//cc5dK8On.s 			page 36


 1543              		.loc 1 277 0
 1544 0028 02B0     		add	sp, sp, #8	@,,
 1545              	.LVL124:
 1546              		@ sp needed	@
 1547 002a 10BD     		pop	{r4, pc}
 1548              		.cfi_endproc
 1549              	.LFE220:
 1550              		.size	Can_RearCanNode_WheelSpeed_FromCan, .-Can_RearCanNode_WheelSpeed_FromCan
 1551              		.section	.text.Can_Vcu_BmsHeartbeat_ToCan,"ax",%progbits
 1552              		.align	2
 1553              		.global	Can_Vcu_BmsHeartbeat_ToCan
 1554              		.code	16
 1555              		.thumb_func
 1556              		.type	Can_Vcu_BmsHeartbeat_ToCan, %function
 1557              	Can_Vcu_BmsHeartbeat_ToCan:
 1558              	.LFB221:
 278:../MY17/lib/MY17_Can_Library/MY17_Can_Library.c **** 
 279:../MY17/lib/MY17_Can_Library/MY17_Can_Library.c **** TO_CAN(Can_Vcu_BmsHeartbeat) {
 1559              		.loc 1 279 0
 1560              		.cfi_startproc
 1561              	.LVL125:
 280:../MY17/lib/MY17_Can_Library/MY17_Can_Library.c ****   uint64_t bitstring = 0;
 281:../MY17/lib/MY17_Can_Library/MY17_Can_Library.c ****   bitstring = INSERT(type_in->alwaysTrue, bitstring, 0, 1);
 282:../MY17/lib/MY17_Can_Library/MY17_Can_Library.c ****   from_bitstring(&bitstring, can_out->data);
 283:../MY17/lib/MY17_Can_Library/MY17_Can_Library.c ****   can_out->id = VCU_BMS_HEARTBEAT__id;
 1562              		.loc 1 283 0
 1563 0000 5023     		mov	r3, #80	@ tmp157,
 281:../MY17/lib/MY17_Can_Library/MY17_Can_Library.c ****   from_bitstring(&bitstring, can_out->data);
 1564              		.loc 1 281 0
 1565 0002 0278     		ldrb	r2, [r0]	@ *type_in_2(D), *type_in_2(D)
 279:../MY17/lib/MY17_Can_Library/MY17_Can_Library.c ****   uint64_t bitstring = 0;
 1566              		.loc 1 279 0
 1567 0004 10B5     		push	{r4, lr}	@
 1568              		.cfi_def_cfa_offset 8
 1569              		.cfi_offset 4, -8
 1570              		.cfi_offset 14, -4
 281:../MY17/lib/MY17_Can_Library/MY17_Can_Library.c ****   from_bitstring(&bitstring, can_out->data);
 1571              		.loc 1 281 0
 1572 0006 0020     		mov	r0, #0	@ tmp128,
 1573              	.LVL126:
 1574              	.LBB441:
 1575              	.LBB442:
 1576              	.LBB443:
  36:../MY17/lib/MY17_Can_Library/MY17_Can_Library.c ****   }
 1577              		.loc 1 36 0
 1578 0008 0024     		mov	r4, #0	@ D.9412,
 1579              	.LBE443:
 1580              	.LBE442:
 1581              	.LBE441:
 281:../MY17/lib/MY17_Can_Library/MY17_Can_Library.c ****   from_bitstring(&bitstring, can_out->data);
 1582              		.loc 1 281 0
 1583 000a D207     		lsl	r2, r2, #31	@ D.9411, *type_in_2(D),
 1584              	.LVL127:
 1585              	.LBB450:
 1586              	.LBB447:
 1587              	.LBB444:
  36:../MY17/lib/MY17_Can_Library/MY17_Can_Library.c ****   }
ARM GAS  /var/folders/9j/_txx49hn253_s3mnzkyxlj8m0000gp/T//cc5dK8On.s 			page 37


 1588              		.loc 1 36 0
 1589 000c 8A71     		strb	r2, [r1, #6]	@ D.9411, MEM[(union DATA_T *)can_out_6(D) + 3B].byte
 1590              	.LBE444:
 1591              	.LBE447:
 1592              	.LBE450:
 1593              		.loc 1 283 0
 1594 000e 0B80     		strh	r3, [r1]	@ tmp157, can_out_6(D)->id
 1595              	.LBB451:
 1596              	.LBB448:
 1597              	.LBB445:
  36:../MY17/lib/MY17_Can_Library/MY17_Can_Library.c ****   }
 1598              		.loc 1 36 0
 1599 0010 120E     		lsr	r2, r2, #24	@ D.9412, D.9411,
 1600              	.LVL128:
 1601              	.LBE445:
 1602              	.LBE448:
 1603              	.LBE451:
 284:../MY17/lib/MY17_Can_Library/MY17_Can_Library.c ****   can_out->len = 1;
 1604              		.loc 1 284 0
 1605 0012 4F3B     		sub	r3, r3, #79	@ tmp159,
 1606              	.LBB452:
 1607              	.LBB449:
 1608              	.LBB446:
  36:../MY17/lib/MY17_Can_Library/MY17_Can_Library.c ****   }
 1609              		.loc 1 36 0
 1610 0014 8872     		strb	r0, [r1, #10]	@ tmp128, MEM[(union DATA_T *)can_out_6(D) + 3B].byte
 1611              	.LVL129:
 1612 0016 4872     		strb	r0, [r1, #9]	@ tmp128, MEM[(union DATA_T *)can_out_6(D) + 3B].byte
 1613              	.LVL130:
 1614 0018 0872     		strb	r0, [r1, #8]	@ tmp128, MEM[(union DATA_T *)can_out_6(D) + 3B].byte
 1615              	.LVL131:
 1616 001a CC71     		strb	r4, [r1, #7]	@ D.9412, MEM[(union DATA_T *)can_out_6(D) + 3B].byte
 1617              	.LVL132:
 1618 001c 4871     		strb	r0, [r1, #5]	@ tmp128, MEM[(union DATA_T *)can_out_6(D) + 3B].byte
 1619              	.LVL133:
 1620 001e 0871     		strb	r0, [r1, #4]	@ tmp128, MEM[(union DATA_T *)can_out_6(D) + 3B].byte
 1621              	.LVL134:
 1622 0020 CA70     		strb	r2, [r1, #3]	@ D.9412, MEM[(union DATA_T *)can_out_6(D) + 3B].byte
 1623              	.LVL135:
 1624              	.LBE446:
 1625              	.LBE449:
 1626              	.LBE452:
 1627              		.loc 1 284 0
 1628 0022 8B70     		strb	r3, [r1, #2]	@ tmp159, can_out_6(D)->len
 285:../MY17/lib/MY17_Can_Library/MY17_Can_Library.c **** }
 1629              		.loc 1 285 0
 1630              		@ sp needed	@
 1631 0024 10BD     		pop	{r4, pc}
 1632              		.cfi_endproc
 1633              	.LFE221:
 1634              		.size	Can_Vcu_BmsHeartbeat_ToCan, .-Can_Vcu_BmsHeartbeat_ToCan
 1635 0026 C046     		.section	.text.Can_Vcu_BmsHeartbeat_FromCan,"ax",%progbits
 1636              		.align	2
 1637              		.global	Can_Vcu_BmsHeartbeat_FromCan
 1638              		.code	16
 1639              		.thumb_func
 1640              		.type	Can_Vcu_BmsHeartbeat_FromCan, %function
ARM GAS  /var/folders/9j/_txx49hn253_s3mnzkyxlj8m0000gp/T//cc5dK8On.s 			page 38


 1641              	Can_Vcu_BmsHeartbeat_FromCan:
 1642              	.LFB222:
 286:../MY17/lib/MY17_Can_Library/MY17_Can_Library.c **** 
 287:../MY17/lib/MY17_Can_Library/MY17_Can_Library.c **** FROM_CAN(Can_Vcu_BmsHeartbeat) {
 1643              		.loc 1 287 0
 1644              		.cfi_startproc
 1645              	.LVL136:
 288:../MY17/lib/MY17_Can_Library/MY17_Can_Library.c ****   uint64_t bitstring = 0;
 1646              		.loc 1 288 0
 1647 0000 0022     		mov	r2, #0	@ tmp151,
 1648 0002 0023     		mov	r3, #0	@,
 287:../MY17/lib/MY17_Can_Library/MY17_Can_Library.c ****   uint64_t bitstring = 0;
 1649              		.loc 1 287 0
 1650 0004 10B5     		push	{r4, lr}	@
 1651              		.cfi_def_cfa_offset 8
 1652              		.cfi_offset 4, -8
 1653              		.cfi_offset 14, -4
 1654 0006 82B0     		sub	sp, sp, #8	@,,
 1655              		.cfi_def_cfa_offset 16
 1656              		.loc 1 288 0
 1657 0008 0092     		str	r2, [sp]	@ tmp151, bitstring
 1658 000a 0193     		str	r3, [sp, #4]	@ tmp151,
 1659              	.LVL137:
 1660 000c 6A46     		mov	r2, sp	@ tmp165,
 1661 000e C31C     		add	r3, r0, #3	@ ivtmp.420, can_in,
 1662 0010 0732     		add	r2, r2, #7	@ ivtmp.422,
 1663 0012 0B30     		add	r0, r0, #11	@ D.9432,
 1664              	.LVL138:
 1665              	.L117:
 1666              	.LBB453:
 1667              	.LBB454:
 1668              	.LBB455:
  36:../MY17/lib/MY17_Can_Library/MY17_Can_Library.c ****   }
 1669              		.loc 1 36 0
 1670 0014 1C78     		ldrb	r4, [r3]	@ MEM[base: _26, offset: 0B], MEM[base: _26, offset: 0B]
 1671 0016 0133     		add	r3, r3, #1	@ ivtmp.420,
 1672              	.LVL139:
 1673 0018 1470     		strb	r4, [r2]	@ MEM[base: _26, offset: 0B], MEM[base: _27, offset: 0B]
 1674 001a 013A     		sub	r2, r2, #1	@ ivtmp.422,
  35:../MY17/lib/MY17_Can_Library/MY17_Can_Library.c ****     (*out).byte[7-i] = (*in).byte[i];
 1675              		.loc 1 35 0
 1676 001c 8342     		cmp	r3, r0	@ ivtmp.420, D.9432
 1677 001e F9D1     		bne	.L117	@,
 1678              	.LBE455:
 1679              	.LBE454:
 1680              	.LBE453:
 289:../MY17/lib/MY17_Can_Library/MY17_Can_Library.c ****   to_bitstring(can_in->data, &bitstring);
 290:../MY17/lib/MY17_Can_Library/MY17_Can_Library.c ****   type_out->alwaysTrue = EXTRACT(bitstring, 0, 1);
 1681              		.loc 1 290 0
 1682 0020 019B     		ldr	r3, [sp, #4]	@ tmp166, bitstring
 1683 0022 DB0F     		lsr	r3, r3, #31	@ D.9426, tmp166,
 1684 0024 0B70     		strb	r3, [r1]	@ D.9426, type_out_8(D)->alwaysTrue
 291:../MY17/lib/MY17_Can_Library/MY17_Can_Library.c **** }
 1685              		.loc 1 291 0
 1686 0026 02B0     		add	sp, sp, #8	@,,
 1687              	.LVL140:
 1688              		@ sp needed	@
ARM GAS  /var/folders/9j/_txx49hn253_s3mnzkyxlj8m0000gp/T//cc5dK8On.s 			page 39


 1689 0028 10BD     		pop	{r4, pc}
 1690              		.cfi_endproc
 1691              	.LFE222:
 1692              		.size	Can_Vcu_BmsHeartbeat_FromCan, .-Can_Vcu_BmsHeartbeat_FromCan
 1693 002a C046     		.section	.text.Can_Vcu_DashHeartbeat_ToCan,"ax",%progbits
 1694              		.align	2
 1695              		.global	Can_Vcu_DashHeartbeat_ToCan
 1696              		.code	16
 1697              		.thumb_func
 1698              		.type	Can_Vcu_DashHeartbeat_ToCan, %function
 1699              	Can_Vcu_DashHeartbeat_ToCan:
 1700              	.LFB223:
 292:../MY17/lib/MY17_Can_Library/MY17_Can_Library.c **** 
 293:../MY17/lib/MY17_Can_Library/MY17_Can_Library.c **** TO_CAN(Can_Vcu_DashHeartbeat) {
 1701              		.loc 1 293 0
 1702              		.cfi_startproc
 1703              	.LVL141:
 294:../MY17/lib/MY17_Can_Library/MY17_Can_Library.c ****   uint64_t bitstring = 0;
 295:../MY17/lib/MY17_Can_Library/MY17_Can_Library.c ****   bitstring = INSERT(type_in->rtd_light, bitstring, 0, 1);
 296:../MY17/lib/MY17_Can_Library/MY17_Can_Library.c ****   bitstring = INSERT(type_in->ams_light, bitstring, 1, 1);
 1704              		.loc 1 296 0
 1705 0000 4378     		ldrb	r3, [r0, #1]	@ tmp266,
 295:../MY17/lib/MY17_Can_Library/MY17_Can_Library.c ****   bitstring = INSERT(type_in->ams_light, bitstring, 1, 1);
 1706              		.loc 1 295 0
 1707 0002 0278     		ldrb	r2, [r0]	@ *type_in_2(D), *type_in_2(D)
 293:../MY17/lib/MY17_Can_Library/MY17_Can_Library.c ****   uint64_t bitstring = 0;
 1708              		.loc 1 293 0
 1709 0004 F0B5     		push	{r4, r5, r6, r7, lr}	@
 1710              		.cfi_def_cfa_offset 20
 1711              		.cfi_offset 4, -20
 1712              		.cfi_offset 5, -16
 1713              		.cfi_offset 6, -12
 1714              		.cfi_offset 7, -8
 1715              		.cfi_offset 14, -4
 1716              		.loc 1 296 0
 1717 0006 9C07     		lsl	r4, r3, #30	@ D.9436, tmp266,
 295:../MY17/lib/MY17_Can_Library/MY17_Can_Library.c ****   bitstring = INSERT(type_in->ams_light, bitstring, 1, 1);
 1718              		.loc 1 295 0
 1719 0008 D307     		lsl	r3, r2, #31	@ D.9436, *type_in_2(D),
 297:../MY17/lib/MY17_Can_Library/MY17_Can_Library.c ****   bitstring = INSERT(type_in->imd_light, bitstring, 2, 1);
 1720              		.loc 1 297 0
 1721 000a 8278     		ldrb	r2, [r0, #2]	@ tmp283,
 1722 000c 2343     		orr	r3, r4	@ D.9436, D.9436
 1723              	.LVL142:
 1724 000e 5207     		lsl	r2, r2, #29	@ D.9436, tmp283,
 298:../MY17/lib/MY17_Can_Library/MY17_Can_Library.c ****   bitstring = INSERT(type_in->hv_light, bitstring, 3, 1);
 1725              		.loc 1 298 0
 1726 0010 1343     		orr	r3, r2	@ D.9436, D.9436
 1727              	.LVL143:
 1728 0012 C278     		ldrb	r2, [r0, #3]	@ tmp293,
 299:../MY17/lib/MY17_Can_Library/MY17_Can_Library.c ****   bitstring = INSERT(type_in->traction_control, bitstring, 4, 1);
 300:../MY17/lib/MY17_Can_Library/MY17_Can_Library.c ****   bitstring = INSERT(type_in->limp_mode, bitstring, 5, 1);
 301:../MY17/lib/MY17_Can_Library/MY17_Can_Library.c ****   bitstring = INSERT(type_in->lv_warning, bitstring, 6, 1);
 302:../MY17/lib/MY17_Can_Library/MY17_Can_Library.c ****   bitstring = INSERT(type_in->active_aero, bitstring, 7, 1);
 303:../MY17/lib/MY17_Can_Library/MY17_Can_Library.c ****   bitstring = INSERT(type_in->regen, bitstring, 8, 1);
 304:../MY17/lib/MY17_Can_Library/MY17_Can_Library.c ****   bitstring = INSERT(type_in->shutdown_esd_drain, bitstring, 9, 1);
 305:../MY17/lib/MY17_Can_Library/MY17_Can_Library.c ****   bitstring = INSERT(type_in->shutdown_bms, bitstring, 10, 1);
ARM GAS  /var/folders/9j/_txx49hn253_s3mnzkyxlj8m0000gp/T//cc5dK8On.s 			page 40


 306:../MY17/lib/MY17_Can_Library/MY17_Can_Library.c ****   bitstring = INSERT(type_in->shutdown_imd, bitstring, 11, 1);
 307:../MY17/lib/MY17_Can_Library/MY17_Can_Library.c ****   bitstring = INSERT(type_in->shutdown_bspd, bitstring, 12, 1);
 308:../MY17/lib/MY17_Can_Library/MY17_Can_Library.c ****   bitstring = INSERT(type_in->shutdown_vcu, bitstring, 13, 1);
 309:../MY17/lib/MY17_Can_Library/MY17_Can_Library.c ****   bitstring = INSERT(type_in->shutdown_precharge, bitstring, 14, 1);
 310:../MY17/lib/MY17_Can_Library/MY17_Can_Library.c ****   bitstring = INSERT(type_in->shutdown_master_reset, bitstring, 15, 1);
 311:../MY17/lib/MY17_Can_Library/MY17_Can_Library.c ****   bitstring = INSERT(type_in->shutdown_driver_reset, bitstring, 16, 1);
 312:../MY17/lib/MY17_Can_Library/MY17_Can_Library.c ****   bitstring = INSERT(type_in->heartbeat_front_can_node_dead, bitstring, 25, 1);
 313:../MY17/lib/MY17_Can_Library/MY17_Can_Library.c ****   bitstring = INSERT(type_in->heartbeat_rear_can_node_dead, bitstring, 26, 1);
 314:../MY17/lib/MY17_Can_Library/MY17_Can_Library.c ****   bitstring = INSERT(type_in->heartbeat_bms_dead, bitstring, 27, 1);
 315:../MY17/lib/MY17_Can_Library/MY17_Can_Library.c ****   bitstring = INSERT(type_in->heartbeat_dash_dead, bitstring, 28, 1);
 316:../MY17/lib/MY17_Can_Library/MY17_Can_Library.c ****   bitstring = INSERT(type_in->heartbeat_mc_dead, bitstring, 29, 1);
 317:../MY17/lib/MY17_Can_Library/MY17_Can_Library.c ****   bitstring = INSERT(type_in->heartbeat_current_sensor_dead, bitstring, 30, 1);
 318:../MY17/lib/MY17_Can_Library/MY17_Can_Library.c ****   bitstring = INSERT(type_in->tsms_off, bitstring, 31, 1);
 319:../MY17/lib/MY17_Can_Library/MY17_Can_Library.c ****   bitstring = INSERT(type_in->reset_latch_open, bitstring, 32, 1);
 1729              		.loc 1 319 0
 1730 0014 067E     		ldrb	r6, [r0, #24]	@ tmp503,
 298:../MY17/lib/MY17_Can_Library/MY17_Can_Library.c ****   bitstring = INSERT(type_in->hv_light, bitstring, 3, 1);
 1731              		.loc 1 298 0
 1732 0016 1207     		lsl	r2, r2, #28	@ D.9436, tmp293,
 299:../MY17/lib/MY17_Can_Library/MY17_Can_Library.c ****   bitstring = INSERT(type_in->traction_control, bitstring, 4, 1);
 1733              		.loc 1 299 0
 1734 0018 1343     		orr	r3, r2	@ D.9436, D.9436
 1735              	.LVL144:
 1736 001a 0279     		ldrb	r2, [r0, #4]	@ tmp303,
 1737              		.loc 1 319 0
 1738 001c 7408     		lsr	r4, r6, #1	@ tmp506, tmp503,
 299:../MY17/lib/MY17_Can_Library/MY17_Can_Library.c ****   bitstring = INSERT(type_in->traction_control, bitstring, 4, 1);
 1739              		.loc 1 299 0
 1740 001e D206     		lsl	r2, r2, #27	@ D.9436, tmp303,
 300:../MY17/lib/MY17_Can_Library/MY17_Can_Library.c ****   bitstring = INSERT(type_in->lv_warning, bitstring, 6, 1);
 1741              		.loc 1 300 0
 1742 0020 1343     		orr	r3, r2	@ D.9436, D.9436
 1743              	.LVL145:
 1744 0022 4279     		ldrb	r2, [r0, #5]	@ tmp313,
 320:../MY17/lib/MY17_Can_Library/MY17_Can_Library.c ****   bitstring = INSERT(type_in->precharge_running, bitstring, 33, 1);
 321:../MY17/lib/MY17_Can_Library/MY17_Can_Library.c ****   bitstring = INSERT(type_in->master_reset_not_initialized, bitstring, 34, 1);
 322:../MY17/lib/MY17_Can_Library/MY17_Can_Library.c ****   bitstring = INSERT(type_in->driver_reset_not_initialized, bitstring, 35, 1);
 1745              		.loc 1 322 0
 1746 0024 C57E     		ldrb	r5, [r0, #27]	@ tmp533,
 300:../MY17/lib/MY17_Can_Library/MY17_Can_Library.c ****   bitstring = INSERT(type_in->lv_warning, bitstring, 6, 1);
 1747              		.loc 1 300 0
 1748 0026 9206     		lsl	r2, r2, #26	@ D.9436, tmp313,
 301:../MY17/lib/MY17_Can_Library/MY17_Can_Library.c ****   bitstring = INSERT(type_in->active_aero, bitstring, 7, 1);
 1749              		.loc 1 301 0
 1750 0028 1343     		orr	r3, r2	@ D.9436, D.9436
 1751              	.LVL146:
 1752 002a 8279     		ldrb	r2, [r0, #6]	@ tmp323,
 323:../MY17/lib/MY17_Can_Library/MY17_Can_Library.c ****   bitstring = INSERT(type_in->lv_battery_voltage, bitstring, 40, 10);
 324:../MY17/lib/MY17_Can_Library/MY17_Can_Library.c ****   from_bitstring(&bitstring, can_out->data);
 325:../MY17/lib/MY17_Can_Library/MY17_Can_Library.c ****   can_out->id = VCU_DASH_HEARTBEAT__id;
 326:../MY17/lib/MY17_Can_Library/MY17_Can_Library.c ****   can_out->len = 8;
 327:../MY17/lib/MY17_Can_Library/MY17_Can_Library.c **** }
 1753              		.loc 1 327 0
 1754              		@ sp needed	@
 301:../MY17/lib/MY17_Can_Library/MY17_Can_Library.c ****   bitstring = INSERT(type_in->active_aero, bitstring, 7, 1);
 1755              		.loc 1 301 0
 1756 002c 5206     		lsl	r2, r2, #25	@ D.9436, tmp323,
ARM GAS  /var/folders/9j/_txx49hn253_s3mnzkyxlj8m0000gp/T//cc5dK8On.s 			page 41


 302:../MY17/lib/MY17_Can_Library/MY17_Can_Library.c ****   bitstring = INSERT(type_in->regen, bitstring, 8, 1);
 1757              		.loc 1 302 0
 1758 002e 1343     		orr	r3, r2	@ D.9436, D.9436
 1759              	.LVL147:
 1760 0030 C279     		ldrb	r2, [r0, #7]	@ tmp333,
 1761 0032 1206     		lsl	r2, r2, #24	@ D.9436, tmp333,
 303:../MY17/lib/MY17_Can_Library/MY17_Can_Library.c ****   bitstring = INSERT(type_in->shutdown_esd_drain, bitstring, 9, 1);
 1762              		.loc 1 303 0
 1763 0034 1343     		orr	r3, r2	@ D.9436, D.9436
 1764              	.LVL148:
 1765 0036 027A     		ldrb	r2, [r0, #8]	@ tmp343,
 1766 0038 D205     		lsl	r2, r2, #23	@ D.9436, tmp343,
 304:../MY17/lib/MY17_Can_Library/MY17_Can_Library.c ****   bitstring = INSERT(type_in->shutdown_bms, bitstring, 10, 1);
 1767              		.loc 1 304 0
 1768 003a 1343     		orr	r3, r2	@ D.9436, D.9436
 1769              	.LVL149:
 1770 003c 427A     		ldrb	r2, [r0, #9]	@ tmp353,
 1771 003e 9205     		lsl	r2, r2, #22	@ D.9436, tmp353,
 305:../MY17/lib/MY17_Can_Library/MY17_Can_Library.c ****   bitstring = INSERT(type_in->shutdown_imd, bitstring, 11, 1);
 1772              		.loc 1 305 0
 1773 0040 1343     		orr	r3, r2	@ D.9436, D.9436
 1774              	.LVL150:
 1775 0042 827A     		ldrb	r2, [r0, #10]	@ tmp363,
 1776 0044 5205     		lsl	r2, r2, #21	@ D.9436, tmp363,
 306:../MY17/lib/MY17_Can_Library/MY17_Can_Library.c ****   bitstring = INSERT(type_in->shutdown_bspd, bitstring, 12, 1);
 1777              		.loc 1 306 0
 1778 0046 1343     		orr	r3, r2	@ D.9436, D.9436
 1779              	.LVL151:
 1780 0048 C27A     		ldrb	r2, [r0, #11]	@ tmp373,
 1781 004a 1205     		lsl	r2, r2, #20	@ D.9436, tmp373,
 307:../MY17/lib/MY17_Can_Library/MY17_Can_Library.c ****   bitstring = INSERT(type_in->shutdown_vcu, bitstring, 13, 1);
 1782              		.loc 1 307 0
 1783 004c 1343     		orr	r3, r2	@ D.9436, D.9436
 1784              	.LVL152:
 1785 004e 027B     		ldrb	r2, [r0, #12]	@ tmp383,
 1786 0050 D204     		lsl	r2, r2, #19	@ D.9436, tmp383,
 308:../MY17/lib/MY17_Can_Library/MY17_Can_Library.c ****   bitstring = INSERT(type_in->shutdown_precharge, bitstring, 14, 1);
 1787              		.loc 1 308 0
 1788 0052 1343     		orr	r3, r2	@ D.9436, D.9436
 1789              	.LVL153:
 1790 0054 427B     		ldrb	r2, [r0, #13]	@ tmp393,
 1791 0056 9204     		lsl	r2, r2, #18	@ D.9436, tmp393,
 309:../MY17/lib/MY17_Can_Library/MY17_Can_Library.c ****   bitstring = INSERT(type_in->shutdown_master_reset, bitstring, 15, 1);
 1792              		.loc 1 309 0
 1793 0058 1343     		orr	r3, r2	@ D.9436, D.9436
 1794              	.LVL154:
 1795 005a 827B     		ldrb	r2, [r0, #14]	@ tmp403,
 1796 005c 5204     		lsl	r2, r2, #17	@ D.9436, tmp403,
 310:../MY17/lib/MY17_Can_Library/MY17_Can_Library.c ****   bitstring = INSERT(type_in->shutdown_driver_reset, bitstring, 16, 1);
 1797              		.loc 1 310 0
 1798 005e 1343     		orr	r3, r2	@ D.9436, D.9436
 1799              	.LVL155:
 1800 0060 C27B     		ldrb	r2, [r0, #15]	@ tmp413,
 1801 0062 1204     		lsl	r2, r2, #16	@ D.9436, tmp413,
 311:../MY17/lib/MY17_Can_Library/MY17_Can_Library.c ****   bitstring = INSERT(type_in->heartbeat_front_can_node_dead, bitstring, 25, 1);
 1802              		.loc 1 311 0
 1803 0064 1343     		orr	r3, r2	@ D.9436, D.9436
ARM GAS  /var/folders/9j/_txx49hn253_s3mnzkyxlj8m0000gp/T//cc5dK8On.s 			page 42


 1804              	.LVL156:
 1805 0066 027C     		ldrb	r2, [r0, #16]	@ tmp423,
 1806 0068 D203     		lsl	r2, r2, #15	@ D.9436, tmp423,
 312:../MY17/lib/MY17_Can_Library/MY17_Can_Library.c ****   bitstring = INSERT(type_in->heartbeat_rear_can_node_dead, bitstring, 26, 1);
 1807              		.loc 1 312 0
 1808 006a 1343     		orr	r3, r2	@ D.9436, D.9436
 1809              	.LVL157:
 1810 006c 427C     		ldrb	r2, [r0, #17]	@ tmp433,
 1811 006e 9201     		lsl	r2, r2, #6	@ D.9436, tmp433,
 313:../MY17/lib/MY17_Can_Library/MY17_Can_Library.c ****   bitstring = INSERT(type_in->heartbeat_bms_dead, bitstring, 27, 1);
 1812              		.loc 1 313 0
 1813 0070 1343     		orr	r3, r2	@ D.9436, D.9436
 1814              	.LVL158:
 1815 0072 827C     		ldrb	r2, [r0, #18]	@ tmp443,
 1816 0074 5201     		lsl	r2, r2, #5	@ D.9436, tmp443,
 314:../MY17/lib/MY17_Can_Library/MY17_Can_Library.c ****   bitstring = INSERT(type_in->heartbeat_dash_dead, bitstring, 28, 1);
 1817              		.loc 1 314 0
 1818 0076 1343     		orr	r3, r2	@ D.9436, D.9436
 1819              	.LVL159:
 1820 0078 C27C     		ldrb	r2, [r0, #19]	@ tmp453,
 1821 007a 1201     		lsl	r2, r2, #4	@ D.9436, tmp453,
 315:../MY17/lib/MY17_Can_Library/MY17_Can_Library.c ****   bitstring = INSERT(type_in->heartbeat_mc_dead, bitstring, 29, 1);
 1822              		.loc 1 315 0
 1823 007c 1343     		orr	r3, r2	@ D.9436, D.9436
 1824              	.LVL160:
 1825 007e 027D     		ldrb	r2, [r0, #20]	@ tmp463,
 1826 0080 D200     		lsl	r2, r2, #3	@ D.9436, tmp463,
 316:../MY17/lib/MY17_Can_Library/MY17_Can_Library.c ****   bitstring = INSERT(type_in->heartbeat_current_sensor_dead, bitstring, 30, 1);
 1827              		.loc 1 316 0
 1828 0082 1343     		orr	r3, r2	@ D.9436, D.9436
 1829              	.LVL161:
 1830 0084 427D     		ldrb	r2, [r0, #21]	@ tmp473,
 1831 0086 9200     		lsl	r2, r2, #2	@ D.9436, tmp473,
 317:../MY17/lib/MY17_Can_Library/MY17_Can_Library.c ****   bitstring = INSERT(type_in->tsms_off, bitstring, 31, 1);
 1832              		.loc 1 317 0
 1833 0088 1343     		orr	r3, r2	@ D.9436, D.9436
 1834              	.LVL162:
 1835 008a 827D     		ldrb	r2, [r0, #22]	@ tmp483,
 1836 008c 5200     		lsl	r2, r2, #1	@ D.9436, tmp483,
 318:../MY17/lib/MY17_Can_Library/MY17_Can_Library.c ****   bitstring = INSERT(type_in->reset_latch_open, bitstring, 32, 1);
 1837              		.loc 1 318 0
 1838 008e 1343     		orr	r3, r2	@ D.9436, D.9436
 1839              	.LVL163:
 1840 0090 C27D     		ldrb	r2, [r0, #23]	@ tmp493,
 1841 0092 1A43     		orr	r2, r3	@ bitstring, D.9436
 1842              	.LVL164:
 320:../MY17/lib/MY17_Can_Library/MY17_Can_Library.c ****   bitstring = INSERT(type_in->master_reset_not_initialized, bitstring, 34, 1);
 1843              		.loc 1 320 0
 1844 0094 F307     		lsl	r3, r6, #31	@ D.9436, tmp503,
 1845 0096 467E     		ldrb	r6, [r0, #25]	@ tmp513,
 319:../MY17/lib/MY17_Can_Library/MY17_Can_Library.c ****   bitstring = INSERT(type_in->precharge_running, bitstring, 33, 1);
 1846              		.loc 1 319 0
 1847 0098 2243     		orr	r2, r4	@ bitstring, tmp506
 1848              	.LVL165:
 320:../MY17/lib/MY17_Can_Library/MY17_Can_Library.c ****   bitstring = INSERT(type_in->master_reset_not_initialized, bitstring, 34, 1);
 1849              		.loc 1 320 0
 1850 009a B408     		lsr	r4, r6, #2	@ tmp516, tmp513,
ARM GAS  /var/folders/9j/_txx49hn253_s3mnzkyxlj8m0000gp/T//cc5dK8On.s 			page 43


 1851 009c 2243     		orr	r2, r4	@ bitstring, tmp516
 1852              	.LVL166:
 321:../MY17/lib/MY17_Can_Library/MY17_Can_Library.c ****   bitstring = INSERT(type_in->driver_reset_not_initialized, bitstring, 35, 1);
 1853              		.loc 1 321 0
 1854 009e 847E     		ldrb	r4, [r0, #26]	@ tmp523,
 320:../MY17/lib/MY17_Can_Library/MY17_Can_Library.c ****   bitstring = INSERT(type_in->master_reset_not_initialized, bitstring, 34, 1);
 1855              		.loc 1 320 0
 1856 00a0 B607     		lsl	r6, r6, #30	@ D.9436, tmp513,
 321:../MY17/lib/MY17_Can_Library/MY17_Can_Library.c ****   bitstring = INSERT(type_in->driver_reset_not_initialized, bitstring, 35, 1);
 1857              		.loc 1 321 0
 1858 00a2 E708     		lsr	r7, r4, #3	@ tmp526, tmp523,
 1859 00a4 1743     		orr	r7, r2	@ bitstring, bitstring
 323:../MY17/lib/MY17_Can_Library/MY17_Can_Library.c ****   from_bitstring(&bitstring, can_out->data);
 1860              		.loc 1 323 0
 1861 00a6 828B     		ldrh	r2, [r0, #28]	@ tmp541,
 321:../MY17/lib/MY17_Can_Library/MY17_Can_Library.c ****   bitstring = INSERT(type_in->driver_reset_not_initialized, bitstring, 35, 1);
 1862              		.loc 1 321 0
 1863 00a8 3343     		orr	r3, r6	@ D.9436, D.9436
 1864 00aa 6407     		lsl	r4, r4, #29	@ D.9436, tmp523,
 322:../MY17/lib/MY17_Can_Library/MY17_Can_Library.c ****   bitstring = INSERT(type_in->lv_battery_voltage, bitstring, 40, 10);
 1865              		.loc 1 322 0
 1866 00ac 2343     		orr	r3, r4	@ D.9436, D.9436
 1867              	.LVL167:
 323:../MY17/lib/MY17_Can_Library/MY17_Can_Library.c ****   from_bitstring(&bitstring, can_out->data);
 1868              		.loc 1 323 0
 1869 00ae 9205     		lsl	r2, r2, #22	@ tmp543, tmp541,
 322:../MY17/lib/MY17_Can_Library/MY17_Can_Library.c ****   bitstring = INSERT(type_in->lv_battery_voltage, bitstring, 40, 10);
 1870              		.loc 1 322 0
 1871 00b0 2C09     		lsr	r4, r5, #4	@ tmp536, tmp533,
 1872 00b2 2D07     		lsl	r5, r5, #28	@ D.9436, tmp533,
 323:../MY17/lib/MY17_Can_Library/MY17_Can_Library.c ****   from_bitstring(&bitstring, can_out->data);
 1873              		.loc 1 323 0
 1874 00b4 2B43     		orr	r3, r5	@ D.9436, D.9436
 1875              	.LVL168:
 1876 00b6 120A     		lsr	r2, r2, #8	@ D.9436, tmp543,
 1877 00b8 1343     		orr	r3, r2	@ bitstring, D.9436
 1878 00ba 3A1C     		mov	r2, r7	@ bitstring, bitstring
 1879 00bc 2243     		orr	r2, r4	@ bitstring, tmp536
 1880              	.LVL169:
 1881              	.LBB456:
 1882              	.LBB457:
 1883              	.LBB458:
  36:../MY17/lib/MY17_Can_Library/MY17_Can_Library.c ****   }
 1884              		.loc 1 36 0
 1885 00be 1C0A     		lsr	r4, r3, #8	@ D.9438, bitstring,
 1886 00c0 8B72     		strb	r3, [r1, #10]	@ bitstring, MEM[(union DATA_T *)can_out_145(D) + 3B].byte
 1887              	.LVL170:
 1888 00c2 4C72     		strb	r4, [r1, #9]	@ D.9438, MEM[(union DATA_T *)can_out_145(D) + 3B].byte
 1889              	.LVL171:
 1890 00c4 1C0C     		lsr	r4, r3, #16	@ D.9438, bitstring,
 1891 00c6 1B0E     		lsr	r3, r3, #24	@ D.9438, bitstring,
 1892              	.LVL172:
 1893 00c8 0C72     		strb	r4, [r1, #8]	@ D.9438, MEM[(union DATA_T *)can_out_145(D) + 3B].byte
 1894              	.LVL173:
 1895 00ca CB71     		strb	r3, [r1, #7]	@ D.9438, MEM[(union DATA_T *)can_out_145(D) + 3B].byte
 1896              	.LVL174:
 1897 00cc 130A     		lsr	r3, r2, #8	@ D.9438, bitstring,
ARM GAS  /var/folders/9j/_txx49hn253_s3mnzkyxlj8m0000gp/T//cc5dK8On.s 			page 44


 1898 00ce 4B71     		strb	r3, [r1, #5]	@ D.9438, MEM[(union DATA_T *)can_out_145(D) + 3B].byte
 1899 00d0 130C     		lsr	r3, r2, #16	@ D.9438, bitstring,
 1900 00d2 0B71     		strb	r3, [r1, #4]	@ D.9438, MEM[(union DATA_T *)can_out_145(D) + 3B].byte
 1901              	.LBE458:
 1902              	.LBE457:
 1903              	.LBE456:
 325:../MY17/lib/MY17_Can_Library/MY17_Can_Library.c ****   can_out->len = 8;
 1904              		.loc 1 325 0
 1905 00d4 5123     		mov	r3, #81	@ tmp577,
 1906              	.LBB465:
 1907              	.LBB462:
 1908              	.LBB459:
  36:../MY17/lib/MY17_Can_Library/MY17_Can_Library.c ****   }
 1909              		.loc 1 36 0
 1910 00d6 8A71     		strb	r2, [r1, #6]	@ bitstring, MEM[(union DATA_T *)can_out_145(D) + 3B].byte
 1911              	.LVL175:
 1912              	.LBE459:
 1913              	.LBE462:
 1914              	.LBE465:
 325:../MY17/lib/MY17_Can_Library/MY17_Can_Library.c ****   can_out->len = 8;
 1915              		.loc 1 325 0
 1916 00d8 0B80     		strh	r3, [r1]	@ tmp577, can_out_145(D)->id
 1917              	.LBB466:
 1918              	.LBB463:
 1919              	.LBB460:
  36:../MY17/lib/MY17_Can_Library/MY17_Can_Library.c ****   }
 1920              		.loc 1 36 0
 1921 00da 120E     		lsr	r2, r2, #24	@ D.9438, bitstring,
 1922              	.LBE460:
 1923              	.LBE463:
 1924              	.LBE466:
 326:../MY17/lib/MY17_Can_Library/MY17_Can_Library.c **** }
 1925              		.loc 1 326 0
 1926 00dc 493B     		sub	r3, r3, #73	@ tmp459,
 1927              	.LBB467:
 1928              	.LBB464:
 1929              	.LBB461:
  36:../MY17/lib/MY17_Can_Library/MY17_Can_Library.c ****   }
 1930              		.loc 1 36 0
 1931 00de CA70     		strb	r2, [r1, #3]	@ D.9438, MEM[(union DATA_T *)can_out_145(D) + 3B].byte
 1932              	.LVL176:
 1933              	.LBE461:
 1934              	.LBE464:
 1935              	.LBE467:
 326:../MY17/lib/MY17_Can_Library/MY17_Can_Library.c **** }
 1936              		.loc 1 326 0
 1937 00e0 8B70     		strb	r3, [r1, #2]	@ tmp459, can_out_145(D)->len
 1938              		.loc 1 327 0
 1939 00e2 F0BD     		pop	{r4, r5, r6, r7, pc}
 1940              		.cfi_endproc
 1941              	.LFE223:
 1942              		.size	Can_Vcu_DashHeartbeat_ToCan, .-Can_Vcu_DashHeartbeat_ToCan
 1943              		.section	.text.Can_Vcu_DashHeartbeat_FromCan,"ax",%progbits
 1944              		.align	2
 1945              		.global	Can_Vcu_DashHeartbeat_FromCan
 1946              		.code	16
 1947              		.thumb_func
ARM GAS  /var/folders/9j/_txx49hn253_s3mnzkyxlj8m0000gp/T//cc5dK8On.s 			page 45


 1948              		.type	Can_Vcu_DashHeartbeat_FromCan, %function
 1949              	Can_Vcu_DashHeartbeat_FromCan:
 1950              	.LFB224:
 328:../MY17/lib/MY17_Can_Library/MY17_Can_Library.c **** 
 329:../MY17/lib/MY17_Can_Library/MY17_Can_Library.c **** FROM_CAN(Can_Vcu_DashHeartbeat) {
 1951              		.loc 1 329 0
 1952              		.cfi_startproc
 1953              	.LVL177:
 330:../MY17/lib/MY17_Can_Library/MY17_Can_Library.c ****   uint64_t bitstring = 0;
 1954              		.loc 1 330 0
 1955 0000 0022     		mov	r2, #0	@ tmp208,
 1956 0002 0023     		mov	r3, #0	@,
 329:../MY17/lib/MY17_Can_Library/MY17_Can_Library.c ****   uint64_t bitstring = 0;
 1957              		.loc 1 329 0
 1958 0004 30B5     		push	{r4, r5, lr}	@
 1959              		.cfi_def_cfa_offset 12
 1960              		.cfi_offset 4, -12
 1961              		.cfi_offset 5, -8
 1962              		.cfi_offset 14, -4
 1963 0006 83B0     		sub	sp, sp, #12	@,,
 1964              		.cfi_def_cfa_offset 24
 1965              		.loc 1 330 0
 1966 0008 0092     		str	r2, [sp]	@ tmp208, bitstring
 1967 000a 0193     		str	r3, [sp, #4]	@ tmp208,
 1968              	.LVL178:
 1969 000c 6A46     		mov	r2, sp	@ tmp501,
 1970 000e C31C     		add	r3, r0, #3	@ ivtmp.435, can_in,
 1971 0010 0732     		add	r2, r2, #7	@ ivtmp.437,
 1972 0012 0B30     		add	r0, r0, #11	@ D.9454,
 1973              	.LVL179:
 1974              	.L121:
 1975              	.LBB468:
 1976              	.LBB469:
 1977              	.LBB470:
  36:../MY17/lib/MY17_Can_Library/MY17_Can_Library.c ****   }
 1978              		.loc 1 36 0
 1979 0014 1C78     		ldrb	r4, [r3]	@ MEM[base: _79, offset: 0B], MEM[base: _79, offset: 0B]
 1980 0016 0133     		add	r3, r3, #1	@ ivtmp.435,
 1981              	.LVL180:
 1982 0018 1470     		strb	r4, [r2]	@ MEM[base: _79, offset: 0B], MEM[base: _75, offset: 0B]
 1983 001a 013A     		sub	r2, r2, #1	@ ivtmp.437,
  35:../MY17/lib/MY17_Can_Library/MY17_Can_Library.c ****     (*out).byte[7-i] = (*in).byte[i];
 1984              		.loc 1 35 0
 1985 001c 8342     		cmp	r3, r0	@ ivtmp.435, D.9454
 1986 001e F9D1     		bne	.L121	@,
 1987              	.LBE470:
 1988              	.LBE469:
 1989              	.LBE468:
 331:../MY17/lib/MY17_Can_Library/MY17_Can_Library.c ****   to_bitstring(can_in->data, &bitstring);
 332:../MY17/lib/MY17_Can_Library/MY17_Can_Library.c ****   type_out->rtd_light = EXTRACT(bitstring, 0, 1);
 1990              		.loc 1 332 0
 1991 0020 019B     		ldr	r3, [sp, #4]	@ D.9452, bitstring
 1992 0022 0098     		ldr	r0, [sp]	@ D.9452, bitstring
 1993              	.LVL181:
 1994 0024 DA0F     		lsr	r2, r3, #31	@ D.9452, D.9452,
 1995 0026 0A70     		strb	r2, [r1]	@ D.9452, type_out_8(D)->rtd_light
 333:../MY17/lib/MY17_Can_Library/MY17_Can_Library.c ****   type_out->ams_light = EXTRACT(bitstring, 1, 1);
ARM GAS  /var/folders/9j/_txx49hn253_s3mnzkyxlj8m0000gp/T//cc5dK8On.s 			page 46


 1996              		.loc 1 333 0
 1997 0028 0122     		mov	r2, #1	@ tmp225,
 1998 002a 9C0F     		lsr	r4, r3, #30	@ D.9452, D.9452,
 1999 002c 1440     		and	r4, r2	@ tmp224, tmp225
 2000 002e 4C70     		strb	r4, [r1, #1]	@ tmp224, type_out_8(D)->ams_light
 334:../MY17/lib/MY17_Can_Library/MY17_Can_Library.c ****   type_out->imd_light = EXTRACT(bitstring, 2, 1);
 2001              		.loc 1 334 0
 2002 0030 5C0F     		lsr	r4, r3, #29	@ D.9452, D.9452,
 2003 0032 1440     		and	r4, r2	@ tmp232, tmp225
 2004 0034 8C70     		strb	r4, [r1, #2]	@ tmp232, type_out_8(D)->imd_light
 335:../MY17/lib/MY17_Can_Library/MY17_Can_Library.c ****   type_out->hv_light = EXTRACT(bitstring, 3, 1);
 2005              		.loc 1 335 0
 2006 0036 1C0F     		lsr	r4, r3, #28	@ D.9452, D.9452,
 2007 0038 1440     		and	r4, r2	@ tmp240, tmp225
 2008 003a CC70     		strb	r4, [r1, #3]	@ tmp240, type_out_8(D)->hv_light
 336:../MY17/lib/MY17_Can_Library/MY17_Can_Library.c ****   type_out->traction_control = EXTRACT(bitstring, 4, 1);
 2009              		.loc 1 336 0
 2010 003c DC0E     		lsr	r4, r3, #27	@ D.9452, D.9452,
 2011 003e 1440     		and	r4, r2	@ tmp248, tmp225
 2012 0040 0C71     		strb	r4, [r1, #4]	@ tmp248, type_out_8(D)->traction_control
 337:../MY17/lib/MY17_Can_Library/MY17_Can_Library.c ****   type_out->limp_mode = EXTRACT(bitstring, 5, 1);
 2013              		.loc 1 337 0
 2014 0042 9C0E     		lsr	r4, r3, #26	@ D.9452, D.9452,
 2015 0044 1440     		and	r4, r2	@ tmp256, tmp225
 2016 0046 4C71     		strb	r4, [r1, #5]	@ tmp256, type_out_8(D)->limp_mode
 338:../MY17/lib/MY17_Can_Library/MY17_Can_Library.c ****   type_out->lv_warning = EXTRACT(bitstring, 6, 1);
 2017              		.loc 1 338 0
 2018 0048 5C0E     		lsr	r4, r3, #25	@ D.9452, D.9452,
 2019 004a 1440     		and	r4, r2	@ tmp264, tmp225
 2020 004c 8C71     		strb	r4, [r1, #6]	@ tmp264, type_out_8(D)->lv_warning
 339:../MY17/lib/MY17_Can_Library/MY17_Can_Library.c ****   type_out->active_aero = EXTRACT(bitstring, 7, 1);
 2021              		.loc 1 339 0
 2022 004e 1C0E     		lsr	r4, r3, #24	@ D.9452, D.9452,
 2023 0050 1440     		and	r4, r2	@ tmp272, tmp225
 2024 0052 CC71     		strb	r4, [r1, #7]	@ tmp272, type_out_8(D)->active_aero
 340:../MY17/lib/MY17_Can_Library/MY17_Can_Library.c ****   type_out->regen = EXTRACT(bitstring, 8, 1);
 2025              		.loc 1 340 0
 2026 0054 DC0D     		lsr	r4, r3, #23	@ D.9452, D.9452,
 2027 0056 1440     		and	r4, r2	@ tmp280, tmp225
 2028 0058 0C72     		strb	r4, [r1, #8]	@ tmp280, type_out_8(D)->regen
 341:../MY17/lib/MY17_Can_Library/MY17_Can_Library.c ****   type_out->shutdown_esd_drain = EXTRACT(bitstring, 9, 1);
 2029              		.loc 1 341 0
 2030 005a 9C0D     		lsr	r4, r3, #22	@ D.9452, D.9452,
 2031 005c 1440     		and	r4, r2	@ tmp288, tmp225
 2032 005e 4C72     		strb	r4, [r1, #9]	@ tmp288, type_out_8(D)->shutdown_esd_drain
 342:../MY17/lib/MY17_Can_Library/MY17_Can_Library.c ****   type_out->shutdown_bms = EXTRACT(bitstring, 10, 1);
 2033              		.loc 1 342 0
 2034 0060 5C0D     		lsr	r4, r3, #21	@ D.9452, D.9452,
 2035 0062 1440     		and	r4, r2	@ tmp296, tmp225
 2036 0064 8C72     		strb	r4, [r1, #10]	@ tmp296, type_out_8(D)->shutdown_bms
 343:../MY17/lib/MY17_Can_Library/MY17_Can_Library.c ****   type_out->shutdown_imd = EXTRACT(bitstring, 11, 1);
 2037              		.loc 1 343 0
 2038 0066 1C0D     		lsr	r4, r3, #20	@ D.9452, D.9452,
 2039 0068 1440     		and	r4, r2	@ tmp304, tmp225
 2040 006a CC72     		strb	r4, [r1, #11]	@ tmp304, type_out_8(D)->shutdown_imd
 344:../MY17/lib/MY17_Can_Library/MY17_Can_Library.c ****   type_out->shutdown_bspd = EXTRACT(bitstring, 12, 1);
 2041              		.loc 1 344 0
ARM GAS  /var/folders/9j/_txx49hn253_s3mnzkyxlj8m0000gp/T//cc5dK8On.s 			page 47


 2042 006c DC0C     		lsr	r4, r3, #19	@ D.9452, D.9452,
 2043 006e 1440     		and	r4, r2	@ tmp312, tmp225
 2044 0070 0C73     		strb	r4, [r1, #12]	@ tmp312, type_out_8(D)->shutdown_bspd
 345:../MY17/lib/MY17_Can_Library/MY17_Can_Library.c ****   type_out->shutdown_vcu = EXTRACT(bitstring, 13, 1);
 2045              		.loc 1 345 0
 2046 0072 9C0C     		lsr	r4, r3, #18	@ D.9452, D.9452,
 2047 0074 1440     		and	r4, r2	@ tmp320, tmp225
 2048 0076 4C73     		strb	r4, [r1, #13]	@ tmp320, type_out_8(D)->shutdown_vcu
 346:../MY17/lib/MY17_Can_Library/MY17_Can_Library.c ****   type_out->shutdown_precharge = EXTRACT(bitstring, 14, 1);
 2049              		.loc 1 346 0
 2050 0078 5C0C     		lsr	r4, r3, #17	@ D.9452, D.9452,
 2051 007a 1440     		and	r4, r2	@ tmp328, tmp225
 2052 007c 8C73     		strb	r4, [r1, #14]	@ tmp328, type_out_8(D)->shutdown_precharge
 347:../MY17/lib/MY17_Can_Library/MY17_Can_Library.c ****   type_out->shutdown_master_reset = EXTRACT(bitstring, 15, 1);
 2053              		.loc 1 347 0
 2054 007e 1C0C     		lsr	r4, r3, #16	@ D.9452, D.9452,
 2055 0080 1440     		and	r4, r2	@ tmp336, tmp225
 2056 0082 CC73     		strb	r4, [r1, #15]	@ tmp336, type_out_8(D)->shutdown_master_reset
 348:../MY17/lib/MY17_Can_Library/MY17_Can_Library.c ****   type_out->shutdown_driver_reset = EXTRACT(bitstring, 16, 1);
 2057              		.loc 1 348 0
 2058 0084 DC0B     		lsr	r4, r3, #15	@ D.9452, D.9452,
 2059 0086 1440     		and	r4, r2	@ tmp344, tmp225
 2060 0088 0C74     		strb	r4, [r1, #16]	@ tmp344, type_out_8(D)->shutdown_driver_reset
 349:../MY17/lib/MY17_Can_Library/MY17_Can_Library.c ****   type_out->heartbeat_front_can_node_dead = EXTRACT(bitstring, 25, 1);
 2061              		.loc 1 349 0
 2062 008a 9C09     		lsr	r4, r3, #6	@ D.9452, D.9452,
 2063 008c 1440     		and	r4, r2	@ tmp352, tmp225
 2064 008e 4C74     		strb	r4, [r1, #17]	@ tmp352, type_out_8(D)->heartbeat_front_can_node_dead
 350:../MY17/lib/MY17_Can_Library/MY17_Can_Library.c ****   type_out->heartbeat_rear_can_node_dead = EXTRACT(bitstring, 26, 1);
 2065              		.loc 1 350 0
 2066 0090 5C09     		lsr	r4, r3, #5	@ D.9452, D.9452,
 2067 0092 1440     		and	r4, r2	@ tmp360, tmp225
 2068 0094 8C74     		strb	r4, [r1, #18]	@ tmp360, type_out_8(D)->heartbeat_rear_can_node_dead
 351:../MY17/lib/MY17_Can_Library/MY17_Can_Library.c ****   type_out->heartbeat_bms_dead = EXTRACT(bitstring, 27, 1);
 2069              		.loc 1 351 0
 2070 0096 1C09     		lsr	r4, r3, #4	@ D.9452, D.9452,
 2071 0098 1440     		and	r4, r2	@ tmp368, tmp225
 2072 009a CC74     		strb	r4, [r1, #19]	@ tmp368, type_out_8(D)->heartbeat_bms_dead
 352:../MY17/lib/MY17_Can_Library/MY17_Can_Library.c ****   type_out->heartbeat_dash_dead = EXTRACT(bitstring, 28, 1);
 2073              		.loc 1 352 0
 2074 009c DC08     		lsr	r4, r3, #3	@ D.9452, D.9452,
 2075 009e 1440     		and	r4, r2	@ tmp376, tmp225
 2076 00a0 0C75     		strb	r4, [r1, #20]	@ tmp376, type_out_8(D)->heartbeat_dash_dead
 353:../MY17/lib/MY17_Can_Library/MY17_Can_Library.c ****   type_out->heartbeat_mc_dead = EXTRACT(bitstring, 29, 1);
 2077              		.loc 1 353 0
 2078 00a2 9C08     		lsr	r4, r3, #2	@ D.9452, D.9452,
 2079 00a4 1440     		and	r4, r2	@ tmp384, tmp225
 2080 00a6 4C75     		strb	r4, [r1, #21]	@ tmp384, type_out_8(D)->heartbeat_mc_dead
 354:../MY17/lib/MY17_Can_Library/MY17_Can_Library.c ****   type_out->heartbeat_current_sensor_dead = EXTRACT(bitstring, 30, 1);
 2081              		.loc 1 354 0
 2082 00a8 5C08     		lsr	r4, r3, #1	@ D.9452, D.9452,
 2083 00aa 1440     		and	r4, r2	@ tmp392, tmp225
 2084 00ac 8C75     		strb	r4, [r1, #22]	@ tmp392, type_out_8(D)->heartbeat_current_sensor_dead
 355:../MY17/lib/MY17_Can_Library/MY17_Can_Library.c ****   type_out->tsms_off = EXTRACT(bitstring, 31, 1);
 2085              		.loc 1 355 0
 2086 00ae 141C     		mov	r4, r2	@ tmp400, tmp225
 2087 00b0 1C40     		and	r4, r3	@ tmp400, D.9452
ARM GAS  /var/folders/9j/_txx49hn253_s3mnzkyxlj8m0000gp/T//cc5dK8On.s 			page 48


 356:../MY17/lib/MY17_Can_Library/MY17_Can_Library.c ****   type_out->reset_latch_open = EXTRACT(bitstring, 32, 1);
 2088              		.loc 1 356 0
 2089 00b2 5D00     		lsl	r5, r3, #1	@ tmp404, D.9452,
 355:../MY17/lib/MY17_Can_Library/MY17_Can_Library.c ****   type_out->tsms_off = EXTRACT(bitstring, 31, 1);
 2090              		.loc 1 355 0
 2091 00b4 CC75     		strb	r4, [r1, #23]	@ tmp400, type_out_8(D)->tsms_off
 2092              		.loc 1 356 0
 2093 00b6 C40F     		lsr	r4, r0, #31	@ D.9452, D.9452,
 2094 00b8 2C43     		orr	r4, r5	@ D.9452, tmp404
 2095 00ba 1440     		and	r4, r2	@ tmp408, tmp225
 357:../MY17/lib/MY17_Can_Library/MY17_Can_Library.c ****   type_out->precharge_running = EXTRACT(bitstring, 33, 1);
 2096              		.loc 1 357 0
 2097 00bc 9D00     		lsl	r5, r3, #2	@ tmp412, D.9452,
 356:../MY17/lib/MY17_Can_Library/MY17_Can_Library.c ****   type_out->reset_latch_open = EXTRACT(bitstring, 32, 1);
 2098              		.loc 1 356 0
 2099 00be 0C76     		strb	r4, [r1, #24]	@ tmp408, type_out_8(D)->reset_latch_open
 2100              		.loc 1 357 0
 2101 00c0 840F     		lsr	r4, r0, #30	@ D.9452, D.9452,
 2102 00c2 2C43     		orr	r4, r5	@ D.9452, tmp412
 2103 00c4 1440     		and	r4, r2	@ tmp416, tmp225
 358:../MY17/lib/MY17_Can_Library/MY17_Can_Library.c ****   type_out->master_reset_not_initialized = EXTRACT(bitstring, 34, 1);
 2104              		.loc 1 358 0
 2105 00c6 DD00     		lsl	r5, r3, #3	@ tmp420, D.9452,
 357:../MY17/lib/MY17_Can_Library/MY17_Can_Library.c ****   type_out->precharge_running = EXTRACT(bitstring, 33, 1);
 2106              		.loc 1 357 0
 2107 00c8 4C76     		strb	r4, [r1, #25]	@ tmp416, type_out_8(D)->precharge_running
 2108              		.loc 1 358 0
 2109 00ca 440F     		lsr	r4, r0, #29	@ D.9452, D.9452,
 2110 00cc 2C43     		orr	r4, r5	@ D.9452, tmp420
 2111 00ce 1440     		and	r4, r2	@ tmp424, tmp225
 2112 00d0 8C76     		strb	r4, [r1, #26]	@ tmp424, type_out_8(D)->master_reset_not_initialized
 359:../MY17/lib/MY17_Can_Library/MY17_Can_Library.c ****   type_out->driver_reset_not_initialized = EXTRACT(bitstring, 35, 1);
 2113              		.loc 1 359 0
 2114 00d2 1B01     		lsl	r3, r3, #4	@ tmp428, D.9452,
 2115 00d4 040F     		lsr	r4, r0, #28	@ D.9452, D.9452,
 2116 00d6 1C43     		orr	r4, r3	@ D.9452, tmp428
 360:../MY17/lib/MY17_Can_Library/MY17_Can_Library.c ****   type_out->lv_battery_voltage = EXTRACT(bitstring, 40, 10);
 2117              		.loc 1 360 0
 2118 00d8 0002     		lsl	r0, r0, #8	@ tmp439, D.9452,
 359:../MY17/lib/MY17_Can_Library/MY17_Can_Library.c ****   type_out->driver_reset_not_initialized = EXTRACT(bitstring, 35, 1);
 2119              		.loc 1 359 0
 2120 00da 2240     		and	r2, r4	@ tmp432, D.9452
 2121              		.loc 1 360 0
 2122 00dc 800D     		lsr	r0, r0, #22	@ tmp438, tmp439,
 359:../MY17/lib/MY17_Can_Library/MY17_Can_Library.c ****   type_out->driver_reset_not_initialized = EXTRACT(bitstring, 35, 1);
 2123              		.loc 1 359 0
 2124 00de CA76     		strb	r2, [r1, #27]	@ tmp432, type_out_8(D)->driver_reset_not_initialized
 2125              		.loc 1 360 0
 2126 00e0 8883     		strh	r0, [r1, #28]	@ tmp438, type_out_8(D)->lv_battery_voltage
 361:../MY17/lib/MY17_Can_Library/MY17_Can_Library.c **** }
 2127              		.loc 1 361 0
 2128 00e2 03B0     		add	sp, sp, #12	@,,
 2129              	.LVL182:
 2130              		@ sp needed	@
 2131 00e4 30BD     		pop	{r4, r5, pc}
 2132              		.cfi_endproc
 2133              	.LFE224:
ARM GAS  /var/folders/9j/_txx49hn253_s3mnzkyxlj8m0000gp/T//cc5dK8On.s 			page 49


 2134              		.size	Can_Vcu_DashHeartbeat_FromCan, .-Can_Vcu_DashHeartbeat_FromCan
 2135 00e6 C046     		.section	.text.Can_Vcu_MCRequest_ToCan,"ax",%progbits
 2136              		.align	2
 2137              		.global	Can_Vcu_MCRequest_ToCan
 2138              		.code	16
 2139              		.thumb_func
 2140              		.type	Can_Vcu_MCRequest_ToCan, %function
 2141              	Can_Vcu_MCRequest_ToCan:
 2142              	.LFB225:
 362:../MY17/lib/MY17_Can_Library/MY17_Can_Library.c **** 
 363:../MY17/lib/MY17_Can_Library/MY17_Can_Library.c **** TO_CAN(Can_Vcu_MCRequest) {
 2143              		.loc 1 363 0
 2144              		.cfi_startproc
 2145              	.LVL183:
 2146 0000 10B5     		push	{r4, lr}	@
 2147              		.cfi_def_cfa_offset 8
 2148              		.cfi_offset 4, -8
 2149              		.cfi_offset 14, -4
 364:../MY17/lib/MY17_Can_Library/MY17_Can_Library.c ****   uint64_t bitstring = 0;
 365:../MY17/lib/MY17_Can_Library/MY17_Can_Library.c ****   bitstring = INSERT(CAN_MC_REG_MSG_REQUEST, bitstring, 0, 8);
 366:../MY17/lib/MY17_Can_Library/MY17_Can_Library.c ****   bitstring = INSERT(type_in->requestType, bitstring, 8, 8);
 2150              		.loc 1 366 0
 2151 0002 0378     		ldrb	r3, [r0]	@ *type_in_2(D), *type_in_2(D)
 2152 0004 0024     		mov	r4, #0	@ tmp134,
 2153 0006 1A04     		lsl	r2, r3, #16	@ D.9463, *type_in_2(D),
 367:../MY17/lib/MY17_Can_Library/MY17_Can_Library.c ****   bitstring = INSERT(type_in->period, bitstring, 16, 8);
 2154              		.loc 1 367 0
 2155 0008 4378     		ldrb	r3, [r0, #1]	@ tmp138,
 368:../MY17/lib/MY17_Can_Library/MY17_Can_Library.c ****   from_bitstring(&bitstring, can_out->data);
 369:../MY17/lib/MY17_Can_Library/MY17_Can_Library.c ****   can_out->id = VCU_MC_MESSAGE__id;
 370:../MY17/lib/MY17_Can_Library/MY17_Can_Library.c ****   can_out->len = 3;
 371:../MY17/lib/MY17_Can_Library/MY17_Can_Library.c **** }
 2156              		.loc 1 371 0
 2157              		@ sp needed	@
 367:../MY17/lib/MY17_Can_Library/MY17_Can_Library.c ****   bitstring = INSERT(type_in->period, bitstring, 16, 8);
 2158              		.loc 1 367 0
 2159 000a 1B02     		lsl	r3, r3, #8	@ D.9463, tmp138,
 2160 000c 1343     		orr	r3, r2	@ D.9463, D.9463
 2161 000e F422     		mov	r2, #244	@ tmp144,
 2162 0010 9205     		lsl	r2, r2, #22	@ tmp144, tmp144,
 2163 0012 1343     		orr	r3, r2	@ bitstring, tmp144
 2164              	.LVL184:
 2165              	.LBB471:
 2166              	.LBB472:
 2167              	.LBB473:
  36:../MY17/lib/MY17_Can_Library/MY17_Can_Library.c ****   }
 2168              		.loc 1 36 0
 2169 0014 180A     		lsr	r0, r3, #8	@ D.9464, bitstring,
 2170              	.LVL185:
 2171 0016 8B71     		strb	r3, [r1, #6]	@ bitstring, MEM[(union DATA_T *)can_out_12(D) + 3B].byte
 2172 0018 4871     		strb	r0, [r1, #5]	@ D.9464, MEM[(union DATA_T *)can_out_12(D) + 3B].byte
 2173 001a 180C     		lsr	r0, r3, #16	@ D.9464, bitstring,
 2174 001c 1B0E     		lsr	r3, r3, #24	@ D.9464, bitstring,
 2175              	.LVL186:
 2176 001e CB70     		strb	r3, [r1, #3]	@ D.9464, MEM[(union DATA_T *)can_out_12(D) + 3B].byte
 2177              	.LBE473:
 2178              	.LBE472:
ARM GAS  /var/folders/9j/_txx49hn253_s3mnzkyxlj8m0000gp/T//cc5dK8On.s 			page 50


 2179              	.LBE471:
 369:../MY17/lib/MY17_Can_Library/MY17_Can_Library.c ****   can_out->len = 3;
 2180              		.loc 1 369 0
 2181 0020 5223     		mov	r3, #82	@ tmp173,
 2182 0022 0B80     		strh	r3, [r1]	@ tmp173, can_out_12(D)->id
 370:../MY17/lib/MY17_Can_Library/MY17_Can_Library.c **** }
 2183              		.loc 1 370 0
 2184 0024 4F3B     		sub	r3, r3, #79	@ tmp175,
 2185              	.LBB476:
 2186              	.LBB475:
 2187              	.LBB474:
  36:../MY17/lib/MY17_Can_Library/MY17_Can_Library.c ****   }
 2188              		.loc 1 36 0
 2189 0026 8C72     		strb	r4, [r1, #10]	@ tmp134, MEM[(union DATA_T *)can_out_12(D) + 3B].byte
 2190              	.LVL187:
 2191 0028 4C72     		strb	r4, [r1, #9]	@ tmp134, MEM[(union DATA_T *)can_out_12(D) + 3B].byte
 2192              	.LVL188:
 2193 002a 0C72     		strb	r4, [r1, #8]	@ tmp134, MEM[(union DATA_T *)can_out_12(D) + 3B].byte
 2194              	.LVL189:
 2195 002c CC71     		strb	r4, [r1, #7]	@ tmp134, MEM[(union DATA_T *)can_out_12(D) + 3B].byte
 2196              	.LVL190:
 2197 002e 0871     		strb	r0, [r1, #4]	@ D.9464, MEM[(union DATA_T *)can_out_12(D) + 3B].byte
 2198              	.LVL191:
 2199              	.LBE474:
 2200              	.LBE475:
 2201              	.LBE476:
 370:../MY17/lib/MY17_Can_Library/MY17_Can_Library.c **** }
 2202              		.loc 1 370 0
 2203 0030 8B70     		strb	r3, [r1, #2]	@ tmp175, can_out_12(D)->len
 2204              		.loc 1 371 0
 2205 0032 10BD     		pop	{r4, pc}
 2206              		.cfi_endproc
 2207              	.LFE225:
 2208              		.size	Can_Vcu_MCRequest_ToCan, .-Can_Vcu_MCRequest_ToCan
 2209              		.section	.text.Can_Vcu_MCRequest_FromCan,"ax",%progbits
 2210              		.align	2
 2211              		.global	Can_Vcu_MCRequest_FromCan
 2212              		.code	16
 2213              		.thumb_func
 2214              		.type	Can_Vcu_MCRequest_FromCan, %function
 2215              	Can_Vcu_MCRequest_FromCan:
 2216              	.LFB226:
 372:../MY17/lib/MY17_Can_Library/MY17_Can_Library.c **** 
 373:../MY17/lib/MY17_Can_Library/MY17_Can_Library.c **** FROM_CAN(Can_Vcu_MCRequest) {
 2217              		.loc 1 373 0
 2218              		.cfi_startproc
 2219              	.LVL192:
 374:../MY17/lib/MY17_Can_Library/MY17_Can_Library.c ****   uint64_t bitstring = 0;
 2220              		.loc 1 374 0
 2221 0000 0022     		mov	r2, #0	@ tmp153,
 2222 0002 0023     		mov	r3, #0	@,
 373:../MY17/lib/MY17_Can_Library/MY17_Can_Library.c ****   uint64_t bitstring = 0;
 2223              		.loc 1 373 0
 2224 0004 10B5     		push	{r4, lr}	@
 2225              		.cfi_def_cfa_offset 8
 2226              		.cfi_offset 4, -8
 2227              		.cfi_offset 14, -4
ARM GAS  /var/folders/9j/_txx49hn253_s3mnzkyxlj8m0000gp/T//cc5dK8On.s 			page 51


 2228 0006 82B0     		sub	sp, sp, #8	@,,
 2229              		.cfi_def_cfa_offset 16
 2230              		.loc 1 374 0
 2231 0008 0092     		str	r2, [sp]	@ tmp153, bitstring
 2232 000a 0193     		str	r3, [sp, #4]	@ tmp153,
 2233              	.LVL193:
 2234 000c 6A46     		mov	r2, sp	@ tmp169,
 2235 000e C31C     		add	r3, r0, #3	@ ivtmp.450, can_in,
 2236 0010 0732     		add	r2, r2, #7	@ ivtmp.452,
 2237 0012 0B30     		add	r0, r0, #11	@ D.9484,
 2238              	.LVL194:
 2239              	.L125:
 2240              	.LBB477:
 2241              	.LBB478:
 2242              	.LBB479:
  36:../MY17/lib/MY17_Can_Library/MY17_Can_Library.c ****   }
 2243              		.loc 1 36 0
 2244 0014 1C78     		ldrb	r4, [r3]	@ MEM[base: _29, offset: 0B], MEM[base: _29, offset: 0B]
 2245 0016 0133     		add	r3, r3, #1	@ ivtmp.450,
 2246              	.LVL195:
 2247 0018 1470     		strb	r4, [r2]	@ MEM[base: _29, offset: 0B], MEM[base: _30, offset: 0B]
 2248 001a 013A     		sub	r2, r2, #1	@ ivtmp.452,
  35:../MY17/lib/MY17_Can_Library/MY17_Can_Library.c ****     (*out).byte[7-i] = (*in).byte[i];
 2249              		.loc 1 35 0
 2250 001c 8342     		cmp	r3, r0	@ ivtmp.450, D.9484
 2251 001e F9D1     		bne	.L125	@,
 2252              	.LBE479:
 2253              	.LBE478:
 2254              	.LBE477:
 375:../MY17/lib/MY17_Can_Library/MY17_Can_Library.c ****   to_bitstring(can_in->data, &bitstring);
 376:../MY17/lib/MY17_Can_Library/MY17_Can_Library.c ****   type_out->requestType = (Can_MC_RegID_T) (EXTRACT(bitstring, 8, 8));
 2255              		.loc 1 376 0
 2256 0020 019B     		ldr	r3, [sp, #4]	@ D.9478, bitstring
 2257 0022 1A0C     		lsr	r2, r3, #16	@ D.9478, D.9478,
 377:../MY17/lib/MY17_Can_Library/MY17_Can_Library.c ****   type_out->period = EXTRACT(bitstring, 16, 8);
 2258              		.loc 1 377 0
 2259 0024 1B0A     		lsr	r3, r3, #8	@ D.9478, D.9478,
 376:../MY17/lib/MY17_Can_Library/MY17_Can_Library.c ****   type_out->period = EXTRACT(bitstring, 16, 8);
 2260              		.loc 1 376 0
 2261 0026 0A70     		strb	r2, [r1]	@ D.9478, type_out_8(D)->requestType
 2262              		.loc 1 377 0
 2263 0028 4B70     		strb	r3, [r1, #1]	@ D.9478, type_out_8(D)->period
 378:../MY17/lib/MY17_Can_Library/MY17_Can_Library.c **** }
 2264              		.loc 1 378 0
 2265 002a 02B0     		add	sp, sp, #8	@,,
 2266              	.LVL196:
 2267              		@ sp needed	@
 2268 002c 10BD     		pop	{r4, pc}
 2269              		.cfi_endproc
 2270              	.LFE226:
 2271              		.size	Can_Vcu_MCRequest_FromCan, .-Can_Vcu_MCRequest_FromCan
 2272 002e C046     		.section	.text.Can_Vcu_MCTorque_ToCan,"ax",%progbits
 2273              		.align	2
 2274              		.global	Can_Vcu_MCTorque_ToCan
 2275              		.code	16
 2276              		.thumb_func
 2277              		.type	Can_Vcu_MCTorque_ToCan, %function
ARM GAS  /var/folders/9j/_txx49hn253_s3mnzkyxlj8m0000gp/T//cc5dK8On.s 			page 52


 2278              	Can_Vcu_MCTorque_ToCan:
 2279              	.LFB227:
 379:../MY17/lib/MY17_Can_Library/MY17_Can_Library.c **** 
 380:../MY17/lib/MY17_Can_Library/MY17_Can_Library.c **** TO_CAN(Can_Vcu_MCTorque) {
 2280              		.loc 1 380 0
 2281              		.cfi_startproc
 2282              	.LVL197:
 381:../MY17/lib/MY17_Can_Library/MY17_Can_Library.c ****   uint64_t bitstring = 0;
 382:../MY17/lib/MY17_Can_Library/MY17_Can_Library.c ****   bitstring = INSERT(CAN_MC_REG_TORQUE_CMD, bitstring, 0, 8);
 383:../MY17/lib/MY17_Can_Library/MY17_Can_Library.c ****   // TODO all other devices are big endian except motor controllers,
 384:../MY17/lib/MY17_Can_Library/MY17_Can_Library.c ****   // so we want to reverse the endianness
 385:../MY17/lib/MY17_Can_Library/MY17_Can_Library.c ****   uint64_t temp_torque_cmd = type_in->torque_cmd;
 386:../MY17/lib/MY17_Can_Library/MY17_Can_Library.c ****   uint8_t high_byte = EXTRACT(temp_torque_cmd, 48, 8);
 387:../MY17/lib/MY17_Can_Library/MY17_Can_Library.c ****   uint8_t low_byte = EXTRACT(temp_torque_cmd, 56, 8);
 388:../MY17/lib/MY17_Can_Library/MY17_Can_Library.c ****   bitstring = INSERT(low_byte, bitstring, 8, 8);
 2283              		.loc 1 388 0
 2284 0000 FF22     		mov	r2, #255	@ tmp131,
 2285 0002 131C     		mov	r3, r2	@ tmp136, tmp131
 385:../MY17/lib/MY17_Can_Library/MY17_Can_Library.c ****   uint8_t high_byte = EXTRACT(temp_torque_cmd, 48, 8);
 2286              		.loc 1 385 0
 2287 0004 0088     		ldrh	r0, [r0]	@ D.9487, *type_in_2(D)
 2288              	.LVL198:
 380:../MY17/lib/MY17_Can_Library/MY17_Can_Library.c ****   uint64_t bitstring = 0;
 2289              		.loc 1 380 0
 2290 0006 30B5     		push	{r4, r5, lr}	@
 2291              		.cfi_def_cfa_offset 12
 2292              		.cfi_offset 4, -12
 2293              		.cfi_offset 5, -8
 2294              		.cfi_offset 14, -4
 389:../MY17/lib/MY17_Can_Library/MY17_Can_Library.c ****   bitstring = INSERT(high_byte, bitstring, 16, 8);
 2295              		.loc 1 389 0
 2296 0008 9025     		mov	r5, #144	@ tmp142,
 388:../MY17/lib/MY17_Can_Library/MY17_Can_Library.c ****   bitstring = INSERT(high_byte, bitstring, 16, 8);
 2297              		.loc 1 388 0
 2298 000a 0340     		and	r3, r0	@ tmp136, D.9487
 385:../MY17/lib/MY17_Can_Library/MY17_Can_Library.c ****   uint8_t high_byte = EXTRACT(temp_torque_cmd, 48, 8);
 2299              		.loc 1 385 0
 2300 000c 00B2     		sxth	r0, r0	@ D.9487, D.9487
 386:../MY17/lib/MY17_Can_Library/MY17_Can_Library.c ****   uint8_t low_byte = EXTRACT(temp_torque_cmd, 56, 8);
 2301              		.loc 1 386 0
 2302 000e 000A     		lsr	r0, r0, #8	@ D.9488, D.9487,
 2303              	.LVL199:
 2304              		.loc 1 389 0
 2305 0010 0240     		and	r2, r0	@ D.9488, D.9488
 2306              	.LBB480:
 2307              	.LBB481:
 2308              	.LBB482:
  36:../MY17/lib/MY17_Can_Library/MY17_Can_Library.c ****   }
 2309              		.loc 1 36 0
 2310 0012 0020     		mov	r0, #0	@ D.9489,
 2311              	.LBE482:
 2312              	.LBE481:
 2313              	.LBE480:
 2314              		.loc 1 389 0
 2315 0014 2D06     		lsl	r5, r5, #24	@ tmp142, tmp142,
 388:../MY17/lib/MY17_Can_Library/MY17_Can_Library.c ****   bitstring = INSERT(high_byte, bitstring, 16, 8);
 2316              		.loc 1 388 0
ARM GAS  /var/folders/9j/_txx49hn253_s3mnzkyxlj8m0000gp/T//cc5dK8On.s 			page 53


 2317 0016 1B04     		lsl	r3, r3, #16	@ D.9488, tmp136,
 2318              		.loc 1 389 0
 2319 0018 2B43     		orr	r3, r5	@ D.9488, tmp142
 2320 001a 1202     		lsl	r2, r2, #8	@ D.9488, D.9488,
 2321 001c 1343     		orr	r3, r2	@ bitstring, D.9488
 2322              	.LBB487:
 2323              	.LBB485:
 2324              	.LBB483:
  36:../MY17/lib/MY17_Can_Library/MY17_Can_Library.c ****   }
 2325              		.loc 1 36 0
 2326 001e C871     		strb	r0, [r1, #7]	@ D.9489, MEM[(union DATA_T *)can_out_13(D) + 3B].byte
 2327              	.LVL200:
 2328 0020 180A     		lsr	r0, r3, #8	@ D.9489, bitstring,
 2329 0022 8B71     		strb	r3, [r1, #6]	@ bitstring, MEM[(union DATA_T *)can_out_13(D) + 3B].byte
 2330 0024 4871     		strb	r0, [r1, #5]	@ D.9489, MEM[(union DATA_T *)can_out_13(D) + 3B].byte
 2331 0026 180C     		lsr	r0, r3, #16	@ D.9489, bitstring,
 2332 0028 1B0E     		lsr	r3, r3, #24	@ D.9489, bitstring,
 2333 002a CB70     		strb	r3, [r1, #3]	@ D.9489, MEM[(union DATA_T *)can_out_13(D) + 3B].byte
 2334              	.LBE483:
 2335              	.LBE485:
 2336              	.LBE487:
 390:../MY17/lib/MY17_Can_Library/MY17_Can_Library.c ****   from_bitstring(&bitstring, can_out->data);
 391:../MY17/lib/MY17_Can_Library/MY17_Can_Library.c ****   can_out->id = VCU_MC_MESSAGE__id;
 2337              		.loc 1 391 0
 2338 002c 5223     		mov	r3, #82	@ tmp183,
 388:../MY17/lib/MY17_Can_Library/MY17_Can_Library.c ****   bitstring = INSERT(high_byte, bitstring, 16, 8);
 2339              		.loc 1 388 0
 2340 002e 0024     		mov	r4, #0	@ tmp139,
 2341              	.LVL201:
 2342              		.loc 1 391 0
 2343 0030 0B80     		strh	r3, [r1]	@ tmp183, can_out_13(D)->id
 392:../MY17/lib/MY17_Can_Library/MY17_Can_Library.c ****   can_out->len = 3;
 2344              		.loc 1 392 0
 2345 0032 4F3B     		sub	r3, r3, #79	@ tmp185,
 2346              	.LBB488:
 2347              	.LBB486:
 2348              	.LBB484:
  36:../MY17/lib/MY17_Can_Library/MY17_Can_Library.c ****   }
 2349              		.loc 1 36 0
 2350 0034 8C72     		strb	r4, [r1, #10]	@ tmp139, MEM[(union DATA_T *)can_out_13(D) + 3B].byte
 2351              	.LVL202:
 2352 0036 4C72     		strb	r4, [r1, #9]	@ tmp139, MEM[(union DATA_T *)can_out_13(D) + 3B].byte
 2353              	.LVL203:
 2354 0038 0C72     		strb	r4, [r1, #8]	@ tmp139, MEM[(union DATA_T *)can_out_13(D) + 3B].byte
 2355              	.LVL204:
 2356 003a 0871     		strb	r0, [r1, #4]	@ D.9489, MEM[(union DATA_T *)can_out_13(D) + 3B].byte
 2357              	.LVL205:
 2358              	.LBE484:
 2359              	.LBE486:
 2360              	.LBE488:
 2361              		.loc 1 392 0
 2362 003c 8B70     		strb	r3, [r1, #2]	@ tmp185, can_out_13(D)->len
 393:../MY17/lib/MY17_Can_Library/MY17_Can_Library.c **** }
 2363              		.loc 1 393 0
 2364              		@ sp needed	@
 2365 003e 30BD     		pop	{r4, r5, pc}
 2366              		.cfi_endproc
ARM GAS  /var/folders/9j/_txx49hn253_s3mnzkyxlj8m0000gp/T//cc5dK8On.s 			page 54


 2367              	.LFE227:
 2368              		.size	Can_Vcu_MCTorque_ToCan, .-Can_Vcu_MCTorque_ToCan
 2369              		.section	.text.Can_Vcu_MCTorque_FromCan,"ax",%progbits
 2370              		.align	2
 2371              		.global	Can_Vcu_MCTorque_FromCan
 2372              		.code	16
 2373              		.thumb_func
 2374              		.type	Can_Vcu_MCTorque_FromCan, %function
 2375              	Can_Vcu_MCTorque_FromCan:
 2376              	.LFB228:
 394:../MY17/lib/MY17_Can_Library/MY17_Can_Library.c **** 
 395:../MY17/lib/MY17_Can_Library/MY17_Can_Library.c **** FROM_CAN(Can_Vcu_MCTorque) {
 2377              		.loc 1 395 0
 2378              		.cfi_startproc
 2379              	.LVL206:
 396:../MY17/lib/MY17_Can_Library/MY17_Can_Library.c ****   uint64_t bitstring = 0;
 2380              		.loc 1 396 0
 2381 0000 0022     		mov	r2, #0	@ tmp158,
 2382 0002 0023     		mov	r3, #0	@,
 395:../MY17/lib/MY17_Can_Library/MY17_Can_Library.c ****   uint64_t bitstring = 0;
 2383              		.loc 1 395 0
 2384 0004 10B5     		push	{r4, lr}	@
 2385              		.cfi_def_cfa_offset 8
 2386              		.cfi_offset 4, -8
 2387              		.cfi_offset 14, -4
 2388 0006 82B0     		sub	sp, sp, #8	@,,
 2389              		.cfi_def_cfa_offset 16
 2390              		.loc 1 396 0
 2391 0008 0092     		str	r2, [sp]	@ tmp158, bitstring
 2392 000a 0193     		str	r3, [sp, #4]	@ tmp158,
 2393              	.LVL207:
 2394 000c 6A46     		mov	r2, sp	@ tmp180,
 2395 000e C31C     		add	r3, r0, #3	@ ivtmp.465, can_in,
 2396 0010 0732     		add	r2, r2, #7	@ ivtmp.467,
 2397 0012 0B30     		add	r0, r0, #11	@ D.9510,
 2398              	.LVL208:
 2399              	.L129:
 2400              	.LBB489:
 2401              	.LBB490:
 2402              	.LBB491:
  36:../MY17/lib/MY17_Can_Library/MY17_Can_Library.c ****   }
 2403              		.loc 1 36 0
 2404 0014 1C78     		ldrb	r4, [r3]	@ MEM[base: _33, offset: 0B], MEM[base: _33, offset: 0B]
 2405 0016 0133     		add	r3, r3, #1	@ ivtmp.465,
 2406              	.LVL209:
 2407 0018 1470     		strb	r4, [r2]	@ MEM[base: _33, offset: 0B], MEM[base: _34, offset: 0B]
 2408 001a 013A     		sub	r2, r2, #1	@ ivtmp.467,
  35:../MY17/lib/MY17_Can_Library/MY17_Can_Library.c ****     (*out).byte[7-i] = (*in).byte[i];
 2409              		.loc 1 35 0
 2410 001c 8342     		cmp	r3, r0	@ ivtmp.465, D.9510
 2411 001e F9D1     		bne	.L129	@,
 2412              	.LBE491:
 2413              	.LBE490:
 2414              	.LBE489:
 397:../MY17/lib/MY17_Can_Library/MY17_Can_Library.c ****   to_bitstring(can_in->data, &bitstring);
 398:../MY17/lib/MY17_Can_Library/MY17_Can_Library.c ****   // TODO all other devices are big endian except motor controllers,
 399:../MY17/lib/MY17_Can_Library/MY17_Can_Library.c ****   // so we want to reverse the endianness
ARM GAS  /var/folders/9j/_txx49hn253_s3mnzkyxlj8m0000gp/T//cc5dK8On.s 			page 55


 400:../MY17/lib/MY17_Can_Library/MY17_Can_Library.c ****   uint8_t low_byte = EXTRACT(bitstring, 8, 8);
 401:../MY17/lib/MY17_Can_Library/MY17_Can_Library.c ****   uint8_t high_byte = EXTRACT(bitstring, 16, 8);
 402:../MY17/lib/MY17_Can_Library/MY17_Can_Library.c ****   int16_t low_word = (int16_t) low_byte;
 403:../MY17/lib/MY17_Can_Library/MY17_Can_Library.c ****   int16_t high_word = (int16_t) (high_byte << 8);
 2415              		.loc 1 403 0
 2416 0020 FF22     		mov	r2, #255	@ D.9504,
 400:../MY17/lib/MY17_Can_Library/MY17_Can_Library.c ****   uint8_t high_byte = EXTRACT(bitstring, 16, 8);
 2417              		.loc 1 400 0
 2418 0022 019B     		ldr	r3, [sp, #4]	@ D.9503, bitstring
 2419              	.LVL210:
 2420              		.loc 1 403 0
 2421 0024 1202     		lsl	r2, r2, #8	@ D.9504, D.9504,
 2422 0026 1A40     		and	r2, r3	@ D.9504, D.9503
 400:../MY17/lib/MY17_Can_Library/MY17_Can_Library.c ****   uint8_t high_byte = EXTRACT(bitstring, 16, 8);
 2423              		.loc 1 400 0
 2424 0028 1B0C     		lsr	r3, r3, #16	@ D.9503, D.9503,
 2425              	.LVL211:
 402:../MY17/lib/MY17_Can_Library/MY17_Can_Library.c ****   int16_t high_word = (int16_t) (high_byte << 8);
 2426              		.loc 1 402 0
 2427 002a DBB2     		uxtb	r3, r3	@ D.9503, D.9503
 404:../MY17/lib/MY17_Can_Library/MY17_Can_Library.c ****   type_out->torque_cmd = low_word | high_word;
 2428              		.loc 1 404 0
 2429 002c 1343     		orr	r3, r2	@ tmp171, D.9504
 2430 002e 0B80     		strh	r3, [r1]	@ tmp171, type_out_15(D)->torque_cmd
 405:../MY17/lib/MY17_Can_Library/MY17_Can_Library.c **** }
 2431              		.loc 1 405 0
 2432 0030 02B0     		add	sp, sp, #8	@,,
 2433              	.LVL212:
 2434              		@ sp needed	@
 2435 0032 10BD     		pop	{r4, pc}
 2436              		.cfi_endproc
 2437              	.LFE228:
 2438              		.size	Can_Vcu_MCTorque_FromCan, .-Can_Vcu_MCTorque_FromCan
 2439              		.section	.text.Can_Bms_Heartbeat_ToCan,"ax",%progbits
 2440              		.align	2
 2441              		.global	Can_Bms_Heartbeat_ToCan
 2442              		.code	16
 2443              		.thumb_func
 2444              		.type	Can_Bms_Heartbeat_ToCan, %function
 2445              	Can_Bms_Heartbeat_ToCan:
 2446              	.LFB229:
 406:../MY17/lib/MY17_Can_Library/MY17_Can_Library.c **** 
 407:../MY17/lib/MY17_Can_Library/MY17_Can_Library.c **** TO_CAN(Can_Bms_Heartbeat) {
 2447              		.loc 1 407 0
 2448              		.cfi_startproc
 2449              	.LVL213:
 2450 0000 10B5     		push	{r4, lr}	@
 2451              		.cfi_def_cfa_offset 8
 2452              		.cfi_offset 4, -8
 2453              		.cfi_offset 14, -4
 408:../MY17/lib/MY17_Can_Library/MY17_Can_Library.c ****   uint64_t bitstring = 0;
 409:../MY17/lib/MY17_Can_Library/MY17_Can_Library.c ****   bitstring = INSERT(type_in->state, bitstring, 0, 3);
 410:../MY17/lib/MY17_Can_Library/MY17_Can_Library.c ****   bitstring = INSERT(type_in->soc, bitstring, 3, 10);
 2454              		.loc 1 410 0
 2455 0002 4388     		ldrh	r3, [r0, #2]	@ tmp144,
 409:../MY17/lib/MY17_Can_Library/MY17_Can_Library.c ****   bitstring = INSERT(type_in->soc, bitstring, 3, 10);
 2456              		.loc 1 409 0
ARM GAS  /var/folders/9j/_txx49hn253_s3mnzkyxlj8m0000gp/T//cc5dK8On.s 			page 56


 2457 0004 0278     		ldrb	r2, [r0]	@ *type_in_2(D), *type_in_2(D)
 2458              		.loc 1 410 0
 2459 0006 9B05     		lsl	r3, r3, #22	@ tmp146, tmp144,
 409:../MY17/lib/MY17_Can_Library/MY17_Can_Library.c ****   bitstring = INSERT(type_in->soc, bitstring, 3, 10);
 2460              		.loc 1 409 0
 2461 0008 5207     		lsl	r2, r2, #29	@ D.9514, *type_in_2(D),
 2462              		.loc 1 410 0
 2463 000a DB08     		lsr	r3, r3, #3	@ D.9514, tmp146,
 411:../MY17/lib/MY17_Can_Library/MY17_Can_Library.c ****   bitstring = INSERT(type_in->fan_enable, bitstring, 13, 1);
 2464              		.loc 1 411 0
 2465 000c 1343     		orr	r3, r2	@ D.9514, D.9514
 2466 000e 0279     		ldrb	r2, [r0, #4]	@ tmp165,
 410:../MY17/lib/MY17_Can_Library/MY17_Can_Library.c ****   bitstring = INSERT(type_in->fan_enable, bitstring, 13, 1);
 2467              		.loc 1 410 0
 2468 0010 0024     		mov	r4, #0	@ tmp151,
 2469              	.LVL214:
 2470              		.loc 1 411 0
 2471 0012 9204     		lsl	r2, r2, #18	@ D.9514, tmp165,
 412:../MY17/lib/MY17_Can_Library/MY17_Can_Library.c ****   bitstring = INSERT(type_in->dcdc_enable, bitstring, 14, 1);
 2472              		.loc 1 412 0
 2473 0014 1343     		orr	r3, r2	@ D.9514, D.9514
 2474              	.LVL215:
 2475 0016 4279     		ldrb	r2, [r0, #5]	@ tmp175,
 413:../MY17/lib/MY17_Can_Library/MY17_Can_Library.c ****   bitstring = INSERT(type_in->dcdc_fault, bitstring, 15, 1);
 414:../MY17/lib/MY17_Can_Library/MY17_Can_Library.c ****   from_bitstring(&bitstring, can_out->data);
 415:../MY17/lib/MY17_Can_Library/MY17_Can_Library.c ****   can_out->id = BMS_HEARTBEAT__id;
 416:../MY17/lib/MY17_Can_Library/MY17_Can_Library.c ****   can_out->len = 8;
 417:../MY17/lib/MY17_Can_Library/MY17_Can_Library.c **** }
 2476              		.loc 1 417 0
 2477              		@ sp needed	@
 412:../MY17/lib/MY17_Can_Library/MY17_Can_Library.c ****   bitstring = INSERT(type_in->dcdc_enable, bitstring, 14, 1);
 2478              		.loc 1 412 0
 2479 0018 5204     		lsl	r2, r2, #17	@ D.9514, tmp175,
 413:../MY17/lib/MY17_Can_Library/MY17_Can_Library.c ****   bitstring = INSERT(type_in->dcdc_fault, bitstring, 15, 1);
 2480              		.loc 1 413 0
 2481 001a 1343     		orr	r3, r2	@ D.9514, D.9514
 2482              	.LVL216:
 2483 001c 8279     		ldrb	r2, [r0, #6]	@ tmp185,
 2484              	.LBB492:
 2485              	.LBB493:
 2486              	.LBB494:
  36:../MY17/lib/MY17_Can_Library/MY17_Can_Library.c ****   }
 2487              		.loc 1 36 0
 2488 001e 0020     		mov	r0, #0	@ D.9517,
 2489              	.LVL217:
 2490              	.LBE494:
 2491              	.LBE493:
 2492              	.LBE492:
 413:../MY17/lib/MY17_Can_Library/MY17_Can_Library.c ****   bitstring = INSERT(type_in->dcdc_fault, bitstring, 15, 1);
 2493              		.loc 1 413 0
 2494 0020 1204     		lsl	r2, r2, #16	@ D.9514, tmp185,
 2495 0022 1343     		orr	r3, r2	@ bitstring, D.9514
 2496              	.LVL218:
 2497              	.LBB499:
 2498              	.LBB497:
 2499              	.LBB495:
  36:../MY17/lib/MY17_Can_Library/MY17_Can_Library.c ****   }
ARM GAS  /var/folders/9j/_txx49hn253_s3mnzkyxlj8m0000gp/T//cc5dK8On.s 			page 57


 2500              		.loc 1 36 0
 2501 0024 8B71     		strb	r3, [r1, #6]	@ bitstring, MEM[(union DATA_T *)can_out_25(D) + 3B].byte
 2502 0026 4871     		strb	r0, [r1, #5]	@ D.9517, MEM[(union DATA_T *)can_out_25(D) + 3B].byte
 2503 0028 180C     		lsr	r0, r3, #16	@ D.9517, bitstring,
 2504 002a 1B0E     		lsr	r3, r3, #24	@ D.9517, bitstring,
 2505              	.LVL219:
 2506 002c CB70     		strb	r3, [r1, #3]	@ D.9517, MEM[(union DATA_T *)can_out_25(D) + 3B].byte
 2507              	.LBE495:
 2508              	.LBE497:
 2509              	.LBE499:
 415:../MY17/lib/MY17_Can_Library/MY17_Can_Library.c ****   can_out->len = 8;
 2510              		.loc 1 415 0
 2511 002e 6023     		mov	r3, #96	@ tmp217,
 2512 0030 0B80     		strh	r3, [r1]	@ tmp217, can_out_25(D)->id
 416:../MY17/lib/MY17_Can_Library/MY17_Can_Library.c **** }
 2513              		.loc 1 416 0
 2514 0032 583B     		sub	r3, r3, #88	@ tmp219,
 2515              	.LBB500:
 2516              	.LBB498:
 2517              	.LBB496:
  36:../MY17/lib/MY17_Can_Library/MY17_Can_Library.c ****   }
 2518              		.loc 1 36 0
 2519 0034 8C72     		strb	r4, [r1, #10]	@ tmp151, MEM[(union DATA_T *)can_out_25(D) + 3B].byte
 2520              	.LVL220:
 2521 0036 4C72     		strb	r4, [r1, #9]	@ tmp151, MEM[(union DATA_T *)can_out_25(D) + 3B].byte
 2522              	.LVL221:
 2523 0038 0C72     		strb	r4, [r1, #8]	@ tmp151, MEM[(union DATA_T *)can_out_25(D) + 3B].byte
 2524              	.LVL222:
 2525 003a CC71     		strb	r4, [r1, #7]	@ tmp151, MEM[(union DATA_T *)can_out_25(D) + 3B].byte
 2526              	.LVL223:
 2527 003c 0871     		strb	r0, [r1, #4]	@ D.9517, MEM[(union DATA_T *)can_out_25(D) + 3B].byte
 2528              	.LVL224:
 2529              	.LBE496:
 2530              	.LBE498:
 2531              	.LBE500:
 416:../MY17/lib/MY17_Can_Library/MY17_Can_Library.c **** }
 2532              		.loc 1 416 0
 2533 003e 8B70     		strb	r3, [r1, #2]	@ tmp219, can_out_25(D)->len
 2534              		.loc 1 417 0
 2535 0040 10BD     		pop	{r4, pc}
 2536              		.cfi_endproc
 2537              	.LFE229:
 2538              		.size	Can_Bms_Heartbeat_ToCan, .-Can_Bms_Heartbeat_ToCan
 2539 0042 C046     		.section	.text.Can_Bms_Heartbeat_FromCan,"ax",%progbits
 2540              		.align	2
 2541              		.global	Can_Bms_Heartbeat_FromCan
 2542              		.code	16
 2543              		.thumb_func
 2544              		.type	Can_Bms_Heartbeat_FromCan, %function
 2545              	Can_Bms_Heartbeat_FromCan:
 2546              	.LFB230:
 418:../MY17/lib/MY17_Can_Library/MY17_Can_Library.c **** 
 419:../MY17/lib/MY17_Can_Library/MY17_Can_Library.c **** FROM_CAN(Can_Bms_Heartbeat) {
 2547              		.loc 1 419 0
 2548              		.cfi_startproc
 2549              	.LVL225:
 420:../MY17/lib/MY17_Can_Library/MY17_Can_Library.c ****   uint64_t bitstring = 0;
ARM GAS  /var/folders/9j/_txx49hn253_s3mnzkyxlj8m0000gp/T//cc5dK8On.s 			page 58


 2550              		.loc 1 420 0
 2551 0000 0022     		mov	r2, #0	@ tmp161,
 2552 0002 0023     		mov	r3, #0	@,
 419:../MY17/lib/MY17_Can_Library/MY17_Can_Library.c ****   uint64_t bitstring = 0;
 2553              		.loc 1 419 0
 2554 0004 10B5     		push	{r4, lr}	@
 2555              		.cfi_def_cfa_offset 8
 2556              		.cfi_offset 4, -8
 2557              		.cfi_offset 14, -4
 2558 0006 82B0     		sub	sp, sp, #8	@,,
 2559              		.cfi_def_cfa_offset 16
 2560              		.loc 1 420 0
 2561 0008 0092     		str	r2, [sp]	@ tmp161, bitstring
 2562 000a 0193     		str	r3, [sp, #4]	@ tmp161,
 2563              	.LVL226:
 2564 000c 6A46     		mov	r2, sp	@ tmp215,
 2565 000e C31C     		add	r3, r0, #3	@ ivtmp.480, can_in,
 2566 0010 0732     		add	r2, r2, #7	@ ivtmp.482,
 2567 0012 0B30     		add	r0, r0, #11	@ D.9538,
 2568              	.LVL227:
 2569              	.L133:
 2570              	.LBB501:
 2571              	.LBB502:
 2572              	.LBB503:
  36:../MY17/lib/MY17_Can_Library/MY17_Can_Library.c ****   }
 2573              		.loc 1 36 0
 2574 0014 1C78     		ldrb	r4, [r3]	@ MEM[base: _40, offset: 0B], MEM[base: _40, offset: 0B]
 2575 0016 0133     		add	r3, r3, #1	@ ivtmp.480,
 2576              	.LVL228:
 2577 0018 1470     		strb	r4, [r2]	@ MEM[base: _40, offset: 0B], MEM[base: _41, offset: 0B]
 2578 001a 013A     		sub	r2, r2, #1	@ ivtmp.482,
  35:../MY17/lib/MY17_Can_Library/MY17_Can_Library.c ****     (*out).byte[7-i] = (*in).byte[i];
 2579              		.loc 1 35 0
 2580 001c 8342     		cmp	r3, r0	@ ivtmp.480, D.9538
 2581 001e F9D1     		bne	.L133	@,
 2582              	.LBE503:
 2583              	.LBE502:
 2584              	.LBE501:
 421:../MY17/lib/MY17_Can_Library/MY17_Can_Library.c ****   to_bitstring(can_in->data, &bitstring);
 422:../MY17/lib/MY17_Can_Library/MY17_Can_Library.c ****   type_out->state = (Can_Bms_StateID_T)(EXTRACT(bitstring, 0, 3));
 2585              		.loc 1 422 0
 2586 0020 019B     		ldr	r3, [sp, #4]	@ D.9531, bitstring
 2587 0022 5A0F     		lsr	r2, r3, #29	@ tmp170, D.9531,
 2588 0024 0A70     		strb	r2, [r1]	@ tmp170, type_out_9(D)->state
 423:../MY17/lib/MY17_Can_Library/MY17_Can_Library.c ****   type_out->soc = EXTRACT(bitstring, 3, 10);
 2589              		.loc 1 423 0
 2590 0026 DA00     		lsl	r2, r3, #3	@ tmp177, D.9531,
 2591 0028 920D     		lsr	r2, r2, #22	@ tmp176, tmp177,
 2592 002a 4A80     		strh	r2, [r1, #2]	@ tmp176, type_out_9(D)->soc
 424:../MY17/lib/MY17_Can_Library/MY17_Can_Library.c ****   type_out->fan_enable = EXTRACT(bitstring, 13, 1);
 2593              		.loc 1 424 0
 2594 002c 0122     		mov	r2, #1	@ tmp185,
 2595 002e 980C     		lsr	r0, r3, #18	@ D.9531, D.9531,
 2596              	.LVL229:
 2597 0030 1040     		and	r0, r2	@ tmp184, tmp185
 2598 0032 0871     		strb	r0, [r1, #4]	@ tmp184, type_out_9(D)->fan_enable
 425:../MY17/lib/MY17_Can_Library/MY17_Can_Library.c ****   type_out->dcdc_enable = EXTRACT(bitstring, 14, 1);
ARM GAS  /var/folders/9j/_txx49hn253_s3mnzkyxlj8m0000gp/T//cc5dK8On.s 			page 59


 2599              		.loc 1 425 0
 2600 0034 580C     		lsr	r0, r3, #17	@ D.9531, D.9531,
 426:../MY17/lib/MY17_Can_Library/MY17_Can_Library.c ****   type_out->dcdc_fault = EXTRACT(bitstring, 15, 1);
 2601              		.loc 1 426 0
 2602 0036 1B0C     		lsr	r3, r3, #16	@ D.9531, D.9531,
 425:../MY17/lib/MY17_Can_Library/MY17_Can_Library.c ****   type_out->dcdc_enable = EXTRACT(bitstring, 14, 1);
 2603              		.loc 1 425 0
 2604 0038 1040     		and	r0, r2	@ tmp192, tmp185
 2605              		.loc 1 426 0
 2606 003a 1340     		and	r3, r2	@ tmp200, tmp185
 425:../MY17/lib/MY17_Can_Library/MY17_Can_Library.c ****   type_out->dcdc_enable = EXTRACT(bitstring, 14, 1);
 2607              		.loc 1 425 0
 2608 003c 4871     		strb	r0, [r1, #5]	@ tmp192, type_out_9(D)->dcdc_enable
 2609              		.loc 1 426 0
 2610 003e 8B71     		strb	r3, [r1, #6]	@ tmp200, type_out_9(D)->dcdc_fault
 427:../MY17/lib/MY17_Can_Library/MY17_Can_Library.c **** }
 2611              		.loc 1 427 0
 2612 0040 02B0     		add	sp, sp, #8	@,,
 2613              	.LVL230:
 2614              		@ sp needed	@
 2615 0042 10BD     		pop	{r4, pc}
 2616              		.cfi_endproc
 2617              	.LFE230:
 2618              		.size	Can_Bms_Heartbeat_FromCan, .-Can_Bms_Heartbeat_FromCan
 2619              		.section	.text.Can_Bms_CellTemps_ToCan,"ax",%progbits
 2620              		.align	2
 2621              		.global	Can_Bms_CellTemps_ToCan
 2622              		.code	16
 2623              		.thumb_func
 2624              		.type	Can_Bms_CellTemps_ToCan, %function
 2625              	Can_Bms_CellTemps_ToCan:
 2626              	.LFB231:
 428:../MY17/lib/MY17_Can_Library/MY17_Can_Library.c **** 
 429:../MY17/lib/MY17_Can_Library/MY17_Can_Library.c **** TO_CAN(Can_Bms_CellTemps) {
 2627              		.loc 1 429 0
 2628              		.cfi_startproc
 2629              	.LVL231:
 2630 0000 30B5     		push	{r4, r5, lr}	@
 2631              		.cfi_def_cfa_offset 12
 2632              		.cfi_offset 4, -12
 2633              		.cfi_offset 5, -8
 2634              		.cfi_offset 14, -4
 430:../MY17/lib/MY17_Can_Library/MY17_Can_Library.c ****   uint64_t bitstring = 0;
 431:../MY17/lib/MY17_Can_Library/MY17_Can_Library.c ****   bitstring = INSERT(type_in->avg_cell_temp, bitstring, 0, 15);
 432:../MY17/lib/MY17_Can_Library/MY17_Can_Library.c ****   bitstring = INSERT(type_in->min_cell_temp, bitstring, 15, 15);
 2635              		.loc 1 432 0
 2636 0002 4288     		ldrh	r2, [r0, #2]	@ tmp150,
 431:../MY17/lib/MY17_Can_Library/MY17_Can_Library.c ****   bitstring = INSERT(type_in->min_cell_temp, bitstring, 15, 15);
 2637              		.loc 1 431 0
 2638 0004 0388     		ldrh	r3, [r0]	@ *type_in_4(D), *type_in_4(D)
 2639              		.loc 1 432 0
 2640 0006 5204     		lsl	r2, r2, #17	@ tmp152, tmp150,
 431:../MY17/lib/MY17_Can_Library/MY17_Can_Library.c ****   bitstring = INSERT(type_in->min_cell_temp, bitstring, 15, 15);
 2641              		.loc 1 431 0
 2642 0008 5B04     		lsl	r3, r3, #17	@ D.9544, *type_in_4(D),
 2643              		.loc 1 432 0
 2644 000a D20B     		lsr	r2, r2, #15	@ D.9544, tmp152,
ARM GAS  /var/folders/9j/_txx49hn253_s3mnzkyxlj8m0000gp/T//cc5dK8On.s 			page 60


 433:../MY17/lib/MY17_Can_Library/MY17_Can_Library.c ****   bitstring = INSERT(type_in->id_min_cell_temp, bitstring, 30, 9);
 2645              		.loc 1 433 0
 2646 000c 1A43     		orr	r2, r3	@ D.9544, D.9544
 2647              	.LVL232:
 2648 000e C388     		ldrh	r3, [r0, #6]	@ tmp169,
 429:../MY17/lib/MY17_Can_Library/MY17_Can_Library.c ****   uint64_t bitstring = 0;
 2649              		.loc 1 429 0
 2650 0010 0D1C     		mov	r5, r1	@ can_out, can_out
 2651              		.loc 1 433 0
 2652 0012 DB05     		lsl	r3, r3, #23	@ tmp171, tmp169,
 2653 0014 DB0D     		lsr	r3, r3, #23	@ tmp173, tmp171,
 2654 0016 DC09     		lsr	r4, r3, #7	@ tmp176, tmp173,
 434:../MY17/lib/MY17_Can_Library/MY17_Can_Library.c ****   bitstring = INSERT(type_in->max_cell_temp, bitstring, 39, 15);
 2655              		.loc 1 434 0
 2656 0018 5906     		lsl	r1, r3, #25	@ D.9544, tmp173,
 2657              	.LVL233:
 2658 001a 8388     		ldrh	r3, [r0, #4]	@ tmp181,
 2659 001c 2243     		orr	r2, r4	@ bitstring, tmp176
 2660              	.LVL234:
 2661 001e 5B04     		lsl	r3, r3, #17	@ tmp183, tmp181,
 2662 0020 DB09     		lsr	r3, r3, #7	@ D.9544, tmp183,
 435:../MY17/lib/MY17_Can_Library/MY17_Can_Library.c ****   bitstring = INSERT(type_in->id_max_cell_temp, bitstring, 54, 9);
 2663              		.loc 1 435 0
 2664 0022 0B43     		orr	r3, r1	@ D.9544, D.9544
 2665 0024 0021     		mov	r1, #0	@ D.9544,
 2666              	.LVL235:
 2667 0026 0489     		ldrh	r4, [r0, #8]	@ tmp193,
 2668              	.LVL236:
 436:../MY17/lib/MY17_Can_Library/MY17_Can_Library.c ****   from_bitstring(&bitstring, can_out->data);
 437:../MY17/lib/MY17_Can_Library/MY17_Can_Library.c ****   can_out->id = BMS_CELL_TEMPS__id;
 438:../MY17/lib/MY17_Can_Library/MY17_Can_Library.c ****   can_out->len = 8;
 439:../MY17/lib/MY17_Can_Library/MY17_Can_Library.c **** }
 2669              		.loc 1 439 0
 2670              		@ sp needed	@
 435:../MY17/lib/MY17_Can_Library/MY17_Can_Library.c ****   bitstring = INSERT(type_in->id_max_cell_temp, bitstring, 54, 9);
 2671              		.loc 1 435 0
 2672 0028 E405     		lsl	r4, r4, #23	@ tmp195, tmp193,
 2673 002a E00D     		lsr	r0, r4, #23	@ D.9544, tmp195,
 2674              	.LVL237:
 2675 002c 0018     		add	r0, r0, r0	@ D.9544, D.9544
 2676 002e 4941     		adc	r1, r1, r1	@ D.9544, D.9544
 2677 0030 0343     		orr	r3, r0	@ bitstring, D.9544
 2678              	.LBB504:
 2679              	.LBB505:
 2680              	.LBB506:
  36:../MY17/lib/MY17_Can_Library/MY17_Can_Library.c ****   }
 2681              		.loc 1 36 0
 2682 0032 180A     		lsr	r0, r3, #8	@ D.9545, bitstring,
 2683              	.LBE506:
 2684              	.LBE505:
 2685              	.LBE504:
 435:../MY17/lib/MY17_Can_Library/MY17_Can_Library.c ****   bitstring = INSERT(type_in->id_max_cell_temp, bitstring, 54, 9);
 2686              		.loc 1 435 0
 2687 0034 0A43     		orr	r2, r1	@ bitstring, D.9544
 2688              	.LVL238:
 2689              	.LBB513:
 2690              	.LBB510:
ARM GAS  /var/folders/9j/_txx49hn253_s3mnzkyxlj8m0000gp/T//cc5dK8On.s 			page 61


 2691              	.LBB507:
  36:../MY17/lib/MY17_Can_Library/MY17_Can_Library.c ****   }
 2692              		.loc 1 36 0
 2693 0036 AB72     		strb	r3, [r5, #10]	@ bitstring, MEM[(union DATA_T *)can_out_30(D) + 3B].byte
 2694              	.LVL239:
 2695 0038 6872     		strb	r0, [r5, #9]	@ D.9545, MEM[(union DATA_T *)can_out_30(D) + 3B].byte
 2696              	.LVL240:
 2697 003a 180C     		lsr	r0, r3, #16	@ D.9545, bitstring,
 2698 003c 1B0E     		lsr	r3, r3, #24	@ D.9545, bitstring,
 2699              	.LVL241:
 2700 003e EB71     		strb	r3, [r5, #7]	@ D.9545, MEM[(union DATA_T *)can_out_30(D) + 3B].byte
 2701 0040 130A     		lsr	r3, r2, #8	@ D.9545, bitstring,
 2702 0042 6B71     		strb	r3, [r5, #5]	@ D.9545, MEM[(union DATA_T *)can_out_30(D) + 3B].byte
 2703 0044 130C     		lsr	r3, r2, #16	@ D.9545, bitstring,
 2704 0046 2B71     		strb	r3, [r5, #4]	@ D.9545, MEM[(union DATA_T *)can_out_30(D) + 3B].byte
 2705              	.LBE507:
 2706              	.LBE510:
 2707              	.LBE513:
 437:../MY17/lib/MY17_Can_Library/MY17_Can_Library.c ****   can_out->len = 8;
 2708              		.loc 1 437 0
 2709 0048 B023     		mov	r3, #176	@ tmp228,
 2710 004a 5B00     		lsl	r3, r3, #1	@ tmp228, tmp228,
 2711 004c 2B80     		strh	r3, [r5]	@ tmp228, can_out_30(D)->id
 438:../MY17/lib/MY17_Can_Library/MY17_Can_Library.c **** }
 2712              		.loc 1 438 0
 2713 004e 593B     		sub	r3, r3, #89	@ tmp230,
 2714              	.LBB514:
 2715              	.LBB511:
 2716              	.LBB508:
  36:../MY17/lib/MY17_Can_Library/MY17_Can_Library.c ****   }
 2717              		.loc 1 36 0
 2718 0050 AA71     		strb	r2, [r5, #6]	@ bitstring, MEM[(union DATA_T *)can_out_30(D) + 3B].byte
 2719              	.LBE508:
 2720              	.LBE511:
 2721              	.LBE514:
 438:../MY17/lib/MY17_Can_Library/MY17_Can_Library.c **** }
 2722              		.loc 1 438 0
 2723 0052 FF3B     		sub	r3, r3, #255	@ tmp230,
 2724              	.LBB515:
 2725              	.LBB512:
 2726              	.LBB509:
  36:../MY17/lib/MY17_Can_Library/MY17_Can_Library.c ****   }
 2727              		.loc 1 36 0
 2728 0054 120E     		lsr	r2, r2, #24	@ D.9545, bitstring,
 2729 0056 2872     		strb	r0, [r5, #8]	@ D.9545, MEM[(union DATA_T *)can_out_30(D) + 3B].byte
 2730              	.LVL242:
 2731 0058 EA70     		strb	r2, [r5, #3]	@ D.9545, MEM[(union DATA_T *)can_out_30(D) + 3B].byte
 2732              	.LVL243:
 2733              	.LBE509:
 2734              	.LBE512:
 2735              	.LBE515:
 438:../MY17/lib/MY17_Can_Library/MY17_Can_Library.c **** }
 2736              		.loc 1 438 0
 2737 005a AB70     		strb	r3, [r5, #2]	@ tmp230, can_out_30(D)->len
 2738              	.LVL244:
 2739              		.loc 1 439 0
 2740 005c 30BD     		pop	{r4, r5, pc}
ARM GAS  /var/folders/9j/_txx49hn253_s3mnzkyxlj8m0000gp/T//cc5dK8On.s 			page 62


 2741              		.cfi_endproc
 2742              	.LFE231:
 2743              		.size	Can_Bms_CellTemps_ToCan, .-Can_Bms_CellTemps_ToCan
 2744 005e C046     		.section	.text.Can_Bms_CellTemps_FromCan,"ax",%progbits
 2745              		.align	2
 2746              		.global	Can_Bms_CellTemps_FromCan
 2747              		.code	16
 2748              		.thumb_func
 2749              		.type	Can_Bms_CellTemps_FromCan, %function
 2750              	Can_Bms_CellTemps_FromCan:
 2751              	.LFB232:
 440:../MY17/lib/MY17_Can_Library/MY17_Can_Library.c **** 
 441:../MY17/lib/MY17_Can_Library/MY17_Can_Library.c **** FROM_CAN(Can_Bms_CellTemps) {
 2752              		.loc 1 441 0
 2753              		.cfi_startproc
 2754              	.LVL245:
 442:../MY17/lib/MY17_Can_Library/MY17_Can_Library.c ****   uint64_t bitstring = 0;
 2755              		.loc 1 442 0
 2756 0000 0022     		mov	r2, #0	@ tmp168,
 2757 0002 0023     		mov	r3, #0	@,
 441:../MY17/lib/MY17_Can_Library/MY17_Can_Library.c ****   uint64_t bitstring = 0;
 2758              		.loc 1 441 0
 2759 0004 10B5     		push	{r4, lr}	@
 2760              		.cfi_def_cfa_offset 8
 2761              		.cfi_offset 4, -8
 2762              		.cfi_offset 14, -4
 2763 0006 82B0     		sub	sp, sp, #8	@,,
 2764              		.cfi_def_cfa_offset 16
 2765              		.loc 1 442 0
 2766 0008 0092     		str	r2, [sp]	@ tmp168, bitstring
 2767 000a 0193     		str	r3, [sp, #4]	@ tmp168,
 2768              	.LVL246:
 2769 000c 6A46     		mov	r2, sp	@ tmp218,
 2770 000e C31C     		add	r3, r0, #3	@ ivtmp.495, can_in,
 2771 0010 0732     		add	r2, r2, #7	@ ivtmp.497,
 2772 0012 0B30     		add	r0, r0, #11	@ D.9567,
 2773              	.LVL247:
 2774              	.L137:
 2775              	.LBB516:
 2776              	.LBB517:
 2777              	.LBB518:
  36:../MY17/lib/MY17_Can_Library/MY17_Can_Library.c ****   }
 2778              		.loc 1 36 0
 2779 0014 1C78     		ldrb	r4, [r3]	@ MEM[base: _47, offset: 0B], MEM[base: _47, offset: 0B]
 2780 0016 0133     		add	r3, r3, #1	@ ivtmp.495,
 2781              	.LVL248:
 2782 0018 1470     		strb	r4, [r2]	@ MEM[base: _47, offset: 0B], MEM[base: _48, offset: 0B]
 2783 001a 013A     		sub	r2, r2, #1	@ ivtmp.497,
  35:../MY17/lib/MY17_Can_Library/MY17_Can_Library.c ****     (*out).byte[7-i] = (*in).byte[i];
 2784              		.loc 1 35 0
 2785 001c 8342     		cmp	r3, r0	@ ivtmp.495, D.9567
 2786 001e F9D1     		bne	.L137	@,
 2787              	.LBE518:
 2788              	.LBE517:
 2789              	.LBE516:
 443:../MY17/lib/MY17_Can_Library/MY17_Can_Library.c ****   to_bitstring(can_in->data, &bitstring);
 444:../MY17/lib/MY17_Can_Library/MY17_Can_Library.c ****   type_out->avg_cell_temp = SIGN(EXTRACT(bitstring, 0, 15), 15);
ARM GAS  /var/folders/9j/_txx49hn253_s3mnzkyxlj8m0000gp/T//cc5dK8On.s 			page 63


 2790              		.loc 1 444 0
 2791 0020 019A     		ldr	r2, [sp, #4]	@ D.9559, bitstring
 2792 0022 009B     		ldr	r3, [sp]	@ D.9559, bitstring
 2793 0024 5014     		asr	r0, r2, #17	@ D.9560, D.9559,
 2794              	.LVL249:
 2795 0026 0880     		strh	r0, [r1]	@ D.9560, type_out_9(D)->avg_cell_temp
 445:../MY17/lib/MY17_Can_Library/MY17_Can_Library.c ****   type_out->min_cell_temp = SIGN(EXTRACT(bitstring, 15, 15), 15);
 2796              		.loc 1 445 0
 2797 0028 D003     		lsl	r0, r2, #15	@ D.9560, D.9559,
 2798 002a 4014     		asr	r0, r0, #17	@ D.9560, D.9560,
 2799 002c 4880     		strh	r0, [r1, #2]	@ D.9560, type_out_9(D)->min_cell_temp
 446:../MY17/lib/MY17_Can_Library/MY17_Can_Library.c ****   type_out->id_min_cell_temp = EXTRACT(bitstring, 30, 9);
 2800              		.loc 1 446 0
 2801 002e D001     		lsl	r0, r2, #7	@ tmp181, D.9559,
 2802 0030 5A0E     		lsr	r2, r3, #25	@ D.9559, D.9559,
 2803 0032 0243     		orr	r2, r0	@ D.9559, tmp181
 2804 0034 D205     		lsl	r2, r2, #23	@ tmp184, D.9559,
 2805 0036 D20D     		lsr	r2, r2, #23	@ tmp183, tmp184,
 2806 0038 CA80     		strh	r2, [r1, #6]	@ tmp183, type_out_9(D)->id_min_cell_temp
 447:../MY17/lib/MY17_Can_Library/MY17_Can_Library.c ****   type_out->max_cell_temp = SIGN(EXTRACT(bitstring, 39, 15), 15);
 2807              		.loc 1 447 0
 2808 003a DA01     		lsl	r2, r3, #7	@ D.9560, D.9559,
 448:../MY17/lib/MY17_Can_Library/MY17_Can_Library.c ****   type_out->id_max_cell_temp = EXTRACT(bitstring, 54, 9);
 2809              		.loc 1 448 0
 2810 003c 9B05     		lsl	r3, r3, #22	@ tmp196, D.9559,
 447:../MY17/lib/MY17_Can_Library/MY17_Can_Library.c ****   type_out->max_cell_temp = SIGN(EXTRACT(bitstring, 39, 15), 15);
 2811              		.loc 1 447 0
 2812 003e 5214     		asr	r2, r2, #17	@ D.9560, D.9560,
 2813              		.loc 1 448 0
 2814 0040 DB0D     		lsr	r3, r3, #23	@ tmp195, tmp196,
 447:../MY17/lib/MY17_Can_Library/MY17_Can_Library.c ****   type_out->max_cell_temp = SIGN(EXTRACT(bitstring, 39, 15), 15);
 2815              		.loc 1 447 0
 2816 0042 8A80     		strh	r2, [r1, #4]	@ D.9560, type_out_9(D)->max_cell_temp
 2817              		.loc 1 448 0
 2818 0044 0B81     		strh	r3, [r1, #8]	@ tmp195, type_out_9(D)->id_max_cell_temp
 449:../MY17/lib/MY17_Can_Library/MY17_Can_Library.c **** }
 2819              		.loc 1 449 0
 2820 0046 02B0     		add	sp, sp, #8	@,,
 2821              	.LVL250:
 2822              		@ sp needed	@
 2823 0048 10BD     		pop	{r4, pc}
 2824              		.cfi_endproc
 2825              	.LFE232:
 2826              		.size	Can_Bms_CellTemps_FromCan, .-Can_Bms_CellTemps_FromCan
 2827 004a C046     		.section	.text.Can_Bms_PackStatus_ToCan,"ax",%progbits
 2828              		.align	2
 2829              		.global	Can_Bms_PackStatus_ToCan
 2830              		.code	16
 2831              		.thumb_func
 2832              		.type	Can_Bms_PackStatus_ToCan, %function
 2833              	Can_Bms_PackStatus_ToCan:
 2834              	.LFB233:
 450:../MY17/lib/MY17_Can_Library/MY17_Can_Library.c **** 
 451:../MY17/lib/MY17_Can_Library/MY17_Can_Library.c **** TO_CAN(Can_Bms_PackStatus) {
 2835              		.loc 1 451 0
 2836              		.cfi_startproc
 2837              	.LVL251:
ARM GAS  /var/folders/9j/_txx49hn253_s3mnzkyxlj8m0000gp/T//cc5dK8On.s 			page 64


 2838 0000 70B5     		push	{r4, r5, r6, lr}	@
 2839              		.cfi_def_cfa_offset 16
 2840              		.cfi_offset 4, -16
 2841              		.cfi_offset 5, -12
 2842              		.cfi_offset 6, -8
 2843              		.cfi_offset 14, -4
 452:../MY17/lib/MY17_Can_Library/MY17_Can_Library.c ****   uint64_t bitstring = 0;
 453:../MY17/lib/MY17_Can_Library/MY17_Can_Library.c ****   bitstring = INSERT(type_in->pack_voltage, bitstring, 0, 9);
 454:../MY17/lib/MY17_Can_Library/MY17_Can_Library.c ****   bitstring = INSERT(type_in->pack_current, bitstring, 9, 11);
 2844              		.loc 1 454 0
 2845 0002 4688     		ldrh	r6, [r0, #2]	@ tmp159,
 453:../MY17/lib/MY17_Can_Library/MY17_Can_Library.c ****   bitstring = INSERT(type_in->pack_current, bitstring, 9, 11);
 2846              		.loc 1 453 0
 2847 0004 0388     		ldrh	r3, [r0]	@ *type_in_5(D), *type_in_5(D)
 2848              		.loc 1 454 0
 2849 0006 7605     		lsl	r6, r6, #21	@ tmp161, tmp159,
 453:../MY17/lib/MY17_Can_Library/MY17_Can_Library.c ****   bitstring = INSERT(type_in->pack_current, bitstring, 9, 11);
 2850              		.loc 1 453 0
 2851 0008 DB05     		lsl	r3, r3, #23	@ D.9572, *type_in_5(D),
 2852              		.loc 1 454 0
 2853 000a 760A     		lsr	r6, r6, #9	@ D.9572, tmp161,
 455:../MY17/lib/MY17_Can_Library/MY17_Can_Library.c ****   bitstring = INSERT(type_in->avg_cell_voltage, bitstring, 20, 10);
 2854              		.loc 1 455 0
 2855 000c 1E43     		orr	r6, r3	@ D.9572, D.9572
 2856              	.LVL252:
 2857 000e 8388     		ldrh	r3, [r0, #4]	@ tmp178,
 456:../MY17/lib/MY17_Can_Library/MY17_Can_Library.c ****   bitstring = INSERT(type_in->min_cell_voltage, bitstring, 30, 10);
 2858              		.loc 1 456 0
 2859 0010 C488     		ldrh	r4, [r0, #6]	@ tmp190,
 455:../MY17/lib/MY17_Can_Library/MY17_Can_Library.c ****   bitstring = INSERT(type_in->avg_cell_voltage, bitstring, 20, 10);
 2860              		.loc 1 455 0
 2861 0012 9B05     		lsl	r3, r3, #22	@ tmp180, tmp178,
 2862 0014 1B0D     		lsr	r3, r3, #20	@ D.9572, tmp180,
 2863              		.loc 1 456 0
 2864 0016 1E43     		orr	r6, r3	@ D.9572, D.9572
 2865              	.LVL253:
 457:../MY17/lib/MY17_Can_Library/MY17_Can_Library.c ****   bitstring = INSERT(type_in->id_min_cell_voltage, bitstring, 40, 7);
 2866              		.loc 1 457 0
 2867 0018 7F23     		mov	r3, #127	@ tmp202,
 2868 001a 027A     		ldrb	r2, [r0, #8]	@ tmp204,
 456:../MY17/lib/MY17_Can_Library/MY17_Can_Library.c ****   bitstring = INSERT(type_in->min_cell_voltage, bitstring, 30, 10);
 2869              		.loc 1 456 0
 2870 001c A405     		lsl	r4, r4, #22	@ tmp192, tmp190,
 2871 001e A40D     		lsr	r4, r4, #22	@ tmp194, tmp192,
 2872              		.loc 1 457 0
 2873 0020 1A40     		and	r2, r3	@ tmp208, tmp202
 456:../MY17/lib/MY17_Can_Library/MY17_Can_Library.c ****   bitstring = INSERT(type_in->min_cell_voltage, bitstring, 30, 10);
 2874              		.loc 1 456 0
 2875 0022 250A     		lsr	r5, r4, #8	@ tmp197, tmp194,
 2876              		.loc 1 457 0
 2877 0024 5204     		lsl	r2, r2, #17	@ D.9572, tmp208,
 2878 0026 2406     		lsl	r4, r4, #24	@ D.9572, tmp194,
 2879              	.LVL254:
 458:../MY17/lib/MY17_Can_Library/MY17_Can_Library.c ****   bitstring = INSERT(type_in->max_cell_voltage, bitstring, 47, 10);
 2880              		.loc 1 458 0
 2881 0028 1443     		orr	r4, r2	@ D.9572, D.9572
 2882              	.LVL255:
ARM GAS  /var/folders/9j/_txx49hn253_s3mnzkyxlj8m0000gp/T//cc5dK8On.s 			page 65


 2883 002a 4289     		ldrh	r2, [r0, #10]	@ tmp216,
 2884 002c 3543     		orr	r5, r6	@ bitstring, D.9572
 2885              	.LVL256:
 2886 002e 9205     		lsl	r2, r2, #22	@ tmp218, tmp216,
 2887 0030 D20B     		lsr	r2, r2, #15	@ D.9572, tmp218,
 2888 0032 1443     		orr	r4, r2	@ bitstring, D.9572
 2889              	.LVL257:
 459:../MY17/lib/MY17_Can_Library/MY17_Can_Library.c ****   bitstring = INSERT(type_in->id_max_cell_voltage, bitstring, 57, 7);
 2890              		.loc 1 459 0
 2891 0034 027B     		ldrb	r2, [r0, #12]	@ tmp230,
 2892 0036 9C43     		bic	r4, r3	@ D.9572, tmp202
 2893 0038 1340     		and	r3, r2	@ tmp234, tmp230
 2894              	.LVL258:
 2895 003a 2343     		orr	r3, r4	@ bitstring, D.9572
 2896              	.LVL259:
 2897              	.LBB519:
 2898              	.LBB520:
 2899              	.LBB521:
  36:../MY17/lib/MY17_Can_Library/MY17_Can_Library.c ****   }
 2900              		.loc 1 36 0
 2901 003c 180A     		lsr	r0, r3, #8	@ D.9571, bitstring,
 2902              	.LVL260:
 2903 003e 8B72     		strb	r3, [r1, #10]	@ bitstring, MEM[(union DATA_T *)can_out_38(D) + 3B].byte
 2904              	.LVL261:
 2905 0040 4872     		strb	r0, [r1, #9]	@ D.9571, MEM[(union DATA_T *)can_out_38(D) + 3B].byte
 2906              	.LVL262:
 2907 0042 180C     		lsr	r0, r3, #16	@ D.9571, bitstring,
 2908 0044 1B0E     		lsr	r3, r3, #24	@ D.9571, bitstring,
 2909              	.LVL263:
 2910 0046 CB71     		strb	r3, [r1, #7]	@ D.9571, MEM[(union DATA_T *)can_out_38(D) + 3B].byte
 2911 0048 2B0A     		lsr	r3, r5, #8	@ D.9571, bitstring,
 2912 004a 4B71     		strb	r3, [r1, #5]	@ D.9571, MEM[(union DATA_T *)can_out_38(D) + 3B].byte
 2913 004c 2B0C     		lsr	r3, r5, #16	@ D.9571, bitstring,
 2914 004e 0B71     		strb	r3, [r1, #4]	@ D.9571, MEM[(union DATA_T *)can_out_38(D) + 3B].byte
 2915              	.LBE521:
 2916              	.LBE520:
 2917              	.LBE519:
 460:../MY17/lib/MY17_Can_Library/MY17_Can_Library.c ****   from_bitstring(&bitstring, can_out->data);
 461:../MY17/lib/MY17_Can_Library/MY17_Can_Library.c ****   can_out->id = BMS_PACK_STATUS__id;
 2918              		.loc 1 461 0
 2919 0050 6223     		mov	r3, #98	@ tmp264,
 2920 0052 FF33     		add	r3, r3, #255	@ tmp264,
 2921 0054 0B80     		strh	r3, [r1]	@ tmp264, can_out_38(D)->id
 462:../MY17/lib/MY17_Can_Library/MY17_Can_Library.c ****   can_out->len = 8;
 2922              		.loc 1 462 0
 2923 0056 5A3B     		sub	r3, r3, #90	@ tmp266,
 2924              	.LBB526:
 2925              	.LBB524:
 2926              	.LBB522:
  36:../MY17/lib/MY17_Can_Library/MY17_Can_Library.c ****   }
 2927              		.loc 1 36 0
 2928 0058 8D71     		strb	r5, [r1, #6]	@ bitstring, MEM[(union DATA_T *)can_out_38(D) + 3B].byte
 2929              	.LBE522:
 2930              	.LBE524:
 2931              	.LBE526:
 2932              		.loc 1 462 0
 2933 005a FF3B     		sub	r3, r3, #255	@ tmp266,
ARM GAS  /var/folders/9j/_txx49hn253_s3mnzkyxlj8m0000gp/T//cc5dK8On.s 			page 66


 2934              	.LBB527:
 2935              	.LBB525:
 2936              	.LBB523:
  36:../MY17/lib/MY17_Can_Library/MY17_Can_Library.c ****   }
 2937              		.loc 1 36 0
 2938 005c 2D0E     		lsr	r5, r5, #24	@ D.9571, bitstring,
 2939              	.LVL264:
 2940 005e CD70     		strb	r5, [r1, #3]	@ D.9571, MEM[(union DATA_T *)can_out_38(D) + 3B].byte
 2941 0060 0872     		strb	r0, [r1, #8]	@ D.9571, MEM[(union DATA_T *)can_out_38(D) + 3B].byte
 2942              	.LVL265:
 2943              	.LBE523:
 2944              	.LBE525:
 2945              	.LBE527:
 2946              		.loc 1 462 0
 2947 0062 8B70     		strb	r3, [r1, #2]	@ tmp266, can_out_38(D)->len
 463:../MY17/lib/MY17_Can_Library/MY17_Can_Library.c **** }
 2948              		.loc 1 463 0
 2949              		@ sp needed	@
 2950 0064 70BD     		pop	{r4, r5, r6, pc}
 2951              		.cfi_endproc
 2952              	.LFE233:
 2953              		.size	Can_Bms_PackStatus_ToCan, .-Can_Bms_PackStatus_ToCan
 2954 0066 C046     		.section	.text.Can_Bms_PackStatus_FromCan,"ax",%progbits
 2955              		.align	2
 2956              		.global	Can_Bms_PackStatus_FromCan
 2957              		.code	16
 2958              		.thumb_func
 2959              		.type	Can_Bms_PackStatus_FromCan, %function
 2960              	Can_Bms_PackStatus_FromCan:
 2961              	.LFB234:
 464:../MY17/lib/MY17_Can_Library/MY17_Can_Library.c **** 
 465:../MY17/lib/MY17_Can_Library/MY17_Can_Library.c **** FROM_CAN(Can_Bms_PackStatus) {
 2962              		.loc 1 465 0
 2963              		.cfi_startproc
 2964              	.LVL266:
 466:../MY17/lib/MY17_Can_Library/MY17_Can_Library.c ****   uint64_t bitstring = 0;
 2965              		.loc 1 466 0
 2966 0000 0022     		mov	r2, #0	@ tmp170,
 2967 0002 0023     		mov	r3, #0	@,
 465:../MY17/lib/MY17_Can_Library/MY17_Can_Library.c ****   uint64_t bitstring = 0;
 2968              		.loc 1 465 0
 2969 0004 10B5     		push	{r4, lr}	@
 2970              		.cfi_def_cfa_offset 8
 2971              		.cfi_offset 4, -8
 2972              		.cfi_offset 14, -4
 2973 0006 82B0     		sub	sp, sp, #8	@,,
 2974              		.cfi_def_cfa_offset 16
 2975              		.loc 1 466 0
 2976 0008 0092     		str	r2, [sp]	@ tmp170, bitstring
 2977 000a 0193     		str	r3, [sp, #4]	@ tmp170,
 2978              	.LVL267:
 2979 000c 6A46     		mov	r2, sp	@ tmp233,
 2980 000e C31C     		add	r3, r0, #3	@ ivtmp.510, can_in,
 2981 0010 0732     		add	r2, r2, #7	@ ivtmp.512,
 2982 0012 0B30     		add	r0, r0, #11	@ D.9596,
 2983              	.LVL268:
 2984              	.L141:
ARM GAS  /var/folders/9j/_txx49hn253_s3mnzkyxlj8m0000gp/T//cc5dK8On.s 			page 67


 2985              	.LBB528:
 2986              	.LBB529:
 2987              	.LBB530:
  36:../MY17/lib/MY17_Can_Library/MY17_Can_Library.c ****   }
 2988              		.loc 1 36 0
 2989 0014 1C78     		ldrb	r4, [r3]	@ MEM[base: _51, offset: 0B], MEM[base: _51, offset: 0B]
 2990 0016 0133     		add	r3, r3, #1	@ ivtmp.510,
 2991              	.LVL269:
 2992 0018 1470     		strb	r4, [r2]	@ MEM[base: _51, offset: 0B], MEM[base: _52, offset: 0B]
 2993 001a 013A     		sub	r2, r2, #1	@ ivtmp.512,
  35:../MY17/lib/MY17_Can_Library/MY17_Can_Library.c ****     (*out).byte[7-i] = (*in).byte[i];
 2994              		.loc 1 35 0
 2995 001c 8342     		cmp	r3, r0	@ ivtmp.510, D.9596
 2996 001e F9D1     		bne	.L141	@,
 2997              	.LBE530:
 2998              	.LBE529:
 2999              	.LBE528:
 467:../MY17/lib/MY17_Can_Library/MY17_Can_Library.c ****   to_bitstring(can_in->data, &bitstring);
 468:../MY17/lib/MY17_Can_Library/MY17_Can_Library.c ****   type_out->pack_voltage = EXTRACT(bitstring, 0, 9);
 3000              		.loc 1 468 0
 3001 0020 019B     		ldr	r3, [sp, #4]	@ D.9588, bitstring
 3002 0022 009A     		ldr	r2, [sp]	@ D.9588, bitstring
 3003 0024 D80D     		lsr	r0, r3, #23	@ D.9588, D.9588,
 3004              	.LVL270:
 3005 0026 0880     		strh	r0, [r1]	@ D.9588, type_out_8(D)->pack_voltage
 469:../MY17/lib/MY17_Can_Library/MY17_Can_Library.c ****   type_out->pack_current = SIGN(EXTRACT(bitstring, 9, 11), 11);
 3006              		.loc 1 469 0
 3007 0028 5802     		lsl	r0, r3, #9	@ D.9590, D.9588,
 3008 002a 4015     		asr	r0, r0, #21	@ D.9590, D.9590,
 3009 002c 4880     		strh	r0, [r1, #2]	@ D.9590, type_out_8(D)->pack_current
 470:../MY17/lib/MY17_Can_Library/MY17_Can_Library.c ****   type_out->avg_cell_voltage = EXTRACT(bitstring, 20, 10);
 3010              		.loc 1 470 0
 3011 002e 1805     		lsl	r0, r3, #20	@ tmp187, D.9588,
 3012 0030 800D     		lsr	r0, r0, #22	@ tmp186, tmp187,
 3013 0032 8880     		strh	r0, [r1, #4]	@ tmp186, type_out_8(D)->avg_cell_voltage
 471:../MY17/lib/MY17_Can_Library/MY17_Can_Library.c ****   type_out->min_cell_voltage = EXTRACT(bitstring, 30, 10);
 3014              		.loc 1 471 0
 3015 0034 1802     		lsl	r0, r3, #8	@ tmp190, D.9588,
 3016 0036 130E     		lsr	r3, r2, #24	@ D.9588, D.9588,
 3017 0038 0343     		orr	r3, r0	@ D.9588, tmp190
 472:../MY17/lib/MY17_Can_Library/MY17_Can_Library.c ****   type_out->id_min_cell_voltage = EXTRACT(bitstring, 40, 7);
 3018              		.loc 1 472 0
 3019 003a 7F20     		mov	r0, #127	@ tmp201,
 471:../MY17/lib/MY17_Can_Library/MY17_Can_Library.c ****   type_out->min_cell_voltage = EXTRACT(bitstring, 30, 10);
 3020              		.loc 1 471 0
 3021 003c 9B05     		lsl	r3, r3, #22	@ tmp193, D.9588,
 3022 003e 9B0D     		lsr	r3, r3, #22	@ tmp192, tmp193,
 3023 0040 CB80     		strh	r3, [r1, #6]	@ tmp192, type_out_8(D)->min_cell_voltage
 3024              		.loc 1 472 0
 3025 0042 530C     		lsr	r3, r2, #17	@ D.9588, D.9588,
 3026 0044 0340     		and	r3, r0	@ tmp200, tmp201
 3027 0046 0B72     		strb	r3, [r1, #8]	@ tmp200, type_out_8(D)->id_min_cell_voltage
 473:../MY17/lib/MY17_Can_Library/MY17_Can_Library.c ****   type_out->max_cell_voltage = EXTRACT(bitstring, 47, 10);
 3028              		.loc 1 473 0
 3029 0048 D303     		lsl	r3, r2, #15	@ tmp207, D.9588,
 3030 004a 9B0D     		lsr	r3, r3, #22	@ tmp206, tmp207,
 474:../MY17/lib/MY17_Can_Library/MY17_Can_Library.c ****   type_out->id_max_cell_voltage = EXTRACT(bitstring, 57, 7);
ARM GAS  /var/folders/9j/_txx49hn253_s3mnzkyxlj8m0000gp/T//cc5dK8On.s 			page 68


 3031              		.loc 1 474 0
 3032 004c 0240     		and	r2, r0	@ tmp212, tmp201
 473:../MY17/lib/MY17_Can_Library/MY17_Can_Library.c ****   type_out->max_cell_voltage = EXTRACT(bitstring, 47, 10);
 3033              		.loc 1 473 0
 3034 004e 4B81     		strh	r3, [r1, #10]	@ tmp206, type_out_8(D)->max_cell_voltage
 3035              		.loc 1 474 0
 3036 0050 0A73     		strb	r2, [r1, #12]	@ tmp212, type_out_8(D)->id_max_cell_voltage
 475:../MY17/lib/MY17_Can_Library/MY17_Can_Library.c **** }
 3037              		.loc 1 475 0
 3038 0052 02B0     		add	sp, sp, #8	@,,
 3039              	.LVL271:
 3040              		@ sp needed	@
 3041 0054 10BD     		pop	{r4, pc}
 3042              		.cfi_endproc
 3043              	.LFE234:
 3044              		.size	Can_Bms_PackStatus_FromCan, .-Can_Bms_PackStatus_FromCan
 3045 0056 C046     		.section	.text.Can_Bms_Error_ToCan,"ax",%progbits
 3046              		.align	2
 3047              		.global	Can_Bms_Error_ToCan
 3048              		.code	16
 3049              		.thumb_func
 3050              		.type	Can_Bms_Error_ToCan, %function
 3051              	Can_Bms_Error_ToCan:
 3052              	.LFB235:
 476:../MY17/lib/MY17_Can_Library/MY17_Can_Library.c **** 
 477:../MY17/lib/MY17_Can_Library/MY17_Can_Library.c **** TO_CAN(Can_Bms_Error) {
 3053              		.loc 1 477 0
 3054              		.cfi_startproc
 3055              	.LVL272:
 478:../MY17/lib/MY17_Can_Library/MY17_Can_Library.c ****   uint64_t bitstring = 0;
 479:../MY17/lib/MY17_Can_Library/MY17_Can_Library.c ****   bitstring = INSERT(type_in->type, bitstring, 0, 4);
 480:../MY17/lib/MY17_Can_Library/MY17_Can_Library.c ****   from_bitstring(&bitstring, can_out->data);
 481:../MY17/lib/MY17_Can_Library/MY17_Can_Library.c ****   can_out->id = BMS_ERRORS__id;
 3056              		.loc 1 481 0
 3057 0000 9823     		mov	r3, #152	@ tmp157,
 3058 0002 9B00     		lsl	r3, r3, #2	@ tmp157, tmp157,
 479:../MY17/lib/MY17_Can_Library/MY17_Can_Library.c ****   from_bitstring(&bitstring, can_out->data);
 3059              		.loc 1 479 0
 3060 0004 0278     		ldrb	r2, [r0]	@ *type_in_2(D), *type_in_2(D)
 477:../MY17/lib/MY17_Can_Library/MY17_Can_Library.c ****   uint64_t bitstring = 0;
 3061              		.loc 1 477 0
 3062 0006 10B5     		push	{r4, lr}	@
 3063              		.cfi_def_cfa_offset 8
 3064              		.cfi_offset 4, -8
 3065              		.cfi_offset 14, -4
 479:../MY17/lib/MY17_Can_Library/MY17_Can_Library.c ****   from_bitstring(&bitstring, can_out->data);
 3066              		.loc 1 479 0
 3067 0008 0020     		mov	r0, #0	@ tmp128,
 3068              	.LVL273:
 3069              	.LBB531:
 3070              	.LBB532:
 3071              	.LBB533:
  36:../MY17/lib/MY17_Can_Library/MY17_Can_Library.c ****   }
 3072              		.loc 1 36 0
 3073 000a 0024     		mov	r4, #0	@ D.9601,
 3074              	.LBE533:
 3075              	.LBE532:
ARM GAS  /var/folders/9j/_txx49hn253_s3mnzkyxlj8m0000gp/T//cc5dK8On.s 			page 69


 3076              	.LBE531:
 3077              		.loc 1 481 0
 3078 000c 0B80     		strh	r3, [r1]	@ tmp157, can_out_6(D)->id
 482:../MY17/lib/MY17_Can_Library/MY17_Can_Library.c ****   can_out->len = 1;
 3079              		.loc 1 482 0
 3080 000e 0123     		mov	r3, #1	@ tmp159,
 479:../MY17/lib/MY17_Can_Library/MY17_Can_Library.c ****   from_bitstring(&bitstring, can_out->data);
 3081              		.loc 1 479 0
 3082 0010 1207     		lsl	r2, r2, #28	@ D.9600, *type_in_2(D),
 3083              	.LVL274:
 3084              	.LBB536:
 3085              	.LBB535:
 3086              	.LBB534:
  36:../MY17/lib/MY17_Can_Library/MY17_Can_Library.c ****   }
 3087              		.loc 1 36 0
 3088 0012 8A71     		strb	r2, [r1, #6]	@ D.9600, MEM[(union DATA_T *)can_out_6(D) + 3B].byte
 3089 0014 120E     		lsr	r2, r2, #24	@ D.9601, D.9600,
 3090              	.LVL275:
 3091 0016 8872     		strb	r0, [r1, #10]	@ tmp128, MEM[(union DATA_T *)can_out_6(D) + 3B].byte
 3092              	.LVL276:
 3093 0018 4872     		strb	r0, [r1, #9]	@ tmp128, MEM[(union DATA_T *)can_out_6(D) + 3B].byte
 3094              	.LVL277:
 3095 001a 0872     		strb	r0, [r1, #8]	@ tmp128, MEM[(union DATA_T *)can_out_6(D) + 3B].byte
 3096              	.LVL278:
 3097 001c CC71     		strb	r4, [r1, #7]	@ D.9601, MEM[(union DATA_T *)can_out_6(D) + 3B].byte
 3098              	.LVL279:
 3099 001e 4871     		strb	r0, [r1, #5]	@ tmp128, MEM[(union DATA_T *)can_out_6(D) + 3B].byte
 3100              	.LVL280:
 3101 0020 0871     		strb	r0, [r1, #4]	@ tmp128, MEM[(union DATA_T *)can_out_6(D) + 3B].byte
 3102              	.LVL281:
 3103 0022 CA70     		strb	r2, [r1, #3]	@ D.9601, MEM[(union DATA_T *)can_out_6(D) + 3B].byte
 3104              	.LVL282:
 3105              	.LBE534:
 3106              	.LBE535:
 3107              	.LBE536:
 3108              		.loc 1 482 0
 3109 0024 8B70     		strb	r3, [r1, #2]	@ tmp159, can_out_6(D)->len
 483:../MY17/lib/MY17_Can_Library/MY17_Can_Library.c **** }
 3110              		.loc 1 483 0
 3111              		@ sp needed	@
 3112 0026 10BD     		pop	{r4, pc}
 3113              		.cfi_endproc
 3114              	.LFE235:
 3115              		.size	Can_Bms_Error_ToCan, .-Can_Bms_Error_ToCan
 3116              		.section	.text.Can_Bms_Error_FromCan,"ax",%progbits
 3117              		.align	2
 3118              		.global	Can_Bms_Error_FromCan
 3119              		.code	16
 3120              		.thumb_func
 3121              		.type	Can_Bms_Error_FromCan, %function
 3122              	Can_Bms_Error_FromCan:
 3123              	.LFB236:
 484:../MY17/lib/MY17_Can_Library/MY17_Can_Library.c **** 
 485:../MY17/lib/MY17_Can_Library/MY17_Can_Library.c **** FROM_CAN(Can_Bms_Error) {
 3124              		.loc 1 485 0
 3125              		.cfi_startproc
 3126              	.LVL283:
ARM GAS  /var/folders/9j/_txx49hn253_s3mnzkyxlj8m0000gp/T//cc5dK8On.s 			page 70


 486:../MY17/lib/MY17_Can_Library/MY17_Can_Library.c ****   uint64_t bitstring = 0;
 3127              		.loc 1 486 0
 3128 0000 0022     		mov	r2, #0	@ tmp152,
 3129 0002 0023     		mov	r3, #0	@,
 485:../MY17/lib/MY17_Can_Library/MY17_Can_Library.c ****   uint64_t bitstring = 0;
 3130              		.loc 1 485 0
 3131 0004 10B5     		push	{r4, lr}	@
 3132              		.cfi_def_cfa_offset 8
 3133              		.cfi_offset 4, -8
 3134              		.cfi_offset 14, -4
 3135 0006 82B0     		sub	sp, sp, #8	@,,
 3136              		.cfi_def_cfa_offset 16
 3137              		.loc 1 486 0
 3138 0008 0092     		str	r2, [sp]	@ tmp152, bitstring
 3139 000a 0193     		str	r3, [sp, #4]	@ tmp152,
 3140              	.LVL284:
 3141 000c 6A46     		mov	r2, sp	@ tmp167,
 3142 000e C31C     		add	r3, r0, #3	@ ivtmp.525, can_in,
 3143 0010 0732     		add	r2, r2, #7	@ ivtmp.527,
 3144 0012 0B30     		add	r0, r0, #11	@ D.9620,
 3145              	.LVL285:
 3146              	.L145:
 3147              	.LBB537:
 3148              	.LBB538:
 3149              	.LBB539:
  36:../MY17/lib/MY17_Can_Library/MY17_Can_Library.c ****   }
 3150              		.loc 1 36 0
 3151 0014 1C78     		ldrb	r4, [r3]	@ MEM[base: _27, offset: 0B], MEM[base: _27, offset: 0B]
 3152 0016 0133     		add	r3, r3, #1	@ ivtmp.525,
 3153              	.LVL286:
 3154 0018 1470     		strb	r4, [r2]	@ MEM[base: _27, offset: 0B], MEM[base: _28, offset: 0B]
 3155 001a 013A     		sub	r2, r2, #1	@ ivtmp.527,
  35:../MY17/lib/MY17_Can_Library/MY17_Can_Library.c ****     (*out).byte[7-i] = (*in).byte[i];
 3156              		.loc 1 35 0
 3157 001c 8342     		cmp	r3, r0	@ ivtmp.525, D.9620
 3158 001e F9D1     		bne	.L145	@,
 3159              	.LBE539:
 3160              	.LBE538:
 3161              	.LBE537:
 487:../MY17/lib/MY17_Can_Library/MY17_Can_Library.c ****   to_bitstring(can_in->data, &bitstring);
 488:../MY17/lib/MY17_Can_Library/MY17_Can_Library.c ****   type_out->type = (Can_Bms_ErrorID_T)(EXTRACT(bitstring, 0, 4));
 3162              		.loc 1 488 0
 3163 0020 019B     		ldr	r3, [sp, #4]	@ tmp168, bitstring
 3164 0022 1B0F     		lsr	r3, r3, #28	@ tmp162, tmp168,
 3165 0024 0B70     		strb	r3, [r1]	@ tmp162, type_out_9(D)->type
 489:../MY17/lib/MY17_Can_Library/MY17_Can_Library.c **** }
 3166              		.loc 1 489 0
 3167 0026 02B0     		add	sp, sp, #8	@,,
 3168              	.LVL287:
 3169              		@ sp needed	@
 3170 0028 10BD     		pop	{r4, pc}
 3171              		.cfi_endproc
 3172              	.LFE236:
 3173              		.size	Can_Bms_Error_FromCan, .-Can_Bms_Error_FromCan
 3174 002a C046     		.section	.text.Can_Dash_Heartbeat_ToCan,"ax",%progbits
 3175              		.align	2
 3176              		.global	Can_Dash_Heartbeat_ToCan
ARM GAS  /var/folders/9j/_txx49hn253_s3mnzkyxlj8m0000gp/T//cc5dK8On.s 			page 71


 3177              		.code	16
 3178              		.thumb_func
 3179              		.type	Can_Dash_Heartbeat_ToCan, %function
 3180              	Can_Dash_Heartbeat_ToCan:
 3181              	.LFB237:
 490:../MY17/lib/MY17_Can_Library/MY17_Can_Library.c **** 
 491:../MY17/lib/MY17_Can_Library/MY17_Can_Library.c **** TO_CAN(Can_Dash_Heartbeat) {
 3182              		.loc 1 491 0
 3183              		.cfi_startproc
 3184              	.LVL288:
 492:../MY17/lib/MY17_Can_Library/MY17_Can_Library.c ****   uint64_t bitstring = 0;
 493:../MY17/lib/MY17_Can_Library/MY17_Can_Library.c ****   bitstring = INSERT(type_in->ok, bitstring, 0, 1);
 494:../MY17/lib/MY17_Can_Library/MY17_Can_Library.c ****   from_bitstring(&bitstring, can_out->data);
 495:../MY17/lib/MY17_Can_Library/MY17_Can_Library.c ****   can_out->id = DASH_HEARTBEAT__id;
 3185              		.loc 1 495 0
 3186 0000 7023     		mov	r3, #112	@ tmp157,
 493:../MY17/lib/MY17_Can_Library/MY17_Can_Library.c ****   from_bitstring(&bitstring, can_out->data);
 3187              		.loc 1 493 0
 3188 0002 0278     		ldrb	r2, [r0]	@ *type_in_2(D), *type_in_2(D)
 491:../MY17/lib/MY17_Can_Library/MY17_Can_Library.c ****   uint64_t bitstring = 0;
 3189              		.loc 1 491 0
 3190 0004 10B5     		push	{r4, lr}	@
 3191              		.cfi_def_cfa_offset 8
 3192              		.cfi_offset 4, -8
 3193              		.cfi_offset 14, -4
 493:../MY17/lib/MY17_Can_Library/MY17_Can_Library.c ****   from_bitstring(&bitstring, can_out->data);
 3194              		.loc 1 493 0
 3195 0006 0020     		mov	r0, #0	@ tmp128,
 3196              	.LVL289:
 3197              	.LBB540:
 3198              	.LBB541:
 3199              	.LBB542:
  36:../MY17/lib/MY17_Can_Library/MY17_Can_Library.c ****   }
 3200              		.loc 1 36 0
 3201 0008 0024     		mov	r4, #0	@ D.9625,
 3202              	.LBE542:
 3203              	.LBE541:
 3204              	.LBE540:
 493:../MY17/lib/MY17_Can_Library/MY17_Can_Library.c ****   from_bitstring(&bitstring, can_out->data);
 3205              		.loc 1 493 0
 3206 000a D207     		lsl	r2, r2, #31	@ D.9624, *type_in_2(D),
 3207              	.LVL290:
 3208              	.LBB549:
 3209              	.LBB546:
 3210              	.LBB543:
  36:../MY17/lib/MY17_Can_Library/MY17_Can_Library.c ****   }
 3211              		.loc 1 36 0
 3212 000c 8A71     		strb	r2, [r1, #6]	@ D.9624, MEM[(union DATA_T *)can_out_6(D) + 3B].byte
 3213              	.LBE543:
 3214              	.LBE546:
 3215              	.LBE549:
 3216              		.loc 1 495 0
 3217 000e 0B80     		strh	r3, [r1]	@ tmp157, can_out_6(D)->id
 3218              	.LBB550:
 3219              	.LBB547:
 3220              	.LBB544:
  36:../MY17/lib/MY17_Can_Library/MY17_Can_Library.c ****   }
ARM GAS  /var/folders/9j/_txx49hn253_s3mnzkyxlj8m0000gp/T//cc5dK8On.s 			page 72


 3221              		.loc 1 36 0
 3222 0010 120E     		lsr	r2, r2, #24	@ D.9625, D.9624,
 3223              	.LVL291:
 3224              	.LBE544:
 3225              	.LBE547:
 3226              	.LBE550:
 496:../MY17/lib/MY17_Can_Library/MY17_Can_Library.c ****   can_out->len = 1;
 3227              		.loc 1 496 0
 3228 0012 6F3B     		sub	r3, r3, #111	@ tmp159,
 3229              	.LBB551:
 3230              	.LBB548:
 3231              	.LBB545:
  36:../MY17/lib/MY17_Can_Library/MY17_Can_Library.c ****   }
 3232              		.loc 1 36 0
 3233 0014 8872     		strb	r0, [r1, #10]	@ tmp128, MEM[(union DATA_T *)can_out_6(D) + 3B].byte
 3234              	.LVL292:
 3235 0016 4872     		strb	r0, [r1, #9]	@ tmp128, MEM[(union DATA_T *)can_out_6(D) + 3B].byte
 3236              	.LVL293:
 3237 0018 0872     		strb	r0, [r1, #8]	@ tmp128, MEM[(union DATA_T *)can_out_6(D) + 3B].byte
 3238              	.LVL294:
 3239 001a CC71     		strb	r4, [r1, #7]	@ D.9625, MEM[(union DATA_T *)can_out_6(D) + 3B].byte
 3240              	.LVL295:
 3241 001c 4871     		strb	r0, [r1, #5]	@ tmp128, MEM[(union DATA_T *)can_out_6(D) + 3B].byte
 3242              	.LVL296:
 3243 001e 0871     		strb	r0, [r1, #4]	@ tmp128, MEM[(union DATA_T *)can_out_6(D) + 3B].byte
 3244              	.LVL297:
 3245 0020 CA70     		strb	r2, [r1, #3]	@ D.9625, MEM[(union DATA_T *)can_out_6(D) + 3B].byte
 3246              	.LVL298:
 3247              	.LBE545:
 3248              	.LBE548:
 3249              	.LBE551:
 3250              		.loc 1 496 0
 3251 0022 8B70     		strb	r3, [r1, #2]	@ tmp159, can_out_6(D)->len
 497:../MY17/lib/MY17_Can_Library/MY17_Can_Library.c **** }
 3252              		.loc 1 497 0
 3253              		@ sp needed	@
 3254 0024 10BD     		pop	{r4, pc}
 3255              		.cfi_endproc
 3256              	.LFE237:
 3257              		.size	Can_Dash_Heartbeat_ToCan, .-Can_Dash_Heartbeat_ToCan
 3258 0026 C046     		.section	.text.Can_Dash_Heartbeat_FromCan,"ax",%progbits
 3259              		.align	2
 3260              		.global	Can_Dash_Heartbeat_FromCan
 3261              		.code	16
 3262              		.thumb_func
 3263              		.type	Can_Dash_Heartbeat_FromCan, %function
 3264              	Can_Dash_Heartbeat_FromCan:
 3265              	.LFB238:
 498:../MY17/lib/MY17_Can_Library/MY17_Can_Library.c **** 
 499:../MY17/lib/MY17_Can_Library/MY17_Can_Library.c **** FROM_CAN(Can_Dash_Heartbeat) {
 3266              		.loc 1 499 0
 3267              		.cfi_startproc
 3268              	.LVL299:
 500:../MY17/lib/MY17_Can_Library/MY17_Can_Library.c ****   uint64_t bitstring = 0;
 3269              		.loc 1 500 0
 3270 0000 0022     		mov	r2, #0	@ tmp151,
 3271 0002 0023     		mov	r3, #0	@,
ARM GAS  /var/folders/9j/_txx49hn253_s3mnzkyxlj8m0000gp/T//cc5dK8On.s 			page 73


 499:../MY17/lib/MY17_Can_Library/MY17_Can_Library.c ****   uint64_t bitstring = 0;
 3272              		.loc 1 499 0
 3273 0004 10B5     		push	{r4, lr}	@
 3274              		.cfi_def_cfa_offset 8
 3275              		.cfi_offset 4, -8
 3276              		.cfi_offset 14, -4
 3277 0006 82B0     		sub	sp, sp, #8	@,,
 3278              		.cfi_def_cfa_offset 16
 3279              		.loc 1 500 0
 3280 0008 0092     		str	r2, [sp]	@ tmp151, bitstring
 3281 000a 0193     		str	r3, [sp, #4]	@ tmp151,
 3282              	.LVL300:
 3283 000c 6A46     		mov	r2, sp	@ tmp165,
 3284 000e C31C     		add	r3, r0, #3	@ ivtmp.540, can_in,
 3285 0010 0732     		add	r2, r2, #7	@ ivtmp.542,
 3286 0012 0B30     		add	r0, r0, #11	@ D.9645,
 3287              	.LVL301:
 3288              	.L149:
 3289              	.LBB552:
 3290              	.LBB553:
 3291              	.LBB554:
  36:../MY17/lib/MY17_Can_Library/MY17_Can_Library.c ****   }
 3292              		.loc 1 36 0
 3293 0014 1C78     		ldrb	r4, [r3]	@ MEM[base: _26, offset: 0B], MEM[base: _26, offset: 0B]
 3294 0016 0133     		add	r3, r3, #1	@ ivtmp.540,
 3295              	.LVL302:
 3296 0018 1470     		strb	r4, [r2]	@ MEM[base: _26, offset: 0B], MEM[base: _27, offset: 0B]
 3297 001a 013A     		sub	r2, r2, #1	@ ivtmp.542,
  35:../MY17/lib/MY17_Can_Library/MY17_Can_Library.c ****     (*out).byte[7-i] = (*in).byte[i];
 3298              		.loc 1 35 0
 3299 001c 8342     		cmp	r3, r0	@ ivtmp.540, D.9645
 3300 001e F9D1     		bne	.L149	@,
 3301              	.LBE554:
 3302              	.LBE553:
 3303              	.LBE552:
 501:../MY17/lib/MY17_Can_Library/MY17_Can_Library.c ****   to_bitstring(can_in->data, &bitstring);
 502:../MY17/lib/MY17_Can_Library/MY17_Can_Library.c ****   type_out->ok = EXTRACT(bitstring, 0, 1);
 3304              		.loc 1 502 0
 3305 0020 019B     		ldr	r3, [sp, #4]	@ tmp166, bitstring
 3306 0022 DB0F     		lsr	r3, r3, #31	@ D.9639, tmp166,
 3307 0024 0B70     		strb	r3, [r1]	@ D.9639, type_out_8(D)->ok
 503:../MY17/lib/MY17_Can_Library/MY17_Can_Library.c **** }
 3308              		.loc 1 503 0
 3309 0026 02B0     		add	sp, sp, #8	@,,
 3310              	.LVL303:
 3311              		@ sp needed	@
 3312 0028 10BD     		pop	{r4, pc}
 3313              		.cfi_endproc
 3314              	.LFE238:
 3315              		.size	Can_Dash_Heartbeat_FromCan, .-Can_Dash_Heartbeat_FromCan
 3316 002a C046     		.section	.text.Can_Dash_Request_ToCan,"ax",%progbits
 3317              		.align	2
 3318              		.global	Can_Dash_Request_ToCan
 3319              		.code	16
 3320              		.thumb_func
 3321              		.type	Can_Dash_Request_ToCan, %function
 3322              	Can_Dash_Request_ToCan:
ARM GAS  /var/folders/9j/_txx49hn253_s3mnzkyxlj8m0000gp/T//cc5dK8On.s 			page 74


 3323              	.LFB239:
 504:../MY17/lib/MY17_Can_Library/MY17_Can_Library.c **** 
 505:../MY17/lib/MY17_Can_Library/MY17_Can_Library.c **** TO_CAN(Can_Dash_Request) {
 3324              		.loc 1 505 0
 3325              		.cfi_startproc
 3326              	.LVL304:
 506:../MY17/lib/MY17_Can_Library/MY17_Can_Library.c ****   uint64_t bitstring = 0;
 507:../MY17/lib/MY17_Can_Library/MY17_Can_Library.c ****   bitstring = INSERT(type_in->type, bitstring, 0, 3);
 508:../MY17/lib/MY17_Can_Library/MY17_Can_Library.c ****   from_bitstring(&bitstring, can_out->data);
 509:../MY17/lib/MY17_Can_Library/MY17_Can_Library.c ****   can_out->id = DASH_REQUEST__id;
 3327              		.loc 1 509 0
 3328 0000 7123     		mov	r3, #113	@ tmp157,
 507:../MY17/lib/MY17_Can_Library/MY17_Can_Library.c ****   from_bitstring(&bitstring, can_out->data);
 3329              		.loc 1 507 0
 3330 0002 0278     		ldrb	r2, [r0]	@ *type_in_2(D), *type_in_2(D)
 505:../MY17/lib/MY17_Can_Library/MY17_Can_Library.c ****   uint64_t bitstring = 0;
 3331              		.loc 1 505 0
 3332 0004 10B5     		push	{r4, lr}	@
 3333              		.cfi_def_cfa_offset 8
 3334              		.cfi_offset 4, -8
 3335              		.cfi_offset 14, -4
 507:../MY17/lib/MY17_Can_Library/MY17_Can_Library.c ****   from_bitstring(&bitstring, can_out->data);
 3336              		.loc 1 507 0
 3337 0006 0020     		mov	r0, #0	@ tmp128,
 3338              	.LVL305:
 3339              	.LBB555:
 3340              	.LBB556:
 3341              	.LBB557:
  36:../MY17/lib/MY17_Can_Library/MY17_Can_Library.c ****   }
 3342              		.loc 1 36 0
 3343 0008 0024     		mov	r4, #0	@ D.9650,
 3344              	.LBE557:
 3345              	.LBE556:
 3346              	.LBE555:
 507:../MY17/lib/MY17_Can_Library/MY17_Can_Library.c ****   from_bitstring(&bitstring, can_out->data);
 3347              		.loc 1 507 0
 3348 000a 5207     		lsl	r2, r2, #29	@ D.9649, *type_in_2(D),
 3349              	.LVL306:
 3350              	.LBB564:
 3351              	.LBB561:
 3352              	.LBB558:
  36:../MY17/lib/MY17_Can_Library/MY17_Can_Library.c ****   }
 3353              		.loc 1 36 0
 3354 000c 8A71     		strb	r2, [r1, #6]	@ D.9649, MEM[(union DATA_T *)can_out_6(D) + 3B].byte
 3355              	.LBE558:
 3356              	.LBE561:
 3357              	.LBE564:
 3358              		.loc 1 509 0
 3359 000e 0B80     		strh	r3, [r1]	@ tmp157, can_out_6(D)->id
 3360              	.LBB565:
 3361              	.LBB562:
 3362              	.LBB559:
  36:../MY17/lib/MY17_Can_Library/MY17_Can_Library.c ****   }
 3363              		.loc 1 36 0
 3364 0010 120E     		lsr	r2, r2, #24	@ D.9650, D.9649,
 3365              	.LVL307:
 3366              	.LBE559:
ARM GAS  /var/folders/9j/_txx49hn253_s3mnzkyxlj8m0000gp/T//cc5dK8On.s 			page 75


 3367              	.LBE562:
 3368              	.LBE565:
 510:../MY17/lib/MY17_Can_Library/MY17_Can_Library.c ****   can_out->len = 1;
 3369              		.loc 1 510 0
 3370 0012 703B     		sub	r3, r3, #112	@ tmp159,
 3371              	.LBB566:
 3372              	.LBB563:
 3373              	.LBB560:
  36:../MY17/lib/MY17_Can_Library/MY17_Can_Library.c ****   }
 3374              		.loc 1 36 0
 3375 0014 8872     		strb	r0, [r1, #10]	@ tmp128, MEM[(union DATA_T *)can_out_6(D) + 3B].byte
 3376              	.LVL308:
 3377 0016 4872     		strb	r0, [r1, #9]	@ tmp128, MEM[(union DATA_T *)can_out_6(D) + 3B].byte
 3378              	.LVL309:
 3379 0018 0872     		strb	r0, [r1, #8]	@ tmp128, MEM[(union DATA_T *)can_out_6(D) + 3B].byte
 3380              	.LVL310:
 3381 001a CC71     		strb	r4, [r1, #7]	@ D.9650, MEM[(union DATA_T *)can_out_6(D) + 3B].byte
 3382              	.LVL311:
 3383 001c 4871     		strb	r0, [r1, #5]	@ tmp128, MEM[(union DATA_T *)can_out_6(D) + 3B].byte
 3384              	.LVL312:
 3385 001e 0871     		strb	r0, [r1, #4]	@ tmp128, MEM[(union DATA_T *)can_out_6(D) + 3B].byte
 3386              	.LVL313:
 3387 0020 CA70     		strb	r2, [r1, #3]	@ D.9650, MEM[(union DATA_T *)can_out_6(D) + 3B].byte
 3388              	.LVL314:
 3389              	.LBE560:
 3390              	.LBE563:
 3391              	.LBE566:
 3392              		.loc 1 510 0
 3393 0022 8B70     		strb	r3, [r1, #2]	@ tmp159, can_out_6(D)->len
 511:../MY17/lib/MY17_Can_Library/MY17_Can_Library.c **** }
 3394              		.loc 1 511 0
 3395              		@ sp needed	@
 3396 0024 10BD     		pop	{r4, pc}
 3397              		.cfi_endproc
 3398              	.LFE239:
 3399              		.size	Can_Dash_Request_ToCan, .-Can_Dash_Request_ToCan
 3400 0026 C046     		.section	.text.Can_Dash_Request_FromCan,"ax",%progbits
 3401              		.align	2
 3402              		.global	Can_Dash_Request_FromCan
 3403              		.code	16
 3404              		.thumb_func
 3405              		.type	Can_Dash_Request_FromCan, %function
 3406              	Can_Dash_Request_FromCan:
 3407              	.LFB240:
 512:../MY17/lib/MY17_Can_Library/MY17_Can_Library.c **** 
 513:../MY17/lib/MY17_Can_Library/MY17_Can_Library.c **** FROM_CAN(Can_Dash_Request) {
 3408              		.loc 1 513 0
 3409              		.cfi_startproc
 3410              	.LVL315:
 514:../MY17/lib/MY17_Can_Library/MY17_Can_Library.c ****   uint64_t bitstring = 0;
 3411              		.loc 1 514 0
 3412 0000 0022     		mov	r2, #0	@ tmp152,
 3413 0002 0023     		mov	r3, #0	@,
 513:../MY17/lib/MY17_Can_Library/MY17_Can_Library.c ****   uint64_t bitstring = 0;
 3414              		.loc 1 513 0
 3415 0004 10B5     		push	{r4, lr}	@
 3416              		.cfi_def_cfa_offset 8
ARM GAS  /var/folders/9j/_txx49hn253_s3mnzkyxlj8m0000gp/T//cc5dK8On.s 			page 76


 3417              		.cfi_offset 4, -8
 3418              		.cfi_offset 14, -4
 3419 0006 82B0     		sub	sp, sp, #8	@,,
 3420              		.cfi_def_cfa_offset 16
 3421              		.loc 1 514 0
 3422 0008 0092     		str	r2, [sp]	@ tmp152, bitstring
 3423 000a 0193     		str	r3, [sp, #4]	@ tmp152,
 3424              	.LVL316:
 3425 000c 6A46     		mov	r2, sp	@ tmp167,
 3426 000e C31C     		add	r3, r0, #3	@ ivtmp.555, can_in,
 3427 0010 0732     		add	r2, r2, #7	@ ivtmp.557,
 3428 0012 0B30     		add	r0, r0, #11	@ D.9669,
 3429              	.LVL317:
 3430              	.L153:
 3431              	.LBB567:
 3432              	.LBB568:
 3433              	.LBB569:
  36:../MY17/lib/MY17_Can_Library/MY17_Can_Library.c ****   }
 3434              		.loc 1 36 0
 3435 0014 1C78     		ldrb	r4, [r3]	@ MEM[base: _27, offset: 0B], MEM[base: _27, offset: 0B]
 3436 0016 0133     		add	r3, r3, #1	@ ivtmp.555,
 3437              	.LVL318:
 3438 0018 1470     		strb	r4, [r2]	@ MEM[base: _27, offset: 0B], MEM[base: _28, offset: 0B]
 3439 001a 013A     		sub	r2, r2, #1	@ ivtmp.557,
  35:../MY17/lib/MY17_Can_Library/MY17_Can_Library.c ****     (*out).byte[7-i] = (*in).byte[i];
 3440              		.loc 1 35 0
 3441 001c 8342     		cmp	r3, r0	@ ivtmp.555, D.9669
 3442 001e F9D1     		bne	.L153	@,
 3443              	.LBE569:
 3444              	.LBE568:
 3445              	.LBE567:
 515:../MY17/lib/MY17_Can_Library/MY17_Can_Library.c ****   to_bitstring(can_in->data, &bitstring);
 516:../MY17/lib/MY17_Can_Library/MY17_Can_Library.c ****   type_out->type = (Can_Dash_RequestID_T)(EXTRACT(bitstring, 0, 3));
 3446              		.loc 1 516 0
 3447 0020 019B     		ldr	r3, [sp, #4]	@ tmp168, bitstring
 3448 0022 5B0F     		lsr	r3, r3, #29	@ tmp162, tmp168,
 3449 0024 0B70     		strb	r3, [r1]	@ tmp162, type_out_9(D)->type
 517:../MY17/lib/MY17_Can_Library/MY17_Can_Library.c **** }
 3450              		.loc 1 517 0
 3451 0026 02B0     		add	sp, sp, #8	@,,
 3452              	.LVL319:
 3453              		@ sp needed	@
 3454 0028 10BD     		pop	{r4, pc}
 3455              		.cfi_endproc
 3456              	.LFE240:
 3457              		.size	Can_Dash_Request_FromCan, .-Can_Dash_Request_FromCan
 3458 002a C046     		.section	.text.Can_MC_DataReading_ToCan,"ax",%progbits
 3459              		.align	2
 3460              		.global	Can_MC_DataReading_ToCan
 3461              		.code	16
 3462              		.thumb_func
 3463              		.type	Can_MC_DataReading_ToCan, %function
 3464              	Can_MC_DataReading_ToCan:
 3465              	.LFB241:
 518:../MY17/lib/MY17_Can_Library/MY17_Can_Library.c **** 
 519:../MY17/lib/MY17_Can_Library/MY17_Can_Library.c **** TO_CAN(Can_MC_DataReading) {
 3466              		.loc 1 519 0
ARM GAS  /var/folders/9j/_txx49hn253_s3mnzkyxlj8m0000gp/T//cc5dK8On.s 			page 77


 3467              		.cfi_startproc
 3468              	.LVL320:
 3469 0000 10B5     		push	{r4, lr}	@
 3470              		.cfi_def_cfa_offset 8
 3471              		.cfi_offset 4, -8
 3472              		.cfi_offset 14, -4
 520:../MY17/lib/MY17_Can_Library/MY17_Can_Library.c ****   uint64_t bitstring = 0;
 521:../MY17/lib/MY17_Can_Library/MY17_Can_Library.c ****   bitstring = INSERT(type_in->type, bitstring, 0, 8);
 522:../MY17/lib/MY17_Can_Library/MY17_Can_Library.c **** 
 523:../MY17/lib/MY17_Can_Library/MY17_Can_Library.c ****   // Little Endian
 524:../MY17/lib/MY17_Can_Library/MY17_Can_Library.c ****   int16_t swap_value = swap_int16(type_in->value);
 3473              		.loc 1 524 0
 3474 0002 4388     		ldrh	r3, [r0, #2]	@ D.9674,
 3475              	.LVL321:
 525:../MY17/lib/MY17_Can_Library/MY17_Can_Library.c **** 
 526:../MY17/lib/MY17_Can_Library/MY17_Can_Library.c ****   bitstring = INSERT(swap_value, bitstring, 8, 16);
 3476              		.loc 1 526 0
 3477 0004 0024     		mov	r4, #0	@ tmp150,
 3478              	.LBB570:
 3479              	.LBB571:
  55:../MY17/lib/MY17_Can_Library/MY17_Can_Library.c **** }
 3480              		.loc 1 55 0
 3481 0006 1A0A     		lsr	r2, r3, #8	@ tmp136, D.9674,
 3482 0008 1BB2     		sxth	r3, r3	@ D.9675, D.9674
 3483 000a 1B02     		lsl	r3, r3, #8	@ D.9675, D.9675,
 3484              	.LVL322:
 3485 000c 1343     		orr	r3, r2	@ tmp141, tmp136
 3486              	.LBE571:
 3487              	.LBE570:
 521:../MY17/lib/MY17_Can_Library/MY17_Can_Library.c **** 
 3488              		.loc 1 521 0
 3489 000e 0278     		ldrb	r2, [r0]	@ *type_in_2(D), *type_in_2(D)
 3490              		.loc 1 526 0
 3491 0010 1B04     		lsl	r3, r3, #16	@ tmp146, tmp141,
 521:../MY17/lib/MY17_Can_Library/MY17_Can_Library.c **** 
 3492              		.loc 1 521 0
 3493 0012 1206     		lsl	r2, r2, #24	@ D.9673, *type_in_2(D),
 3494              		.loc 1 526 0
 3495 0014 1B0A     		lsr	r3, r3, #8	@ D.9673, tmp146,
 3496 0016 1343     		orr	r3, r2	@ bitstring, D.9673
 3497              	.LVL323:
 3498              	.LBB572:
 3499              	.LBB573:
 3500              	.LBB574:
  36:../MY17/lib/MY17_Can_Library/MY17_Can_Library.c ****   }
 3501              		.loc 1 36 0
 3502 0018 180A     		lsr	r0, r3, #8	@ D.9678, bitstring,
 3503              	.LVL324:
 3504 001a 8B71     		strb	r3, [r1, #6]	@ bitstring, MEM[(union DATA_T *)can_out_11(D) + 3B].byte
 3505              	.LVL325:
 3506 001c 4871     		strb	r0, [r1, #5]	@ D.9678, MEM[(union DATA_T *)can_out_11(D) + 3B].byte
 3507 001e 180C     		lsr	r0, r3, #16	@ D.9678, bitstring,
 3508 0020 1B0E     		lsr	r3, r3, #24	@ D.9678, bitstring,
 3509              	.LVL326:
 3510 0022 CB70     		strb	r3, [r1, #3]	@ D.9678, MEM[(union DATA_T *)can_out_11(D) + 3B].byte
 3511              	.LBE574:
 3512              	.LBE573:
ARM GAS  /var/folders/9j/_txx49hn253_s3mnzkyxlj8m0000gp/T//cc5dK8On.s 			page 78


 3513              	.LBE572:
 527:../MY17/lib/MY17_Can_Library/MY17_Can_Library.c ****   from_bitstring(&bitstring, can_out->data);
 528:../MY17/lib/MY17_Can_Library/MY17_Can_Library.c ****   can_out->id = MC_RESPONSE__id;
 3514              		.loc 1 528 0
 3515 0024 C423     		mov	r3, #196	@ tmp186,
 3516 0026 9B00     		lsl	r3, r3, #2	@ tmp186, tmp186,
 3517 0028 0B80     		strh	r3, [r1]	@ tmp186, can_out_11(D)->id
 529:../MY17/lib/MY17_Can_Library/MY17_Can_Library.c ****   can_out->len = 3;
 3518              		.loc 1 529 0
 3519 002a 0323     		mov	r3, #3	@ tmp188,
 3520              	.LBB577:
 3521              	.LBB576:
 3522              	.LBB575:
  36:../MY17/lib/MY17_Can_Library/MY17_Can_Library.c ****   }
 3523              		.loc 1 36 0
 3524 002c 8C72     		strb	r4, [r1, #10]	@ tmp150, MEM[(union DATA_T *)can_out_11(D) + 3B].byte
 3525              	.LVL327:
 3526 002e 4C72     		strb	r4, [r1, #9]	@ tmp150, MEM[(union DATA_T *)can_out_11(D) + 3B].byte
 3527              	.LVL328:
 3528 0030 0C72     		strb	r4, [r1, #8]	@ tmp150, MEM[(union DATA_T *)can_out_11(D) + 3B].byte
 3529              	.LVL329:
 3530 0032 CC71     		strb	r4, [r1, #7]	@ tmp150, MEM[(union DATA_T *)can_out_11(D) + 3B].byte
 3531              	.LVL330:
 3532 0034 0871     		strb	r0, [r1, #4]	@ D.9678, MEM[(union DATA_T *)can_out_11(D) + 3B].byte
 3533              	.LVL331:
 3534              	.LBE575:
 3535              	.LBE576:
 3536              	.LBE577:
 3537              		.loc 1 529 0
 3538 0036 8B70     		strb	r3, [r1, #2]	@ tmp188, can_out_11(D)->len
 530:../MY17/lib/MY17_Can_Library/MY17_Can_Library.c **** }
 3539              		.loc 1 530 0
 3540              		@ sp needed	@
 3541 0038 10BD     		pop	{r4, pc}
 3542              		.cfi_endproc
 3543              	.LFE241:
 3544              		.size	Can_MC_DataReading_ToCan, .-Can_MC_DataReading_ToCan
 3545 003a C046     		.section	.text.Can_MC_DataReading_FromCan,"ax",%progbits
 3546              		.align	2
 3547              		.global	Can_MC_DataReading_FromCan
 3548              		.code	16
 3549              		.thumb_func
 3550              		.type	Can_MC_DataReading_FromCan, %function
 3551              	Can_MC_DataReading_FromCan:
 3552              	.LFB242:
 531:../MY17/lib/MY17_Can_Library/MY17_Can_Library.c **** 
 532:../MY17/lib/MY17_Can_Library/MY17_Can_Library.c **** FROM_CAN(Can_MC_DataReading) {
 3553              		.loc 1 532 0
 3554              		.cfi_startproc
 3555              	.LVL332:
 533:../MY17/lib/MY17_Can_Library/MY17_Can_Library.c ****   uint64_t bitstring = 0;
 3556              		.loc 1 533 0
 3557 0000 0022     		mov	r2, #0	@ tmp159,
 3558 0002 0023     		mov	r3, #0	@,
 532:../MY17/lib/MY17_Can_Library/MY17_Can_Library.c ****   uint64_t bitstring = 0;
 3559              		.loc 1 532 0
 3560 0004 10B5     		push	{r4, lr}	@
ARM GAS  /var/folders/9j/_txx49hn253_s3mnzkyxlj8m0000gp/T//cc5dK8On.s 			page 79


 3561              		.cfi_def_cfa_offset 8
 3562              		.cfi_offset 4, -8
 3563              		.cfi_offset 14, -4
 3564 0006 82B0     		sub	sp, sp, #8	@,,
 3565              		.cfi_def_cfa_offset 16
 3566              		.loc 1 533 0
 3567 0008 0092     		str	r2, [sp]	@ tmp159, bitstring
 3568 000a 0193     		str	r3, [sp, #4]	@ tmp159,
 3569              	.LVL333:
 3570 000c 6A46     		mov	r2, sp	@ tmp180,
 3571 000e C31C     		add	r3, r0, #3	@ ivtmp.570, can_in,
 3572 0010 0732     		add	r2, r2, #7	@ ivtmp.572,
 3573 0012 0B30     		add	r0, r0, #11	@ D.9701,
 3574              	.LVL334:
 3575              	.L157:
 3576              	.LBB578:
 3577              	.LBB579:
 3578              	.LBB580:
  36:../MY17/lib/MY17_Can_Library/MY17_Can_Library.c ****   }
 3579              		.loc 1 36 0
 3580 0014 1C78     		ldrb	r4, [r3]	@ MEM[base: _35, offset: 0B], MEM[base: _35, offset: 0B]
 3581 0016 0133     		add	r3, r3, #1	@ ivtmp.570,
 3582              	.LVL335:
 3583 0018 1470     		strb	r4, [r2]	@ MEM[base: _35, offset: 0B], MEM[base: _36, offset: 0B]
 3584 001a 013A     		sub	r2, r2, #1	@ ivtmp.572,
  35:../MY17/lib/MY17_Can_Library/MY17_Can_Library.c ****     (*out).byte[7-i] = (*in).byte[i];
 3585              		.loc 1 35 0
 3586 001c 8342     		cmp	r3, r0	@ ivtmp.570, D.9701
 3587 001e F9D1     		bne	.L157	@,
 3588              	.LBE580:
 3589              	.LBE579:
 3590              	.LBE578:
 534:../MY17/lib/MY17_Can_Library/MY17_Can_Library.c ****   to_bitstring(can_in->data, &bitstring);
 535:../MY17/lib/MY17_Can_Library/MY17_Can_Library.c ****   type_out->type = (Can_MC_RegID_T)(EXTRACT(bitstring, 0, 8));
 3591              		.loc 1 535 0
 3592 0020 019B     		ldr	r3, [sp, #4]	@ D.9693, bitstring
 3593 0022 1A0E     		lsr	r2, r3, #24	@ D.9693, D.9693,
 536:../MY17/lib/MY17_Can_Library/MY17_Can_Library.c **** 
 537:../MY17/lib/MY17_Can_Library/MY17_Can_Library.c ****   // Little Endian
 538:../MY17/lib/MY17_Can_Library/MY17_Can_Library.c ****   int16_t swap_value = (int16_t)(swap_uint16(EXTRACT(bitstring, 8, 16)));
 3594              		.loc 1 538 0
 3595 0024 1B0A     		lsr	r3, r3, #8	@ D.9693, D.9693,
 3596 0026 9BB2     		uxth	r3, r3	@ D.9695, D.9693
 3597              	.LVL336:
 535:../MY17/lib/MY17_Can_Library/MY17_Can_Library.c **** 
 3598              		.loc 1 535 0
 3599 0028 0A70     		strb	r2, [r1]	@ D.9693, type_out_8(D)->type
 3600              	.LBB581:
 3601              	.LBB582:
  51:../MY17/lib/MY17_Can_Library/MY17_Can_Library.c **** }
 3602              		.loc 1 51 0
 3603 002a 1A02     		lsl	r2, r3, #8	@ D.9692, D.9695,
 3604 002c 1B0A     		lsr	r3, r3, #8	@ tmp169, D.9695,
 3605              	.LVL337:
 3606 002e 1343     		orr	r3, r2	@ tmp172, D.9692
 3607              	.LBE582:
 3608              	.LBE581:
ARM GAS  /var/folders/9j/_txx49hn253_s3mnzkyxlj8m0000gp/T//cc5dK8On.s 			page 80


 539:../MY17/lib/MY17_Can_Library/MY17_Can_Library.c **** 
 540:../MY17/lib/MY17_Can_Library/MY17_Can_Library.c ****   type_out->value = swap_value;
 3609              		.loc 1 540 0
 3610 0030 4B80     		strh	r3, [r1, #2]	@ tmp172, type_out_8(D)->value
 541:../MY17/lib/MY17_Can_Library/MY17_Can_Library.c **** }
 3611              		.loc 1 541 0
 3612 0032 02B0     		add	sp, sp, #8	@,,
 3613              	.LVL338:
 3614              		@ sp needed	@
 3615 0034 10BD     		pop	{r4, pc}
 3616              		.cfi_endproc
 3617              	.LFE242:
 3618              		.size	Can_MC_DataReading_FromCan, .-Can_MC_DataReading_FromCan
 3619 0036 C046     		.section	.text.Can_MC_ErrorAndWarning_ToCan,"ax",%progbits
 3620              		.align	2
 3621              		.global	Can_MC_ErrorAndWarning_ToCan
 3622              		.code	16
 3623              		.thumb_func
 3624              		.type	Can_MC_ErrorAndWarning_ToCan, %function
 3625              	Can_MC_ErrorAndWarning_ToCan:
 3626              	.LFB243:
 542:../MY17/lib/MY17_Can_Library/MY17_Can_Library.c **** 
 543:../MY17/lib/MY17_Can_Library/MY17_Can_Library.c **** #define BIT_SET(input, bit_value, bit_idx) \
 544:../MY17/lib/MY17_Can_Library/MY17_Can_Library.c ****   if ((bit_value)) { \
 545:../MY17/lib/MY17_Can_Library/MY17_Can_Library.c ****     ((input) |= (1UL << (bit_idx))); \
 546:../MY17/lib/MY17_Can_Library/MY17_Can_Library.c ****   } \
 547:../MY17/lib/MY17_Can_Library/MY17_Can_Library.c ****   else { \
 548:../MY17/lib/MY17_Can_Library/MY17_Can_Library.c ****     ((input) &= ~(1UL << (bit_idx))); \
 549:../MY17/lib/MY17_Can_Library/MY17_Can_Library.c ****   }
 550:../MY17/lib/MY17_Can_Library/MY17_Can_Library.c **** 
 551:../MY17/lib/MY17_Can_Library/MY17_Can_Library.c **** #define BIT_GET(input, bit_idx) \
 552:../MY17/lib/MY17_Can_Library/MY17_Can_Library.c ****   (bool)((input) & (1UL << (bit_idx)))
 553:../MY17/lib/MY17_Can_Library/MY17_Can_Library.c **** 
 554:../MY17/lib/MY17_Can_Library/MY17_Can_Library.c **** TO_CAN(Can_MC_ErrorAndWarning) {
 3627              		.loc 1 554 0
 3628              		.cfi_startproc
 3629              	.LVL339:
 3630 0000 10B5     		push	{r4, lr}	@
