ARM GAS  /var/folders/9j/_txx49hn253_s3mnzkyxlj8m0000gp/T//ccxigpJH.s 			page 1


   1              		.cpu cortex-m0
   2              		.fpu softvfp
   3              		.eabi_attribute 20, 1	@ Tag_ABI_FP_denormal
   4              		.eabi_attribute 21, 1	@ Tag_ABI_FP_exceptions
   5              		.eabi_attribute 23, 3	@ Tag_ABI_FP_number_model
   6              		.eabi_attribute 24, 1	@ Tag_ABI_align8_needed
   7              		.eabi_attribute 25, 1	@ Tag_ABI_align8_preserved
   8              		.eabi_attribute 26, 1	@ Tag_ABI_enum_size
   9              		.eabi_attribute 30, 2	@ Tag_ABI_optimization_goals
  10              		.eabi_attribute 34, 0	@ Tag_CPU_unaligned_access
  11              		.eabi_attribute 18, 4	@ Tag_ABI_PCS_wchar_t
  12              		.file	"MY17_Can_Library_Test.c"
  13              	@ GNU C (GNU Tools for ARM Embedded Processors) version 4.9.3 20150529 (release) [ARM/embedded-4_9-
  14              	@	compiled by GNU C version 4.2.1 (Based on Apple Inc. build 5658) (LLVM build 2336.9.00), GMP vers
  15              	@ GGC heuristics: --param ggc-min-expand=100 --param ggc-min-heapsize=131072
  16              	@ options passed:  -I . -I inc/
  17              	@ -I ../lpc11cx4-library/lpc_chip_11cxx_lib/inc
  18              	@ -I ../lpc11cx4-library/evt_lib/inc/ -I ../MY17/lib/MY17_Can_Library
  19              	@ -imultilib armv6-m
  20              	@ -iprefix /usr/local/Cellar/gcc-arm-none-eabi/20150925/bin/../lib/gcc/arm-none-eabi/4.9.3/
  21              	@ -isysroot /usr/local/Cellar/gcc-arm-none-eabi/20150925/bin/../arm-none-eabi
  22              	@ -MD bin/MY17_Can_Library_Test.d -MF bin/MY17_Can_Library_Test.d -MP
  23              	@ -MQ bin/MY17_Can_Library_Test.o -D__USES_INITFINI__ -D UART_BAUD=115200
  24              	@ -D CORE_M0 -D DEBUG_ENABLE -D CAN_ARCHITECTURE_ARM
  25              	@ ../MY17/lib/MY17_Can_Library/MY17_Can_Library_Test.c -mcpu=cortex-m0
  26              	@ -mthumb -auxbase-strip bin/MY17_Can_Library_Test.o -g -ggdb3 -O2 -Wall
  27              	@ -Wstrict-prototypes -Wextra -std=gnu90 -ffunction-sections
  28              	@ -fdata-sections -fdiagnostics-color=always -fverbose-asm
  29              	@ options enabled:  -faggressive-loop-optimizations -fauto-inc-dec
  30              	@ -fbranch-count-reg -fcaller-saves -fcombine-stack-adjustments -fcommon
  31              	@ -fcompare-elim -fcprop-registers -fcrossjumping -fcse-follow-jumps
  32              	@ -fdata-sections -fdefer-pop -fdelete-null-pointer-checks -fdevirtualize
  33              	@ -fdevirtualize-speculatively -fdwarf2-cfi-asm -fearly-inlining
  34              	@ -feliminate-unused-debug-types -fexpensive-optimizations
  35              	@ -fforward-propagate -ffunction-cse -ffunction-sections -fgcse -fgcse-lm
  36              	@ -fgnu-runtime -fgnu-unique -fguess-branch-probability
  37              	@ -fhoist-adjacent-loads -fident -fif-conversion -fif-conversion2
  38              	@ -findirect-inlining -finline -finline-atomics
  39              	@ -finline-functions-called-once -finline-small-functions -fipa-cp
  40              	@ -fipa-profile -fipa-pure-const -fipa-reference -fipa-sra
  41              	@ -fira-hoist-pressure -fira-share-save-slots -fira-share-spill-slots
  42              	@ -fisolate-erroneous-paths-dereference -fivopts -fkeep-static-consts
  43              	@ -fleading-underscore -flifetime-dse -fmath-errno -fmerge-constants
  44              	@ -fmerge-debug-strings -fmove-loop-invariants -fomit-frame-pointer
  45              	@ -foptimize-sibling-calls -foptimize-strlen -fpartial-inlining -fpeephole
  46              	@ -fpeephole2 -fprefetch-loop-arrays -freg-struct-return -freorder-blocks
  47              	@ -freorder-functions -frerun-cse-after-loop
  48              	@ -fsched-critical-path-heuristic -fsched-dep-count-heuristic
  49              	@ -fsched-group-heuristic -fsched-interblock -fsched-last-insn-heuristic
  50              	@ -fsched-pressure -fsched-rank-heuristic -fsched-spec
  51              	@ -fsched-spec-insn-heuristic -fsched-stalled-insns-dep -fschedule-insns2
  52              	@ -fsection-anchors -fshow-column -fshrink-wrap -fsigned-zeros
  53              	@ -fsplit-ivs-in-unroller -fsplit-wide-types -fstrict-aliasing
  54              	@ -fstrict-overflow -fstrict-volatile-bitfields -fsync-libcalls
  55              	@ -fthread-jumps -ftoplevel-reorder -ftrapping-math -ftree-bit-ccp
  56              	@ -ftree-builtin-call-dce -ftree-ccp -ftree-ch -ftree-coalesce-vars
  57              	@ -ftree-copy-prop -ftree-copyrename -ftree-cselim -ftree-dce
ARM GAS  /var/folders/9j/_txx49hn253_s3mnzkyxlj8m0000gp/T//ccxigpJH.s 			page 2


  58              	@ -ftree-dominator-opts -ftree-dse -ftree-forwprop -ftree-fre
  59              	@ -ftree-loop-if-convert -ftree-loop-im -ftree-loop-ivcanon
  60              	@ -ftree-loop-optimize -ftree-parallelize-loops= -ftree-phiprop -ftree-pre
  61              	@ -ftree-pta -ftree-reassoc -ftree-scev-cprop -ftree-sink -ftree-slsr
  62              	@ -ftree-sra -ftree-switch-conversion -ftree-tail-merge -ftree-ter
  63              	@ -ftree-vrp -funit-at-a-time -fvar-tracking -fvar-tracking-assignments
  64              	@ -fverbose-asm -fzero-initialized-in-bss -mlittle-endian -mlra
  65              	@ -mpic-data-is-text-relative -msched-prolog -mthumb
  66              	@ -mvectorize-with-neon-quad
  67              	
  68              		.text
  69              	.Ltext0:
  70              		.cfi_sections	.debug_frame
  71              		.section	.text.Can_BinaryPrint,"ax",%progbits
  72              		.align	2
  73              		.global	Can_BinaryPrint
  74              		.code	16
  75              		.thumb_func
  76              		.type	Can_BinaryPrint, %function
  77              	Can_BinaryPrint:
  78              	.LFB0:
  79              		.file 1 "../MY17/lib/MY17_Can_Library/MY17_Can_Library_Test.c"
   1:../MY17/lib/MY17_Can_Library/MY17_Can_Library_Test.c **** #include "MY17_Can_Library_Test.h"
   2:../MY17/lib/MY17_Can_Library/MY17_Can_Library_Test.c **** 
   3:../MY17/lib/MY17_Can_Library/MY17_Can_Library_Test.c **** #include "MY17_Can_Library.h"
   4:../MY17/lib/MY17_Can_Library/MY17_Can_Library_Test.c **** 
   5:../MY17/lib/MY17_Can_Library/MY17_Can_Library_Test.c **** typedef void (*PRINT)(const char *);
   6:../MY17/lib/MY17_Can_Library/MY17_Can_Library_Test.c **** 
   7:../MY17/lib/MY17_Can_Library/MY17_Can_Library_Test.c **** #define BOILERPLATE(typename) \
   8:../MY17/lib/MY17_Can_Library/MY17_Can_Library_Test.c ****   Frame mid; \
   9:../MY17/lib/MY17_Can_Library/MY17_Can_Library_Test.c ****   typename ## _ToCan(&begin, &mid); \
  10:../MY17/lib/MY17_Can_Library/MY17_Can_Library_Test.c ****   uint64_t end_bitstring = 0; \
  11:../MY17/lib/MY17_Can_Library/MY17_Can_Library_Test.c ****   to_bitstring(mid.data, &end_bitstring); \
  12:../MY17/lib/MY17_Can_Library/MY17_Can_Library_Test.c ****   typename ## _T end; \
  13:../MY17/lib/MY17_Can_Library/MY17_Can_Library_Test.c ****   typename ## _FromCan(&mid, &end)
  14:../MY17/lib/MY17_Can_Library/MY17_Can_Library_Test.c **** 
  15:../MY17/lib/MY17_Can_Library/MY17_Can_Library_Test.c **** 
  16:../MY17/lib/MY17_Can_Library/MY17_Can_Library_Test.c **** void Can_BinaryPrint(PRINT print, uint64_t out, uint8_t len) {
  80              		.loc 1 16 0
  81              		.cfi_startproc
  82              	.LVL0:
  83 0000 F0B5     		push	{r4, r5, r6, r7, lr}	@
  84              		.cfi_def_cfa_offset 20
  85              		.cfi_offset 4, -20
  86              		.cfi_offset 5, -16
  87              		.cfi_offset 6, -12
  88              		.cfi_offset 7, -8
  89              		.cfi_offset 14, -4
  90 0002 5746     		mov	r7, r10	@,
  91 0004 4E46     		mov	r6, r9	@,
  92 0006 4546     		mov	r5, r8	@,
  93 0008 E0B4     		push	{r5, r6, r7}	@
  94              		.cfi_def_cfa_offset 32
  95              		.cfi_offset 8, -32
  96              		.cfi_offset 9, -28
  97              		.cfi_offset 10, -24
  98              		.loc 1 16 0
ARM GAS  /var/folders/9j/_txx49hn253_s3mnzkyxlj8m0000gp/T//ccxigpJH.s 			page 3


  99 000a 08A9     		add	r1, sp, #32	@ tmp129,,
 100              	.LVL1:
 101 000c 0C78     		ldrb	r4, [r1]	@ len, len
  17:../MY17/lib/MY17_Can_Library/MY17_Can_Library_Test.c ****   int8_t i;
  18:../MY17/lib/MY17_Can_Library/MY17_Can_Library_Test.c ****   for (i = len - 1; i >= 0; i--) {
 102              		.loc 1 18 0
 103 000e 013C     		sub	r4, r4, #1	@ tmp130,
 104 0010 E4B2     		uxtb	r4, r4	@ i, tmp130
 105              	.LVL2:
 106 0012 61B2     		sxtb	r1, r4	@ D.5382, i
 107              	.LVL3:
 108 0014 0029     		cmp	r1, #0	@ D.5382,
 109 0016 22DB     		blt	.L1	@,
 110 0018 1E1C     		mov	r6, r3	@ out, out
 111              	.LBB2:
  19:../MY17/lib/MY17_Can_Library/MY17_Can_Library_Test.c ****     bool result = (out >> i) & 0x1;
 112              		.loc 1 19 0
 113 001a 2023     		mov	r3, #32	@ tmp159,
 114 001c 9A46     		mov	r10, r3	@ tmp159, tmp159
  20:../MY17/lib/MY17_Can_Library/MY17_Can_Library_Test.c ****     print(result ? "1" : "0");
 115              		.loc 1 20 0
 116 001e 124B     		ldr	r3, .L13	@ D.5380,
 117 0020 9146     		mov	r9, r2	@ out, out
 118 0022 051C     		mov	r5, r0	@ print, print
 119 0024 114F     		ldr	r7, .L13+4	@ D.5380,
 120 0026 9846     		mov	r8, r3	@ D.5380, D.5380
 121 0028 0BE0     		b	.L9	@
 122              	.LVL4:
 123              	.L12:
  19:../MY17/lib/MY17_Can_Library/MY17_Can_Library_Test.c ****     bool result = (out >> i) & 0x1;
 124              		.loc 1 19 0
 125 002a 311C     		mov	r1, r6	@ D.5383, out
 126 002c D940     		lsr	r1, r1, r3	@ D.5383, D.5383, tmp135
 127              	.L5:
 128              		.loc 1 20 0
 129 002e 381C     		mov	r0, r7	@ D.5380, D.5380
 130 0030 CB07     		lsl	r3, r1, #31	@ tmp166, D.5383,
 131 0032 00D4     		bmi	.L3	@,
 132 0034 4046     		mov	r0, r8	@ D.5380, D.5380
 133              	.L3:
 134 0036 013C     		sub	r4, r4, #1	@ tmp150,
 135              	.LVL5:
 136 0038 E4B2     		uxtb	r4, r4	@ i, tmp150
 137              		.loc 1 20 0 is_stmt 0 discriminator 4
 138 003a A847     		blx	r5	@ print
 139              	.LVL6:
 140              	.LBE2:
  18:../MY17/lib/MY17_Can_Library/MY17_Can_Library_Test.c ****     bool result = (out >> i) & 0x1;
 141              		.loc 1 18 0 is_stmt 1 discriminator 4
 142 003c 61B2     		sxtb	r1, r4	@ D.5382, i
 143 003e 4B1C     		add	r3, r1, #1	@ tmp167, D.5382,
 144 0040 0DD0     		beq	.L1	@,
 145              	.L9:
 146              	.LVL7:
 147              	.LBB3:
  19:../MY17/lib/MY17_Can_Library/MY17_Can_Library_Test.c ****     bool result = (out >> i) & 0x1;
 148              		.loc 1 19 0
ARM GAS  /var/folders/9j/_txx49hn253_s3mnzkyxlj8m0000gp/T//ccxigpJH.s 			page 4


 149 0042 2023     		mov	r3, #32	@ tmp170,
 150 0044 5B42     		neg	r3, r3	@ tmp170, tmp170
 151 0046 CB18     		add	r3, r1, r3	@ tmp135, D.5382, tmp170
 152 0048 EFD5     		bpl	.L12	@,
 153 004a 5346     		mov	r3, r10	@ tmp159, tmp159
 154 004c 321C     		mov	r2, r6	@ tmp142, out
 155 004e 5B1A     		sub	r3, r3, r1	@ tmp141, tmp159, D.5382
 156 0050 9A40     		lsl	r2, r2, r3	@ tmp142, tmp142, tmp141
 157 0052 131C     		mov	r3, r2	@ tmp142, tmp142
 158 0054 4A46     		mov	r2, r9	@ D.5383, out
 159 0056 CA40     		lsr	r2, r2, r1	@ D.5383, D.5383, D.5382
 160 0058 111C     		mov	r1, r2	@ D.5383, D.5383
 161 005a 1943     		orr	r1, r3	@ D.5383, tmp142
 162 005c E7E7     		b	.L5	@
 163              	.LVL8:
 164              	.L1:
 165              	.LBE3:
  21:../MY17/lib/MY17_Can_Library/MY17_Can_Library_Test.c ****   }
  22:../MY17/lib/MY17_Can_Library/MY17_Can_Library_Test.c **** }
 166              		.loc 1 22 0
 167              		@ sp needed	@
 168              	.LVL9:
 169 005e 1CBC     		pop	{r2, r3, r4}
 170 0060 9046     		mov	r8, r2
 171 0062 9946     		mov	r9, r3
 172 0064 A246     		mov	r10, r4
 173 0066 F0BD     		pop	{r4, r5, r6, r7, pc}
 174              	.L14:
 175              		.align	2
 176              	.L13:
 177 0068 04000000 		.word	.LC2
 178 006c 00000000 		.word	.LC0
 179              		.cfi_endproc
 180              	.LFE0:
 181              		.size	Can_BinaryPrint, .-Can_BinaryPrint
 182              		.section	.text.Can_FrontCanNode_DriverOutput_Test,"ax",%progbits
 183              		.align	2
 184              		.global	Can_FrontCanNode_DriverOutput_Test
 185              		.code	16
 186              		.thumb_func
 187              		.type	Can_FrontCanNode_DriverOutput_Test, %function
 188              	Can_FrontCanNode_DriverOutput_Test:
 189              	.LFB1:
  23:../MY17/lib/MY17_Can_Library/MY17_Can_Library_Test.c **** 
  24:../MY17/lib/MY17_Can_Library/MY17_Can_Library_Test.c **** void Can_FrontCanNode_DriverOutput_Test(PRINT print) {
 190              		.loc 1 24 0
 191              		.cfi_startproc
 192              	.LVL10:
 193 0000 30B5     		push	{r4, r5, lr}	@
 194              		.cfi_def_cfa_offset 12
 195              		.cfi_offset 4, -12
 196              		.cfi_offset 5, -8
 197              		.cfi_offset 14, -4
  25:../MY17/lib/MY17_Can_Library/MY17_Can_Library_Test.c ****   Can_FrontCanNode_DriverOutput_T begin;
  26:../MY17/lib/MY17_Can_Library/MY17_Can_Library_Test.c ****   begin.torque = -10000;
 198              		.loc 1 26 0
 199 0002 1D4B     		ldr	r3, .L22	@ tmp121,
ARM GAS  /var/folders/9j/_txx49hn253_s3mnzkyxlj8m0000gp/T//ccxigpJH.s 			page 5


  24:../MY17/lib/MY17_Can_Library/MY17_Can_Library_Test.c ****   Can_FrontCanNode_DriverOutput_T begin;
 200              		.loc 1 24 0
 201 0004 8BB0     		sub	sp, sp, #44	@,,
 202              		.cfi_def_cfa_offset 56
 203              		.loc 1 26 0
 204 0006 03AC     		add	r4, sp, #12	@ tmp120,,
 205 0008 2380     		strh	r3, [r4]	@ tmp121, begin.torque
  27:../MY17/lib/MY17_Can_Library/MY17_Can_Library_Test.c ****   begin.brake_pressure = 200;
 206              		.loc 1 27 0
 207 000a C823     		mov	r3, #200	@ tmp124,
  28:../MY17/lib/MY17_Can_Library/MY17_Can_Library_Test.c ****   begin.steering_position = 100;
  29:../MY17/lib/MY17_Can_Library/MY17_Can_Library_Test.c ****   begin.throttle_implausible = true;
  30:../MY17/lib/MY17_Can_Library/MY17_Can_Library_Test.c ****   begin.brake_throttle_conflict = false;
 208              		.loc 1 30 0
 209 000c 0022     		mov	r2, #0	@ tmp133,
  27:../MY17/lib/MY17_Can_Library/MY17_Can_Library_Test.c ****   begin.brake_pressure = 200;
 210              		.loc 1 27 0
 211 000e A370     		strb	r3, [r4, #2]	@ tmp124, begin.brake_pressure
  28:../MY17/lib/MY17_Can_Library/MY17_Can_Library_Test.c ****   begin.steering_position = 100;
 212              		.loc 1 28 0
 213 0010 643B     		sub	r3, r3, #100	@ tmp127,
 214 0012 E370     		strb	r3, [r4, #3]	@ tmp127, begin.steering_position
  31:../MY17/lib/MY17_Can_Library/MY17_Can_Library_Test.c ****   begin.brake_engaged = true;
  32:../MY17/lib/MY17_Can_Library/MY17_Can_Library_Test.c **** 
  33:../MY17/lib/MY17_Can_Library/MY17_Can_Library_Test.c ****   BOILERPLATE(Can_FrontCanNode_DriverOutput);
 215              		.loc 1 33 0
 216 0014 07A9     		add	r1, sp, #28	@ tmp164,,
  29:../MY17/lib/MY17_Can_Library/MY17_Can_Library_Test.c ****   begin.brake_throttle_conflict = false;
 217              		.loc 1 29 0
 218 0016 633B     		sub	r3, r3, #99	@ tmp130,
  24:../MY17/lib/MY17_Can_Library/MY17_Can_Library_Test.c ****   Can_FrontCanNode_DriverOutput_T begin;
 219              		.loc 1 24 0
 220 0018 051C     		mov	r5, r0	@ print, print
 221              		.loc 1 33 0
 222 001a 201C     		mov	r0, r4	@, tmp120
 223              	.LVL11:
  29:../MY17/lib/MY17_Can_Library/MY17_Can_Library_Test.c ****   begin.brake_throttle_conflict = false;
 224              		.loc 1 29 0
 225 001c 2371     		strb	r3, [r4, #4]	@ tmp130, begin.throttle_implausible
  30:../MY17/lib/MY17_Can_Library/MY17_Can_Library_Test.c ****   begin.brake_engaged = true;
 226              		.loc 1 30 0
 227 001e 6271     		strb	r2, [r4, #5]	@ tmp133, begin.brake_throttle_conflict
  31:../MY17/lib/MY17_Can_Library/MY17_Can_Library_Test.c **** 
 228              		.loc 1 31 0
 229 0020 A371     		strb	r3, [r4, #6]	@ tmp130, begin.brake_engaged
 230              		.loc 1 33 0
 231 0022 FFF7FEFF 		bl	Can_FrontCanNode_DriverOutput_ToCan	@
 232              	.LVL12:
 233 0026 1F20     		mov	r0, #31	@ tmp165,
 234 0028 0023     		mov	r3, #0	@,
 235 002a 0022     		mov	r2, #0	@ tmp140,
 236 002c 6844     		add	r0, r0, sp	@ tmp165,
 237 002e 6946     		mov	r1, sp	@,
 238 0030 0092     		str	r2, [sp]	@ tmp140, end_bitstring
 239 0032 0193     		str	r3, [sp, #4]	@ tmp140,
 240 0034 FFF7FEFF 		bl	to_bitstring	@
 241              	.LVL13:
ARM GAS  /var/folders/9j/_txx49hn253_s3mnzkyxlj8m0000gp/T//ccxigpJH.s 			page 6


 242 0038 05A9     		add	r1, sp, #20	@ tmp167,,
 243 003a 07A8     		add	r0, sp, #28	@ tmp166,,
 244 003c FFF7FEFF 		bl	Can_FrontCanNode_DriverOutput_FromCan	@
 245              	.LVL14:
  34:../MY17/lib/MY17_Can_Library/MY17_Can_Library_Test.c **** 
  35:../MY17/lib/MY17_Can_Library/MY17_Can_Library_Test.c ****   bool equal = (
  36:../MY17/lib/MY17_Can_Library/MY17_Can_Library_Test.c ****       begin.torque == end.torque &&
  37:../MY17/lib/MY17_Can_Library/MY17_Can_Library_Test.c ****       begin.brake_pressure == end.brake_pressure &&
  38:../MY17/lib/MY17_Can_Library/MY17_Can_Library_Test.c ****       begin.steering_position == end.steering_position &&
  39:../MY17/lib/MY17_Can_Library/MY17_Can_Library_Test.c ****       begin.throttle_implausible == end.throttle_implausible &&
  40:../MY17/lib/MY17_Can_Library/MY17_Can_Library_Test.c ****       begin.brake_throttle_conflict == end.brake_throttle_conflict &&
 246              		.loc 1 40 0
 247 0040 0023     		mov	r3, #0	@ tmp162,
 248 0042 E25E     		ldrsh	r2, [r4, r3]	@ begin, tmp120, tmp162
 249 0044 6B46     		mov	r3, sp	@ tmp168,
 250 0046 1421     		mov	r1, #20	@ tmp163,
 251 0048 5B5E     		ldrsh	r3, [r3, r1]	@ end, tmp168, tmp163
 252 004a 9A42     		cmp	r2, r3	@ begin, end
 253 004c 03D0     		beq	.L21	@,
 254              	.L20:
  41:../MY17/lib/MY17_Can_Library/MY17_Can_Library_Test.c ****       begin.brake_engaged == end.brake_engaged);
  42:../MY17/lib/MY17_Can_Library/MY17_Can_Library_Test.c ****   print(equal ? "FrontCanNode_DriverOutput_PASS\r\n" : "FrontCanNode_DriverOutput_FAIL!!!!!!!!!!!!!
 255              		.loc 1 42 0
 256 004e 0B48     		ldr	r0, .L22+4	@ D.5388,
 257              	.L16:
 258              		.loc 1 42 0 is_stmt 0 discriminator 4
 259 0050 A847     		blx	r5	@ print
 260              	.LVL15:
  43:../MY17/lib/MY17_Can_Library/MY17_Can_Library_Test.c **** }
 261              		.loc 1 43 0 is_stmt 1 discriminator 4
 262 0052 0BB0     		add	sp, sp, #44	@,,
 263              		@ sp needed	@
 264              	.LVL16:
 265 0054 30BD     		pop	{r4, r5, pc}
 266              	.LVL17:
 267              	.L21:
  37:../MY17/lib/MY17_Can_Library/MY17_Can_Library_Test.c ****       begin.steering_position == end.steering_position &&
 268              		.loc 1 37 0
 269 0056 6B46     		mov	r3, sp	@ tmp169,
 270 0058 6288     		ldrh	r2, [r4, #2]	@ begin, begin
 271 005a DB8A     		ldrh	r3, [r3, #22]	@ end, end
 272 005c 9A42     		cmp	r2, r3	@ begin, end
 273 005e F6D1     		bne	.L20	@,
  39:../MY17/lib/MY17_Can_Library/MY17_Can_Library_Test.c ****       begin.brake_throttle_conflict == end.brake_throttle_conflict &&
 274              		.loc 1 39 0
 275 0060 6B46     		mov	r3, sp	@ tmp170,
 276 0062 A288     		ldrh	r2, [r4, #4]	@ begin, begin
 277 0064 1B8B     		ldrh	r3, [r3, #24]	@ end, end
 278 0066 9A42     		cmp	r2, r3	@ begin, end
 279 0068 F1D1     		bne	.L20	@,
  40:../MY17/lib/MY17_Can_Library/MY17_Can_Library_Test.c ****       begin.brake_engaged == end.brake_engaged);
 280              		.loc 1 40 0 discriminator 3
 281 006a 6B46     		mov	r3, sp	@ tmp171,
 282 006c A279     		ldrb	r2, [r4, #6]	@ tmp160,
 283 006e 9B7E     		ldrb	r3, [r3, #26]	@ tmp161,
 284 0070 9A42     		cmp	r2, r3	@ tmp160, tmp161
 285 0072 ECD1     		bne	.L20	@,
ARM GAS  /var/folders/9j/_txx49hn253_s3mnzkyxlj8m0000gp/T//ccxigpJH.s 			page 7


  42:../MY17/lib/MY17_Can_Library/MY17_Can_Library_Test.c **** }
 286              		.loc 1 42 0
 287 0074 0248     		ldr	r0, .L22+8	@ D.5388,
 288 0076 EBE7     		b	.L16	@
 289              	.L23:
 290              		.align	2
 291              	.L22:
 292 0078 F0D8FFFF 		.word	-10000
 293 007c 2C000000 		.word	.LC6
 294 0080 08000000 		.word	.LC4
 295              		.cfi_endproc
 296              	.LFE1:
 297              		.size	Can_FrontCanNode_DriverOutput_Test, .-Can_FrontCanNode_DriverOutput_Test
 298              		.section	.text.Can_FrontCanNode_RawValues_Test,"ax",%progbits
 299              		.align	2
 300              		.global	Can_FrontCanNode_RawValues_Test
 301              		.code	16
 302              		.thumb_func
 303              		.type	Can_FrontCanNode_RawValues_Test, %function
 304              	Can_FrontCanNode_RawValues_Test:
 305              	.LFB2:
  44:../MY17/lib/MY17_Can_Library/MY17_Can_Library_Test.c **** 
  45:../MY17/lib/MY17_Can_Library/MY17_Can_Library_Test.c **** void Can_FrontCanNode_RawValues_Test(PRINT print) {
 306              		.loc 1 45 0
 307              		.cfi_startproc
 308              	.LVL18:
  46:../MY17/lib/MY17_Can_Library/MY17_Can_Library_Test.c ****   Can_FrontCanNode_RawValues_T begin;
  47:../MY17/lib/MY17_Can_Library/MY17_Can_Library_Test.c ****   begin.accel_1_raw = 100;
 309              		.loc 1 47 0
 310 0000 6423     		mov	r3, #100	@ tmp123,
  45:../MY17/lib/MY17_Can_Library/MY17_Can_Library_Test.c ****   Can_FrontCanNode_RawValues_T begin;
 311              		.loc 1 45 0
 312 0002 30B5     		push	{r4, r5, lr}	@
 313              		.cfi_def_cfa_offset 12
 314              		.cfi_offset 4, -12
 315              		.cfi_offset 5, -8
 316              		.cfi_offset 14, -4
 317 0004 8DB0     		sub	sp, sp, #52	@,,
 318              		.cfi_def_cfa_offset 64
 319              		.loc 1 47 0
 320 0006 03AC     		add	r4, sp, #12	@ tmp122,,
 321 0008 2380     		strh	r3, [r4]	@ tmp123, begin.accel_1_raw
  48:../MY17/lib/MY17_Can_Library/MY17_Can_Library_Test.c ****   begin.accel_2_raw = 200;
 322              		.loc 1 48 0
 323 000a 6433     		add	r3, r3, #100	@ tmp126,
 324 000c 6380     		strh	r3, [r4, #2]	@ tmp126, begin.accel_2_raw
  49:../MY17/lib/MY17_Can_Library/MY17_Can_Library_Test.c ****   begin.brake_1_raw = 300;
 325              		.loc 1 49 0
 326 000e 6433     		add	r3, r3, #100	@ tmp129,
 327 0010 A380     		strh	r3, [r4, #4]	@ tmp129, begin.brake_1_raw
  50:../MY17/lib/MY17_Can_Library/MY17_Can_Library_Test.c ****   begin.brake_2_raw = 400;
 328              		.loc 1 50 0
 329 0012 6433     		add	r3, r3, #100	@ tmp132,
 330 0014 E380     		strh	r3, [r4, #6]	@ tmp132, begin.brake_2_raw
  51:../MY17/lib/MY17_Can_Library/MY17_Can_Library_Test.c ****   begin.steering_raw = 500;
  52:../MY17/lib/MY17_Can_Library/MY17_Can_Library_Test.c **** 
  53:../MY17/lib/MY17_Can_Library/MY17_Can_Library_Test.c ****   BOILERPLATE(Can_FrontCanNode_RawValues);
ARM GAS  /var/folders/9j/_txx49hn253_s3mnzkyxlj8m0000gp/T//ccxigpJH.s 			page 8


 331              		.loc 1 53 0
 332 0016 09A9     		add	r1, sp, #36	@ tmp168,,
  51:../MY17/lib/MY17_Can_Library/MY17_Can_Library_Test.c ****   begin.steering_raw = 500;
 333              		.loc 1 51 0
 334 0018 6433     		add	r3, r3, #100	@ tmp135,
  45:../MY17/lib/MY17_Can_Library/MY17_Can_Library_Test.c ****   Can_FrontCanNode_RawValues_T begin;
 335              		.loc 1 45 0
 336 001a 051C     		mov	r5, r0	@ print, print
 337              		.loc 1 53 0
 338 001c 201C     		mov	r0, r4	@, tmp122
 339              	.LVL19:
  51:../MY17/lib/MY17_Can_Library/MY17_Can_Library_Test.c ****   begin.steering_raw = 500;
 340              		.loc 1 51 0
 341 001e 2381     		strh	r3, [r4, #8]	@ tmp135, begin.steering_raw
 342              		.loc 1 53 0
 343 0020 FFF7FEFF 		bl	Can_FrontCanNode_RawValues_ToCan	@
 344              	.LVL20:
 345 0024 2720     		mov	r0, #39	@ tmp169,
 346 0026 0022     		mov	r2, #0	@ tmp139,
 347 0028 0023     		mov	r3, #0	@,
 348 002a 6844     		add	r0, r0, sp	@ tmp169,
 349 002c 6946     		mov	r1, sp	@,
 350 002e 0092     		str	r2, [sp]	@ tmp139, end_bitstring
 351 0030 0193     		str	r3, [sp, #4]	@ tmp139,
 352 0032 FFF7FEFF 		bl	to_bitstring	@
 353              	.LVL21:
 354 0036 09A8     		add	r0, sp, #36	@ tmp170,,
 355 0038 06A9     		add	r1, sp, #24	@ tmp171,,
 356 003a FFF7FEFF 		bl	Can_FrontCanNode_RawValues_FromCan	@
 357              	.LVL22:
  54:../MY17/lib/MY17_Can_Library/MY17_Can_Library_Test.c **** 
  55:../MY17/lib/MY17_Can_Library/MY17_Can_Library_Test.c ****   bool equal = (
  56:../MY17/lib/MY17_Can_Library/MY17_Can_Library_Test.c ****       begin.accel_1_raw == end.accel_1_raw &&
  57:../MY17/lib/MY17_Can_Library/MY17_Can_Library_Test.c ****       begin.accel_2_raw == end.accel_2_raw &&
  58:../MY17/lib/MY17_Can_Library/MY17_Can_Library_Test.c ****       begin.brake_1_raw == end.brake_1_raw &&
  59:../MY17/lib/MY17_Can_Library/MY17_Can_Library_Test.c ****       begin.brake_2_raw == end.brake_2_raw &&
 358              		.loc 1 59 0
 359 003e 6B46     		mov	r3, sp	@ tmp172,
 360 0040 2288     		ldrh	r2, [r4]	@ begin, begin
 361 0042 1B8B     		ldrh	r3, [r3, #24]	@ end, end
 362 0044 9A42     		cmp	r2, r3	@ begin, end
 363 0046 03D0     		beq	.L31	@,
 364              	.L30:
  60:../MY17/lib/MY17_Can_Library/MY17_Can_Library_Test.c ****       begin.steering_raw == end.steering_raw);
  61:../MY17/lib/MY17_Can_Library/MY17_Can_Library_Test.c ****   print(equal ? "FrontCanNode_RawValues_PASS\r\n" : "FrontCanNode_RawValues_FAIL!!!!!!!!!!!!!!!!\r\
 365              		.loc 1 61 0
 366 0048 0C48     		ldr	r0, .L32	@ D.5396,
 367              	.L25:
 368              		.loc 1 61 0 is_stmt 0 discriminator 4
 369 004a A847     		blx	r5	@ print
 370              	.LVL23:
  62:../MY17/lib/MY17_Can_Library/MY17_Can_Library_Test.c **** }
 371              		.loc 1 62 0 is_stmt 1 discriminator 4
 372 004c 0DB0     		add	sp, sp, #52	@,,
 373              		@ sp needed	@
 374              	.LVL24:
 375 004e 30BD     		pop	{r4, r5, pc}
ARM GAS  /var/folders/9j/_txx49hn253_s3mnzkyxlj8m0000gp/T//ccxigpJH.s 			page 9


 376              	.LVL25:
 377              	.L31:
  56:../MY17/lib/MY17_Can_Library/MY17_Can_Library_Test.c ****       begin.accel_2_raw == end.accel_2_raw &&
 378              		.loc 1 56 0
 379 0050 6B46     		mov	r3, sp	@ tmp173,
 380 0052 6288     		ldrh	r2, [r4, #2]	@ tmp151,
 381 0054 5B8B     		ldrh	r3, [r3, #26]	@ tmp152,
 382 0056 9A42     		cmp	r2, r3	@ tmp151, tmp152
 383 0058 F6D1     		bne	.L30	@,
  57:../MY17/lib/MY17_Can_Library/MY17_Can_Library_Test.c ****       begin.brake_1_raw == end.brake_1_raw &&
 384              		.loc 1 57 0
 385 005a 6B46     		mov	r3, sp	@ tmp174,
 386 005c A288     		ldrh	r2, [r4, #4]	@ tmp155,
 387 005e 9B8B     		ldrh	r3, [r3, #28]	@ tmp156,
 388 0060 9A42     		cmp	r2, r3	@ tmp155, tmp156
 389 0062 F1D1     		bne	.L30	@,
  58:../MY17/lib/MY17_Can_Library/MY17_Can_Library_Test.c ****       begin.brake_2_raw == end.brake_2_raw &&
 390              		.loc 1 58 0
 391 0064 6B46     		mov	r3, sp	@ tmp175,
 392 0066 E288     		ldrh	r2, [r4, #6]	@ tmp159,
 393 0068 DB8B     		ldrh	r3, [r3, #30]	@ tmp160,
 394 006a 9A42     		cmp	r2, r3	@ tmp159, tmp160
 395 006c ECD1     		bne	.L30	@,
  59:../MY17/lib/MY17_Can_Library/MY17_Can_Library_Test.c ****       begin.steering_raw == end.steering_raw);
 396              		.loc 1 59 0 discriminator 3
 397 006e 6B46     		mov	r3, sp	@ tmp176,
 398 0070 2289     		ldrh	r2, [r4, #8]	@ tmp163,
 399 0072 1B8C     		ldrh	r3, [r3, #32]	@ tmp164,
 400 0074 9A42     		cmp	r2, r3	@ tmp163, tmp164
 401 0076 E7D1     		bne	.L30	@,
  61:../MY17/lib/MY17_Can_Library/MY17_Can_Library_Test.c **** }
 402              		.loc 1 61 0
 403 0078 0148     		ldr	r0, .L32+4	@ D.5396,
 404 007a E6E7     		b	.L25	@
 405              	.L33:
 406              		.align	2
 407              	.L32:
 408 007c 60000000 		.word	.LC8
 409 0080 90000000 		.word	.LC10
 410              		.cfi_endproc
 411              	.LFE2:
 412              		.size	Can_FrontCanNode_RawValues_Test, .-Can_FrontCanNode_RawValues_Test
 413              		.section	.text.Can_FrontCanNode_WheelSpeed_Test,"ax",%progbits
 414              		.align	2
 415              		.global	Can_FrontCanNode_WheelSpeed_Test
 416              		.code	16
 417              		.thumb_func
 418              		.type	Can_FrontCanNode_WheelSpeed_Test, %function
 419              	Can_FrontCanNode_WheelSpeed_Test:
 420              	.LFB3:
  63:../MY17/lib/MY17_Can_Library/MY17_Can_Library_Test.c **** 
  64:../MY17/lib/MY17_Can_Library/MY17_Can_Library_Test.c **** void Can_FrontCanNode_WheelSpeed_Test(PRINT print) {
 421              		.loc 1 64 0
 422              		.cfi_startproc
 423              	.LVL26:
 424 0000 10B5     		push	{r4, lr}	@
 425              		.cfi_def_cfa_offset 8
ARM GAS  /var/folders/9j/_txx49hn253_s3mnzkyxlj8m0000gp/T//ccxigpJH.s 			page 10


 426              		.cfi_offset 4, -8
 427              		.cfi_offset 14, -4
  65:../MY17/lib/MY17_Can_Library/MY17_Can_Library_Test.c ****   Can_FrontCanNode_WheelSpeed_T begin;
  66:../MY17/lib/MY17_Can_Library/MY17_Can_Library_Test.c ****   begin.front_right_wheel_speed = 100000;
 428              		.loc 1 66 0
 429 0002 124B     		ldr	r3, .L39	@ tmp117,
  64:../MY17/lib/MY17_Can_Library/MY17_Can_Library_Test.c ****   Can_FrontCanNode_WheelSpeed_T begin;
 430              		.loc 1 64 0
 431 0004 8AB0     		sub	sp, sp, #40	@,,
 432              		.cfi_def_cfa_offset 48
 433              		.loc 1 66 0
 434 0006 0393     		str	r3, [sp, #12]	@ tmp117, begin.front_right_wheel_speed
  67:../MY17/lib/MY17_Can_Library/MY17_Can_Library_Test.c ****   begin.front_left_wheel_speed = 3000000000UL;
 435              		.loc 1 67 0
 436 0008 114B     		ldr	r3, .L39+4	@ tmp119,
  68:../MY17/lib/MY17_Can_Library/MY17_Can_Library_Test.c **** 
  69:../MY17/lib/MY17_Can_Library/MY17_Can_Library_Test.c ****   BOILERPLATE(Can_FrontCanNode_WheelSpeed);
 437              		.loc 1 69 0
 438 000a 07A9     		add	r1, sp, #28	@ tmp137,,
  64:../MY17/lib/MY17_Can_Library/MY17_Can_Library_Test.c ****   Can_FrontCanNode_WheelSpeed_T begin;
 439              		.loc 1 64 0
 440 000c 041C     		mov	r4, r0	@ print, print
 441              		.loc 1 69 0
 442 000e 03A8     		add	r0, sp, #12	@ tmp136,,
 443              	.LVL27:
  67:../MY17/lib/MY17_Can_Library/MY17_Can_Library_Test.c ****   begin.front_left_wheel_speed = 3000000000UL;
 444              		.loc 1 67 0
 445 0010 0493     		str	r3, [sp, #16]	@ tmp119, begin.front_left_wheel_speed
 446              		.loc 1 69 0
 447 0012 FFF7FEFF 		bl	Can_FrontCanNode_WheelSpeed_ToCan	@
 448              	.LVL28:
 449 0016 1F20     		mov	r0, #31	@ tmp138,
 450 0018 0022     		mov	r2, #0	@ tmp122,
 451 001a 0023     		mov	r3, #0	@,
 452 001c 6844     		add	r0, r0, sp	@ tmp138,
 453 001e 6946     		mov	r1, sp	@,
 454 0020 0092     		str	r2, [sp]	@ tmp122, end_bitstring
 455 0022 0193     		str	r3, [sp, #4]	@ tmp122,
 456 0024 FFF7FEFF 		bl	to_bitstring	@
 457              	.LVL29:
 458 0028 07A8     		add	r0, sp, #28	@ tmp139,,
 459 002a 05A9     		add	r1, sp, #20	@ tmp140,,
 460 002c FFF7FEFF 		bl	Can_FrontCanNode_WheelSpeed_FromCan	@
 461              	.LVL30:
  70:../MY17/lib/MY17_Can_Library/MY17_Can_Library_Test.c **** 
  71:../MY17/lib/MY17_Can_Library/MY17_Can_Library_Test.c ****   bool equal = (
  72:../MY17/lib/MY17_Can_Library/MY17_Can_Library_Test.c ****       begin.front_right_wheel_speed == end.front_right_wheel_speed &&
 462              		.loc 1 72 0
 463 0030 039B     		ldr	r3, [sp, #12]	@ tmp141, begin.front_right_wheel_speed
 464 0032 059A     		ldr	r2, [sp, #20]	@ tmp142, end.front_right_wheel_speed
 465 0034 9342     		cmp	r3, r2	@ tmp141, tmp142
 466 0036 03D0     		beq	.L38	@,
 467              	.L37:
  73:../MY17/lib/MY17_Can_Library/MY17_Can_Library_Test.c ****       begin.front_left_wheel_speed == end.front_left_wheel_speed);
  74:../MY17/lib/MY17_Can_Library/MY17_Can_Library_Test.c **** 
  75:../MY17/lib/MY17_Can_Library/MY17_Can_Library_Test.c ****   print(equal ? "FrontCanNode_WheelSpeed_PASS\r\n" : "FrontCanNode_WheelSpeed_FAIL!!!!!!!!!!!!!!!!\
 468              		.loc 1 75 0
ARM GAS  /var/folders/9j/_txx49hn253_s3mnzkyxlj8m0000gp/T//ccxigpJH.s 			page 11


 469 0038 0648     		ldr	r0, .L39+8	@ D.5402,
 470              	.L35:
 471              		.loc 1 75 0 is_stmt 0 discriminator 4
 472 003a A047     		blx	r4	@ print
 473              	.LVL31:
  76:../MY17/lib/MY17_Can_Library/MY17_Can_Library_Test.c **** 
  77:../MY17/lib/MY17_Can_Library/MY17_Can_Library_Test.c **** }
 474              		.loc 1 77 0 is_stmt 1 discriminator 4
 475 003c 0AB0     		add	sp, sp, #40	@,,
 476              		@ sp needed	@
 477              	.LVL32:
 478 003e 10BD     		pop	{r4, pc}
 479              	.LVL33:
 480              	.L38:
  72:../MY17/lib/MY17_Can_Library/MY17_Can_Library_Test.c ****       begin.front_left_wheel_speed == end.front_left_wheel_speed);
 481              		.loc 1 72 0 discriminator 1
 482 0040 049A     		ldr	r2, [sp, #16]	@ begin.front_left_wheel_speed, begin.front_left_wheel_speed
 483 0042 069B     		ldr	r3, [sp, #24]	@ end.front_left_wheel_speed, end.front_left_wheel_speed
 484 0044 9A42     		cmp	r2, r3	@ begin.front_left_wheel_speed, end.front_left_wheel_speed
 485 0046 F7D1     		bne	.L37	@,
  75:../MY17/lib/MY17_Can_Library/MY17_Can_Library_Test.c **** 
 486              		.loc 1 75 0
 487 0048 0348     		ldr	r0, .L39+12	@ D.5402,
 488 004a F6E7     		b	.L35	@
 489              	.L40:
 490              		.align	2
 491              	.L39:
 492 004c A0860100 		.word	100000
 493 0050 005ED0B2 		.word	-1294967296
 494 0054 B0000000 		.word	.LC12
 495 0058 E0000000 		.word	.LC14
 496              		.cfi_endproc
 497              	.LFE3:
 498              		.size	Can_FrontCanNode_WheelSpeed_Test, .-Can_FrontCanNode_WheelSpeed_Test
 499              		.section	.text.Can_RearCanNode_Heartbeat_Test,"ax",%progbits
 500              		.align	2
 501              		.global	Can_RearCanNode_Heartbeat_Test
 502              		.code	16
 503              		.thumb_func
 504              		.type	Can_RearCanNode_Heartbeat_Test, %function
 505              	Can_RearCanNode_Heartbeat_Test:
 506              	.LFB4:
  78:../MY17/lib/MY17_Can_Library/MY17_Can_Library_Test.c **** 
  79:../MY17/lib/MY17_Can_Library/MY17_Can_Library_Test.c **** void Can_RearCanNode_Heartbeat_Test(PRINT print) {
 507              		.loc 1 79 0
 508              		.cfi_startproc
 509              	.LVL34:
 510 0000 30B5     		push	{r4, r5, lr}	@
 511              		.cfi_def_cfa_offset 12
 512              		.cfi_offset 4, -12
 513              		.cfi_offset 5, -8
 514              		.cfi_offset 14, -4
 515 0002 89B0     		sub	sp, sp, #36	@,,
 516              		.cfi_def_cfa_offset 48
  80:../MY17/lib/MY17_Can_Library/MY17_Can_Library_Test.c ****   Can_RearCanNode_Heartbeat_T begin;
  81:../MY17/lib/MY17_Can_Library/MY17_Can_Library_Test.c ****   begin.is_alive = true;
 517              		.loc 1 81 0
ARM GAS  /var/folders/9j/_txx49hn253_s3mnzkyxlj8m0000gp/T//ccxigpJH.s 			page 12


 518 0004 0123     		mov	r3, #1	@ tmp115,
 519 0006 6A46     		mov	r2, sp	@ tmp129,
  82:../MY17/lib/MY17_Can_Library/MY17_Can_Library_Test.c **** 
  83:../MY17/lib/MY17_Can_Library/MY17_Can_Library_Test.c ****   BOILERPLATE(Can_RearCanNode_Heartbeat);
 520              		.loc 1 83 0
 521 0008 05A9     		add	r1, sp, #20	@ tmp130,,
  79:../MY17/lib/MY17_Can_Library/MY17_Can_Library_Test.c ****   Can_RearCanNode_Heartbeat_T begin;
 522              		.loc 1 79 0
 523 000a 051C     		mov	r5, r0	@ print, print
 524              		.loc 1 83 0
 525 000c 6846     		mov	r0, sp	@,
 526              	.LVL35:
  81:../MY17/lib/MY17_Can_Library/MY17_Can_Library_Test.c **** 
 527              		.loc 1 81 0
 528 000e 1370     		strb	r3, [r2]	@ tmp115, begin.is_alive
 529              		.loc 1 83 0
 530 0010 FFF7FEFF 		bl	Can_RearCanNode_Heartbeat_ToCan	@
 531              	.LVL36:
 532 0014 1720     		mov	r0, #23	@ tmp131,
 533 0016 0022     		mov	r2, #0	@ tmp119,
 534 0018 0023     		mov	r3, #0	@,
 535 001a 6844     		add	r0, r0, sp	@ tmp131,
 536 001c 02A9     		add	r1, sp, #8	@,,
 537 001e 01AC     		add	r4, sp, #4	@ tmp124,,
 538 0020 0292     		str	r2, [sp, #8]	@ tmp119, end_bitstring
 539 0022 0393     		str	r3, [sp, #12]	@ tmp119,
 540 0024 FFF7FEFF 		bl	to_bitstring	@
 541              	.LVL37:
 542 0028 05A8     		add	r0, sp, #20	@ tmp132,,
 543 002a 211C     		mov	r1, r4	@, tmp124
 544 002c FFF7FEFF 		bl	Can_RearCanNode_Heartbeat_FromCan	@
 545              	.LVL38:
  84:../MY17/lib/MY17_Can_Library/MY17_Can_Library_Test.c **** 
  85:../MY17/lib/MY17_Can_Library/MY17_Can_Library_Test.c ****   bool equal = begin.is_alive == end.is_alive;
  86:../MY17/lib/MY17_Can_Library/MY17_Can_Library_Test.c **** 
  87:../MY17/lib/MY17_Can_Library/MY17_Can_Library_Test.c ****   print(equal ? "RearCanNode_Heartbeat_PASS\r\n" : "RearCanNode_Heartbeat_FAIL!!!!!!!!!!!!!!!!\r\n"
 546              		.loc 1 87 0
 547 0030 6B46     		mov	r3, sp	@ tmp133,
 548 0032 1A78     		ldrb	r2, [r3]	@ begin, begin
 549 0034 2378     		ldrb	r3, [r4]	@ end, end
 550 0036 9A42     		cmp	r2, r3	@ begin, end
 551 0038 03D0     		beq	.L43	@,
 552 003a 0348     		ldr	r0, .L44	@ D.5408,
 553              	.L42:
 554              		.loc 1 87 0 is_stmt 0 discriminator 4
 555 003c A847     		blx	r5	@ print
 556              	.LVL39:
  88:../MY17/lib/MY17_Can_Library/MY17_Can_Library_Test.c **** 
  89:../MY17/lib/MY17_Can_Library/MY17_Can_Library_Test.c **** }
 557              		.loc 1 89 0 is_stmt 1 discriminator 4
 558 003e 09B0     		add	sp, sp, #36	@,,
 559              		@ sp needed	@
 560              	.LVL40:
 561 0040 30BD     		pop	{r4, r5, pc}
 562              	.LVL41:
 563              	.L43:
  87:../MY17/lib/MY17_Can_Library/MY17_Can_Library_Test.c **** 
ARM GAS  /var/folders/9j/_txx49hn253_s3mnzkyxlj8m0000gp/T//ccxigpJH.s 			page 13


 564              		.loc 1 87 0
 565 0042 0248     		ldr	r0, .L44+4	@ D.5408,
 566 0044 FAE7     		b	.L42	@
 567              	.L45:
 568 0046 C046     		.align	2
 569              	.L44:
 570 0048 20010000 		.word	.LC18
 571 004c 00010000 		.word	.LC16
 572              		.cfi_endproc
 573              	.LFE4:
 574              		.size	Can_RearCanNode_Heartbeat_Test, .-Can_RearCanNode_Heartbeat_Test
 575              		.section	.text.Can_RearCanNode_WheelSpeed_Test,"ax",%progbits
 576              		.align	2
 577              		.global	Can_RearCanNode_WheelSpeed_Test
 578              		.code	16
 579              		.thumb_func
 580              		.type	Can_RearCanNode_WheelSpeed_Test, %function
 581              	Can_RearCanNode_WheelSpeed_Test:
 582              	.LFB5:
  90:../MY17/lib/MY17_Can_Library/MY17_Can_Library_Test.c **** 
  91:../MY17/lib/MY17_Can_Library/MY17_Can_Library_Test.c **** void Can_RearCanNode_WheelSpeed_Test(PRINT print) {
 583              		.loc 1 91 0
 584              		.cfi_startproc
 585              	.LVL42:
 586 0000 10B5     		push	{r4, lr}	@
 587              		.cfi_def_cfa_offset 8
 588              		.cfi_offset 4, -8
 589              		.cfi_offset 14, -4
  92:../MY17/lib/MY17_Can_Library/MY17_Can_Library_Test.c ****   Can_RearCanNode_WheelSpeed_T begin;
  93:../MY17/lib/MY17_Can_Library/MY17_Can_Library_Test.c ****   begin.rear_right_wheel_speed = 1000000;
 590              		.loc 1 93 0
 591 0002 124B     		ldr	r3, .L51	@ tmp117,
  91:../MY17/lib/MY17_Can_Library/MY17_Can_Library_Test.c ****   Can_RearCanNode_WheelSpeed_T begin;
 592              		.loc 1 91 0
 593 0004 8AB0     		sub	sp, sp, #40	@,,
 594              		.cfi_def_cfa_offset 48
 595              		.loc 1 93 0
 596 0006 0393     		str	r3, [sp, #12]	@ tmp117, begin.rear_right_wheel_speed
  94:../MY17/lib/MY17_Can_Library/MY17_Can_Library_Test.c ****   begin.rear_left_wheel_speed = 30000000UL;
 597              		.loc 1 94 0
 598 0008 114B     		ldr	r3, .L51+4	@ tmp119,
  95:../MY17/lib/MY17_Can_Library/MY17_Can_Library_Test.c **** 
  96:../MY17/lib/MY17_Can_Library/MY17_Can_Library_Test.c ****   BOILERPLATE(Can_RearCanNode_WheelSpeed);
 599              		.loc 1 96 0
 600 000a 07A9     		add	r1, sp, #28	@ tmp137,,
  91:../MY17/lib/MY17_Can_Library/MY17_Can_Library_Test.c ****   Can_RearCanNode_WheelSpeed_T begin;
 601              		.loc 1 91 0
 602 000c 041C     		mov	r4, r0	@ print, print
 603              		.loc 1 96 0
 604 000e 03A8     		add	r0, sp, #12	@ tmp136,,
 605              	.LVL43:
  94:../MY17/lib/MY17_Can_Library/MY17_Can_Library_Test.c ****   begin.rear_left_wheel_speed = 30000000UL;
 606              		.loc 1 94 0
 607 0010 0493     		str	r3, [sp, #16]	@ tmp119, begin.rear_left_wheel_speed
 608              		.loc 1 96 0
 609 0012 FFF7FEFF 		bl	Can_RearCanNode_WheelSpeed_ToCan	@
 610              	.LVL44:
ARM GAS  /var/folders/9j/_txx49hn253_s3mnzkyxlj8m0000gp/T//ccxigpJH.s 			page 14


 611 0016 1F20     		mov	r0, #31	@ tmp138,
 612 0018 0022     		mov	r2, #0	@ tmp122,
 613 001a 0023     		mov	r3, #0	@,
 614 001c 6844     		add	r0, r0, sp	@ tmp138,
 615 001e 6946     		mov	r1, sp	@,
 616 0020 0092     		str	r2, [sp]	@ tmp122, end_bitstring
 617 0022 0193     		str	r3, [sp, #4]	@ tmp122,
 618 0024 FFF7FEFF 		bl	to_bitstring	@
 619              	.LVL45:
 620 0028 07A8     		add	r0, sp, #28	@ tmp139,,
 621 002a 05A9     		add	r1, sp, #20	@ tmp140,,
 622 002c FFF7FEFF 		bl	Can_RearCanNode_WheelSpeed_FromCan	@
 623              	.LVL46:
  97:../MY17/lib/MY17_Can_Library/MY17_Can_Library_Test.c **** 
  98:../MY17/lib/MY17_Can_Library/MY17_Can_Library_Test.c ****   bool equal = (
  99:../MY17/lib/MY17_Can_Library/MY17_Can_Library_Test.c ****       begin.rear_right_wheel_speed == end.rear_right_wheel_speed &&
 624              		.loc 1 99 0
 625 0030 039B     		ldr	r3, [sp, #12]	@ tmp141, begin.rear_right_wheel_speed
 626 0032 059A     		ldr	r2, [sp, #20]	@ tmp142, end.rear_right_wheel_speed
 627 0034 9342     		cmp	r3, r2	@ tmp141, tmp142
 628 0036 03D0     		beq	.L50	@,
 629              	.L49:
 100:../MY17/lib/MY17_Can_Library/MY17_Can_Library_Test.c ****       begin.rear_left_wheel_speed == end.rear_left_wheel_speed);
 101:../MY17/lib/MY17_Can_Library/MY17_Can_Library_Test.c **** 
 102:../MY17/lib/MY17_Can_Library/MY17_Can_Library_Test.c ****   print(equal ? "RearCanNode_WheelSpeed_PASS\r\n" : "RearCanNode_WheelSpeed_FAIL!!!!!!!!!!!!!!!!\r\
 630              		.loc 1 102 0
 631 0038 0648     		ldr	r0, .L51+8	@ D.5414,
 632              	.L47:
 633              		.loc 1 102 0 is_stmt 0 discriminator 4
 634 003a A047     		blx	r4	@ print
 635              	.LVL47:
 103:../MY17/lib/MY17_Can_Library/MY17_Can_Library_Test.c **** 
 104:../MY17/lib/MY17_Can_Library/MY17_Can_Library_Test.c **** }
 636              		.loc 1 104 0 is_stmt 1 discriminator 4
 637 003c 0AB0     		add	sp, sp, #40	@,,
 638              		@ sp needed	@
 639              	.LVL48:
 640 003e 10BD     		pop	{r4, pc}
 641              	.LVL49:
 642              	.L50:
  99:../MY17/lib/MY17_Can_Library/MY17_Can_Library_Test.c ****       begin.rear_left_wheel_speed == end.rear_left_wheel_speed);
 643              		.loc 1 99 0 discriminator 1
 644 0040 049A     		ldr	r2, [sp, #16]	@ begin.rear_left_wheel_speed, begin.rear_left_wheel_speed
 645 0042 069B     		ldr	r3, [sp, #24]	@ end.rear_left_wheel_speed, end.rear_left_wheel_speed
 646 0044 9A42     		cmp	r2, r3	@ begin.rear_left_wheel_speed, end.rear_left_wheel_speed
 647 0046 F7D1     		bne	.L49	@,
 102:../MY17/lib/MY17_Can_Library/MY17_Can_Library_Test.c **** 
 648              		.loc 1 102 0
 649 0048 0348     		ldr	r0, .L51+12	@ D.5414,
 650 004a F6E7     		b	.L47	@
 651              	.L52:
 652              		.align	2
 653              	.L51:
 654 004c 40420F00 		.word	1000000
 655 0050 80C3C901 		.word	30000000
 656 0054 50010000 		.word	.LC20
 657 0058 80010000 		.word	.LC22
ARM GAS  /var/folders/9j/_txx49hn253_s3mnzkyxlj8m0000gp/T//ccxigpJH.s 			page 15


 658              		.cfi_endproc
 659              	.LFE5:
 660              		.size	Can_RearCanNode_WheelSpeed_Test, .-Can_RearCanNode_WheelSpeed_Test
 661              		.section	.text.Can_Vcu_BmsHeartbeat_Test,"ax",%progbits
 662              		.align	2
 663              		.global	Can_Vcu_BmsHeartbeat_Test
 664              		.code	16
 665              		.thumb_func
 666              		.type	Can_Vcu_BmsHeartbeat_Test, %function
 667              	Can_Vcu_BmsHeartbeat_Test:
 668              	.LFB6:
 105:../MY17/lib/MY17_Can_Library/MY17_Can_Library_Test.c **** 
 106:../MY17/lib/MY17_Can_Library/MY17_Can_Library_Test.c **** void Can_Vcu_BmsHeartbeat_Test(PRINT print) {
 669              		.loc 1 106 0
 670              		.cfi_startproc
 671              	.LVL50:
 672 0000 30B5     		push	{r4, r5, lr}	@
 673              		.cfi_def_cfa_offset 12
 674              		.cfi_offset 4, -12
 675              		.cfi_offset 5, -8
 676              		.cfi_offset 14, -4
 677 0002 89B0     		sub	sp, sp, #36	@,,
 678              		.cfi_def_cfa_offset 48
 107:../MY17/lib/MY17_Can_Library/MY17_Can_Library_Test.c ****   Can_Vcu_BmsHeartbeat_T begin;
 108:../MY17/lib/MY17_Can_Library/MY17_Can_Library_Test.c ****   begin.alwaysTrue = true;
 679              		.loc 1 108 0
 680 0004 0123     		mov	r3, #1	@ tmp115,
 681 0006 6A46     		mov	r2, sp	@ tmp129,
 109:../MY17/lib/MY17_Can_Library/MY17_Can_Library_Test.c **** 
 110:../MY17/lib/MY17_Can_Library/MY17_Can_Library_Test.c ****   BOILERPLATE(Can_Vcu_BmsHeartbeat);
 682              		.loc 1 110 0
 683 0008 05A9     		add	r1, sp, #20	@ tmp130,,
 106:../MY17/lib/MY17_Can_Library/MY17_Can_Library_Test.c ****   Can_Vcu_BmsHeartbeat_T begin;
 684              		.loc 1 106 0
 685 000a 051C     		mov	r5, r0	@ print, print
 686              		.loc 1 110 0
 687 000c 6846     		mov	r0, sp	@,
 688              	.LVL51:
 108:../MY17/lib/MY17_Can_Library/MY17_Can_Library_Test.c **** 
 689              		.loc 1 108 0
 690 000e 1370     		strb	r3, [r2]	@ tmp115, begin.alwaysTrue
 691              		.loc 1 110 0
 692 0010 FFF7FEFF 		bl	Can_Vcu_BmsHeartbeat_ToCan	@
 693              	.LVL52:
 694 0014 1720     		mov	r0, #23	@ tmp131,
 695 0016 0022     		mov	r2, #0	@ tmp119,
 696 0018 0023     		mov	r3, #0	@,
 697 001a 6844     		add	r0, r0, sp	@ tmp131,
 698 001c 02A9     		add	r1, sp, #8	@,,
 699 001e 01AC     		add	r4, sp, #4	@ tmp124,,
 700 0020 0292     		str	r2, [sp, #8]	@ tmp119, end_bitstring
 701 0022 0393     		str	r3, [sp, #12]	@ tmp119,
 702 0024 FFF7FEFF 		bl	to_bitstring	@
 703              	.LVL53:
 704 0028 05A8     		add	r0, sp, #20	@ tmp132,,
 705 002a 211C     		mov	r1, r4	@, tmp124
 706 002c FFF7FEFF 		bl	Can_Vcu_BmsHeartbeat_FromCan	@
ARM GAS  /var/folders/9j/_txx49hn253_s3mnzkyxlj8m0000gp/T//ccxigpJH.s 			page 16


 707              	.LVL54:
 111:../MY17/lib/MY17_Can_Library/MY17_Can_Library_Test.c **** 
 112:../MY17/lib/MY17_Can_Library/MY17_Can_Library_Test.c ****   bool equal = begin.alwaysTrue == end.alwaysTrue;
 113:../MY17/lib/MY17_Can_Library/MY17_Can_Library_Test.c ****   print(equal ? "Vcu_BmsHeartbeat_PASS\r\n" : "Vcu_BmsHeartbeat_FAIL!!!!!!!!!!!!!!!!\r\n");
 708              		.loc 1 113 0
 709 0030 6B46     		mov	r3, sp	@ tmp133,
 710 0032 1A78     		ldrb	r2, [r3]	@ begin, begin
 711 0034 2378     		ldrb	r3, [r4]	@ end, end
 712 0036 9A42     		cmp	r2, r3	@ begin, end
 713 0038 03D0     		beq	.L55	@,
 714 003a 0348     		ldr	r0, .L56	@ D.5420,
 715              	.L54:
 716              		.loc 1 113 0 is_stmt 0 discriminator 4
 717 003c A847     		blx	r5	@ print
 718              	.LVL55:
 114:../MY17/lib/MY17_Can_Library/MY17_Can_Library_Test.c **** 
 115:../MY17/lib/MY17_Can_Library/MY17_Can_Library_Test.c **** }
 719              		.loc 1 115 0 is_stmt 1 discriminator 4
 720 003e 09B0     		add	sp, sp, #36	@,,
 721              		@ sp needed	@
 722              	.LVL56:
 723 0040 30BD     		pop	{r4, r5, pc}
 724              	.LVL57:
 725              	.L55:
 113:../MY17/lib/MY17_Can_Library/MY17_Can_Library_Test.c **** 
 726              		.loc 1 113 0
 727 0042 0248     		ldr	r0, .L56+4	@ D.5420,
 728 0044 FAE7     		b	.L54	@
 729              	.L57:
 730 0046 C046     		.align	2
 731              	.L56:
 732 0048 B8010000 		.word	.LC26
 733 004c A0010000 		.word	.LC24
 734              		.cfi_endproc
 735              	.LFE6:
 736              		.size	Can_Vcu_BmsHeartbeat_Test, .-Can_Vcu_BmsHeartbeat_Test
 737              		.section	.text.Can_Vcu_DashHeartbeat_Test,"ax",%progbits
 738              		.align	2
 739              		.global	Can_Vcu_DashHeartbeat_Test
 740              		.code	16
 741              		.thumb_func
 742              		.type	Can_Vcu_DashHeartbeat_Test, %function
 743              	Can_Vcu_DashHeartbeat_Test:
 744              	.LFB7:
 116:../MY17/lib/MY17_Can_Library/MY17_Can_Library_Test.c **** 
 117:../MY17/lib/MY17_Can_Library/MY17_Can_Library_Test.c **** void Can_Vcu_DashHeartbeat_Test(PRINT print) {
 745              		.loc 1 117 0
 746              		.cfi_startproc
 747              	.LVL58:
 118:../MY17/lib/MY17_Can_Library/MY17_Can_Library_Test.c ****   Can_Vcu_DashHeartbeat_T begin;
 119:../MY17/lib/MY17_Can_Library/MY17_Can_Library_Test.c **** 
 120:../MY17/lib/MY17_Can_Library/MY17_Can_Library_Test.c ****   begin.rtd_light = true;
 748              		.loc 1 120 0
 749 0000 0123     		mov	r3, #1	@ tmp143,
 121:../MY17/lib/MY17_Can_Library/MY17_Can_Library_Test.c ****   begin.ams_light = false;
 750              		.loc 1 121 0
 751 0002 0022     		mov	r2, #0	@ tmp146,
ARM GAS  /var/folders/9j/_txx49hn253_s3mnzkyxlj8m0000gp/T//ccxigpJH.s 			page 17


 117:../MY17/lib/MY17_Can_Library/MY17_Can_Library_Test.c ****   Can_Vcu_DashHeartbeat_T begin;
 752              		.loc 1 117 0
 753 0004 30B5     		push	{r4, r5, lr}	@
 754              		.cfi_def_cfa_offset 12
 755              		.cfi_offset 4, -12
 756              		.cfi_offset 5, -8
 757              		.cfi_offset 14, -4
 758 0006 97B0     		sub	sp, sp, #92	@,,
 759              		.cfi_def_cfa_offset 104
 120:../MY17/lib/MY17_Can_Library/MY17_Can_Library_Test.c ****   begin.ams_light = false;
 760              		.loc 1 120 0
 761 0008 06AC     		add	r4, sp, #24	@ tmp298,,
 762 000a 2370     		strb	r3, [r4]	@ tmp143, begin.rtd_light
 122:../MY17/lib/MY17_Can_Library/MY17_Can_Library_Test.c ****   begin.imd_light = false;
 123:../MY17/lib/MY17_Can_Library/MY17_Can_Library_Test.c ****   begin.hv_light = true;
 763              		.loc 1 123 0
 764 000c E370     		strb	r3, [r4, #3]	@ tmp143, begin.hv_light
 124:../MY17/lib/MY17_Can_Library/MY17_Can_Library_Test.c **** 
 125:../MY17/lib/MY17_Can_Library/MY17_Can_Library_Test.c ****   begin.traction_control = true;
 765              		.loc 1 125 0
 766 000e 2371     		strb	r3, [r4, #4]	@ tmp143, begin.traction_control
 126:../MY17/lib/MY17_Can_Library/MY17_Can_Library_Test.c ****   begin.limp_mode = true;
 767              		.loc 1 126 0
 768 0010 6371     		strb	r3, [r4, #5]	@ tmp143, begin.limp_mode
 127:../MY17/lib/MY17_Can_Library/MY17_Can_Library_Test.c ****   begin.lv_warning = false;
 128:../MY17/lib/MY17_Can_Library/MY17_Can_Library_Test.c ****   begin.active_aero = true;
 769              		.loc 1 128 0
 770 0012 E371     		strb	r3, [r4, #7]	@ tmp143, begin.active_aero
 129:../MY17/lib/MY17_Can_Library/MY17_Can_Library_Test.c **** 
 130:../MY17/lib/MY17_Can_Library/MY17_Can_Library_Test.c ****   begin.regen = true;
 771              		.loc 1 130 0
 772 0014 2372     		strb	r3, [r4, #8]	@ tmp143, begin.regen
 131:../MY17/lib/MY17_Can_Library/MY17_Can_Library_Test.c ****   begin.shutdown_esd_drain = false;
 132:../MY17/lib/MY17_Can_Library/MY17_Can_Library_Test.c ****   begin.shutdown_bms = true;
 773              		.loc 1 132 0
 774 0016 A372     		strb	r3, [r4, #10]	@ tmp143, begin.shutdown_bms
 133:../MY17/lib/MY17_Can_Library/MY17_Can_Library_Test.c ****   begin.shutdown_imd = true;
 775              		.loc 1 133 0
 776 0018 E372     		strb	r3, [r4, #11]	@ tmp143, begin.shutdown_imd
 134:../MY17/lib/MY17_Can_Library/MY17_Can_Library_Test.c **** 
 135:../MY17/lib/MY17_Can_Library/MY17_Can_Library_Test.c ****   begin.shutdown_bspd = false;
 136:../MY17/lib/MY17_Can_Library/MY17_Can_Library_Test.c ****   begin.shutdown_vcu = false;
 137:../MY17/lib/MY17_Can_Library/MY17_Can_Library_Test.c ****   begin.shutdown_precharge = false;
 138:../MY17/lib/MY17_Can_Library/MY17_Can_Library_Test.c ****   begin.shutdown_master_reset = true;
 777              		.loc 1 138 0
 778 001a E373     		strb	r3, [r4, #15]	@ tmp143, begin.shutdown_master_reset
 139:../MY17/lib/MY17_Can_Library/MY17_Can_Library_Test.c **** 
 140:../MY17/lib/MY17_Can_Library/MY17_Can_Library_Test.c ****   begin.shutdown_driver_reset = false;
 141:../MY17/lib/MY17_Can_Library/MY17_Can_Library_Test.c **** 
 142:../MY17/lib/MY17_Can_Library/MY17_Can_Library_Test.c ****   begin.heartbeat_front_can_node_dead = false;
 143:../MY17/lib/MY17_Can_Library/MY17_Can_Library_Test.c ****   begin.heartbeat_rear_can_node_dead = false;
 144:../MY17/lib/MY17_Can_Library/MY17_Can_Library_Test.c ****   begin.heartbeat_bms_dead = true;
 779              		.loc 1 144 0
 780 001c E374     		strb	r3, [r4, #19]	@ tmp143, begin.heartbeat_bms_dead
 145:../MY17/lib/MY17_Can_Library/MY17_Can_Library_Test.c ****   begin.heartbeat_dash_dead = false;
 146:../MY17/lib/MY17_Can_Library/MY17_Can_Library_Test.c ****   begin.heartbeat_mc_dead = true;
 781              		.loc 1 146 0
ARM GAS  /var/folders/9j/_txx49hn253_s3mnzkyxlj8m0000gp/T//ccxigpJH.s 			page 18


 782 001e 6375     		strb	r3, [r4, #21]	@ tmp143, begin.heartbeat_mc_dead
 147:../MY17/lib/MY17_Can_Library/MY17_Can_Library_Test.c ****   begin.heartbeat_current_sensor_dead = false;
 148:../MY17/lib/MY17_Can_Library/MY17_Can_Library_Test.c **** 
 149:../MY17/lib/MY17_Can_Library/MY17_Can_Library_Test.c ****   begin.tsms_off = false;
 150:../MY17/lib/MY17_Can_Library/MY17_Can_Library_Test.c ****   begin.reset_latch_open = true;
 783              		.loc 1 150 0
 784 0020 2376     		strb	r3, [r4, #24]	@ tmp143, begin.reset_latch_open
 151:../MY17/lib/MY17_Can_Library/MY17_Can_Library_Test.c ****   begin.precharge_running = true;
 785              		.loc 1 151 0
 786 0022 6376     		strb	r3, [r4, #25]	@ tmp143, begin.precharge_running
 152:../MY17/lib/MY17_Can_Library/MY17_Can_Library_Test.c **** 
 153:../MY17/lib/MY17_Can_Library/MY17_Can_Library_Test.c ****   begin.master_reset_not_initialized = false;
 154:../MY17/lib/MY17_Can_Library/MY17_Can_Library_Test.c ****   begin.driver_reset_not_initialized = true;
 787              		.loc 1 154 0
 788 0024 E376     		strb	r3, [r4, #27]	@ tmp143, begin.driver_reset_not_initialized
 155:../MY17/lib/MY17_Can_Library/MY17_Can_Library_Test.c **** 
 156:../MY17/lib/MY17_Can_Library/MY17_Can_Library_Test.c ****   begin.lv_battery_voltage = 1022;
 789              		.loc 1 156 0
 790 0026 464B     		ldr	r3, .L76	@ tmp227,
 157:../MY17/lib/MY17_Can_Library/MY17_Can_Library_Test.c **** 
 158:../MY17/lib/MY17_Can_Library/MY17_Can_Library_Test.c ****   BOILERPLATE(Can_Vcu_DashHeartbeat);
 791              		.loc 1 158 0
 792 0028 03A9     		add	r1, sp, #12	@ tmp299,,
 117:../MY17/lib/MY17_Can_Library/MY17_Can_Library_Test.c ****   Can_Vcu_DashHeartbeat_T begin;
 793              		.loc 1 117 0
 794 002a 051C     		mov	r5, r0	@ print, print
 795              		.loc 1 158 0
 796 002c 201C     		mov	r0, r4	@, tmp298
 797              	.LVL59:
 121:../MY17/lib/MY17_Can_Library/MY17_Can_Library_Test.c ****   begin.imd_light = false;
 798              		.loc 1 121 0
 799 002e 6270     		strb	r2, [r4, #1]	@ tmp146, begin.ams_light
 122:../MY17/lib/MY17_Can_Library/MY17_Can_Library_Test.c ****   begin.hv_light = true;
 800              		.loc 1 122 0
 801 0030 A270     		strb	r2, [r4, #2]	@ tmp146, begin.imd_light
 127:../MY17/lib/MY17_Can_Library/MY17_Can_Library_Test.c ****   begin.active_aero = true;
 802              		.loc 1 127 0
 803 0032 A271     		strb	r2, [r4, #6]	@ tmp146, begin.lv_warning
 131:../MY17/lib/MY17_Can_Library/MY17_Can_Library_Test.c ****   begin.shutdown_bms = true;
 804              		.loc 1 131 0
 805 0034 6272     		strb	r2, [r4, #9]	@ tmp146, begin.shutdown_esd_drain
 135:../MY17/lib/MY17_Can_Library/MY17_Can_Library_Test.c ****   begin.shutdown_vcu = false;
 806              		.loc 1 135 0
 807 0036 2273     		strb	r2, [r4, #12]	@ tmp146, begin.shutdown_bspd
 136:../MY17/lib/MY17_Can_Library/MY17_Can_Library_Test.c ****   begin.shutdown_precharge = false;
 808              		.loc 1 136 0
 809 0038 6273     		strb	r2, [r4, #13]	@ tmp146, begin.shutdown_vcu
 137:../MY17/lib/MY17_Can_Library/MY17_Can_Library_Test.c ****   begin.shutdown_master_reset = true;
 810              		.loc 1 137 0
 811 003a A273     		strb	r2, [r4, #14]	@ tmp146, begin.shutdown_precharge
 140:../MY17/lib/MY17_Can_Library/MY17_Can_Library_Test.c **** 
 812              		.loc 1 140 0
 813 003c 2274     		strb	r2, [r4, #16]	@ tmp146, begin.shutdown_driver_reset
 142:../MY17/lib/MY17_Can_Library/MY17_Can_Library_Test.c ****   begin.heartbeat_rear_can_node_dead = false;
 814              		.loc 1 142 0
 815 003e 6274     		strb	r2, [r4, #17]	@ tmp146, begin.heartbeat_front_can_node_dead
 143:../MY17/lib/MY17_Can_Library/MY17_Can_Library_Test.c ****   begin.heartbeat_bms_dead = true;
ARM GAS  /var/folders/9j/_txx49hn253_s3mnzkyxlj8m0000gp/T//ccxigpJH.s 			page 19


 816              		.loc 1 143 0
 817 0040 A274     		strb	r2, [r4, #18]	@ tmp146, begin.heartbeat_rear_can_node_dead
 145:../MY17/lib/MY17_Can_Library/MY17_Can_Library_Test.c ****   begin.heartbeat_mc_dead = true;
 818              		.loc 1 145 0
 819 0042 2275     		strb	r2, [r4, #20]	@ tmp146, begin.heartbeat_dash_dead
 147:../MY17/lib/MY17_Can_Library/MY17_Can_Library_Test.c **** 
 820              		.loc 1 147 0
 821 0044 A275     		strb	r2, [r4, #22]	@ tmp146, begin.heartbeat_current_sensor_dead
 149:../MY17/lib/MY17_Can_Library/MY17_Can_Library_Test.c ****   begin.reset_latch_open = true;
 822              		.loc 1 149 0
 823 0046 E275     		strb	r2, [r4, #23]	@ tmp146, begin.tsms_off
 153:../MY17/lib/MY17_Can_Library/MY17_Can_Library_Test.c ****   begin.driver_reset_not_initialized = true;
 824              		.loc 1 153 0
 825 0048 A276     		strb	r2, [r4, #26]	@ tmp146, begin.master_reset_not_initialized
 156:../MY17/lib/MY17_Can_Library/MY17_Can_Library_Test.c **** 
 826              		.loc 1 156 0
 827 004a A383     		strh	r3, [r4, #28]	@ tmp227, begin.lv_battery_voltage
 828              		.loc 1 158 0
 829 004c FFF7FEFF 		bl	Can_Vcu_DashHeartbeat_ToCan	@
 830              	.LVL60:
 831 0050 0F20     		mov	r0, #15	@ tmp300,
 832 0052 0022     		mov	r2, #0	@ tmp231,
 833 0054 0023     		mov	r3, #0	@,
 834 0056 6844     		add	r0, r0, sp	@ tmp300,
 835 0058 6946     		mov	r1, sp	@,
 836 005a 0092     		str	r2, [sp]	@ tmp231, end_bitstring
 837 005c 0193     		str	r3, [sp, #4]	@ tmp231,
 838 005e FFF7FEFF 		bl	to_bitstring	@
 839              	.LVL61:
 840 0062 03A8     		add	r0, sp, #12	@ tmp301,,
 841 0064 0EA9     		add	r1, sp, #56	@ tmp302,,
 842 0066 FFF7FEFF 		bl	Can_Vcu_DashHeartbeat_FromCan	@
 843              	.LVL62:
 159:../MY17/lib/MY17_Can_Library/MY17_Can_Library_Test.c **** 
 160:../MY17/lib/MY17_Can_Library/MY17_Can_Library_Test.c ****   bool equal = (
 161:../MY17/lib/MY17_Can_Library/MY17_Can_Library_Test.c ****       begin.rtd_light == end.rtd_light &&
 162:../MY17/lib/MY17_Can_Library/MY17_Can_Library_Test.c ****       begin.ams_light == end.ams_light &&
 163:../MY17/lib/MY17_Can_Library/MY17_Can_Library_Test.c ****       begin.imd_light == end.imd_light &&
 164:../MY17/lib/MY17_Can_Library/MY17_Can_Library_Test.c ****       begin.hv_light == end.hv_light &&
 165:../MY17/lib/MY17_Can_Library/MY17_Can_Library_Test.c ****       begin.traction_control == end.traction_control &&
 166:../MY17/lib/MY17_Can_Library/MY17_Can_Library_Test.c ****       begin.limp_mode == end.limp_mode &&
 167:../MY17/lib/MY17_Can_Library/MY17_Can_Library_Test.c ****       begin.lv_warning == end.lv_warning &&
 168:../MY17/lib/MY17_Can_Library/MY17_Can_Library_Test.c ****       begin.active_aero == end.active_aero &&
 169:../MY17/lib/MY17_Can_Library/MY17_Can_Library_Test.c ****       begin.regen == end.regen &&
 170:../MY17/lib/MY17_Can_Library/MY17_Can_Library_Test.c ****       begin.shutdown_esd_drain == end.shutdown_esd_drain &&
 171:../MY17/lib/MY17_Can_Library/MY17_Can_Library_Test.c ****       begin.shutdown_bms == end.shutdown_bms &&
 172:../MY17/lib/MY17_Can_Library/MY17_Can_Library_Test.c ****       begin.shutdown_imd == end.shutdown_imd &&
 173:../MY17/lib/MY17_Can_Library/MY17_Can_Library_Test.c ****       begin.shutdown_bspd == end.shutdown_bspd &&
 174:../MY17/lib/MY17_Can_Library/MY17_Can_Library_Test.c ****       begin.shutdown_vcu == end.shutdown_vcu &&
 175:../MY17/lib/MY17_Can_Library/MY17_Can_Library_Test.c ****       begin.shutdown_precharge == end.shutdown_precharge &&
 176:../MY17/lib/MY17_Can_Library/MY17_Can_Library_Test.c ****       begin.shutdown_master_reset == end.shutdown_master_reset &&
 177:../MY17/lib/MY17_Can_Library/MY17_Can_Library_Test.c ****       begin.shutdown_driver_reset == end.shutdown_driver_reset &&
 178:../MY17/lib/MY17_Can_Library/MY17_Can_Library_Test.c ****       begin.heartbeat_front_can_node_dead == end.heartbeat_front_can_node_dead &&
 179:../MY17/lib/MY17_Can_Library/MY17_Can_Library_Test.c ****       begin.heartbeat_rear_can_node_dead == end.heartbeat_rear_can_node_dead &&
 180:../MY17/lib/MY17_Can_Library/MY17_Can_Library_Test.c ****       begin.heartbeat_bms_dead == end.heartbeat_bms_dead &&
 181:../MY17/lib/MY17_Can_Library/MY17_Can_Library_Test.c ****       begin.heartbeat_dash_dead == end.heartbeat_dash_dead &&
 182:../MY17/lib/MY17_Can_Library/MY17_Can_Library_Test.c ****       begin.heartbeat_mc_dead == end.heartbeat_mc_dead &&
ARM GAS  /var/folders/9j/_txx49hn253_s3mnzkyxlj8m0000gp/T//ccxigpJH.s 			page 20


 183:../MY17/lib/MY17_Can_Library/MY17_Can_Library_Test.c ****       begin.heartbeat_current_sensor_dead == end.heartbeat_current_sensor_dead &&
 184:../MY17/lib/MY17_Can_Library/MY17_Can_Library_Test.c ****       begin.tsms_off == end.tsms_off &&
 185:../MY17/lib/MY17_Can_Library/MY17_Can_Library_Test.c ****       begin.reset_latch_open == end. reset_latch_open &&
 186:../MY17/lib/MY17_Can_Library/MY17_Can_Library_Test.c ****       begin.precharge_running == end.precharge_running &&
 187:../MY17/lib/MY17_Can_Library/MY17_Can_Library_Test.c ****       begin.master_reset_not_initialized == end.master_reset_not_initialized &&
 188:../MY17/lib/MY17_Can_Library/MY17_Can_Library_Test.c ****       begin.driver_reset_not_initialized == end.driver_reset_not_initialized &&
 844              		.loc 1 188 0
 845 006a 6B46     		mov	r3, sp	@ tmp303,
 846 006c 2288     		ldrh	r2, [r4]	@ begin, begin
 847 006e 1B8F     		ldrh	r3, [r3, #56]	@ end, end
 848 0070 9A42     		cmp	r2, r3	@ begin, end
 849 0072 03D0     		beq	.L75	@,
 850              	.L65:
 189:../MY17/lib/MY17_Can_Library/MY17_Can_Library_Test.c ****       begin.lv_battery_voltage == end.lv_battery_voltage);
 190:../MY17/lib/MY17_Can_Library/MY17_Can_Library_Test.c **** 
 191:../MY17/lib/MY17_Can_Library/MY17_Can_Library_Test.c ****   print(equal ? "Vcu_DashHeartbeat_PASS\r\n" : "Vcu_DashHeartbeat_FAIL!!!!!!!!!!!!!!!!\r\n");
 851              		.loc 1 191 0
 852 0074 3348     		ldr	r0, .L76+4	@ D.5426,
 853              	.L59:
 854              		.loc 1 191 0 is_stmt 0 discriminator 4
 855 0076 A847     		blx	r5	@ print
 856              	.LVL63:
 192:../MY17/lib/MY17_Can_Library/MY17_Can_Library_Test.c **** 
 193:../MY17/lib/MY17_Can_Library/MY17_Can_Library_Test.c **** }
 857              		.loc 1 193 0 is_stmt 1 discriminator 4
 858 0078 17B0     		add	sp, sp, #92	@,,
 859              		@ sp needed	@
 860              	.LVL64:
 861 007a 30BD     		pop	{r4, r5, pc}
 862              	.LVL65:
 863              	.L75:
 163:../MY17/lib/MY17_Can_Library/MY17_Can_Library_Test.c ****       begin.hv_light == end.hv_light &&
 864              		.loc 1 163 0
 865 007c 6B46     		mov	r3, sp	@ tmp304,
 866 007e 6288     		ldrh	r2, [r4, #2]	@ begin, begin
 867 0080 5B8F     		ldrh	r3, [r3, #58]	@ end, end
 868 0082 9A42     		cmp	r2, r3	@ begin, end
 869 0084 F6D1     		bne	.L65	@,
 165:../MY17/lib/MY17_Can_Library/MY17_Can_Library_Test.c ****       begin.limp_mode == end.limp_mode &&
 870              		.loc 1 165 0
 871 0086 6B46     		mov	r3, sp	@ tmp305,
 872 0088 A288     		ldrh	r2, [r4, #4]	@ begin, begin
 873 008a 9B8F     		ldrh	r3, [r3, #60]	@ end, end
 874 008c 9A42     		cmp	r2, r3	@ begin, end
 875 008e F1D1     		bne	.L65	@,
 167:../MY17/lib/MY17_Can_Library/MY17_Can_Library_Test.c ****       begin.active_aero == end.active_aero &&
 876              		.loc 1 167 0
 877 0090 6B46     		mov	r3, sp	@ tmp306,
 878 0092 E288     		ldrh	r2, [r4, #6]	@ begin, begin
 879 0094 DB8F     		ldrh	r3, [r3, #62]	@ end, end
 880 0096 9A42     		cmp	r2, r3	@ begin, end
 881 0098 ECD1     		bne	.L65	@,
 169:../MY17/lib/MY17_Can_Library/MY17_Can_Library_Test.c ****       begin.shutdown_esd_drain == end.shutdown_esd_drain &&
 882              		.loc 1 169 0
 883 009a 6B46     		mov	r3, sp	@ tmp307,
 884 009c 4021     		mov	r1, #64	@ tmp309,
 885 009e 5B18     		add	r3, r3, r1	@ tmp308, tmp307, tmp309
ARM GAS  /var/folders/9j/_txx49hn253_s3mnzkyxlj8m0000gp/T//ccxigpJH.s 			page 21


 886 00a0 2289     		ldrh	r2, [r4, #8]	@ begin, begin
 887 00a2 1B88     		ldrh	r3, [r3]	@ end, end
 888 00a4 9A42     		cmp	r2, r3	@ begin, end
 889 00a6 E5D1     		bne	.L65	@,
 171:../MY17/lib/MY17_Can_Library/MY17_Can_Library_Test.c ****       begin.shutdown_imd == end.shutdown_imd &&
 890              		.loc 1 171 0
 891 00a8 6B46     		mov	r3, sp	@ tmp310,
 892 00aa 0231     		add	r1, r1, #2	@ tmp312,
 893 00ac 5B18     		add	r3, r3, r1	@ tmp311, tmp310, tmp312
 894 00ae 6289     		ldrh	r2, [r4, #10]	@ begin, begin
 895 00b0 1B88     		ldrh	r3, [r3]	@ end, end
 896 00b2 9A42     		cmp	r2, r3	@ begin, end
 897 00b4 DED1     		bne	.L65	@,
 173:../MY17/lib/MY17_Can_Library/MY17_Can_Library_Test.c ****       begin.shutdown_vcu == end.shutdown_vcu &&
 898              		.loc 1 173 0
 899 00b6 6B46     		mov	r3, sp	@ tmp313,
 900 00b8 0231     		add	r1, r1, #2	@ tmp315,
 901 00ba 5B18     		add	r3, r3, r1	@ tmp314, tmp313, tmp315
 902 00bc A289     		ldrh	r2, [r4, #12]	@ begin, begin
 903 00be 1B88     		ldrh	r3, [r3]	@ end, end
 191:../MY17/lib/MY17_Can_Library/MY17_Can_Library_Test.c **** 
 904              		.loc 1 191 0
 905 00c0 2048     		ldr	r0, .L76+4	@ D.5426,
 173:../MY17/lib/MY17_Can_Library/MY17_Can_Library_Test.c ****       begin.shutdown_vcu == end.shutdown_vcu &&
 906              		.loc 1 173 0
 907 00c2 9A42     		cmp	r2, r3	@ begin, end
 908 00c4 D7D1     		bne	.L59	@,
 175:../MY17/lib/MY17_Can_Library/MY17_Can_Library_Test.c ****       begin.shutdown_master_reset == end.shutdown_master_reset &&
 909              		.loc 1 175 0
 910 00c6 6B46     		mov	r3, sp	@ tmp316,
 911 00c8 0231     		add	r1, r1, #2	@ tmp318,
 912 00ca 5B18     		add	r3, r3, r1	@ tmp317, tmp316, tmp318
 913 00cc E289     		ldrh	r2, [r4, #14]	@ begin, begin
 914 00ce 1B88     		ldrh	r3, [r3]	@ end, end
 915 00d0 9A42     		cmp	r2, r3	@ begin, end
 916 00d2 D0D1     		bne	.L59	@,
 177:../MY17/lib/MY17_Can_Library/MY17_Can_Library_Test.c ****       begin.heartbeat_front_can_node_dead == end.heartbeat_front_can_node_dead &&
 917              		.loc 1 177 0
 918 00d4 6B46     		mov	r3, sp	@ tmp319,
 919 00d6 0231     		add	r1, r1, #2	@ tmp321,
 920 00d8 5B18     		add	r3, r3, r1	@ tmp320, tmp319, tmp321
 921 00da 228A     		ldrh	r2, [r4, #16]	@ begin, begin
 922 00dc 1B88     		ldrh	r3, [r3]	@ end, end
 923 00de 9A42     		cmp	r2, r3	@ begin, end
 924 00e0 C9D1     		bne	.L59	@,
 179:../MY17/lib/MY17_Can_Library/MY17_Can_Library_Test.c ****       begin.heartbeat_bms_dead == end.heartbeat_bms_dead &&
 925              		.loc 1 179 0
 926 00e2 6B46     		mov	r3, sp	@ tmp322,
 927 00e4 0231     		add	r1, r1, #2	@ tmp324,
 928 00e6 5B18     		add	r3, r3, r1	@ tmp323, tmp322, tmp324
 929 00e8 628A     		ldrh	r2, [r4, #18]	@ begin, begin
 930 00ea 1B88     		ldrh	r3, [r3]	@ end, end
 931 00ec 9A42     		cmp	r2, r3	@ begin, end
 932 00ee C2D1     		bne	.L59	@,
 181:../MY17/lib/MY17_Can_Library/MY17_Can_Library_Test.c ****       begin.heartbeat_mc_dead == end.heartbeat_mc_dead &&
 933              		.loc 1 181 0
 934 00f0 6B46     		mov	r3, sp	@ tmp325,
ARM GAS  /var/folders/9j/_txx49hn253_s3mnzkyxlj8m0000gp/T//ccxigpJH.s 			page 22


 935 00f2 0231     		add	r1, r1, #2	@ tmp327,
 936 00f4 5B18     		add	r3, r3, r1	@ tmp326, tmp325, tmp327
 937 00f6 A28A     		ldrh	r2, [r4, #20]	@ begin, begin
 938 00f8 1B88     		ldrh	r3, [r3]	@ end, end
 939 00fa 9A42     		cmp	r2, r3	@ begin, end
 940 00fc BBD1     		bne	.L59	@,
 183:../MY17/lib/MY17_Can_Library/MY17_Can_Library_Test.c ****       begin.tsms_off == end.tsms_off &&
 941              		.loc 1 183 0
 942 00fe 6B46     		mov	r3, sp	@ tmp328,
 943 0100 0231     		add	r1, r1, #2	@ tmp330,
 944 0102 5B18     		add	r3, r3, r1	@ tmp329, tmp328, tmp330
 945 0104 E28A     		ldrh	r2, [r4, #22]	@ begin, begin
 946 0106 1B88     		ldrh	r3, [r3]	@ end, end
 947 0108 9A42     		cmp	r2, r3	@ begin, end
 948 010a B4D1     		bne	.L59	@,
 185:../MY17/lib/MY17_Can_Library/MY17_Can_Library_Test.c ****       begin.precharge_running == end.precharge_running &&
 949              		.loc 1 185 0
 950 010c 6B46     		mov	r3, sp	@ tmp331,
 951 010e 0231     		add	r1, r1, #2	@ tmp333,
 952 0110 5B18     		add	r3, r3, r1	@ tmp332, tmp331, tmp333
 953 0112 228B     		ldrh	r2, [r4, #24]	@ begin, begin
 954 0114 1B88     		ldrh	r3, [r3]	@ end, end
 955 0116 9A42     		cmp	r2, r3	@ begin, end
 956 0118 ADD1     		bne	.L59	@,
 187:../MY17/lib/MY17_Can_Library/MY17_Can_Library_Test.c ****       begin.driver_reset_not_initialized == end.driver_reset_not_initialized &&
 957              		.loc 1 187 0
 958 011a 6B46     		mov	r3, sp	@ tmp334,
 959 011c 0231     		add	r1, r1, #2	@ tmp336,
 960 011e 5B18     		add	r3, r3, r1	@ tmp335, tmp334, tmp336
 961 0120 628B     		ldrh	r2, [r4, #26]	@ begin, begin
 962 0122 1B88     		ldrh	r3, [r3]	@ end, end
 963 0124 9A42     		cmp	r2, r3	@ begin, end
 964 0126 00D0     		beq	.LCB785	@
 965 0128 A5E7     		b	.L59	@long jump	@
 966              	.LCB785:
 188:../MY17/lib/MY17_Can_Library/MY17_Can_Library_Test.c ****       begin.lv_battery_voltage == end.lv_battery_voltage);
 967              		.loc 1 188 0 discriminator 3
 968 012a 6B46     		mov	r3, sp	@ tmp337,
 969 012c 0231     		add	r1, r1, #2	@ tmp339,
 970 012e 5B18     		add	r3, r3, r1	@ tmp338, tmp337, tmp339
 971 0130 A28B     		ldrh	r2, [r4, #28]	@ tmp295,
 972 0132 1B88     		ldrh	r3, [r3]	@ tmp296,
 973 0134 9A42     		cmp	r2, r3	@ tmp295, tmp296
 974 0136 00D0     		beq	.LCB792	@
 975 0138 9DE7     		b	.L59	@long jump	@
 976              	.LCB792:
 191:../MY17/lib/MY17_Can_Library/MY17_Can_Library_Test.c **** 
 977              		.loc 1 191 0
 978 013a 0348     		ldr	r0, .L76+8	@ D.5426,
 979 013c 9BE7     		b	.L59	@
 980              	.L77:
 981 013e C046     		.align	2
 982              	.L76:
 983 0140 FE030000 		.word	1022
 984 0144 FC010000 		.word	.LC30
 985 0148 E0010000 		.word	.LC28
 986              		.cfi_endproc
ARM GAS  /var/folders/9j/_txx49hn253_s3mnzkyxlj8m0000gp/T//ccxigpJH.s 			page 23


 987              	.LFE7:
 988              		.size	Can_Vcu_DashHeartbeat_Test, .-Can_Vcu_DashHeartbeat_Test
 989              		.section	.text.Can_Vcu_MCRequest_Test,"ax",%progbits
 990              		.align	2
 991              		.global	Can_Vcu_MCRequest_Test
 992              		.code	16
 993              		.thumb_func
 994              		.type	Can_Vcu_MCRequest_Test, %function
 995              	Can_Vcu_MCRequest_Test:
 996              	.LFB8:
 194:../MY17/lib/MY17_Can_Library/MY17_Can_Library_Test.c **** 
 195:../MY17/lib/MY17_Can_Library/MY17_Can_Library_Test.c **** void Can_Vcu_MCRequest_Test(PRINT print) {
 997              		.loc 1 195 0
 998              		.cfi_startproc
 999              	.LVL66:
 1000 0000 10B5     		push	{r4, lr}	@
 1001              		.cfi_def_cfa_offset 8
 1002              		.cfi_offset 4, -8
 1003              		.cfi_offset 14, -4
 1004 0002 88B0     		sub	sp, sp, #32	@,,
 1005              		.cfi_def_cfa_offset 40
 196:../MY17/lib/MY17_Can_Library/MY17_Can_Library_Test.c ****   Can_Vcu_MCRequest_T begin;
 197:../MY17/lib/MY17_Can_Library/MY17_Can_Library_Test.c ****   begin.requestType = CAN_MC_REG_MSG_REQUEST;
 1006              		.loc 1 197 0
 1007 0004 6A46     		mov	r2, sp	@ tmp138,
 1008 0006 3D23     		mov	r3, #61	@ tmp117,
 198:../MY17/lib/MY17_Can_Library/MY17_Can_Library_Test.c ****   begin.period = 100;
 199:../MY17/lib/MY17_Can_Library/MY17_Can_Library_Test.c **** 
 200:../MY17/lib/MY17_Can_Library/MY17_Can_Library_Test.c ****   BOILERPLATE(Can_Vcu_MCRequest);
 1009              		.loc 1 200 0
 1010 0008 05A9     		add	r1, sp, #20	@ tmp140,,
 197:../MY17/lib/MY17_Can_Library/MY17_Can_Library_Test.c ****   begin.period = 100;
 1011              		.loc 1 197 0
 1012 000a 1370     		strb	r3, [r2]	@ tmp117, begin.requestType
 195:../MY17/lib/MY17_Can_Library/MY17_Can_Library_Test.c ****   Can_Vcu_MCRequest_T begin;
 1013              		.loc 1 195 0
 1014 000c 041C     		mov	r4, r0	@ print, print
 198:../MY17/lib/MY17_Can_Library/MY17_Can_Library_Test.c ****   begin.period = 100;
 1015              		.loc 1 198 0
 1016 000e 2733     		add	r3, r3, #39	@ tmp120,
 1017              		.loc 1 200 0
 1018 0010 6846     		mov	r0, sp	@,
 1019              	.LVL67:
 198:../MY17/lib/MY17_Can_Library/MY17_Can_Library_Test.c ****   begin.period = 100;
 1020              		.loc 1 198 0
 1021 0012 5370     		strb	r3, [r2, #1]	@ tmp120, begin.period
 1022              		.loc 1 200 0
 1023 0014 FFF7FEFF 		bl	Can_Vcu_MCRequest_ToCan	@
 1024              	.LVL68:
 1025 0018 1720     		mov	r0, #23	@ tmp141,
 1026 001a 0022     		mov	r2, #0	@ tmp124,
 1027 001c 0023     		mov	r3, #0	@,
 1028 001e 6844     		add	r0, r0, sp	@ tmp141,
 1029 0020 02A9     		add	r1, sp, #8	@,,
 1030 0022 0292     		str	r2, [sp, #8]	@ tmp124, end_bitstring
 1031 0024 0393     		str	r3, [sp, #12]	@ tmp124,
 1032 0026 FFF7FEFF 		bl	to_bitstring	@
ARM GAS  /var/folders/9j/_txx49hn253_s3mnzkyxlj8m0000gp/T//ccxigpJH.s 			page 24


 1033              	.LVL69:
 1034 002a 05A8     		add	r0, sp, #20	@ tmp142,,
 1035 002c 01A9     		add	r1, sp, #4	@ tmp143,,
 1036 002e FFF7FEFF 		bl	Can_Vcu_MCRequest_FromCan	@
 1037              	.LVL70:
 201:../MY17/lib/MY17_Can_Library/MY17_Can_Library_Test.c **** 
 202:../MY17/lib/MY17_Can_Library/MY17_Can_Library_Test.c ****   bool equal = (
 203:../MY17/lib/MY17_Can_Library/MY17_Can_Library_Test.c ****       begin.requestType == end.requestType &&
 1038              		.loc 1 203 0
 1039 0032 6B46     		mov	r3, sp	@ tmp144,
 1040 0034 1A78     		ldrb	r2, [r3]	@ begin, begin
 1041 0036 1B79     		ldrb	r3, [r3, #4]	@ end, end
 1042 0038 9A42     		cmp	r2, r3	@ begin, end
 1043 003a 03D0     		beq	.L82	@,
 1044              	.L81:
 204:../MY17/lib/MY17_Can_Library/MY17_Can_Library_Test.c ****       begin.period == end.period);
 205:../MY17/lib/MY17_Can_Library/MY17_Can_Library_Test.c ****   print(equal ? "Vcu_MCRequest_PASS\r\n" : "Vcu_MCRequest_FAIL!!!!!!!!!!!!!!!!\r\n");
 1045              		.loc 1 205 0
 1046 003c 0548     		ldr	r0, .L83	@ D.5432,
 1047              	.L79:
 1048              		.loc 1 205 0 is_stmt 0 discriminator 4
 1049 003e A047     		blx	r4	@ print
 1050              	.LVL71:
 206:../MY17/lib/MY17_Can_Library/MY17_Can_Library_Test.c **** }
 1051              		.loc 1 206 0 is_stmt 1 discriminator 4
 1052 0040 08B0     		add	sp, sp, #32	@,,
 1053              		@ sp needed	@
 1054              	.LVL72:
 1055 0042 10BD     		pop	{r4, pc}
 1056              	.LVL73:
 1057              	.L82:
 203:../MY17/lib/MY17_Can_Library/MY17_Can_Library_Test.c ****       begin.period == end.period);
 1058              		.loc 1 203 0 discriminator 1
 1059 0044 6B46     		mov	r3, sp	@ tmp146,
 1060 0046 5A78     		ldrb	r2, [r3, #1]	@ tmp136,
 1061 0048 5B79     		ldrb	r3, [r3, #5]	@ tmp137,
 1062 004a 9A42     		cmp	r2, r3	@ tmp136, tmp137
 1063 004c F6D1     		bne	.L81	@,
 205:../MY17/lib/MY17_Can_Library/MY17_Can_Library_Test.c **** }
 1064              		.loc 1 205 0
 1065 004e 0248     		ldr	r0, .L83+4	@ D.5432,
 1066 0050 F5E7     		b	.L79	@
 1067              	.L84:
 1068 0052 C046     		.align	2
 1069              	.L83:
 1070 0054 28020000 		.word	.LC32
 1071 0058 50020000 		.word	.LC34
 1072              		.cfi_endproc
 1073              	.LFE8:
 1074              		.size	Can_Vcu_MCRequest_Test, .-Can_Vcu_MCRequest_Test
 1075              		.section	.text.Can_Vcu_MCTorque_Test,"ax",%progbits
 1076              		.align	2
 1077              		.global	Can_Vcu_MCTorque_Test
 1078              		.code	16
 1079              		.thumb_func
 1080              		.type	Can_Vcu_MCTorque_Test, %function
 1081              	Can_Vcu_MCTorque_Test:
ARM GAS  /var/folders/9j/_txx49hn253_s3mnzkyxlj8m0000gp/T//ccxigpJH.s 			page 25


 1082              	.LFB9:
 207:../MY17/lib/MY17_Can_Library/MY17_Can_Library_Test.c **** 
 208:../MY17/lib/MY17_Can_Library/MY17_Can_Library_Test.c **** void Can_Vcu_MCTorque_Test(PRINT print) {
 1083              		.loc 1 208 0
 1084              		.cfi_startproc
 1085              	.LVL74:
 1086 0000 30B5     		push	{r4, r5, lr}	@
 1087              		.cfi_def_cfa_offset 12
 1088              		.cfi_offset 4, -12
 1089              		.cfi_offset 5, -8
 1090              		.cfi_offset 14, -4
 1091 0002 89B0     		sub	sp, sp, #36	@,,
 1092              		.cfi_def_cfa_offset 48
 209:../MY17/lib/MY17_Can_Library/MY17_Can_Library_Test.c ****   Can_Vcu_MCTorque_T begin;
 210:../MY17/lib/MY17_Can_Library/MY17_Can_Library_Test.c ****   begin.torque_cmd = 5000;
 1093              		.loc 1 210 0
 1094 0004 6A46     		mov	r2, sp	@ tmp131,
 1095 0006 114B     		ldr	r3, .L88	@ tmp115,
 211:../MY17/lib/MY17_Can_Library/MY17_Can_Library_Test.c **** 
 212:../MY17/lib/MY17_Can_Library/MY17_Can_Library_Test.c ****   BOILERPLATE(Can_Vcu_MCTorque);
 1096              		.loc 1 212 0
 1097 0008 05A9     		add	r1, sp, #20	@ tmp132,,
 208:../MY17/lib/MY17_Can_Library/MY17_Can_Library_Test.c ****   Can_Vcu_MCTorque_T begin;
 1098              		.loc 1 208 0
 1099 000a 051C     		mov	r5, r0	@ print, print
 1100              		.loc 1 212 0
 1101 000c 6846     		mov	r0, sp	@,
 1102              	.LVL75:
 210:../MY17/lib/MY17_Can_Library/MY17_Can_Library_Test.c **** 
 1103              		.loc 1 210 0
 1104 000e 1380     		strh	r3, [r2]	@ tmp115, begin.torque_cmd
 1105              		.loc 1 212 0
 1106 0010 FFF7FEFF 		bl	Can_Vcu_MCTorque_ToCan	@
 1107              	.LVL76:
 1108 0014 1720     		mov	r0, #23	@ tmp133,
 1109 0016 0022     		mov	r2, #0	@ tmp119,
 1110 0018 0023     		mov	r3, #0	@,
 1111 001a 6844     		add	r0, r0, sp	@ tmp133,
 1112 001c 02A9     		add	r1, sp, #8	@,,
 1113 001e 01AC     		add	r4, sp, #4	@ tmp124,,
 1114 0020 0292     		str	r2, [sp, #8]	@ tmp119, end_bitstring
 1115 0022 0393     		str	r3, [sp, #12]	@ tmp119,
 1116 0024 FFF7FEFF 		bl	to_bitstring	@
 1117              	.LVL77:
 1118 0028 211C     		mov	r1, r4	@, tmp124
 1119 002a 05A8     		add	r0, sp, #20	@ tmp134,,
 1120 002c FFF7FEFF 		bl	Can_Vcu_MCTorque_FromCan	@
 1121              	.LVL78:
 213:../MY17/lib/MY17_Can_Library/MY17_Can_Library_Test.c **** 
 214:../MY17/lib/MY17_Can_Library/MY17_Can_Library_Test.c ****   bool equal = begin.torque_cmd == end.torque_cmd;
 215:../MY17/lib/MY17_Can_Library/MY17_Can_Library_Test.c ****   print(equal ? "Vcu_MCTorque_PASS\r\n" : "Vcu_MCTorque_FAIL!!!!!!!!!!!!!!!!\r\n");
 1122              		.loc 1 215 0
 1123 0030 6B46     		mov	r3, sp	@ tmp135,
 1124 0032 0022     		mov	r2, #0	@ begin,
 1125 0034 9A5E     		ldrsh	r2, [r3, r2]	@ begin, tmp135, begin
 1126 0036 0021     		mov	r1, #0	@ tmp130,
 1127 0038 635E     		ldrsh	r3, [r4, r1]	@ end, tmp124, tmp130
ARM GAS  /var/folders/9j/_txx49hn253_s3mnzkyxlj8m0000gp/T//ccxigpJH.s 			page 26


 1128 003a 9A42     		cmp	r2, r3	@ begin, end
 1129 003c 03D0     		beq	.L87	@,
 1130 003e 0448     		ldr	r0, .L88+4	@ D.5439,
 1131              	.L86:
 1132              		.loc 1 215 0 is_stmt 0 discriminator 4
 1133 0040 A847     		blx	r5	@ print
 1134              	.LVL79:
 216:../MY17/lib/MY17_Can_Library/MY17_Can_Library_Test.c **** }
 1135              		.loc 1 216 0 is_stmt 1 discriminator 4
 1136 0042 09B0     		add	sp, sp, #36	@,,
 1137              		@ sp needed	@
 1138              	.LVL80:
 1139 0044 30BD     		pop	{r4, r5, pc}
 1140              	.LVL81:
 1141              	.L87:
 215:../MY17/lib/MY17_Can_Library/MY17_Can_Library_Test.c **** }
 1142              		.loc 1 215 0
 1143 0046 0348     		ldr	r0, .L88+8	@ D.5439,
 1144 0048 FAE7     		b	.L86	@
 1145              	.L89:
 1146 004a C046     		.align	2
 1147              	.L88:
 1148 004c 88130000 		.word	5000
 1149 0050 7C020000 		.word	.LC38
 1150 0054 68020000 		.word	.LC36
 1151              		.cfi_endproc
 1152              	.LFE9:
 1153              		.size	Can_Vcu_MCTorque_Test, .-Can_Vcu_MCTorque_Test
 1154              		.section	.text.Can_Bms_Heartbeat_Test,"ax",%progbits
 1155              		.align	2
 1156              		.global	Can_Bms_Heartbeat_Test
 1157              		.code	16
 1158              		.thumb_func
 1159              		.type	Can_Bms_Heartbeat_Test, %function
 1160              	Can_Bms_Heartbeat_Test:
 1161              	.LFB10:
 217:../MY17/lib/MY17_Can_Library/MY17_Can_Library_Test.c **** 
 218:../MY17/lib/MY17_Can_Library/MY17_Can_Library_Test.c **** void Can_Bms_Heartbeat_Test(PRINT print) {
 1162              		.loc 1 218 0
 1163              		.cfi_startproc
 1164              	.LVL82:
 219:../MY17/lib/MY17_Can_Library/MY17_Can_Library_Test.c ****   Can_Bms_Heartbeat_T begin;
 220:../MY17/lib/MY17_Can_Library/MY17_Can_Library_Test.c ****   begin.state = CAN_BMS_STATE_BATTERY_FAULT;
 1165              		.loc 1 220 0
 1166 0000 0523     		mov	r3, #5	@ tmp121,
 221:../MY17/lib/MY17_Can_Library/MY17_Can_Library_Test.c ****   begin.soc = 90;
 222:../MY17/lib/MY17_Can_Library/MY17_Can_Library_Test.c ****   begin.fan_enable = true;
 223:../MY17/lib/MY17_Can_Library/MY17_Can_Library_Test.c ****   begin.dcdc_enable = false;
 1167              		.loc 1 223 0
 1168 0002 0022     		mov	r2, #0	@ tmp130,
 218:../MY17/lib/MY17_Can_Library/MY17_Can_Library_Test.c ****   Can_Bms_Heartbeat_T begin;
 1169              		.loc 1 218 0
 1170 0004 30B5     		push	{r4, r5, lr}	@
 1171              		.cfi_def_cfa_offset 12
 1172              		.cfi_offset 4, -12
 1173              		.cfi_offset 5, -8
 1174              		.cfi_offset 14, -4
ARM GAS  /var/folders/9j/_txx49hn253_s3mnzkyxlj8m0000gp/T//ccxigpJH.s 			page 27


 1175 0006 8BB0     		sub	sp, sp, #44	@,,
 1176              		.cfi_def_cfa_offset 56
 220:../MY17/lib/MY17_Can_Library/MY17_Can_Library_Test.c ****   begin.soc = 90;
 1177              		.loc 1 220 0
 1178 0008 03AC     		add	r4, sp, #12	@ tmp120,,
 1179 000a 2370     		strb	r3, [r4]	@ tmp121, begin.state
 221:../MY17/lib/MY17_Can_Library/MY17_Can_Library_Test.c ****   begin.soc = 90;
 1180              		.loc 1 221 0
 1181 000c 5533     		add	r3, r3, #85	@ tmp124,
 1182 000e 6380     		strh	r3, [r4, #2]	@ tmp124, begin.soc
 224:../MY17/lib/MY17_Can_Library/MY17_Can_Library_Test.c ****   begin.dcdc_fault = true;
 225:../MY17/lib/MY17_Can_Library/MY17_Can_Library_Test.c **** 
 226:../MY17/lib/MY17_Can_Library/MY17_Can_Library_Test.c ****   BOILERPLATE(Can_Bms_Heartbeat);
 1183              		.loc 1 226 0
 1184 0010 07A9     		add	r1, sp, #28	@ tmp159,,
 222:../MY17/lib/MY17_Can_Library/MY17_Can_Library_Test.c ****   begin.dcdc_enable = false;
 1185              		.loc 1 222 0
 1186 0012 593B     		sub	r3, r3, #89	@ tmp127,
 218:../MY17/lib/MY17_Can_Library/MY17_Can_Library_Test.c ****   Can_Bms_Heartbeat_T begin;
 1187              		.loc 1 218 0
 1188 0014 051C     		mov	r5, r0	@ print, print
 1189              		.loc 1 226 0
 1190 0016 201C     		mov	r0, r4	@, tmp120
 1191              	.LVL83:
 222:../MY17/lib/MY17_Can_Library/MY17_Can_Library_Test.c ****   begin.dcdc_enable = false;
 1192              		.loc 1 222 0
 1193 0018 2371     		strb	r3, [r4, #4]	@ tmp127, begin.fan_enable
 223:../MY17/lib/MY17_Can_Library/MY17_Can_Library_Test.c ****   begin.dcdc_fault = true;
 1194              		.loc 1 223 0
 1195 001a 6271     		strb	r2, [r4, #5]	@ tmp130, begin.dcdc_enable
 224:../MY17/lib/MY17_Can_Library/MY17_Can_Library_Test.c **** 
 1196              		.loc 1 224 0
 1197 001c A371     		strb	r3, [r4, #6]	@ tmp127, begin.dcdc_fault
 1198              		.loc 1 226 0
 1199 001e FFF7FEFF 		bl	Can_Bms_Heartbeat_ToCan	@
 1200              	.LVL84:
 1201 0022 1F20     		mov	r0, #31	@ tmp160,
 1202 0024 0022     		mov	r2, #0	@ tmp137,
 1203 0026 0023     		mov	r3, #0	@,
 1204 0028 6844     		add	r0, r0, sp	@ tmp160,
 1205 002a 6946     		mov	r1, sp	@,
 1206 002c 0092     		str	r2, [sp]	@ tmp137, end_bitstring
 1207 002e 0193     		str	r3, [sp, #4]	@ tmp137,
 1208 0030 FFF7FEFF 		bl	to_bitstring	@
 1209              	.LVL85:
 1210 0034 07A8     		add	r0, sp, #28	@ tmp161,,
 1211 0036 05A9     		add	r1, sp, #20	@ tmp162,,
 1212 0038 FFF7FEFF 		bl	Can_Bms_Heartbeat_FromCan	@
 1213              	.LVL86:
 227:../MY17/lib/MY17_Can_Library/MY17_Can_Library_Test.c **** 
 228:../MY17/lib/MY17_Can_Library/MY17_Can_Library_Test.c ****   bool equal = (
 229:../MY17/lib/MY17_Can_Library/MY17_Can_Library_Test.c ****       begin.state == end.state &&
 230:../MY17/lib/MY17_Can_Library/MY17_Can_Library_Test.c ****       begin.soc == end.soc &&
 231:../MY17/lib/MY17_Can_Library/MY17_Can_Library_Test.c ****       begin.fan_enable == end.fan_enable &&
 232:../MY17/lib/MY17_Can_Library/MY17_Can_Library_Test.c ****       begin.dcdc_enable == end.dcdc_enable &&
 1214              		.loc 1 232 0
 1215 003c 6B46     		mov	r3, sp	@ tmp163,
ARM GAS  /var/folders/9j/_txx49hn253_s3mnzkyxlj8m0000gp/T//ccxigpJH.s 			page 28


 1216 003e 2278     		ldrb	r2, [r4]	@ begin, begin
 1217 0040 1B7D     		ldrb	r3, [r3, #20]	@ end, end
 1218 0042 9A42     		cmp	r2, r3	@ begin, end
 1219 0044 03D0     		beq	.L96	@,
 1220              	.L95:
 233:../MY17/lib/MY17_Can_Library/MY17_Can_Library_Test.c ****       begin.dcdc_fault == end.dcdc_fault);
 234:../MY17/lib/MY17_Can_Library/MY17_Can_Library_Test.c ****   print(equal ? "Bms_Heartbeat_PASS\r\n" : "Bms_Heartbeat_FAIL!!!!!!!!!!!!!!!!\r\n");
 1221              		.loc 1 234 0
 1222 0046 0A48     		ldr	r0, .L97	@ D.5445,
 1223              	.L91:
 1224              		.loc 1 234 0 is_stmt 0 discriminator 4
 1225 0048 A847     		blx	r5	@ print
 1226              	.LVL87:
 235:../MY17/lib/MY17_Can_Library/MY17_Can_Library_Test.c **** }
 1227              		.loc 1 235 0 is_stmt 1 discriminator 4
 1228 004a 0BB0     		add	sp, sp, #44	@,,
 1229              		@ sp needed	@
 1230              	.LVL88:
 1231 004c 30BD     		pop	{r4, r5, pc}
 1232              	.LVL89:
 1233              	.L96:
 229:../MY17/lib/MY17_Can_Library/MY17_Can_Library_Test.c ****       begin.soc == end.soc &&
 1234              		.loc 1 229 0
 1235 004e 6B46     		mov	r3, sp	@ tmp164,
 1236 0050 6288     		ldrh	r2, [r4, #2]	@ tmp149,
 1237 0052 DB8A     		ldrh	r3, [r3, #22]	@ tmp150,
 1238 0054 9A42     		cmp	r2, r3	@ tmp149, tmp150
 1239 0056 F6D1     		bne	.L95	@,
 231:../MY17/lib/MY17_Can_Library/MY17_Can_Library_Test.c ****       begin.dcdc_enable == end.dcdc_enable &&
 1240              		.loc 1 231 0
 1241 0058 6B46     		mov	r3, sp	@ tmp165,
 1242 005a A288     		ldrh	r2, [r4, #4]	@ begin, begin
 1243 005c 1B8B     		ldrh	r3, [r3, #24]	@ end, end
 1244 005e 9A42     		cmp	r2, r3	@ begin, end
 1245 0060 F1D1     		bne	.L95	@,
 232:../MY17/lib/MY17_Can_Library/MY17_Can_Library_Test.c ****       begin.dcdc_fault == end.dcdc_fault);
 1246              		.loc 1 232 0 discriminator 3
 1247 0062 6B46     		mov	r3, sp	@ tmp166,
 1248 0064 A279     		ldrb	r2, [r4, #6]	@ tmp157,
 1249 0066 9B7E     		ldrb	r3, [r3, #26]	@ tmp158,
 1250 0068 9A42     		cmp	r2, r3	@ tmp157, tmp158
 1251 006a ECD1     		bne	.L95	@,
 234:../MY17/lib/MY17_Can_Library/MY17_Can_Library_Test.c **** }
 1252              		.loc 1 234 0
 1253 006c 0148     		ldr	r0, .L97+4	@ D.5445,
 1254 006e EBE7     		b	.L91	@
 1255              	.L98:
 1256              		.align	2
 1257              	.L97:
 1258 0070 B8020000 		.word	.LC42
 1259 0074 A0020000 		.word	.LC40
 1260              		.cfi_endproc
 1261              	.LFE10:
 1262              		.size	Can_Bms_Heartbeat_Test, .-Can_Bms_Heartbeat_Test
 1263              		.section	.text.Can_Bms_CellTemps_Test,"ax",%progbits
 1264              		.align	2
 1265              		.global	Can_Bms_CellTemps_Test
ARM GAS  /var/folders/9j/_txx49hn253_s3mnzkyxlj8m0000gp/T//ccxigpJH.s 			page 29


 1266              		.code	16
 1267              		.thumb_func
 1268              		.type	Can_Bms_CellTemps_Test, %function
 1269              	Can_Bms_CellTemps_Test:
 1270              	.LFB11:
 236:../MY17/lib/MY17_Can_Library/MY17_Can_Library_Test.c **** 
 237:../MY17/lib/MY17_Can_Library/MY17_Can_Library_Test.c **** void Can_Bms_CellTemps_Test(PRINT print) {
 1271              		.loc 1 237 0
 1272              		.cfi_startproc
 1273              	.LVL90:
 1274 0000 30B5     		push	{r4, r5, lr}	@
 1275              		.cfi_def_cfa_offset 12
 1276              		.cfi_offset 4, -12
 1277              		.cfi_offset 5, -8
 1278              		.cfi_offset 14, -4
 238:../MY17/lib/MY17_Can_Library/MY17_Can_Library_Test.c ****   Can_Bms_CellTemps_T begin;
 239:../MY17/lib/MY17_Can_Library/MY17_Can_Library_Test.c ****   begin.avg_cell_temp = -7520;
 1279              		.loc 1 239 0
 1280 0002 224B     		ldr	r3, .L107	@ tmp123,
 237:../MY17/lib/MY17_Can_Library/MY17_Can_Library_Test.c ****   Can_Bms_CellTemps_T begin;
 1281              		.loc 1 237 0
 1282 0004 8DB0     		sub	sp, sp, #52	@,,
 1283              		.cfi_def_cfa_offset 64
 1284              		.loc 1 239 0
 1285 0006 03AC     		add	r4, sp, #12	@ tmp122,,
 1286 0008 2380     		strh	r3, [r4]	@ tmp123, begin.avg_cell_temp
 240:../MY17/lib/MY17_Can_Library/MY17_Can_Library_Test.c ****   begin.min_cell_temp = 7000;
 1287              		.loc 1 240 0
 1288 000a 214B     		ldr	r3, .L107+4	@ tmp126,
 241:../MY17/lib/MY17_Can_Library/MY17_Can_Library_Test.c ****   begin.id_min_cell_temp = 300;
 242:../MY17/lib/MY17_Can_Library/MY17_Can_Library_Test.c ****   begin.max_cell_temp = -200;
 243:../MY17/lib/MY17_Can_Library/MY17_Can_Library_Test.c ****   begin.id_max_cell_temp = 10;
 244:../MY17/lib/MY17_Can_Library/MY17_Can_Library_Test.c **** 
 245:../MY17/lib/MY17_Can_Library/MY17_Can_Library_Test.c ****   BOILERPLATE(Can_Bms_CellTemps);
 1289              		.loc 1 245 0
 1290 000c 09A9     		add	r1, sp, #36	@ tmp173,,
 240:../MY17/lib/MY17_Can_Library/MY17_Can_Library_Test.c ****   begin.min_cell_temp = 7000;
 1291              		.loc 1 240 0
 1292 000e 6380     		strh	r3, [r4, #2]	@ tmp126, begin.min_cell_temp
 241:../MY17/lib/MY17_Can_Library/MY17_Can_Library_Test.c ****   begin.id_min_cell_temp = 300;
 1293              		.loc 1 241 0
 1294 0010 9623     		mov	r3, #150	@ tmp129,
 1295 0012 5B00     		lsl	r3, r3, #1	@ tmp129, tmp129,
 1296 0014 E380     		strh	r3, [r4, #6]	@ tmp129, begin.id_min_cell_temp
 242:../MY17/lib/MY17_Can_Library/MY17_Can_Library_Test.c ****   begin.id_max_cell_temp = 10;
 1297              		.loc 1 242 0
 1298 0016 F53B     		sub	r3, r3, #245	@ tmp132,
 1299 0018 FF3B     		sub	r3, r3, #255	@ tmp132,
 1300 001a A380     		strh	r3, [r4, #4]	@ tmp132, begin.max_cell_temp
 237:../MY17/lib/MY17_Can_Library/MY17_Can_Library_Test.c ****   Can_Bms_CellTemps_T begin;
 1301              		.loc 1 237 0
 1302 001c 051C     		mov	r5, r0	@ print, print
 243:../MY17/lib/MY17_Can_Library/MY17_Can_Library_Test.c **** 
 1303              		.loc 1 243 0
 1304 001e D233     		add	r3, r3, #210	@ tmp135,
 1305              		.loc 1 245 0
 1306 0020 201C     		mov	r0, r4	@, tmp122
ARM GAS  /var/folders/9j/_txx49hn253_s3mnzkyxlj8m0000gp/T//ccxigpJH.s 			page 30


 1307              	.LVL91:
 243:../MY17/lib/MY17_Can_Library/MY17_Can_Library_Test.c **** 
 1308              		.loc 1 243 0
 1309 0022 2381     		strh	r3, [r4, #8]	@ tmp135, begin.id_max_cell_temp
 1310              		.loc 1 245 0
 1311 0024 FFF7FEFF 		bl	Can_Bms_CellTemps_ToCan	@
 1312              	.LVL92:
 1313 0028 2720     		mov	r0, #39	@ tmp174,
 1314 002a 0023     		mov	r3, #0	@,
 1315 002c 0022     		mov	r2, #0	@ tmp139,
 1316 002e 6844     		add	r0, r0, sp	@ tmp174,
 1317 0030 6946     		mov	r1, sp	@,
 1318 0032 0092     		str	r2, [sp]	@ tmp139, end_bitstring
 1319 0034 0193     		str	r3, [sp, #4]	@ tmp139,
 1320 0036 FFF7FEFF 		bl	to_bitstring	@
 1321              	.LVL93:
 1322 003a 06A9     		add	r1, sp, #24	@ tmp176,,
 1323 003c 09A8     		add	r0, sp, #36	@ tmp175,,
 1324 003e FFF7FEFF 		bl	Can_Bms_CellTemps_FromCan	@
 1325              	.LVL94:
 246:../MY17/lib/MY17_Can_Library/MY17_Can_Library_Test.c **** 
 247:../MY17/lib/MY17_Can_Library/MY17_Can_Library_Test.c ****   bool equal = (
 248:../MY17/lib/MY17_Can_Library/MY17_Can_Library_Test.c ****       begin.avg_cell_temp == end.avg_cell_temp &&
 249:../MY17/lib/MY17_Can_Library/MY17_Can_Library_Test.c ****       begin.min_cell_temp == end.min_cell_temp &&
 250:../MY17/lib/MY17_Can_Library/MY17_Can_Library_Test.c ****       begin.id_min_cell_temp == end.id_min_cell_temp &&
 251:../MY17/lib/MY17_Can_Library/MY17_Can_Library_Test.c ****       begin.max_cell_temp == end.max_cell_temp &&
 1326              		.loc 1 251 0
 1327 0042 0023     		mov	r3, #0	@ tmp167,
 1328 0044 E25E     		ldrsh	r2, [r4, r3]	@ begin, tmp122, tmp167
 1329 0046 6B46     		mov	r3, sp	@ tmp177,
 1330 0048 1821     		mov	r1, #24	@ tmp168,
 1331 004a 5B5E     		ldrsh	r3, [r3, r1]	@ end, tmp177, tmp168
 1332 004c 9A42     		cmp	r2, r3	@ begin, end
 1333 004e 03D0     		beq	.L106	@,
 1334              	.L105:
 252:../MY17/lib/MY17_Can_Library/MY17_Can_Library_Test.c ****       begin.id_max_cell_temp == end.id_max_cell_temp);
 253:../MY17/lib/MY17_Can_Library/MY17_Can_Library_Test.c ****   print(equal ? "Bms_CellTemps_PASS\r\n" : "Bms_CellTemps_FAIL!!!!!!!!!!!!!!!!\r\n");
 1335              		.loc 1 253 0
 1336 0050 1048     		ldr	r0, .L107+8	@ D.5453,
 1337              	.L100:
 1338              		.loc 1 253 0 is_stmt 0 discriminator 4
 1339 0052 A847     		blx	r5	@ print
 1340              	.LVL95:
 254:../MY17/lib/MY17_Can_Library/MY17_Can_Library_Test.c **** }
 1341              		.loc 1 254 0 is_stmt 1 discriminator 4
 1342 0054 0DB0     		add	sp, sp, #52	@,,
 1343              		@ sp needed	@
 1344              	.LVL96:
 1345 0056 30BD     		pop	{r4, r5, pc}
 1346              	.LVL97:
 1347              	.L106:
 248:../MY17/lib/MY17_Can_Library/MY17_Can_Library_Test.c ****       begin.min_cell_temp == end.min_cell_temp &&
 1348              		.loc 1 248 0
 1349 0058 0223     		mov	r3, #2	@ tmp169,
 1350 005a E25E     		ldrsh	r2, [r4, r3]	@ tmp151, tmp122, tmp169
 1351 005c 6B46     		mov	r3, sp	@ tmp178,
 1352 005e 1A21     		mov	r1, #26	@ tmp170,
ARM GAS  /var/folders/9j/_txx49hn253_s3mnzkyxlj8m0000gp/T//ccxigpJH.s 			page 31


 1353 0060 5B5E     		ldrsh	r3, [r3, r1]	@ tmp152, tmp178, tmp170
 1354 0062 9A42     		cmp	r2, r3	@ tmp151, tmp152
 1355 0064 F4D1     		bne	.L105	@,
 249:../MY17/lib/MY17_Can_Library/MY17_Can_Library_Test.c ****       begin.id_min_cell_temp == end.id_min_cell_temp &&
 1356              		.loc 1 249 0
 1357 0066 6B46     		mov	r3, sp	@ tmp179,
 1358 0068 E288     		ldrh	r2, [r4, #6]	@ tmp155,
 1359 006a DB8B     		ldrh	r3, [r3, #30]	@ tmp156,
 1360 006c 9A42     		cmp	r2, r3	@ tmp155, tmp156
 1361 006e EFD1     		bne	.L105	@,
 250:../MY17/lib/MY17_Can_Library/MY17_Can_Library_Test.c ****       begin.max_cell_temp == end.max_cell_temp &&
 1362              		.loc 1 250 0
 1363 0070 0423     		mov	r3, #4	@ tmp171,
 1364 0072 E25E     		ldrsh	r2, [r4, r3]	@ tmp159, tmp122, tmp171
 1365 0074 6B46     		mov	r3, sp	@ tmp180,
 1366 0076 1C21     		mov	r1, #28	@ tmp172,
 1367 0078 5B5E     		ldrsh	r3, [r3, r1]	@ tmp160, tmp180, tmp172
 1368 007a 9A42     		cmp	r2, r3	@ tmp159, tmp160
 1369 007c E8D1     		bne	.L105	@,
 251:../MY17/lib/MY17_Can_Library/MY17_Can_Library_Test.c ****       begin.id_max_cell_temp == end.id_max_cell_temp);
 1370              		.loc 1 251 0 discriminator 3
 1371 007e 6B46     		mov	r3, sp	@ tmp181,
 1372 0080 2289     		ldrh	r2, [r4, #8]	@ tmp163,
 1373 0082 1B8C     		ldrh	r3, [r3, #32]	@ tmp164,
 1374 0084 9A42     		cmp	r2, r3	@ tmp163, tmp164
 1375 0086 E3D1     		bne	.L105	@,
 253:../MY17/lib/MY17_Can_Library/MY17_Can_Library_Test.c **** }
 1376              		.loc 1 253 0
 1377 0088 0348     		ldr	r0, .L107+12	@ D.5453,
 1378 008a E2E7     		b	.L100	@
 1379              	.L108:
 1380              		.align	2
 1381              	.L107:
 1382 008c A0E2FFFF 		.word	-7520
 1383 0090 581B0000 		.word	7000
 1384 0094 E0020000 		.word	.LC44
 1385 0098 08030000 		.word	.LC46
 1386              		.cfi_endproc
 1387              	.LFE11:
 1388              		.size	Can_Bms_CellTemps_Test, .-Can_Bms_CellTemps_Test
 1389              		.section	.text.Can_Bms_PackStatus_Test,"ax",%progbits
 1390              		.align	2
 1391              		.global	Can_Bms_PackStatus_Test
 1392              		.code	16
 1393              		.thumb_func
 1394              		.type	Can_Bms_PackStatus_Test, %function
 1395              	Can_Bms_PackStatus_Test:
 1396              	.LFB12:
 255:../MY17/lib/MY17_Can_Library/MY17_Can_Library_Test.c **** 
 256:../MY17/lib/MY17_Can_Library/MY17_Can_Library_Test.c **** void Can_Bms_PackStatus_Test(PRINT print) {
 1397              		.loc 1 256 0
 1398              		.cfi_startproc
 1399              	.LVL98:
 257:../MY17/lib/MY17_Can_Library/MY17_Can_Library_Test.c ****   Can_Bms_PackStatus_T begin;
 258:../MY17/lib/MY17_Can_Library/MY17_Can_Library_Test.c ****   begin.pack_voltage = 260;
 1400              		.loc 1 258 0
 1401 0000 8223     		mov	r3, #130	@ tmp127,
ARM GAS  /var/folders/9j/_txx49hn253_s3mnzkyxlj8m0000gp/T//ccxigpJH.s 			page 32


 256:../MY17/lib/MY17_Can_Library/MY17_Can_Library_Test.c ****   Can_Bms_PackStatus_T begin;
 1402              		.loc 1 256 0
 1403 0002 30B5     		push	{r4, r5, lr}	@
 1404              		.cfi_def_cfa_offset 12
 1405              		.cfi_offset 4, -12
 1406              		.cfi_offset 5, -8
 1407              		.cfi_offset 14, -4
 1408 0004 8FB0     		sub	sp, sp, #60	@,,
 1409              		.cfi_def_cfa_offset 72
 1410              		.loc 1 258 0
 1411 0006 06AC     		add	r4, sp, #24	@ tmp126,,
 1412 0008 5B00     		lsl	r3, r3, #1	@ tmp127, tmp127,
 1413 000a 2380     		strh	r3, [r4]	@ tmp127, begin.pack_voltage
 259:../MY17/lib/MY17_Can_Library/MY17_Can_Library_Test.c ****   begin.pack_current = -600;
 1414              		.loc 1 259 0
 1415 000c 284B     		ldr	r3, .L119	@ tmp130,
 260:../MY17/lib/MY17_Can_Library/MY17_Can_Library_Test.c ****   begin.avg_cell_voltage = 330;
 261:../MY17/lib/MY17_Can_Library/MY17_Can_Library_Test.c ****   begin.min_cell_voltage = 150;
 262:../MY17/lib/MY17_Can_Library/MY17_Can_Library_Test.c ****   begin.id_min_cell_voltage = 20;
 263:../MY17/lib/MY17_Can_Library/MY17_Can_Library_Test.c ****   begin.max_cell_voltage = 400;
 264:../MY17/lib/MY17_Can_Library/MY17_Can_Library_Test.c ****   begin.id_max_cell_voltage = 40;
 265:../MY17/lib/MY17_Can_Library/MY17_Can_Library_Test.c **** 
 266:../MY17/lib/MY17_Can_Library/MY17_Can_Library_Test.c ****   BOILERPLATE(Can_Bms_PackStatus);
 1416              		.loc 1 266 0
 1417 000e 03A9     		add	r1, sp, #12	@ tmp188,,
 259:../MY17/lib/MY17_Can_Library/MY17_Can_Library_Test.c ****   begin.pack_current = -600;
 1418              		.loc 1 259 0
 1419 0010 6380     		strh	r3, [r4, #2]	@ tmp130, begin.pack_current
 260:../MY17/lib/MY17_Can_Library/MY17_Can_Library_Test.c ****   begin.avg_cell_voltage = 330;
 1420              		.loc 1 260 0
 1421 0012 A523     		mov	r3, #165	@ tmp133,
 1422 0014 5B00     		lsl	r3, r3, #1	@ tmp133, tmp133,
 1423 0016 A380     		strh	r3, [r4, #4]	@ tmp133, begin.avg_cell_voltage
 261:../MY17/lib/MY17_Can_Library/MY17_Can_Library_Test.c ****   begin.id_min_cell_voltage = 20;
 1424              		.loc 1 261 0
 1425 0018 B43B     		sub	r3, r3, #180	@ tmp136,
 1426 001a E380     		strh	r3, [r4, #6]	@ tmp136, begin.min_cell_voltage
 262:../MY17/lib/MY17_Can_Library/MY17_Can_Library_Test.c ****   begin.max_cell_voltage = 400;
 1427              		.loc 1 262 0
 1428 001c 823B     		sub	r3, r3, #130	@ tmp139,
 1429 001e 2372     		strb	r3, [r4, #8]	@ tmp139, begin.id_min_cell_voltage
 263:../MY17/lib/MY17_Can_Library/MY17_Can_Library_Test.c ****   begin.id_max_cell_voltage = 40;
 1430              		.loc 1 263 0
 1431 0020 7D33     		add	r3, r3, #125	@ tmp142,
 1432 0022 FF33     		add	r3, r3, #255	@ tmp142,
 1433 0024 6381     		strh	r3, [r4, #10]	@ tmp142, begin.max_cell_voltage
 264:../MY17/lib/MY17_Can_Library/MY17_Can_Library_Test.c **** 
 1434              		.loc 1 264 0
 1435 0026 693B     		sub	r3, r3, #105	@ tmp145,
 1436 0028 FF3B     		sub	r3, r3, #255	@ tmp145,
 256:../MY17/lib/MY17_Can_Library/MY17_Can_Library_Test.c ****   Can_Bms_PackStatus_T begin;
 1437              		.loc 1 256 0
 1438 002a 051C     		mov	r5, r0	@ print, print
 1439              		.loc 1 266 0
 1440 002c 201C     		mov	r0, r4	@, tmp126
 1441              	.LVL99:
 264:../MY17/lib/MY17_Can_Library/MY17_Can_Library_Test.c **** 
ARM GAS  /var/folders/9j/_txx49hn253_s3mnzkyxlj8m0000gp/T//ccxigpJH.s 			page 33


 1442              		.loc 1 264 0
 1443 002e 2373     		strb	r3, [r4, #12]	@ tmp145, begin.id_max_cell_voltage
 1444              		.loc 1 266 0
 1445 0030 FFF7FEFF 		bl	Can_Bms_PackStatus_ToCan	@
 1446              	.LVL100:
 1447 0034 0F20     		mov	r0, #15	@ tmp189,
 1448 0036 0022     		mov	r2, #0	@ tmp149,
 1449 0038 0023     		mov	r3, #0	@,
 1450 003a 6844     		add	r0, r0, sp	@ tmp189,
 1451 003c 6946     		mov	r1, sp	@,
 1452 003e 0092     		str	r2, [sp]	@ tmp149, end_bitstring
 1453 0040 0193     		str	r3, [sp, #4]	@ tmp149,
 1454 0042 FFF7FEFF 		bl	to_bitstring	@
 1455              	.LVL101:
 1456 0046 03A8     		add	r0, sp, #12	@ tmp190,,
 1457 0048 0AA9     		add	r1, sp, #40	@ tmp191,,
 1458 004a FFF7FEFF 		bl	Can_Bms_PackStatus_FromCan	@
 1459              	.LVL102:
 267:../MY17/lib/MY17_Can_Library/MY17_Can_Library_Test.c **** 
 268:../MY17/lib/MY17_Can_Library/MY17_Can_Library_Test.c ****   bool equal = (
 269:../MY17/lib/MY17_Can_Library/MY17_Can_Library_Test.c ****       begin.pack_voltage == end.pack_voltage &&
 270:../MY17/lib/MY17_Can_Library/MY17_Can_Library_Test.c ****       begin.pack_current == end.pack_current &&
 271:../MY17/lib/MY17_Can_Library/MY17_Can_Library_Test.c ****       begin.avg_cell_voltage == end.avg_cell_voltage &&
 272:../MY17/lib/MY17_Can_Library/MY17_Can_Library_Test.c ****       begin.min_cell_voltage == end.min_cell_voltage &&
 273:../MY17/lib/MY17_Can_Library/MY17_Can_Library_Test.c ****       begin.id_min_cell_voltage == end.id_min_cell_voltage &&
 274:../MY17/lib/MY17_Can_Library/MY17_Can_Library_Test.c ****       begin.max_cell_voltage == end.max_cell_voltage &&
 1460              		.loc 1 274 0
 1461 004e 6B46     		mov	r3, sp	@ tmp192,
 1462 0050 2288     		ldrh	r2, [r4]	@ begin, begin
 1463 0052 1B8D     		ldrh	r3, [r3, #40]	@ end, end
 1464 0054 9A42     		cmp	r2, r3	@ begin, end
 1465 0056 03D0     		beq	.L118	@,
 1466              	.L116:
 275:../MY17/lib/MY17_Can_Library/MY17_Can_Library_Test.c ****       begin.id_max_cell_voltage == end.id_max_cell_voltage);
 276:../MY17/lib/MY17_Can_Library/MY17_Can_Library_Test.c ****   print(equal ? "Bms_PackStatus_PASS\r\n" : "Bms_PackStatus_FAIL!!!!!!!!!!!!!!!!\r\n");
 1467              		.loc 1 276 0
 1468 0058 1648     		ldr	r0, .L119+4	@ D.5460,
 1469              	.L110:
 1470              		.loc 1 276 0 is_stmt 0 discriminator 4
 1471 005a A847     		blx	r5	@ print
 1472              	.LVL103:
 277:../MY17/lib/MY17_Can_Library/MY17_Can_Library_Test.c **** }
 1473              		.loc 1 277 0 is_stmt 1 discriminator 4
 1474 005c 0FB0     		add	sp, sp, #60	@,,
 1475              		@ sp needed	@
 1476              	.LVL104:
 1477 005e 30BD     		pop	{r4, r5, pc}
 1478              	.LVL105:
 1479              	.L118:
 269:../MY17/lib/MY17_Can_Library/MY17_Can_Library_Test.c ****       begin.pack_current == end.pack_current &&
 1480              		.loc 1 269 0
 1481 0060 0223     		mov	r3, #2	@ tmp186,
 1482 0062 E25E     		ldrsh	r2, [r4, r3]	@ tmp161, tmp126, tmp186
 1483 0064 6B46     		mov	r3, sp	@ tmp193,
 1484 0066 2A21     		mov	r1, #42	@ tmp187,
 1485 0068 5B5E     		ldrsh	r3, [r3, r1]	@ tmp162, tmp193, tmp187
 1486 006a 9A42     		cmp	r2, r3	@ tmp161, tmp162
ARM GAS  /var/folders/9j/_txx49hn253_s3mnzkyxlj8m0000gp/T//ccxigpJH.s 			page 34


 1487 006c F4D1     		bne	.L116	@,
 270:../MY17/lib/MY17_Can_Library/MY17_Can_Library_Test.c ****       begin.avg_cell_voltage == end.avg_cell_voltage &&
 1488              		.loc 1 270 0
 1489 006e 6B46     		mov	r3, sp	@ tmp194,
 1490 0070 A288     		ldrh	r2, [r4, #4]	@ tmp165,
 1491 0072 9B8D     		ldrh	r3, [r3, #44]	@ tmp166,
 1492 0074 9A42     		cmp	r2, r3	@ tmp165, tmp166
 1493 0076 EFD1     		bne	.L116	@,
 271:../MY17/lib/MY17_Can_Library/MY17_Can_Library_Test.c ****       begin.min_cell_voltage == end.min_cell_voltage &&
 1494              		.loc 1 271 0
 1495 0078 6B46     		mov	r3, sp	@ tmp195,
 1496 007a E288     		ldrh	r2, [r4, #6]	@ tmp169,
 1497 007c DB8D     		ldrh	r3, [r3, #46]	@ tmp170,
 1498 007e 9A42     		cmp	r2, r3	@ tmp169, tmp170
 1499 0080 EAD1     		bne	.L116	@,
 272:../MY17/lib/MY17_Can_Library/MY17_Can_Library_Test.c ****       begin.id_min_cell_voltage == end.id_min_cell_voltage &&
 1500              		.loc 1 272 0
 1501 0082 6B46     		mov	r3, sp	@ tmp196,
 1502 0084 3021     		mov	r1, #48	@ tmp198,
 1503 0086 5B18     		add	r3, r3, r1	@ tmp197, tmp196, tmp198
 1504 0088 227A     		ldrb	r2, [r4, #8]	@ tmp173,
 1505 008a 1B78     		ldrb	r3, [r3]	@ tmp174,
 1506 008c 9A42     		cmp	r2, r3	@ tmp173, tmp174
 1507 008e E3D1     		bne	.L116	@,
 273:../MY17/lib/MY17_Can_Library/MY17_Can_Library_Test.c ****       begin.max_cell_voltage == end.max_cell_voltage &&
 1508              		.loc 1 273 0
 1509 0090 6B46     		mov	r3, sp	@ tmp199,
 1510 0092 6289     		ldrh	r2, [r4, #10]	@ tmp177,
 1511 0094 5B8E     		ldrh	r3, [r3, #50]	@ tmp178,
 1512 0096 9A42     		cmp	r2, r3	@ tmp177, tmp178
 1513 0098 DED1     		bne	.L116	@,
 274:../MY17/lib/MY17_Can_Library/MY17_Can_Library_Test.c ****       begin.id_max_cell_voltage == end.id_max_cell_voltage);
 1514              		.loc 1 274 0 discriminator 3
 1515 009a 6B46     		mov	r3, sp	@ tmp200,
 1516 009c 0431     		add	r1, r1, #4	@ tmp202,
 1517 009e 5B18     		add	r3, r3, r1	@ tmp201, tmp200, tmp202
 1518 00a0 227B     		ldrb	r2, [r4, #12]	@ tmp181,
 1519 00a2 1B78     		ldrb	r3, [r3]	@ tmp182,
 276:../MY17/lib/MY17_Can_Library/MY17_Can_Library_Test.c **** }
 1520              		.loc 1 276 0 discriminator 3
 1521 00a4 0348     		ldr	r0, .L119+4	@ D.5460,
 274:../MY17/lib/MY17_Can_Library/MY17_Can_Library_Test.c ****       begin.id_max_cell_voltage == end.id_max_cell_voltage);
 1522              		.loc 1 274 0 discriminator 3
 1523 00a6 9A42     		cmp	r2, r3	@ tmp181, tmp182
 1524 00a8 D7D1     		bne	.L110	@,
 276:../MY17/lib/MY17_Can_Library/MY17_Can_Library_Test.c **** }
 1525              		.loc 1 276 0
 1526 00aa 0348     		ldr	r0, .L119+8	@ D.5460,
 1527 00ac D5E7     		b	.L110	@
 1528              	.L120:
 1529 00ae C046     		.align	2
 1530              	.L119:
 1531 00b0 A8FDFFFF 		.word	-600
 1532 00b4 38030000 		.word	.LC50
 1533 00b8 20030000 		.word	.LC48
 1534              		.cfi_endproc
 1535              	.LFE12:
ARM GAS  /var/folders/9j/_txx49hn253_s3mnzkyxlj8m0000gp/T//ccxigpJH.s 			page 35


 1536              		.size	Can_Bms_PackStatus_Test, .-Can_Bms_PackStatus_Test
 1537              		.section	.text.Can_Bms_Error_Test,"ax",%progbits
 1538              		.align	2
 1539              		.global	Can_Bms_Error_Test
 1540              		.code	16
 1541              		.thumb_func
 1542              		.type	Can_Bms_Error_Test, %function
 1543              	Can_Bms_Error_Test:
 1544              	.LFB13:
 278:../MY17/lib/MY17_Can_Library/MY17_Can_Library_Test.c **** 
 279:../MY17/lib/MY17_Can_Library/MY17_Can_Library_Test.c **** void Can_Bms_Error_Test(PRINT print) {
 1545              		.loc 1 279 0
 1546              		.cfi_startproc
 1547              	.LVL106:
 1548 0000 30B5     		push	{r4, r5, lr}	@
 1549              		.cfi_def_cfa_offset 12
 1550              		.cfi_offset 4, -12
 1551              		.cfi_offset 5, -8
 1552              		.cfi_offset 14, -4
 1553 0002 89B0     		sub	sp, sp, #36	@,,
 1554              		.cfi_def_cfa_offset 48
 280:../MY17/lib/MY17_Can_Library/MY17_Can_Library_Test.c ****   Can_Bms_Error_T begin;
 281:../MY17/lib/MY17_Can_Library/MY17_Can_Library_Test.c ****   begin.type = CAN_BMS_ERROR_CONFLICTING_MODE_REQUESTS;
 1555              		.loc 1 281 0
 1556 0004 0B23     		mov	r3, #11	@ tmp115,
 1557 0006 6A46     		mov	r2, sp	@ tmp129,
 282:../MY17/lib/MY17_Can_Library/MY17_Can_Library_Test.c **** 
 283:../MY17/lib/MY17_Can_Library/MY17_Can_Library_Test.c ****   BOILERPLATE(Can_Bms_Error);
 1558              		.loc 1 283 0
 1559 0008 05A9     		add	r1, sp, #20	@ tmp130,,
 279:../MY17/lib/MY17_Can_Library/MY17_Can_Library_Test.c ****   Can_Bms_Error_T begin;
 1560              		.loc 1 279 0
 1561 000a 051C     		mov	r5, r0	@ print, print
 1562              		.loc 1 283 0
 1563 000c 6846     		mov	r0, sp	@,
 1564              	.LVL107:
 281:../MY17/lib/MY17_Can_Library/MY17_Can_Library_Test.c **** 
 1565              		.loc 1 281 0
 1566 000e 1370     		strb	r3, [r2]	@ tmp115, begin.type
 1567              		.loc 1 283 0
 1568 0010 FFF7FEFF 		bl	Can_Bms_Error_ToCan	@
 1569              	.LVL108:
 1570 0014 1720     		mov	r0, #23	@ tmp131,
 1571 0016 0022     		mov	r2, #0	@ tmp119,
 1572 0018 0023     		mov	r3, #0	@,
 1573 001a 6844     		add	r0, r0, sp	@ tmp131,
 1574 001c 02A9     		add	r1, sp, #8	@,,
 1575 001e 01AC     		add	r4, sp, #4	@ tmp124,,
 1576 0020 0292     		str	r2, [sp, #8]	@ tmp119, end_bitstring
 1577 0022 0393     		str	r3, [sp, #12]	@ tmp119,
 1578 0024 FFF7FEFF 		bl	to_bitstring	@
 1579              	.LVL109:
 1580 0028 05A8     		add	r0, sp, #20	@ tmp132,,
 1581 002a 211C     		mov	r1, r4	@, tmp124
 1582 002c FFF7FEFF 		bl	Can_Bms_Error_FromCan	@
 1583              	.LVL110:
 284:../MY17/lib/MY17_Can_Library/MY17_Can_Library_Test.c **** 
ARM GAS  /var/folders/9j/_txx49hn253_s3mnzkyxlj8m0000gp/T//ccxigpJH.s 			page 36


 285:../MY17/lib/MY17_Can_Library/MY17_Can_Library_Test.c ****   bool equal = begin.type == end.type;
 286:../MY17/lib/MY17_Can_Library/MY17_Can_Library_Test.c ****   print(equal ? "Bms_Error_PASS\r\n" : "Bms_Error_FAIL!!!!!!!!!!!!!!!!\r\n");
 1584              		.loc 1 286 0
 1585 0030 6B46     		mov	r3, sp	@ tmp133,
 1586 0032 1A78     		ldrb	r2, [r3]	@ begin, begin
 1587 0034 2378     		ldrb	r3, [r4]	@ end, end
 1588 0036 9A42     		cmp	r2, r3	@ begin, end
 1589 0038 03D0     		beq	.L123	@,
 1590 003a 0348     		ldr	r0, .L124	@ D.5468,
 1591              	.L122:
 1592              		.loc 1 286 0 is_stmt 0 discriminator 4
 1593 003c A847     		blx	r5	@ print
 1594              	.LVL111:
 287:../MY17/lib/MY17_Can_Library/MY17_Can_Library_Test.c **** }
 1595              		.loc 1 287 0 is_stmt 1 discriminator 4
 1596 003e 09B0     		add	sp, sp, #36	@,,
 1597              		@ sp needed	@
 1598              	.LVL112:
 1599 0040 30BD     		pop	{r4, r5, pc}
 1600              	.LVL113:
 1601              	.L123:
 286:../MY17/lib/MY17_Can_Library/MY17_Can_Library_Test.c **** }
 1602              		.loc 1 286 0
 1603 0042 0248     		ldr	r0, .L124+4	@ D.5468,
 1604 0044 FAE7     		b	.L122	@
 1605              	.L125:
 1606 0046 C046     		.align	2
 1607              	.L124:
 1608 0048 74030000 		.word	.LC54
 1609 004c 60030000 		.word	.LC52
 1610              		.cfi_endproc
 1611              	.LFE13:
 1612              		.size	Can_Bms_Error_Test, .-Can_Bms_Error_Test
 1613              		.section	.text.Can_Dash_Heartbeat_Test,"ax",%progbits
 1614              		.align	2
 1615              		.global	Can_Dash_Heartbeat_Test
 1616              		.code	16
 1617              		.thumb_func
 1618              		.type	Can_Dash_Heartbeat_Test, %function
 1619              	Can_Dash_Heartbeat_Test:
 1620              	.LFB14:
 288:../MY17/lib/MY17_Can_Library/MY17_Can_Library_Test.c **** 
 289:../MY17/lib/MY17_Can_Library/MY17_Can_Library_Test.c **** void Can_Dash_Heartbeat_Test(PRINT print) {
 1621              		.loc 1 289 0
 1622              		.cfi_startproc
 1623              	.LVL114:
 1624 0000 30B5     		push	{r4, r5, lr}	@
 1625              		.cfi_def_cfa_offset 12
 1626              		.cfi_offset 4, -12
 1627              		.cfi_offset 5, -8
 1628              		.cfi_offset 14, -4
 1629 0002 89B0     		sub	sp, sp, #36	@,,
 1630              		.cfi_def_cfa_offset 48
 290:../MY17/lib/MY17_Can_Library/MY17_Can_Library_Test.c ****   Can_Dash_Heartbeat_T begin;
 291:../MY17/lib/MY17_Can_Library/MY17_Can_Library_Test.c ****   begin.ok = true;
 1631              		.loc 1 291 0
 1632 0004 0123     		mov	r3, #1	@ tmp115,
ARM GAS  /var/folders/9j/_txx49hn253_s3mnzkyxlj8m0000gp/T//ccxigpJH.s 			page 37


 1633 0006 6A46     		mov	r2, sp	@ tmp129,
 292:../MY17/lib/MY17_Can_Library/MY17_Can_Library_Test.c **** 
 293:../MY17/lib/MY17_Can_Library/MY17_Can_Library_Test.c ****   BOILERPLATE(Can_Dash_Heartbeat);
 1634              		.loc 1 293 0
 1635 0008 05A9     		add	r1, sp, #20	@ tmp130,,
 289:../MY17/lib/MY17_Can_Library/MY17_Can_Library_Test.c ****   Can_Dash_Heartbeat_T begin;
 1636              		.loc 1 289 0
 1637 000a 051C     		mov	r5, r0	@ print, print
 1638              		.loc 1 293 0
 1639 000c 6846     		mov	r0, sp	@,
 1640              	.LVL115:
 291:../MY17/lib/MY17_Can_Library/MY17_Can_Library_Test.c **** 
 1641              		.loc 1 291 0
 1642 000e 1370     		strb	r3, [r2]	@ tmp115, begin.ok
 1643              		.loc 1 293 0
 1644 0010 FFF7FEFF 		bl	Can_Dash_Heartbeat_ToCan	@
 1645              	.LVL116:
 1646 0014 1720     		mov	r0, #23	@ tmp131,
 1647 0016 0022     		mov	r2, #0	@ tmp119,
 1648 0018 0023     		mov	r3, #0	@,
 1649 001a 6844     		add	r0, r0, sp	@ tmp131,
 1650 001c 02A9     		add	r1, sp, #8	@,,
 1651 001e 01AC     		add	r4, sp, #4	@ tmp124,,
 1652 0020 0292     		str	r2, [sp, #8]	@ tmp119, end_bitstring
 1653 0022 0393     		str	r3, [sp, #12]	@ tmp119,
 1654 0024 FFF7FEFF 		bl	to_bitstring	@
 1655              	.LVL117:
 1656 0028 05A8     		add	r0, sp, #20	@ tmp132,,
 1657 002a 211C     		mov	r1, r4	@, tmp124
 1658 002c FFF7FEFF 		bl	Can_Dash_Heartbeat_FromCan	@
 1659              	.LVL118:
 294:../MY17/lib/MY17_Can_Library/MY17_Can_Library_Test.c **** 
 295:../MY17/lib/MY17_Can_Library/MY17_Can_Library_Test.c ****   bool equal = begin.ok == end.ok;
 296:../MY17/lib/MY17_Can_Library/MY17_Can_Library_Test.c ****   print(equal ? "Dash_Heartbeat_PASS\r\n" : "Dash_Heartbeat_FAIL!!!!!!!!!!!!!!!!\r\n");
 1660              		.loc 1 296 0
 1661 0030 6B46     		mov	r3, sp	@ tmp133,
 1662 0032 1A78     		ldrb	r2, [r3]	@ begin, begin
 1663 0034 2378     		ldrb	r3, [r4]	@ end, end
 1664 0036 9A42     		cmp	r2, r3	@ begin, end
 1665 0038 03D0     		beq	.L128	@,
 1666 003a 0348     		ldr	r0, .L129	@ D.5474,
 1667              	.L127:
 1668              		.loc 1 296 0 is_stmt 0 discriminator 4
 1669 003c A847     		blx	r5	@ print
 1670              	.LVL119:
 297:../MY17/lib/MY17_Can_Library/MY17_Can_Library_Test.c **** }
 1671              		.loc 1 297 0 is_stmt 1 discriminator 4
 1672 003e 09B0     		add	sp, sp, #36	@,,
 1673              		@ sp needed	@
 1674              	.LVL120:
 1675 0040 30BD     		pop	{r4, r5, pc}
 1676              	.LVL121:
 1677              	.L128:
 296:../MY17/lib/MY17_Can_Library/MY17_Can_Library_Test.c **** }
 1678              		.loc 1 296 0
 1679 0042 0248     		ldr	r0, .L129+4	@ D.5474,
 1680 0044 FAE7     		b	.L127	@
ARM GAS  /var/folders/9j/_txx49hn253_s3mnzkyxlj8m0000gp/T//ccxigpJH.s 			page 38


 1681              	.L130:
 1682 0046 C046     		.align	2
 1683              	.L129:
 1684 0048 B0030000 		.word	.LC58
 1685 004c 98030000 		.word	.LC56
 1686              		.cfi_endproc
 1687              	.LFE14:
 1688              		.size	Can_Dash_Heartbeat_Test, .-Can_Dash_Heartbeat_Test
 1689              		.section	.text.Can_Dash_Request_Test,"ax",%progbits
 1690              		.align	2
 1691              		.global	Can_Dash_Request_Test
 1692              		.code	16
 1693              		.thumb_func
 1694              		.type	Can_Dash_Request_Test, %function
 1695              	Can_Dash_Request_Test:
 1696              	.LFB15:
 298:../MY17/lib/MY17_Can_Library/MY17_Can_Library_Test.c **** 
 299:../MY17/lib/MY17_Can_Library/MY17_Can_Library_Test.c **** void Can_Dash_Request_Test(PRINT print) {
 1697              		.loc 1 299 0
 1698              		.cfi_startproc
 1699              	.LVL122:
 1700 0000 30B5     		push	{r4, r5, lr}	@
 1701              		.cfi_def_cfa_offset 12
 1702              		.cfi_offset 4, -12
 1703              		.cfi_offset 5, -8
 1704              		.cfi_offset 14, -4
 1705 0002 89B0     		sub	sp, sp, #36	@,,
 1706              		.cfi_def_cfa_offset 48
 300:../MY17/lib/MY17_Can_Library/MY17_Can_Library_Test.c ****   Can_Dash_Request_T begin;
 301:../MY17/lib/MY17_Can_Library/MY17_Can_Library_Test.c ****   begin.type = CAN_DASH_REQUEST_DATA_FLAG;
 1707              		.loc 1 301 0
 1708 0004 0523     		mov	r3, #5	@ tmp115,
 1709 0006 6A46     		mov	r2, sp	@ tmp129,
 302:../MY17/lib/MY17_Can_Library/MY17_Can_Library_Test.c **** 
 303:../MY17/lib/MY17_Can_Library/MY17_Can_Library_Test.c ****   BOILERPLATE(Can_Dash_Request);
 1710              		.loc 1 303 0
 1711 0008 05A9     		add	r1, sp, #20	@ tmp130,,
 299:../MY17/lib/MY17_Can_Library/MY17_Can_Library_Test.c ****   Can_Dash_Request_T begin;
 1712              		.loc 1 299 0
 1713 000a 051C     		mov	r5, r0	@ print, print
 1714              		.loc 1 303 0
 1715 000c 6846     		mov	r0, sp	@,
 1716              	.LVL123:
 301:../MY17/lib/MY17_Can_Library/MY17_Can_Library_Test.c **** 
 1717              		.loc 1 301 0
 1718 000e 1370     		strb	r3, [r2]	@ tmp115, begin.type
 1719              		.loc 1 303 0
 1720 0010 FFF7FEFF 		bl	Can_Dash_Request_ToCan	@
 1721              	.LVL124:
 1722 0014 1720     		mov	r0, #23	@ tmp131,
 1723 0016 0022     		mov	r2, #0	@ tmp119,
 1724 0018 0023     		mov	r3, #0	@,
 1725 001a 6844     		add	r0, r0, sp	@ tmp131,
 1726 001c 02A9     		add	r1, sp, #8	@,,
 1727 001e 01AC     		add	r4, sp, #4	@ tmp124,,
 1728 0020 0292     		str	r2, [sp, #8]	@ tmp119, end_bitstring
 1729 0022 0393     		str	r3, [sp, #12]	@ tmp119,
ARM GAS  /var/folders/9j/_txx49hn253_s3mnzkyxlj8m0000gp/T//ccxigpJH.s 			page 39


 1730 0024 FFF7FEFF 		bl	to_bitstring	@
 1731              	.LVL125:
 1732 0028 05A8     		add	r0, sp, #20	@ tmp132,,
 1733 002a 211C     		mov	r1, r4	@, tmp124
 1734 002c FFF7FEFF 		bl	Can_Dash_Request_FromCan	@
 1735              	.LVL126:
 304:../MY17/lib/MY17_Can_Library/MY17_Can_Library_Test.c **** 
 305:../MY17/lib/MY17_Can_Library/MY17_Can_Library_Test.c ****   bool equal = begin.type == end.type;
 306:../MY17/lib/MY17_Can_Library/MY17_Can_Library_Test.c ****   print(equal ? "Dash_Request_PASS\r\n" : "Dash_Request_FAIL!!!!!!!!!!!!!!!!\r\n");
 1736              		.loc 1 306 0
 1737 0030 6B46     		mov	r3, sp	@ tmp133,
 1738 0032 1A78     		ldrb	r2, [r3]	@ begin, begin
 1739 0034 2378     		ldrb	r3, [r4]	@ end, end
 1740 0036 9A42     		cmp	r2, r3	@ begin, end
 1741 0038 03D0     		beq	.L133	@,
 1742 003a 0348     		ldr	r0, .L134	@ D.5480,
 1743              	.L132:
 1744              		.loc 1 306 0 is_stmt 0 discriminator 4
 1745 003c A847     		blx	r5	@ print
 1746              	.LVL127:
 307:../MY17/lib/MY17_Can_Library/MY17_Can_Library_Test.c **** }
 1747              		.loc 1 307 0 is_stmt 1 discriminator 4
 1748 003e 09B0     		add	sp, sp, #36	@,,
 1749              		@ sp needed	@
 1750              	.LVL128:
 1751 0040 30BD     		pop	{r4, r5, pc}
 1752              	.LVL129:
 1753              	.L133:
 306:../MY17/lib/MY17_Can_Library/MY17_Can_Library_Test.c **** }
 1754              		.loc 1 306 0
 1755 0042 0248     		ldr	r0, .L134+4	@ D.5480,
 1756 0044 FAE7     		b	.L132	@
 1757              	.L135:
 1758 0046 C046     		.align	2
 1759              	.L134:
 1760 0048 EC030000 		.word	.LC62
 1761 004c D8030000 		.word	.LC60
 1762              		.cfi_endproc
 1763              	.LFE15:
 1764              		.size	Can_Dash_Request_Test, .-Can_Dash_Request_Test
 1765              		.section	.text.Can_MC_DataReading_Test,"ax",%progbits
 1766              		.align	2
 1767              		.global	Can_MC_DataReading_Test
 1768              		.code	16
 1769              		.thumb_func
 1770              		.type	Can_MC_DataReading_Test, %function
 1771              	Can_MC_DataReading_Test:
 1772              	.LFB16:
 308:../MY17/lib/MY17_Can_Library/MY17_Can_Library_Test.c **** 
 309:../MY17/lib/MY17_Can_Library/MY17_Can_Library_Test.c **** void Can_MC_DataReading_Test(PRINT print) {
 1773              		.loc 1 309 0
 1774              		.cfi_startproc
 1775              	.LVL130:
 1776 0000 10B5     		push	{r4, lr}	@
 1777              		.cfi_def_cfa_offset 8
 1778              		.cfi_offset 4, -8
 1779              		.cfi_offset 14, -4
ARM GAS  /var/folders/9j/_txx49hn253_s3mnzkyxlj8m0000gp/T//ccxigpJH.s 			page 40


 1780 0002 88B0     		sub	sp, sp, #32	@,,
 1781              		.cfi_def_cfa_offset 40
 310:../MY17/lib/MY17_Can_Library/MY17_Can_Library_Test.c ****   Can_MC_DataReading_T begin;
 311:../MY17/lib/MY17_Can_Library/MY17_Can_Library_Test.c ****   begin.type = CAN_MC_REG_CURRENT_LIMIT_ACTUAL;
 1782              		.loc 1 311 0
 1783 0004 6A46     		mov	r2, sp	@ tmp140,
 1784 0006 4823     		mov	r3, #72	@ tmp117,
 1785 0008 1370     		strb	r3, [r2]	@ tmp117, begin.type
 312:../MY17/lib/MY17_Can_Library/MY17_Can_Library_Test.c ****   begin.value = -6000;
 1786              		.loc 1 312 0
 1787 000a 134B     		ldr	r3, .L141	@ tmp120,
 313:../MY17/lib/MY17_Can_Library/MY17_Can_Library_Test.c **** 
 314:../MY17/lib/MY17_Can_Library/MY17_Can_Library_Test.c ****   BOILERPLATE(Can_MC_DataReading);
 1788              		.loc 1 314 0
 1789 000c 05A9     		add	r1, sp, #20	@ tmp142,,
 309:../MY17/lib/MY17_Can_Library/MY17_Can_Library_Test.c ****   Can_MC_DataReading_T begin;
 1790              		.loc 1 309 0
 1791 000e 041C     		mov	r4, r0	@ print, print
 1792              		.loc 1 314 0
 1793 0010 6846     		mov	r0, sp	@,
 1794              	.LVL131:
 312:../MY17/lib/MY17_Can_Library/MY17_Can_Library_Test.c ****   begin.value = -6000;
 1795              		.loc 1 312 0
 1796 0012 5380     		strh	r3, [r2, #2]	@ tmp120, begin.value
 1797              		.loc 1 314 0
 1798 0014 FFF7FEFF 		bl	Can_MC_DataReading_ToCan	@
 1799              	.LVL132:
 1800 0018 1720     		mov	r0, #23	@ tmp143,
 1801 001a 0022     		mov	r2, #0	@ tmp124,
 1802 001c 0023     		mov	r3, #0	@,
 1803 001e 6844     		add	r0, r0, sp	@ tmp143,
 1804 0020 02A9     		add	r1, sp, #8	@,,
 1805 0022 0292     		str	r2, [sp, #8]	@ tmp124, end_bitstring
 1806 0024 0393     		str	r3, [sp, #12]	@ tmp124,
 1807 0026 FFF7FEFF 		bl	to_bitstring	@
 1808              	.LVL133:
 1809 002a 05A8     		add	r0, sp, #20	@ tmp144,,
 1810 002c 01A9     		add	r1, sp, #4	@ tmp145,,
 1811 002e FFF7FEFF 		bl	Can_MC_DataReading_FromCan	@
 1812              	.LVL134:
 315:../MY17/lib/MY17_Can_Library/MY17_Can_Library_Test.c **** 
 316:../MY17/lib/MY17_Can_Library/MY17_Can_Library_Test.c ****   bool equal = (
 317:../MY17/lib/MY17_Can_Library/MY17_Can_Library_Test.c ****       begin.type == end.type &&
 1813              		.loc 1 317 0
 1814 0032 6B46     		mov	r3, sp	@ tmp146,
 1815 0034 1A78     		ldrb	r2, [r3]	@ begin, begin
 1816 0036 1B79     		ldrb	r3, [r3, #4]	@ end, end
 1817 0038 9A42     		cmp	r2, r3	@ begin, end
 1818 003a 03D0     		beq	.L140	@,
 1819              	.L139:
 318:../MY17/lib/MY17_Can_Library/MY17_Can_Library_Test.c ****       begin.value == end.value);
 319:../MY17/lib/MY17_Can_Library/MY17_Can_Library_Test.c ****   print(equal ? "MC_DataReading_PASS\r\n" : "MC_DataReading_FAIL!!!!!!!!!!!!!!!!\r\n");
 1820              		.loc 1 319 0
 1821 003c 0748     		ldr	r0, .L141+4	@ D.5486,
 1822              	.L137:
 1823              		.loc 1 319 0 is_stmt 0 discriminator 4
 1824 003e A047     		blx	r4	@ print
ARM GAS  /var/folders/9j/_txx49hn253_s3mnzkyxlj8m0000gp/T//ccxigpJH.s 			page 41


 1825              	.LVL135:
 320:../MY17/lib/MY17_Can_Library/MY17_Can_Library_Test.c **** }
 1826              		.loc 1 320 0 is_stmt 1 discriminator 4
 1827 0040 08B0     		add	sp, sp, #32	@,,
 1828              		@ sp needed	@
 1829              	.LVL136:
 1830 0042 10BD     		pop	{r4, pc}
 1831              	.LVL137:
 1832              	.L140:
 317:../MY17/lib/MY17_Can_Library/MY17_Can_Library_Test.c ****       begin.value == end.value);
 1833              		.loc 1 317 0 discriminator 1
 1834 0044 6B46     		mov	r3, sp	@ tmp148,
 1835 0046 0222     		mov	r2, #2	@ tmp136,
 1836 0048 9A5E     		ldrsh	r2, [r3, r2]	@ tmp136, tmp148, tmp136
 1837 004a 6B46     		mov	r3, sp	@ tmp149,
 1838 004c 0621     		mov	r1, #6	@ tmp139,
 1839 004e 5B5E     		ldrsh	r3, [r3, r1]	@ tmp137, tmp149, tmp139
 1840 0050 9A42     		cmp	r2, r3	@ tmp136, tmp137
 1841 0052 F3D1     		bne	.L139	@,
 319:../MY17/lib/MY17_Can_Library/MY17_Can_Library_Test.c **** }
 1842              		.loc 1 319 0
 1843 0054 0248     		ldr	r0, .L141+8	@ D.5486,
 1844 0056 F2E7     		b	.L137	@
 1845              	.L142:
 1846              		.align	2
 1847              	.L141:
 1848 0058 90E8FFFF 		.word	-6000
 1849 005c 10040000 		.word	.LC64
 1850 0060 38040000 		.word	.LC66
 1851              		.cfi_endproc
 1852              	.LFE16:
 1853              		.size	Can_MC_DataReading_Test, .-Can_MC_DataReading_Test
 1854              		.section	.text.Can_MC_ErrorAndWarning_Test,"ax",%progbits
 1855              		.align	2
 1856              		.global	Can_MC_ErrorAndWarning_Test
 1857              		.code	16
 1858              		.thumb_func
 1859              		.type	Can_MC_ErrorAndWarning_Test, %function
 1860              	Can_MC_ErrorAndWarning_Test:
 1861              	.LFB17:
 321:../MY17/lib/MY17_Can_Library/MY17_Can_Library_Test.c **** 
 322:../MY17/lib/MY17_Can_Library/MY17_Can_Library_Test.c **** void Can_MC_ErrorAndWarning_Test(PRINT print) {
 1862              		.loc 1 322 0
 1863              		.cfi_startproc
 1864              	.LVL138:
 323:../MY17/lib/MY17_Can_Library/MY17_Can_Library_Test.c ****   Can_MC_ErrorAndWarning_T begin;
 324:../MY17/lib/MY17_Can_Library/MY17_Can_Library_Test.c **** 
 325:../MY17/lib/MY17_Can_Library/MY17_Can_Library_Test.c ****   begin.error_parameter_damaged = true;
 1865              		.loc 1 325 0
 1866 0000 0123     		mov	r3, #1	@ tmp161,
 326:../MY17/lib/MY17_Can_Library/MY17_Can_Library_Test.c ****   begin.error_output_stage_fault = true;
 327:../MY17/lib/MY17_Can_Library/MY17_Can_Library_Test.c ****   begin.error_rfe_fault = true;
 328:../MY17/lib/MY17_Can_Library/MY17_Can_Library_Test.c ****   begin.error_bus_fault = false;
 1867              		.loc 1 328 0
 1868 0002 0022     		mov	r2, #0	@ tmp170,
 322:../MY17/lib/MY17_Can_Library/MY17_Can_Library_Test.c ****   Can_MC_ErrorAndWarning_T begin;
 1869              		.loc 1 322 0
ARM GAS  /var/folders/9j/_txx49hn253_s3mnzkyxlj8m0000gp/T//ccxigpJH.s 			page 42


 1870 0004 30B5     		push	{r4, r5, lr}	@
 1871              		.cfi_def_cfa_offset 12
 1872              		.cfi_offset 4, -12
 1873              		.cfi_offset 5, -8
 1874              		.cfi_offset 14, -4
 1875 0006 95B0     		sub	sp, sp, #84	@,,
 1876              		.cfi_def_cfa_offset 96
 325:../MY17/lib/MY17_Can_Library/MY17_Can_Library_Test.c ****   begin.error_output_stage_fault = true;
 1877              		.loc 1 325 0
 1878 0008 06AC     		add	r4, sp, #24	@ tmp336,,
 329:../MY17/lib/MY17_Can_Library/MY17_Can_Library_Test.c ****   begin.error_faulty_encoder = false;
 330:../MY17/lib/MY17_Can_Library/MY17_Can_Library_Test.c ****   begin.error_power_voltage_missing = true;
 331:../MY17/lib/MY17_Can_Library/MY17_Can_Library_Test.c ****   begin.error_motor_temp_high = false;
 332:../MY17/lib/MY17_Can_Library/MY17_Can_Library_Test.c ****   begin.error_device_temp_high = false;
 333:../MY17/lib/MY17_Can_Library/MY17_Can_Library_Test.c ****   begin.error_over_voltage = true;
 334:../MY17/lib/MY17_Can_Library/MY17_Can_Library_Test.c ****   begin.error_over_current = false;
 335:../MY17/lib/MY17_Can_Library/MY17_Can_Library_Test.c ****   begin.error_raceaway = true;
 336:../MY17/lib/MY17_Can_Library/MY17_Can_Library_Test.c ****   begin.error_user_selected_fault = false;
 337:../MY17/lib/MY17_Can_Library/MY17_Can_Library_Test.c ****   begin.error_i2r_overload = false;
 338:../MY17/lib/MY17_Can_Library/MY17_Can_Library_Test.c ****   begin.error_incompatible_firmware = true;
 339:../MY17/lib/MY17_Can_Library/MY17_Can_Library_Test.c ****   begin.error_ballast_overload = false;
 340:../MY17/lib/MY17_Can_Library/MY17_Can_Library_Test.c **** 
 341:../MY17/lib/MY17_Can_Library/MY17_Can_Library_Test.c ****   begin.warning_inconsistent_device = true;
 342:../MY17/lib/MY17_Can_Library/MY17_Can_Library_Test.c ****   begin.warning_illegal_status_emi = false;
 343:../MY17/lib/MY17_Can_Library/MY17_Can_Library_Test.c ****   begin.warning_rfe_signal_inactive = true;
 344:../MY17/lib/MY17_Can_Library/MY17_Can_Library_Test.c ****   begin.warning_power_voltage_low = true;
 345:../MY17/lib/MY17_Can_Library/MY17_Can_Library_Test.c ****   begin.warning_device_temp_high = false;
 346:../MY17/lib/MY17_Can_Library/MY17_Can_Library_Test.c ****   begin.warning_over_voltage = true;
 347:../MY17/lib/MY17_Can_Library/MY17_Can_Library_Test.c ****   begin.warning_over_current = false;
 348:../MY17/lib/MY17_Can_Library/MY17_Can_Library_Test.c ****   begin.warning_i2r_overload = false;
 349:../MY17/lib/MY17_Can_Library/MY17_Can_Library_Test.c ****   begin.warning_ballast_overload = true;
 350:../MY17/lib/MY17_Can_Library/MY17_Can_Library_Test.c **** 
 351:../MY17/lib/MY17_Can_Library/MY17_Can_Library_Test.c ****   BOILERPLATE(Can_MC_ErrorAndWarning);
 1879              		.loc 1 351 0
 1880 000a 03A9     		add	r1, sp, #12	@ tmp338,,
 322:../MY17/lib/MY17_Can_Library/MY17_Can_Library_Test.c ****   Can_MC_ErrorAndWarning_T begin;
 1881              		.loc 1 322 0
 1882 000c 051C     		mov	r5, r0	@ print, print
 1883              		.loc 1 351 0
 1884 000e 201C     		mov	r0, r4	@, tmp336
 1885              	.LVL139:
 325:../MY17/lib/MY17_Can_Library/MY17_Can_Library_Test.c ****   begin.error_output_stage_fault = true;
 1886              		.loc 1 325 0
 1887 0010 2370     		strb	r3, [r4]	@ tmp161, begin.error_parameter_damaged
 326:../MY17/lib/MY17_Can_Library/MY17_Can_Library_Test.c ****   begin.error_rfe_fault = true;
 1888              		.loc 1 326 0
 1889 0012 6370     		strb	r3, [r4, #1]	@ tmp161, begin.error_output_stage_fault
 327:../MY17/lib/MY17_Can_Library/MY17_Can_Library_Test.c ****   begin.error_bus_fault = false;
 1890              		.loc 1 327 0
 1891 0014 A370     		strb	r3, [r4, #2]	@ tmp161, begin.error_rfe_fault
 328:../MY17/lib/MY17_Can_Library/MY17_Can_Library_Test.c ****   begin.error_faulty_encoder = false;
 1892              		.loc 1 328 0
 1893 0016 E270     		strb	r2, [r4, #3]	@ tmp170, begin.error_bus_fault
 329:../MY17/lib/MY17_Can_Library/MY17_Can_Library_Test.c ****   begin.error_power_voltage_missing = true;
 1894              		.loc 1 329 0
 1895 0018 2271     		strb	r2, [r4, #4]	@ tmp170, begin.error_faulty_encoder
 330:../MY17/lib/MY17_Can_Library/MY17_Can_Library_Test.c ****   begin.error_motor_temp_high = false;
ARM GAS  /var/folders/9j/_txx49hn253_s3mnzkyxlj8m0000gp/T//ccxigpJH.s 			page 43


 1896              		.loc 1 330 0
 1897 001a 6371     		strb	r3, [r4, #5]	@ tmp161, begin.error_power_voltage_missing
 331:../MY17/lib/MY17_Can_Library/MY17_Can_Library_Test.c ****   begin.error_device_temp_high = false;
 1898              		.loc 1 331 0
 1899 001c A271     		strb	r2, [r4, #6]	@ tmp170, begin.error_motor_temp_high
 332:../MY17/lib/MY17_Can_Library/MY17_Can_Library_Test.c ****   begin.error_over_voltage = true;
 1900              		.loc 1 332 0
 1901 001e E271     		strb	r2, [r4, #7]	@ tmp170, begin.error_device_temp_high
 333:../MY17/lib/MY17_Can_Library/MY17_Can_Library_Test.c ****   begin.error_over_current = false;
 1902              		.loc 1 333 0
 1903 0020 2372     		strb	r3, [r4, #8]	@ tmp161, begin.error_over_voltage
 334:../MY17/lib/MY17_Can_Library/MY17_Can_Library_Test.c ****   begin.error_raceaway = true;
 1904              		.loc 1 334 0
 1905 0022 6272     		strb	r2, [r4, #9]	@ tmp170, begin.error_over_current
 335:../MY17/lib/MY17_Can_Library/MY17_Can_Library_Test.c ****   begin.error_user_selected_fault = false;
 1906              		.loc 1 335 0
 1907 0024 A372     		strb	r3, [r4, #10]	@ tmp161, begin.error_raceaway
 336:../MY17/lib/MY17_Can_Library/MY17_Can_Library_Test.c ****   begin.error_i2r_overload = false;
 1908              		.loc 1 336 0
 1909 0026 E272     		strb	r2, [r4, #11]	@ tmp170, begin.error_user_selected_fault
 337:../MY17/lib/MY17_Can_Library/MY17_Can_Library_Test.c ****   begin.error_incompatible_firmware = true;
 1910              		.loc 1 337 0
 1911 0028 2273     		strb	r2, [r4, #12]	@ tmp170, begin.error_i2r_overload
 338:../MY17/lib/MY17_Can_Library/MY17_Can_Library_Test.c ****   begin.error_ballast_overload = false;
 1912              		.loc 1 338 0
 1913 002a 6373     		strb	r3, [r4, #13]	@ tmp161, begin.error_incompatible_firmware
 339:../MY17/lib/MY17_Can_Library/MY17_Can_Library_Test.c **** 
 1914              		.loc 1 339 0
 1915 002c A273     		strb	r2, [r4, #14]	@ tmp170, begin.error_ballast_overload
 341:../MY17/lib/MY17_Can_Library/MY17_Can_Library_Test.c ****   begin.warning_illegal_status_emi = false;
 1916              		.loc 1 341 0
 1917 002e E373     		strb	r3, [r4, #15]	@ tmp161, begin.warning_inconsistent_device
 342:../MY17/lib/MY17_Can_Library/MY17_Can_Library_Test.c ****   begin.warning_rfe_signal_inactive = true;
 1918              		.loc 1 342 0
 1919 0030 2274     		strb	r2, [r4, #16]	@ tmp170, begin.warning_illegal_status_emi
 343:../MY17/lib/MY17_Can_Library/MY17_Can_Library_Test.c ****   begin.warning_power_voltage_low = true;
 1920              		.loc 1 343 0
 1921 0032 6374     		strb	r3, [r4, #17]	@ tmp161, begin.warning_rfe_signal_inactive
 344:../MY17/lib/MY17_Can_Library/MY17_Can_Library_Test.c ****   begin.warning_device_temp_high = false;
 1922              		.loc 1 344 0
 1923 0034 A374     		strb	r3, [r4, #18]	@ tmp161, begin.warning_power_voltage_low
 345:../MY17/lib/MY17_Can_Library/MY17_Can_Library_Test.c ****   begin.warning_over_voltage = true;
 1924              		.loc 1 345 0
 1925 0036 2275     		strb	r2, [r4, #20]	@ tmp170, begin.warning_device_temp_high
 346:../MY17/lib/MY17_Can_Library/MY17_Can_Library_Test.c ****   begin.warning_over_current = false;
 1926              		.loc 1 346 0
 1927 0038 6375     		strb	r3, [r4, #21]	@ tmp161, begin.warning_over_voltage
 347:../MY17/lib/MY17_Can_Library/MY17_Can_Library_Test.c ****   begin.warning_i2r_overload = false;
 1928              		.loc 1 347 0
 1929 003a A275     		strb	r2, [r4, #22]	@ tmp170, begin.warning_over_current
 348:../MY17/lib/MY17_Can_Library/MY17_Can_Library_Test.c ****   begin.warning_ballast_overload = true;
 1930              		.loc 1 348 0
 1931 003c E275     		strb	r2, [r4, #23]	@ tmp170, begin.warning_i2r_overload
 349:../MY17/lib/MY17_Can_Library/MY17_Can_Library_Test.c **** 
 1932              		.loc 1 349 0
 1933 003e 2376     		strb	r3, [r4, #24]	@ tmp161, begin.warning_ballast_overload
 1934              		.loc 1 351 0
ARM GAS  /var/folders/9j/_txx49hn253_s3mnzkyxlj8m0000gp/T//ccxigpJH.s 			page 44


 1935 0040 FFF7FEFF 		bl	Can_MC_ErrorAndWarning_ToCan	@
 1936              	.LVL140:
 1937 0044 0F20     		mov	r0, #15	@ tmp339,
 1938 0046 0022     		mov	r2, #0	@ tmp234,
 1939 0048 0023     		mov	r3, #0	@,
 1940 004a 6844     		add	r0, r0, sp	@ tmp339,
 1941 004c 6946     		mov	r1, sp	@,
 1942 004e 0092     		str	r2, [sp]	@ tmp234, end_bitstring
 1943 0050 0193     		str	r3, [sp, #4]	@ tmp234,
 1944 0052 FFF7FEFF 		bl	to_bitstring	@
 1945              	.LVL141:
 1946 0056 0DA9     		add	r1, sp, #52	@ tmp341,,
 1947 0058 03A8     		add	r0, sp, #12	@ tmp340,,
 1948 005a FFF7FEFF 		bl	Can_MC_ErrorAndWarning_FromCan	@
 1949              	.LVL142:
 352:../MY17/lib/MY17_Can_Library/MY17_Can_Library_Test.c **** 
 353:../MY17/lib/MY17_Can_Library/MY17_Can_Library_Test.c ****   bool equal = (
 354:../MY17/lib/MY17_Can_Library/MY17_Can_Library_Test.c ****       begin.error_parameter_damaged == end.error_parameter_damaged &&
 355:../MY17/lib/MY17_Can_Library/MY17_Can_Library_Test.c ****       begin.error_output_stage_fault == end.error_output_stage_fault &&
 356:../MY17/lib/MY17_Can_Library/MY17_Can_Library_Test.c ****       begin.error_rfe_fault == end.error_rfe_fault &&
 357:../MY17/lib/MY17_Can_Library/MY17_Can_Library_Test.c ****       begin.error_bus_fault == end.error_bus_fault &&
 358:../MY17/lib/MY17_Can_Library/MY17_Can_Library_Test.c ****       begin.error_faulty_encoder == end.error_faulty_encoder &&
 359:../MY17/lib/MY17_Can_Library/MY17_Can_Library_Test.c ****       begin.error_power_voltage_missing == end.error_power_voltage_missing &&
 360:../MY17/lib/MY17_Can_Library/MY17_Can_Library_Test.c ****       begin.error_motor_temp_high == end.error_motor_temp_high &&
 361:../MY17/lib/MY17_Can_Library/MY17_Can_Library_Test.c ****       begin.error_device_temp_high == end.error_device_temp_high &&
 362:../MY17/lib/MY17_Can_Library/MY17_Can_Library_Test.c ****       begin.error_over_voltage == end.error_over_voltage &&
 363:../MY17/lib/MY17_Can_Library/MY17_Can_Library_Test.c ****       begin.error_over_current == end.error_over_current &&
 364:../MY17/lib/MY17_Can_Library/MY17_Can_Library_Test.c ****       begin.error_raceaway == end.error_raceaway &&
 365:../MY17/lib/MY17_Can_Library/MY17_Can_Library_Test.c ****       begin.error_user_selected_fault == end.error_user_selected_fault &&
 366:../MY17/lib/MY17_Can_Library/MY17_Can_Library_Test.c ****       begin.error_i2r_overload == end.error_i2r_overload &&
 367:../MY17/lib/MY17_Can_Library/MY17_Can_Library_Test.c ****       begin.error_incompatible_firmware == end.error_incompatible_firmware &&
 368:../MY17/lib/MY17_Can_Library/MY17_Can_Library_Test.c ****       begin.error_ballast_overload == end.error_ballast_overload &&
 369:../MY17/lib/MY17_Can_Library/MY17_Can_Library_Test.c **** 
 370:../MY17/lib/MY17_Can_Library/MY17_Can_Library_Test.c ****       begin.warning_inconsistent_device == end.warning_inconsistent_device &&
 371:../MY17/lib/MY17_Can_Library/MY17_Can_Library_Test.c ****       begin.warning_illegal_status_emi == end.warning_illegal_status_emi &&
 372:../MY17/lib/MY17_Can_Library/MY17_Can_Library_Test.c ****       begin.warning_rfe_signal_inactive == end.warning_rfe_signal_inactive &&
 373:../MY17/lib/MY17_Can_Library/MY17_Can_Library_Test.c ****       begin.warning_power_voltage_low == end.warning_power_voltage_low &&
 374:../MY17/lib/MY17_Can_Library/MY17_Can_Library_Test.c ****       begin.warning_device_temp_high == end.warning_device_temp_high &&
 375:../MY17/lib/MY17_Can_Library/MY17_Can_Library_Test.c ****       begin.warning_over_voltage == end.warning_over_voltage &&
 376:../MY17/lib/MY17_Can_Library/MY17_Can_Library_Test.c ****       begin.warning_over_current == end.warning_over_current &&
 377:../MY17/lib/MY17_Can_Library/MY17_Can_Library_Test.c ****       begin.warning_i2r_overload == end.warning_i2r_overload &&
 1950              		.loc 1 377 0
 1951 005e 6B46     		mov	r3, sp	@ tmp342,
 1952 0060 3421     		mov	r1, #52	@ tmp344,
 1953 0062 5B18     		add	r3, r3, r1	@ tmp343, tmp342, tmp344
 1954 0064 2278     		ldrb	r2, [r4]	@ begin, begin
 1955 0066 1B78     		ldrb	r3, [r3]	@ end, end
 1956 0068 9A42     		cmp	r2, r3	@ begin, end
 1957 006a 03D0     		beq	.L169	@,
 1958              	.L150:
 378:../MY17/lib/MY17_Can_Library/MY17_Can_Library_Test.c ****       begin.warning_ballast_overload == end.warning_ballast_overload);
 379:../MY17/lib/MY17_Can_Library/MY17_Can_Library_Test.c ****   print(equal ? "MC_ErrorAndWarning_PASS\r\n" : "MC_ErrorAndWarning_FAIL!!!!!!!!!!!!!!!!\r\n");
 1959              		.loc 1 379 0
 1960 006c 5848     		ldr	r0, .L170	@ D.5493,
 1961              	.L144:
 1962              		.loc 1 379 0 is_stmt 0 discriminator 4
 1963 006e A847     		blx	r5	@ print
ARM GAS  /var/folders/9j/_txx49hn253_s3mnzkyxlj8m0000gp/T//ccxigpJH.s 			page 45


 1964              	.LVL143:
 380:../MY17/lib/MY17_Can_Library/MY17_Can_Library_Test.c **** }
 1965              		.loc 1 380 0 is_stmt 1 discriminator 4
 1966 0070 15B0     		add	sp, sp, #84	@,,
 1967              		@ sp needed	@
 1968              	.LVL144:
 1969 0072 30BD     		pop	{r4, r5, pc}
 1970              	.LVL145:
 1971              	.L169:
 354:../MY17/lib/MY17_Can_Library/MY17_Can_Library_Test.c ****       begin.error_output_stage_fault == end.error_output_stage_fault &&
 1972              		.loc 1 354 0
 1973 0074 6B46     		mov	r3, sp	@ tmp345,
 1974 0076 0131     		add	r1, r1, #1	@ tmp347,
 1975 0078 5B18     		add	r3, r3, r1	@ tmp346, tmp345, tmp347
 1976 007a 6278     		ldrb	r2, [r4, #1]	@ tmp246,
 1977 007c 1B78     		ldrb	r3, [r3]	@ tmp247,
 1978 007e 9A42     		cmp	r2, r3	@ tmp246, tmp247
 1979 0080 F4D1     		bne	.L150	@,
 355:../MY17/lib/MY17_Can_Library/MY17_Can_Library_Test.c ****       begin.error_rfe_fault == end.error_rfe_fault &&
 1980              		.loc 1 355 0
 1981 0082 6B46     		mov	r3, sp	@ tmp348,
 1982 0084 0131     		add	r1, r1, #1	@ tmp350,
 1983 0086 5B18     		add	r3, r3, r1	@ tmp349, tmp348, tmp350
 1984 0088 A278     		ldrb	r2, [r4, #2]	@ tmp250,
 1985 008a 1B78     		ldrb	r3, [r3]	@ tmp251,
 1986 008c 9A42     		cmp	r2, r3	@ tmp250, tmp251
 1987 008e EDD1     		bne	.L150	@,
 356:../MY17/lib/MY17_Can_Library/MY17_Can_Library_Test.c ****       begin.error_bus_fault == end.error_bus_fault &&
 1988              		.loc 1 356 0
 1989 0090 6B46     		mov	r3, sp	@ tmp351,
 1990 0092 0131     		add	r1, r1, #1	@ tmp353,
 1991 0094 5B18     		add	r3, r3, r1	@ tmp352, tmp351, tmp353
 1992 0096 E278     		ldrb	r2, [r4, #3]	@ tmp254,
 1993 0098 1B78     		ldrb	r3, [r3]	@ tmp255,
 1994 009a 9A42     		cmp	r2, r3	@ tmp254, tmp255
 1995 009c E6D1     		bne	.L150	@,
 357:../MY17/lib/MY17_Can_Library/MY17_Can_Library_Test.c ****       begin.error_faulty_encoder == end.error_faulty_encoder &&
 1996              		.loc 1 357 0
 1997 009e 6B46     		mov	r3, sp	@ tmp354,
 1998 00a0 0131     		add	r1, r1, #1	@ tmp356,
 1999 00a2 5B18     		add	r3, r3, r1	@ tmp355, tmp354, tmp356
 2000 00a4 2279     		ldrb	r2, [r4, #4]	@ tmp258,
 2001 00a6 1B78     		ldrb	r3, [r3]	@ tmp259,
 2002 00a8 9A42     		cmp	r2, r3	@ tmp258, tmp259
 2003 00aa DFD1     		bne	.L150	@,
 358:../MY17/lib/MY17_Can_Library/MY17_Can_Library_Test.c ****       begin.error_power_voltage_missing == end.error_power_voltage_missing &&
 2004              		.loc 1 358 0
 2005 00ac 6B46     		mov	r3, sp	@ tmp357,
 2006 00ae 0131     		add	r1, r1, #1	@ tmp359,
 2007 00b0 5B18     		add	r3, r3, r1	@ tmp358, tmp357, tmp359
 2008 00b2 6279     		ldrb	r2, [r4, #5]	@ tmp262,
 2009 00b4 1B78     		ldrb	r3, [r3]	@ tmp263,
 2010 00b6 9A42     		cmp	r2, r3	@ tmp262, tmp263
 2011 00b8 D8D1     		bne	.L150	@,
 359:../MY17/lib/MY17_Can_Library/MY17_Can_Library_Test.c ****       begin.error_motor_temp_high == end.error_motor_temp_high &&
 2012              		.loc 1 359 0
 2013 00ba 6B46     		mov	r3, sp	@ tmp360,
ARM GAS  /var/folders/9j/_txx49hn253_s3mnzkyxlj8m0000gp/T//ccxigpJH.s 			page 46


 2014 00bc 0131     		add	r1, r1, #1	@ tmp362,
 2015 00be 5B18     		add	r3, r3, r1	@ tmp361, tmp360, tmp362
 2016 00c0 A279     		ldrb	r2, [r4, #6]	@ tmp266,
 2017 00c2 1B78     		ldrb	r3, [r3]	@ tmp267,
 379:../MY17/lib/MY17_Can_Library/MY17_Can_Library_Test.c **** }
 2018              		.loc 1 379 0
 2019 00c4 4248     		ldr	r0, .L170	@ D.5493,
 359:../MY17/lib/MY17_Can_Library/MY17_Can_Library_Test.c ****       begin.error_motor_temp_high == end.error_motor_temp_high &&
 2020              		.loc 1 359 0
 2021 00c6 9A42     		cmp	r2, r3	@ tmp266, tmp267
 2022 00c8 D1D1     		bne	.L144	@,
 360:../MY17/lib/MY17_Can_Library/MY17_Can_Library_Test.c ****       begin.error_device_temp_high == end.error_device_temp_high &&
 2023              		.loc 1 360 0
 2024 00ca 6B46     		mov	r3, sp	@ tmp363,
 2025 00cc 0131     		add	r1, r1, #1	@ tmp365,
 2026 00ce 5B18     		add	r3, r3, r1	@ tmp364, tmp363, tmp365
 2027 00d0 E279     		ldrb	r2, [r4, #7]	@ tmp270,
 2028 00d2 1B78     		ldrb	r3, [r3]	@ tmp271,
 2029 00d4 9A42     		cmp	r2, r3	@ tmp270, tmp271
 2030 00d6 CAD1     		bne	.L144	@,
 361:../MY17/lib/MY17_Can_Library/MY17_Can_Library_Test.c ****       begin.error_over_voltage == end.error_over_voltage &&
 2031              		.loc 1 361 0
 2032 00d8 6B46     		mov	r3, sp	@ tmp366,
 2033 00da 0131     		add	r1, r1, #1	@ tmp368,
 2034 00dc 5B18     		add	r3, r3, r1	@ tmp367, tmp366, tmp368
 2035 00de 227A     		ldrb	r2, [r4, #8]	@ tmp274,
 2036 00e0 1B78     		ldrb	r3, [r3]	@ tmp275,
 2037 00e2 9A42     		cmp	r2, r3	@ tmp274, tmp275
 2038 00e4 C3D1     		bne	.L144	@,
 362:../MY17/lib/MY17_Can_Library/MY17_Can_Library_Test.c ****       begin.error_over_current == end.error_over_current &&
 2039              		.loc 1 362 0
 2040 00e6 6B46     		mov	r3, sp	@ tmp369,
 2041 00e8 0131     		add	r1, r1, #1	@ tmp371,
 2042 00ea 5B18     		add	r3, r3, r1	@ tmp370, tmp369, tmp371
 2043 00ec 627A     		ldrb	r2, [r4, #9]	@ tmp278,
 2044 00ee 1B78     		ldrb	r3, [r3]	@ tmp279,
 2045 00f0 9A42     		cmp	r2, r3	@ tmp278, tmp279
 2046 00f2 BCD1     		bne	.L144	@,
 363:../MY17/lib/MY17_Can_Library/MY17_Can_Library_Test.c ****       begin.error_raceaway == end.error_raceaway &&
 2047              		.loc 1 363 0
 2048 00f4 6B46     		mov	r3, sp	@ tmp372,
 2049 00f6 0131     		add	r1, r1, #1	@ tmp374,
 2050 00f8 5B18     		add	r3, r3, r1	@ tmp373, tmp372, tmp374
 2051 00fa A27A     		ldrb	r2, [r4, #10]	@ tmp282,
 2052 00fc 1B78     		ldrb	r3, [r3]	@ tmp283,
 2053 00fe 9A42     		cmp	r2, r3	@ tmp282, tmp283
 2054 0100 B5D1     		bne	.L144	@,
 364:../MY17/lib/MY17_Can_Library/MY17_Can_Library_Test.c ****       begin.error_user_selected_fault == end.error_user_selected_fault &&
 2055              		.loc 1 364 0
 2056 0102 6B46     		mov	r3, sp	@ tmp375,
 2057 0104 0131     		add	r1, r1, #1	@ tmp377,
 2058 0106 5B18     		add	r3, r3, r1	@ tmp376, tmp375, tmp377
 2059 0108 E27A     		ldrb	r2, [r4, #11]	@ tmp286,
 2060 010a 1B78     		ldrb	r3, [r3]	@ tmp287,
 2061 010c 9A42     		cmp	r2, r3	@ tmp286, tmp287
 2062 010e AED1     		bne	.L144	@,
 365:../MY17/lib/MY17_Can_Library/MY17_Can_Library_Test.c ****       begin.error_i2r_overload == end.error_i2r_overload &&
ARM GAS  /var/folders/9j/_txx49hn253_s3mnzkyxlj8m0000gp/T//ccxigpJH.s 			page 47


 2063              		.loc 1 365 0
 2064 0110 6B46     		mov	r3, sp	@ tmp378,
 2065 0112 0131     		add	r1, r1, #1	@ tmp380,
 2066 0114 5B18     		add	r3, r3, r1	@ tmp379, tmp378, tmp380
 2067 0116 227B     		ldrb	r2, [r4, #12]	@ tmp290,
 2068 0118 1B78     		ldrb	r3, [r3]	@ tmp291,
 2069 011a 9A42     		cmp	r2, r3	@ tmp290, tmp291
 2070 011c A7D1     		bne	.L144	@,
 366:../MY17/lib/MY17_Can_Library/MY17_Can_Library_Test.c ****       begin.error_incompatible_firmware == end.error_incompatible_firmware &&
 2071              		.loc 1 366 0
 2072 011e 6B46     		mov	r3, sp	@ tmp381,
 2073 0120 0131     		add	r1, r1, #1	@ tmp383,
 2074 0122 5B18     		add	r3, r3, r1	@ tmp382, tmp381, tmp383
 2075 0124 627B     		ldrb	r2, [r4, #13]	@ tmp294,
 2076 0126 1B78     		ldrb	r3, [r3]	@ tmp295,
 2077 0128 9A42     		cmp	r2, r3	@ tmp294, tmp295
 2078 012a A0D1     		bne	.L144	@,
 367:../MY17/lib/MY17_Can_Library/MY17_Can_Library_Test.c ****       begin.error_ballast_overload == end.error_ballast_overload &&
 2079              		.loc 1 367 0
 2080 012c 6B46     		mov	r3, sp	@ tmp384,
 2081 012e 0131     		add	r1, r1, #1	@ tmp386,
 2082 0130 5B18     		add	r3, r3, r1	@ tmp385, tmp384, tmp386
 2083 0132 A27B     		ldrb	r2, [r4, #14]	@ tmp298,
 2084 0134 1B78     		ldrb	r3, [r3]	@ tmp299,
 2085 0136 9A42     		cmp	r2, r3	@ tmp298, tmp299
 2086 0138 99D1     		bne	.L144	@,
 368:../MY17/lib/MY17_Can_Library/MY17_Can_Library_Test.c **** 
 2087              		.loc 1 368 0
 2088 013a 6B46     		mov	r3, sp	@ tmp387,
 2089 013c 0131     		add	r1, r1, #1	@ tmp389,
 2090 013e 5B18     		add	r3, r3, r1	@ tmp388, tmp387, tmp389
 2091 0140 E27B     		ldrb	r2, [r4, #15]	@ tmp302,
 2092 0142 1B78     		ldrb	r3, [r3]	@ tmp303,
 2093 0144 9A42     		cmp	r2, r3	@ tmp302, tmp303
 2094 0146 00D0     		beq	.LCB1748	@
 2095 0148 91E7     		b	.L144	@long jump	@
 2096              	.LCB1748:
 370:../MY17/lib/MY17_Can_Library/MY17_Can_Library_Test.c ****       begin.warning_illegal_status_emi == end.warning_illegal_status_emi &&
 2097              		.loc 1 370 0
 2098 014a 6B46     		mov	r3, sp	@ tmp390,
 2099 014c 0131     		add	r1, r1, #1	@ tmp392,
 2100 014e 5B18     		add	r3, r3, r1	@ tmp391, tmp390, tmp392
 2101 0150 227C     		ldrb	r2, [r4, #16]	@ tmp306,
 2102 0152 1B78     		ldrb	r3, [r3]	@ tmp307,
 2103 0154 9A42     		cmp	r2, r3	@ tmp306, tmp307
 2104 0156 00D0     		beq	.LCB1755	@
 2105 0158 89E7     		b	.L144	@long jump	@
 2106              	.LCB1755:
 371:../MY17/lib/MY17_Can_Library/MY17_Can_Library_Test.c ****       begin.warning_rfe_signal_inactive == end.warning_rfe_signal_inactive &&
 2107              		.loc 1 371 0
 2108 015a 6B46     		mov	r3, sp	@ tmp393,
 2109 015c 0131     		add	r1, r1, #1	@ tmp395,
 2110 015e 5B18     		add	r3, r3, r1	@ tmp394, tmp393, tmp395
 2111 0160 627C     		ldrb	r2, [r4, #17]	@ tmp310,
 2112 0162 1B78     		ldrb	r3, [r3]	@ tmp311,
 2113 0164 9A42     		cmp	r2, r3	@ tmp310, tmp311
 2114 0166 00D0     		beq	.LCB1762	@
ARM GAS  /var/folders/9j/_txx49hn253_s3mnzkyxlj8m0000gp/T//ccxigpJH.s 			page 48


 2115 0168 81E7     		b	.L144	@long jump	@
 2116              	.LCB1762:
 372:../MY17/lib/MY17_Can_Library/MY17_Can_Library_Test.c ****       begin.warning_power_voltage_low == end.warning_power_voltage_low &&
 2117              		.loc 1 372 0
 2118 016a 6B46     		mov	r3, sp	@ tmp396,
 2119 016c 0131     		add	r1, r1, #1	@ tmp398,
 2120 016e 5B18     		add	r3, r3, r1	@ tmp397, tmp396, tmp398
 2121 0170 A27C     		ldrb	r2, [r4, #18]	@ tmp314,
 2122 0172 1B78     		ldrb	r3, [r3]	@ tmp315,
 2123 0174 9A42     		cmp	r2, r3	@ tmp314, tmp315
 2124 0176 00D0     		beq	.LCB1769	@
 2125 0178 79E7     		b	.L144	@long jump	@
 2126              	.LCB1769:
 373:../MY17/lib/MY17_Can_Library/MY17_Can_Library_Test.c ****       begin.warning_device_temp_high == end.warning_device_temp_high &&
 2127              		.loc 1 373 0
 2128 017a 6B46     		mov	r3, sp	@ tmp399,
 2129 017c 0231     		add	r1, r1, #2	@ tmp401,
 2130 017e 5B18     		add	r3, r3, r1	@ tmp400, tmp399, tmp401
 2131 0180 227D     		ldrb	r2, [r4, #20]	@ tmp318,
 2132 0182 1B78     		ldrb	r3, [r3]	@ tmp319,
 2133 0184 9A42     		cmp	r2, r3	@ tmp318, tmp319
 2134 0186 00D0     		beq	.LCB1776	@
 2135 0188 71E7     		b	.L144	@long jump	@
 2136              	.LCB1776:
 374:../MY17/lib/MY17_Can_Library/MY17_Can_Library_Test.c ****       begin.warning_over_voltage == end.warning_over_voltage &&
 2137              		.loc 1 374 0
 2138 018a 6B46     		mov	r3, sp	@ tmp402,
 2139 018c 0131     		add	r1, r1, #1	@ tmp404,
 2140 018e 5B18     		add	r3, r3, r1	@ tmp403, tmp402, tmp404
 2141 0190 627D     		ldrb	r2, [r4, #21]	@ tmp322,
 2142 0192 1B78     		ldrb	r3, [r3]	@ tmp323,
 2143 0194 9A42     		cmp	r2, r3	@ tmp322, tmp323
 2144 0196 00D0     		beq	.LCB1783	@
 2145 0198 69E7     		b	.L144	@long jump	@
 2146              	.LCB1783:
 375:../MY17/lib/MY17_Can_Library/MY17_Can_Library_Test.c ****       begin.warning_over_current == end.warning_over_current &&
 2147              		.loc 1 375 0
 2148 019a 6B46     		mov	r3, sp	@ tmp405,
 2149 019c 0131     		add	r1, r1, #1	@ tmp407,
 2150 019e 5B18     		add	r3, r3, r1	@ tmp406, tmp405, tmp407
 2151 01a0 A27D     		ldrb	r2, [r4, #22]	@ tmp326,
 2152 01a2 1B78     		ldrb	r3, [r3]	@ tmp327,
 2153 01a4 9A42     		cmp	r2, r3	@ tmp326, tmp327
 2154 01a6 00D0     		beq	.LCB1790	@
 2155 01a8 61E7     		b	.L144	@long jump	@
 2156              	.LCB1790:
 376:../MY17/lib/MY17_Can_Library/MY17_Can_Library_Test.c ****       begin.warning_i2r_overload == end.warning_i2r_overload &&
 2157              		.loc 1 376 0
 2158 01aa 6B46     		mov	r3, sp	@ tmp408,
 2159 01ac 0131     		add	r1, r1, #1	@ tmp410,
 2160 01ae 5B18     		add	r3, r3, r1	@ tmp409, tmp408, tmp410
 2161 01b0 E27D     		ldrb	r2, [r4, #23]	@ tmp330,
 2162 01b2 1B78     		ldrb	r3, [r3]	@ tmp331,
 2163 01b4 9A42     		cmp	r2, r3	@ tmp330, tmp331
 2164 01b6 00D0     		beq	.LCB1797	@
 2165 01b8 59E7     		b	.L144	@long jump	@
 2166              	.LCB1797:
ARM GAS  /var/folders/9j/_txx49hn253_s3mnzkyxlj8m0000gp/T//ccxigpJH.s 			page 49


 377:../MY17/lib/MY17_Can_Library/MY17_Can_Library_Test.c ****       begin.warning_ballast_overload == end.warning_ballast_overload);
 2167              		.loc 1 377 0 discriminator 3
 2168 01ba 6B46     		mov	r3, sp	@ tmp411,
 2169 01bc 0131     		add	r1, r1, #1	@ tmp413,
 2170 01be 5B18     		add	r3, r3, r1	@ tmp412, tmp411, tmp413
 2171 01c0 227E     		ldrb	r2, [r4, #24]	@ tmp334,
 2172 01c2 1B78     		ldrb	r3, [r3]	@ tmp335,
 2173 01c4 9A42     		cmp	r2, r3	@ tmp334, tmp335
 2174 01c6 00D0     		beq	.LCB1804	@
 2175 01c8 51E7     		b	.L144	@long jump	@
 2176              	.LCB1804:
 379:../MY17/lib/MY17_Can_Library/MY17_Can_Library_Test.c **** }
 2177              		.loc 1 379 0
 2178 01ca 0248     		ldr	r0, .L170+4	@ D.5493,
 2179 01cc 4FE7     		b	.L144	@
 2180              	.L171:
 2181 01ce C046     		.align	2
 2182              	.L170:
 2183 01d0 50040000 		.word	.LC68
 2184 01d4 7C040000 		.word	.LC70
 2185              		.cfi_endproc
 2186              	.LFE17:
 2187              		.size	Can_MC_ErrorAndWarning_Test, .-Can_MC_ErrorAndWarning_Test
 2188              		.section	.text.Can_MC_State_Test,"ax",%progbits
 2189              		.align	2
 2190              		.global	Can_MC_State_Test
 2191              		.code	16
 2192              		.thumb_func
 2193              		.type	Can_MC_State_Test, %function
 2194              	Can_MC_State_Test:
 2195              	.LFB18:
 381:../MY17/lib/MY17_Can_Library/MY17_Can_Library_Test.c **** 
 382:../MY17/lib/MY17_Can_Library/MY17_Can_Library_Test.c **** void Can_MC_State_Test(PRINT print) {
 2196              		.loc 1 382 0
 2197              		.cfi_startproc
 2198              	.LVL146:
 383:../MY17/lib/MY17_Can_Library/MY17_Can_Library_Test.c ****   Can_MC_State_T begin;
 384:../MY17/lib/MY17_Can_Library/MY17_Can_Library_Test.c **** 
 385:../MY17/lib/MY17_Can_Library/MY17_Can_Library_Test.c ****       begin.hardware_enable = true;
 2199              		.loc 1 385 0
 2200 0000 0123     		mov	r3, #1	@ tmp157,
 386:../MY17/lib/MY17_Can_Library/MY17_Can_Library_Test.c ****       begin.drive_stopped = false;
 2201              		.loc 1 386 0
 2202 0002 0022     		mov	r2, #0	@ tmp160,
 382:../MY17/lib/MY17_Can_Library/MY17_Can_Library_Test.c ****   Can_MC_State_T begin;
 2203              		.loc 1 382 0
 2204 0004 30B5     		push	{r4, r5, lr}	@
 2205              		.cfi_def_cfa_offset 12
 2206              		.cfi_offset 4, -12
 2207              		.cfi_offset 5, -8
 2208              		.cfi_offset 14, -4
 2209 0006 93B0     		sub	sp, sp, #76	@,,
 2210              		.cfi_def_cfa_offset 88
 385:../MY17/lib/MY17_Can_Library/MY17_Can_Library_Test.c ****       begin.drive_stopped = false;
 2211              		.loc 1 385 0
 2212 0008 06AC     		add	r4, sp, #24	@ tmp318,,
 387:../MY17/lib/MY17_Can_Library/MY17_Can_Library_Test.c ****       begin.lim_plus_assigned = true;
ARM GAS  /var/folders/9j/_txx49hn253_s3mnzkyxlj8m0000gp/T//ccxigpJH.s 			page 50


 388:../MY17/lib/MY17_Can_Library/MY17_Can_Library_Test.c ****       begin.lim_minus_assigned = false;
 389:../MY17/lib/MY17_Can_Library/MY17_Can_Library_Test.c ****       begin.drive_ok = false;
 390:../MY17/lib/MY17_Can_Library/MY17_Can_Library_Test.c ****       begin.current_limit_to_continuous = true;
 391:../MY17/lib/MY17_Can_Library/MY17_Can_Library_Test.c ****       begin.speed_limited_torque_mode = false;
 392:../MY17/lib/MY17_Can_Library/MY17_Can_Library_Test.c ****       begin.position_control_mode = true;
 393:../MY17/lib/MY17_Can_Library/MY17_Can_Library_Test.c ****       begin.speed_control_mode = true;
 394:../MY17/lib/MY17_Can_Library/MY17_Can_Library_Test.c ****       begin.low_speed = false;
 395:../MY17/lib/MY17_Can_Library/MY17_Can_Library_Test.c ****       begin.btb_rdy = true;
 396:../MY17/lib/MY17_Can_Library/MY17_Can_Library_Test.c ****       begin.regen_active = false;
 397:../MY17/lib/MY17_Can_Library/MY17_Can_Library_Test.c ****       begin.inverted_command = true;
 398:../MY17/lib/MY17_Can_Library/MY17_Can_Library_Test.c ****       begin.speed_limited_via_switch = false;
 399:../MY17/lib/MY17_Can_Library/MY17_Can_Library_Test.c ****       begin.current_limited_via_switch = false;
 400:../MY17/lib/MY17_Can_Library/MY17_Can_Library_Test.c ****       begin.active_current_reduction = true;
 401:../MY17/lib/MY17_Can_Library/MY17_Can_Library_Test.c ****       begin.current_limited_via_speed = false;
 402:../MY17/lib/MY17_Can_Library/MY17_Can_Library_Test.c ****       begin.current_limited_via_igbt_temp = true;
 403:../MY17/lib/MY17_Can_Library/MY17_Can_Library_Test.c ****       begin.current_reduction_low_frequency = true;
 404:../MY17/lib/MY17_Can_Library/MY17_Can_Library_Test.c ****       begin.current_reduction_via_motor_temp = false;
 405:../MY17/lib/MY17_Can_Library/MY17_Can_Library_Test.c ****       begin.current_reduction_via_analog_input = false;
 406:../MY17/lib/MY17_Can_Library/MY17_Can_Library_Test.c ****       begin.handwheel_input_selected = true;
 407:../MY17/lib/MY17_Can_Library/MY17_Can_Library_Test.c **** 
 408:../MY17/lib/MY17_Can_Library/MY17_Can_Library_Test.c ****   BOILERPLATE(Can_MC_State);
 2213              		.loc 1 408 0
 2214 000a 03A9     		add	r1, sp, #12	@ tmp320,,
 382:../MY17/lib/MY17_Can_Library/MY17_Can_Library_Test.c ****   Can_MC_State_T begin;
 2215              		.loc 1 382 0
 2216 000c 051C     		mov	r5, r0	@ print, print
 2217              		.loc 1 408 0
 2218 000e 201C     		mov	r0, r4	@, tmp318
 2219              	.LVL147:
 385:../MY17/lib/MY17_Can_Library/MY17_Can_Library_Test.c ****       begin.drive_stopped = false;
 2220              		.loc 1 385 0
 2221 0010 2370     		strb	r3, [r4]	@ tmp157, begin.hardware_enable
 386:../MY17/lib/MY17_Can_Library/MY17_Can_Library_Test.c ****       begin.lim_plus_assigned = true;
 2222              		.loc 1 386 0
 2223 0012 6270     		strb	r2, [r4, #1]	@ tmp160, begin.drive_stopped
 387:../MY17/lib/MY17_Can_Library/MY17_Can_Library_Test.c ****       begin.lim_plus_assigned = true;
 2224              		.loc 1 387 0
 2225 0014 A370     		strb	r3, [r4, #2]	@ tmp157, begin.lim_plus_assigned
 388:../MY17/lib/MY17_Can_Library/MY17_Can_Library_Test.c ****       begin.drive_ok = false;
 2226              		.loc 1 388 0
 2227 0016 E270     		strb	r2, [r4, #3]	@ tmp160, begin.lim_minus_assigned
 389:../MY17/lib/MY17_Can_Library/MY17_Can_Library_Test.c ****       begin.current_limit_to_continuous = true;
 2228              		.loc 1 389 0
 2229 0018 2271     		strb	r2, [r4, #4]	@ tmp160, begin.drive_ok
 390:../MY17/lib/MY17_Can_Library/MY17_Can_Library_Test.c ****       begin.speed_limited_torque_mode = false;
 2230              		.loc 1 390 0
 2231 001a 6371     		strb	r3, [r4, #5]	@ tmp157, begin.current_limit_to_continuous
 391:../MY17/lib/MY17_Can_Library/MY17_Can_Library_Test.c ****       begin.position_control_mode = true;
 2232              		.loc 1 391 0
 2233 001c A271     		strb	r2, [r4, #6]	@ tmp160, begin.speed_limited_torque_mode
 392:../MY17/lib/MY17_Can_Library/MY17_Can_Library_Test.c ****       begin.speed_control_mode = true;
 2234              		.loc 1 392 0
 2235 001e E371     		strb	r3, [r4, #7]	@ tmp157, begin.position_control_mode
 393:../MY17/lib/MY17_Can_Library/MY17_Can_Library_Test.c ****       begin.low_speed = false;
 2236              		.loc 1 393 0
 2237 0020 2372     		strb	r3, [r4, #8]	@ tmp157, begin.speed_control_mode
 394:../MY17/lib/MY17_Can_Library/MY17_Can_Library_Test.c ****       begin.btb_rdy = true;
ARM GAS  /var/folders/9j/_txx49hn253_s3mnzkyxlj8m0000gp/T//ccxigpJH.s 			page 51


 2238              		.loc 1 394 0
 2239 0022 6272     		strb	r2, [r4, #9]	@ tmp160, begin.low_speed
 395:../MY17/lib/MY17_Can_Library/MY17_Can_Library_Test.c ****       begin.regen_active = false;
 2240              		.loc 1 395 0
 2241 0024 A372     		strb	r3, [r4, #10]	@ tmp157, begin.btb_rdy
 396:../MY17/lib/MY17_Can_Library/MY17_Can_Library_Test.c ****       begin.inverted_command = true;
 2242              		.loc 1 396 0
 2243 0026 E272     		strb	r2, [r4, #11]	@ tmp160, begin.regen_active
 397:../MY17/lib/MY17_Can_Library/MY17_Can_Library_Test.c ****       begin.speed_limited_via_switch = false;
 2244              		.loc 1 397 0
 2245 0028 2373     		strb	r3, [r4, #12]	@ tmp157, begin.inverted_command
 398:../MY17/lib/MY17_Can_Library/MY17_Can_Library_Test.c ****       begin.current_limited_via_switch = false;
 2246              		.loc 1 398 0
 2247 002a 6273     		strb	r2, [r4, #13]	@ tmp160, begin.speed_limited_via_switch
 399:../MY17/lib/MY17_Can_Library/MY17_Can_Library_Test.c ****       begin.active_current_reduction = true;
 2248              		.loc 1 399 0
 2249 002c A273     		strb	r2, [r4, #14]	@ tmp160, begin.current_limited_via_switch
 400:../MY17/lib/MY17_Can_Library/MY17_Can_Library_Test.c ****       begin.current_limited_via_speed = false;
 2250              		.loc 1 400 0
 2251 002e E373     		strb	r3, [r4, #15]	@ tmp157, begin.active_current_reduction
 401:../MY17/lib/MY17_Can_Library/MY17_Can_Library_Test.c ****       begin.current_limited_via_igbt_temp = true;
 2252              		.loc 1 401 0
 2253 0030 2274     		strb	r2, [r4, #16]	@ tmp160, begin.current_limited_via_speed
 402:../MY17/lib/MY17_Can_Library/MY17_Can_Library_Test.c ****       begin.current_reduction_low_frequency = true;
 2254              		.loc 1 402 0
 2255 0032 6374     		strb	r3, [r4, #17]	@ tmp157, begin.current_limited_via_igbt_temp
 403:../MY17/lib/MY17_Can_Library/MY17_Can_Library_Test.c ****       begin.current_reduction_via_motor_temp = false;
 2256              		.loc 1 403 0
 2257 0034 A374     		strb	r3, [r4, #18]	@ tmp157, begin.current_reduction_low_frequency
 404:../MY17/lib/MY17_Can_Library/MY17_Can_Library_Test.c ****       begin.current_reduction_via_analog_input = false;
 2258              		.loc 1 404 0
 2259 0036 E274     		strb	r2, [r4, #19]	@ tmp160, begin.current_reduction_via_motor_temp
 405:../MY17/lib/MY17_Can_Library/MY17_Can_Library_Test.c ****       begin.handwheel_input_selected = true;
 2260              		.loc 1 405 0
 2261 0038 2275     		strb	r2, [r4, #20]	@ tmp160, begin.current_reduction_via_analog_input
 406:../MY17/lib/MY17_Can_Library/MY17_Can_Library_Test.c **** 
 2262              		.loc 1 406 0
 2263 003a 6375     		strb	r3, [r4, #21]	@ tmp157, begin.handwheel_input_selected
 2264              		.loc 1 408 0
 2265 003c FFF7FEFF 		bl	Can_MC_State_ToCan	@
 2266              	.LVL148:
 2267 0040 0F20     		mov	r0, #15	@ tmp321,
 2268 0042 0022     		mov	r2, #0	@ tmp224,
 2269 0044 0023     		mov	r3, #0	@,
 2270 0046 6844     		add	r0, r0, sp	@ tmp321,
 2271 0048 6946     		mov	r1, sp	@,
 2272 004a 0092     		str	r2, [sp]	@ tmp224, end_bitstring
 2273 004c 0193     		str	r3, [sp, #4]	@ tmp224,
 2274 004e FFF7FEFF 		bl	to_bitstring	@
 2275              	.LVL149:
 2276 0052 0CA9     		add	r1, sp, #48	@ tmp323,,
 2277 0054 03A8     		add	r0, sp, #12	@ tmp322,,
 2278 0056 FFF7FEFF 		bl	Can_MC_State_FromCan	@
 2279              	.LVL150:
 409:../MY17/lib/MY17_Can_Library/MY17_Can_Library_Test.c **** 
 410:../MY17/lib/MY17_Can_Library/MY17_Can_Library_Test.c ****   bool equal = (
 411:../MY17/lib/MY17_Can_Library/MY17_Can_Library_Test.c ****       begin.hardware_enable == end.hardware_enable &&
ARM GAS  /var/folders/9j/_txx49hn253_s3mnzkyxlj8m0000gp/T//ccxigpJH.s 			page 52


 412:../MY17/lib/MY17_Can_Library/MY17_Can_Library_Test.c ****       begin.drive_stopped == end.drive_stopped &&
 413:../MY17/lib/MY17_Can_Library/MY17_Can_Library_Test.c ****       begin.lim_plus_assigned == end.lim_plus_assigned &&
 414:../MY17/lib/MY17_Can_Library/MY17_Can_Library_Test.c ****       begin.lim_minus_assigned == end.lim_minus_assigned &&
 415:../MY17/lib/MY17_Can_Library/MY17_Can_Library_Test.c ****       begin.drive_ok == end.drive_ok &&
 416:../MY17/lib/MY17_Can_Library/MY17_Can_Library_Test.c ****       begin.current_limit_to_continuous == end.current_limit_to_continuous &&
 417:../MY17/lib/MY17_Can_Library/MY17_Can_Library_Test.c ****       begin.speed_limited_torque_mode == end.speed_limited_torque_mode &&
 418:../MY17/lib/MY17_Can_Library/MY17_Can_Library_Test.c ****       begin.position_control_mode == end.position_control_mode &&
 419:../MY17/lib/MY17_Can_Library/MY17_Can_Library_Test.c ****       begin.speed_control_mode == end.speed_control_mode &&
 420:../MY17/lib/MY17_Can_Library/MY17_Can_Library_Test.c ****       begin.low_speed == end.low_speed &&
 421:../MY17/lib/MY17_Can_Library/MY17_Can_Library_Test.c ****       begin.btb_rdy == end.btb_rdy &&
 422:../MY17/lib/MY17_Can_Library/MY17_Can_Library_Test.c ****       begin.regen_active == end.regen_active &&
 423:../MY17/lib/MY17_Can_Library/MY17_Can_Library_Test.c ****       begin.inverted_command == end.inverted_command &&
 424:../MY17/lib/MY17_Can_Library/MY17_Can_Library_Test.c ****       begin.speed_limited_via_switch == end.speed_limited_via_switch &&
 425:../MY17/lib/MY17_Can_Library/MY17_Can_Library_Test.c ****       begin.current_limited_via_switch == end.current_limited_via_switch &&
 426:../MY17/lib/MY17_Can_Library/MY17_Can_Library_Test.c ****       begin.active_current_reduction == end.active_current_reduction &&
 427:../MY17/lib/MY17_Can_Library/MY17_Can_Library_Test.c ****       begin.current_limited_via_speed == end.current_limited_via_speed &&
 428:../MY17/lib/MY17_Can_Library/MY17_Can_Library_Test.c ****       begin.current_limited_via_igbt_temp
 429:../MY17/lib/MY17_Can_Library/MY17_Can_Library_Test.c ****         == end.current_limited_via_igbt_temp &&
 430:../MY17/lib/MY17_Can_Library/MY17_Can_Library_Test.c ****       begin.current_reduction_low_frequency
 431:../MY17/lib/MY17_Can_Library/MY17_Can_Library_Test.c ****         == end.current_reduction_low_frequency &&
 432:../MY17/lib/MY17_Can_Library/MY17_Can_Library_Test.c ****       begin.current_reduction_via_motor_temp
 433:../MY17/lib/MY17_Can_Library/MY17_Can_Library_Test.c ****         == end.current_reduction_via_motor_temp &&
 434:../MY17/lib/MY17_Can_Library/MY17_Can_Library_Test.c ****       begin.current_reduction_via_analog_input
 435:../MY17/lib/MY17_Can_Library/MY17_Can_Library_Test.c ****         == end.current_reduction_via_analog_input &&
 2280              		.loc 1 435 0
 2281 005a 6B46     		mov	r3, sp	@ tmp324,
 2282 005c 3021     		mov	r1, #48	@ tmp326,
 2283 005e 5B18     		add	r3, r3, r1	@ tmp325, tmp324, tmp326
 2284 0060 2278     		ldrb	r2, [r4]	@ begin, begin
 2285 0062 1B78     		ldrb	r3, [r3]	@ end, end
 2286 0064 9A42     		cmp	r2, r3	@ begin, end
 2287 0066 03D0     		beq	.L196	@,
 2288              	.L179:
 436:../MY17/lib/MY17_Can_Library/MY17_Can_Library_Test.c ****       begin.handwheel_input_selected == end.handwheel_input_selected);
 437:../MY17/lib/MY17_Can_Library/MY17_Can_Library_Test.c **** 
 438:../MY17/lib/MY17_Can_Library/MY17_Can_Library_Test.c ****   print(equal ? "MC_State_PASS\r\n" : "MC_State_FAIL!!!!!!!!!!!!!!!!\r\n");
 2289              		.loc 1 438 0
 2290 0068 5048     		ldr	r0, .L197	@ D.5499,
 2291              	.L173:
 2292              		.loc 1 438 0 is_stmt 0 discriminator 4
 2293 006a A847     		blx	r5	@ print
 2294              	.LVL151:
 439:../MY17/lib/MY17_Can_Library/MY17_Can_Library_Test.c **** }
 2295              		.loc 1 439 0 is_stmt 1 discriminator 4
 2296 006c 13B0     		add	sp, sp, #76	@,,
 2297              		@ sp needed	@
 2298              	.LVL152:
 2299 006e 30BD     		pop	{r4, r5, pc}
 2300              	.LVL153:
 2301              	.L196:
 411:../MY17/lib/MY17_Can_Library/MY17_Can_Library_Test.c ****       begin.drive_stopped == end.drive_stopped &&
 2302              		.loc 1 411 0
 2303 0070 6B46     		mov	r3, sp	@ tmp327,
 2304 0072 0131     		add	r1, r1, #1	@ tmp329,
 2305 0074 5B18     		add	r3, r3, r1	@ tmp328, tmp327, tmp329
 2306 0076 6278     		ldrb	r2, [r4, #1]	@ tmp236,
 2307 0078 1B78     		ldrb	r3, [r3]	@ tmp237,
ARM GAS  /var/folders/9j/_txx49hn253_s3mnzkyxlj8m0000gp/T//ccxigpJH.s 			page 53


 2308 007a 9A42     		cmp	r2, r3	@ tmp236, tmp237
 2309 007c F4D1     		bne	.L179	@,
 412:../MY17/lib/MY17_Can_Library/MY17_Can_Library_Test.c ****       begin.lim_plus_assigned == end.lim_plus_assigned &&
 2310              		.loc 1 412 0
 2311 007e 6B46     		mov	r3, sp	@ tmp330,
 2312 0080 0131     		add	r1, r1, #1	@ tmp332,
 2313 0082 5B18     		add	r3, r3, r1	@ tmp331, tmp330, tmp332
 2314 0084 A278     		ldrb	r2, [r4, #2]	@ tmp240,
 2315 0086 1B78     		ldrb	r3, [r3]	@ tmp241,
 2316 0088 9A42     		cmp	r2, r3	@ tmp240, tmp241
 2317 008a EDD1     		bne	.L179	@,
 413:../MY17/lib/MY17_Can_Library/MY17_Can_Library_Test.c ****       begin.lim_minus_assigned == end.lim_minus_assigned &&
 2318              		.loc 1 413 0
 2319 008c 6B46     		mov	r3, sp	@ tmp333,
 2320 008e 0131     		add	r1, r1, #1	@ tmp335,
 2321 0090 5B18     		add	r3, r3, r1	@ tmp334, tmp333, tmp335
 2322 0092 E278     		ldrb	r2, [r4, #3]	@ tmp244,
 2323 0094 1B78     		ldrb	r3, [r3]	@ tmp245,
 2324 0096 9A42     		cmp	r2, r3	@ tmp244, tmp245
 2325 0098 E6D1     		bne	.L179	@,
 414:../MY17/lib/MY17_Can_Library/MY17_Can_Library_Test.c ****       begin.drive_ok == end.drive_ok &&
 2326              		.loc 1 414 0
 2327 009a 6B46     		mov	r3, sp	@ tmp336,
 2328 009c 0131     		add	r1, r1, #1	@ tmp338,
 2329 009e 5B18     		add	r3, r3, r1	@ tmp337, tmp336, tmp338
 2330 00a0 2279     		ldrb	r2, [r4, #4]	@ tmp248,
 2331 00a2 1B78     		ldrb	r3, [r3]	@ tmp249,
 2332 00a4 9A42     		cmp	r2, r3	@ tmp248, tmp249
 2333 00a6 DFD1     		bne	.L179	@,
 415:../MY17/lib/MY17_Can_Library/MY17_Can_Library_Test.c ****       begin.current_limit_to_continuous == end.current_limit_to_continuous &&
 2334              		.loc 1 415 0
 2335 00a8 6B46     		mov	r3, sp	@ tmp339,
 2336 00aa 0131     		add	r1, r1, #1	@ tmp341,
 2337 00ac 5B18     		add	r3, r3, r1	@ tmp340, tmp339, tmp341
 2338 00ae 6279     		ldrb	r2, [r4, #5]	@ tmp252,
 2339 00b0 1B78     		ldrb	r3, [r3]	@ tmp253,
 2340 00b2 9A42     		cmp	r2, r3	@ tmp252, tmp253
 2341 00b4 D8D1     		bne	.L179	@,
 416:../MY17/lib/MY17_Can_Library/MY17_Can_Library_Test.c ****       begin.speed_limited_torque_mode == end.speed_limited_torque_mode &&
 2342              		.loc 1 416 0
 2343 00b6 6B46     		mov	r3, sp	@ tmp342,
 2344 00b8 0131     		add	r1, r1, #1	@ tmp344,
 2345 00ba 5B18     		add	r3, r3, r1	@ tmp343, tmp342, tmp344
 2346 00bc A279     		ldrb	r2, [r4, #6]	@ tmp256,
 2347 00be 1B78     		ldrb	r3, [r3]	@ tmp257,
 438:../MY17/lib/MY17_Can_Library/MY17_Can_Library_Test.c **** }
 2348              		.loc 1 438 0
 2349 00c0 3A48     		ldr	r0, .L197	@ D.5499,
 416:../MY17/lib/MY17_Can_Library/MY17_Can_Library_Test.c ****       begin.speed_limited_torque_mode == end.speed_limited_torque_mode &&
 2350              		.loc 1 416 0
 2351 00c2 9A42     		cmp	r2, r3	@ tmp256, tmp257
 2352 00c4 D1D1     		bne	.L173	@,
 417:../MY17/lib/MY17_Can_Library/MY17_Can_Library_Test.c ****       begin.position_control_mode == end.position_control_mode &&
 2353              		.loc 1 417 0
 2354 00c6 6B46     		mov	r3, sp	@ tmp345,
 2355 00c8 0131     		add	r1, r1, #1	@ tmp347,
 2356 00ca 5B18     		add	r3, r3, r1	@ tmp346, tmp345, tmp347
ARM GAS  /var/folders/9j/_txx49hn253_s3mnzkyxlj8m0000gp/T//ccxigpJH.s 			page 54


 2357 00cc E279     		ldrb	r2, [r4, #7]	@ tmp260,
 2358 00ce 1B78     		ldrb	r3, [r3]	@ tmp261,
 2359 00d0 9A42     		cmp	r2, r3	@ tmp260, tmp261
 2360 00d2 CAD1     		bne	.L173	@,
 418:../MY17/lib/MY17_Can_Library/MY17_Can_Library_Test.c ****       begin.speed_control_mode == end.speed_control_mode &&
 2361              		.loc 1 418 0
 2362 00d4 6B46     		mov	r3, sp	@ tmp348,
 2363 00d6 0131     		add	r1, r1, #1	@ tmp350,
 2364 00d8 5B18     		add	r3, r3, r1	@ tmp349, tmp348, tmp350
 2365 00da 227A     		ldrb	r2, [r4, #8]	@ tmp264,
 2366 00dc 1B78     		ldrb	r3, [r3]	@ tmp265,
 2367 00de 9A42     		cmp	r2, r3	@ tmp264, tmp265
 2368 00e0 C3D1     		bne	.L173	@,
 419:../MY17/lib/MY17_Can_Library/MY17_Can_Library_Test.c ****       begin.low_speed == end.low_speed &&
 2369              		.loc 1 419 0
 2370 00e2 6B46     		mov	r3, sp	@ tmp351,
 2371 00e4 0131     		add	r1, r1, #1	@ tmp353,
 2372 00e6 5B18     		add	r3, r3, r1	@ tmp352, tmp351, tmp353
 2373 00e8 627A     		ldrb	r2, [r4, #9]	@ tmp268,
 2374 00ea 1B78     		ldrb	r3, [r3]	@ tmp269,
 2375 00ec 9A42     		cmp	r2, r3	@ tmp268, tmp269
 2376 00ee BCD1     		bne	.L173	@,
 420:../MY17/lib/MY17_Can_Library/MY17_Can_Library_Test.c ****       begin.btb_rdy == end.btb_rdy &&
 2377              		.loc 1 420 0
 2378 00f0 6B46     		mov	r3, sp	@ tmp354,
 2379 00f2 0131     		add	r1, r1, #1	@ tmp356,
 2380 00f4 5B18     		add	r3, r3, r1	@ tmp355, tmp354, tmp356
 2381 00f6 A27A     		ldrb	r2, [r4, #10]	@ tmp272,
 2382 00f8 1B78     		ldrb	r3, [r3]	@ tmp273,
 2383 00fa 9A42     		cmp	r2, r3	@ tmp272, tmp273
 2384 00fc B5D1     		bne	.L173	@,
 421:../MY17/lib/MY17_Can_Library/MY17_Can_Library_Test.c ****       begin.regen_active == end.regen_active &&
 2385              		.loc 1 421 0
 2386 00fe 6B46     		mov	r3, sp	@ tmp357,
 2387 0100 0131     		add	r1, r1, #1	@ tmp359,
 2388 0102 5B18     		add	r3, r3, r1	@ tmp358, tmp357, tmp359
 2389 0104 E27A     		ldrb	r2, [r4, #11]	@ tmp276,
 2390 0106 1B78     		ldrb	r3, [r3]	@ tmp277,
 2391 0108 9A42     		cmp	r2, r3	@ tmp276, tmp277
 2392 010a AED1     		bne	.L173	@,
 422:../MY17/lib/MY17_Can_Library/MY17_Can_Library_Test.c ****       begin.inverted_command == end.inverted_command &&
 2393              		.loc 1 422 0
 2394 010c 6B46     		mov	r3, sp	@ tmp360,
 2395 010e 0131     		add	r1, r1, #1	@ tmp362,
 2396 0110 5B18     		add	r3, r3, r1	@ tmp361, tmp360, tmp362
 2397 0112 227B     		ldrb	r2, [r4, #12]	@ tmp280,
 2398 0114 1B78     		ldrb	r3, [r3]	@ tmp281,
 2399 0116 9A42     		cmp	r2, r3	@ tmp280, tmp281
 2400 0118 A7D1     		bne	.L173	@,
 423:../MY17/lib/MY17_Can_Library/MY17_Can_Library_Test.c ****       begin.speed_limited_via_switch == end.speed_limited_via_switch &&
 2401              		.loc 1 423 0
 2402 011a 6B46     		mov	r3, sp	@ tmp363,
 2403 011c 0131     		add	r1, r1, #1	@ tmp365,
 2404 011e 5B18     		add	r3, r3, r1	@ tmp364, tmp363, tmp365
 2405 0120 627B     		ldrb	r2, [r4, #13]	@ tmp284,
 2406 0122 1B78     		ldrb	r3, [r3]	@ tmp285,
 2407 0124 9A42     		cmp	r2, r3	@ tmp284, tmp285
ARM GAS  /var/folders/9j/_txx49hn253_s3mnzkyxlj8m0000gp/T//ccxigpJH.s 			page 55


 2408 0126 A0D1     		bne	.L173	@,
 424:../MY17/lib/MY17_Can_Library/MY17_Can_Library_Test.c ****       begin.current_limited_via_switch == end.current_limited_via_switch &&
 2409              		.loc 1 424 0
 2410 0128 6B46     		mov	r3, sp	@ tmp366,
 2411 012a 0131     		add	r1, r1, #1	@ tmp368,
 2412 012c 5B18     		add	r3, r3, r1	@ tmp367, tmp366, tmp368
 2413 012e A27B     		ldrb	r2, [r4, #14]	@ tmp288,
 2414 0130 1B78     		ldrb	r3, [r3]	@ tmp289,
 2415 0132 9A42     		cmp	r2, r3	@ tmp288, tmp289
 2416 0134 99D1     		bne	.L173	@,
 425:../MY17/lib/MY17_Can_Library/MY17_Can_Library_Test.c ****       begin.active_current_reduction == end.active_current_reduction &&
 2417              		.loc 1 425 0
 2418 0136 6B46     		mov	r3, sp	@ tmp369,
 2419 0138 0131     		add	r1, r1, #1	@ tmp371,
 2420 013a 5B18     		add	r3, r3, r1	@ tmp370, tmp369, tmp371
 2421 013c E27B     		ldrb	r2, [r4, #15]	@ tmp292,
 2422 013e 1B78     		ldrb	r3, [r3]	@ tmp293,
 2423 0140 9A42     		cmp	r2, r3	@ tmp292, tmp293
 2424 0142 00D0     		beq	.LCB2003	@
 2425 0144 91E7     		b	.L173	@long jump	@
 2426              	.LCB2003:
 426:../MY17/lib/MY17_Can_Library/MY17_Can_Library_Test.c ****       begin.current_limited_via_speed == end.current_limited_via_speed &&
 2427              		.loc 1 426 0
 2428 0146 6B46     		mov	r3, sp	@ tmp372,
 2429 0148 0131     		add	r1, r1, #1	@ tmp374,
 2430 014a 5B18     		add	r3, r3, r1	@ tmp373, tmp372, tmp374
 2431 014c 227C     		ldrb	r2, [r4, #16]	@ tmp296,
 2432 014e 1B78     		ldrb	r3, [r3]	@ tmp297,
 2433 0150 9A42     		cmp	r2, r3	@ tmp296, tmp297
 2434 0152 00D0     		beq	.LCB2010	@
 2435 0154 89E7     		b	.L173	@long jump	@
 2436              	.LCB2010:
 427:../MY17/lib/MY17_Can_Library/MY17_Can_Library_Test.c ****       begin.current_limited_via_igbt_temp
 2437              		.loc 1 427 0
 2438 0156 6B46     		mov	r3, sp	@ tmp375,
 2439 0158 0131     		add	r1, r1, #1	@ tmp377,
 2440 015a 5B18     		add	r3, r3, r1	@ tmp376, tmp375, tmp377
 2441 015c 627C     		ldrb	r2, [r4, #17]	@ tmp300,
 2442 015e 1B78     		ldrb	r3, [r3]	@ tmp301,
 2443 0160 9A42     		cmp	r2, r3	@ tmp300, tmp301
 2444 0162 00D0     		beq	.LCB2017	@
 2445 0164 81E7     		b	.L173	@long jump	@
 2446              	.LCB2017:
 429:../MY17/lib/MY17_Can_Library/MY17_Can_Library_Test.c ****       begin.current_reduction_low_frequency
 2447              		.loc 1 429 0
 2448 0166 6B46     		mov	r3, sp	@ tmp378,
 2449 0168 0131     		add	r1, r1, #1	@ tmp380,
 2450 016a 5B18     		add	r3, r3, r1	@ tmp379, tmp378, tmp380
 2451 016c A27C     		ldrb	r2, [r4, #18]	@ tmp304,
 2452 016e 1B78     		ldrb	r3, [r3]	@ tmp305,
 2453 0170 9A42     		cmp	r2, r3	@ tmp304, tmp305
 2454 0172 00D0     		beq	.LCB2024	@
 2455 0174 79E7     		b	.L173	@long jump	@
 2456              	.LCB2024:
 431:../MY17/lib/MY17_Can_Library/MY17_Can_Library_Test.c ****       begin.current_reduction_via_motor_temp
 2457              		.loc 1 431 0
 2458 0176 6B46     		mov	r3, sp	@ tmp381,
ARM GAS  /var/folders/9j/_txx49hn253_s3mnzkyxlj8m0000gp/T//ccxigpJH.s 			page 56


 2459 0178 0131     		add	r1, r1, #1	@ tmp383,
 2460 017a 5B18     		add	r3, r3, r1	@ tmp382, tmp381, tmp383
 2461 017c E27C     		ldrb	r2, [r4, #19]	@ tmp308,
 2462 017e 1B78     		ldrb	r3, [r3]	@ tmp309,
 2463 0180 9A42     		cmp	r2, r3	@ tmp308, tmp309
 2464 0182 00D0     		beq	.LCB2031	@
 2465 0184 71E7     		b	.L173	@long jump	@
 2466              	.LCB2031:
 433:../MY17/lib/MY17_Can_Library/MY17_Can_Library_Test.c ****       begin.current_reduction_via_analog_input
 2467              		.loc 1 433 0
 2468 0186 6B46     		mov	r3, sp	@ tmp384,
 2469 0188 0131     		add	r1, r1, #1	@ tmp386,
 2470 018a 5B18     		add	r3, r3, r1	@ tmp385, tmp384, tmp386
 2471 018c 227D     		ldrb	r2, [r4, #20]	@ tmp312,
 2472 018e 1B78     		ldrb	r3, [r3]	@ tmp313,
 2473 0190 9A42     		cmp	r2, r3	@ tmp312, tmp313
 2474 0192 00D0     		beq	.LCB2038	@
 2475 0194 69E7     		b	.L173	@long jump	@
 2476              	.LCB2038:
 435:../MY17/lib/MY17_Can_Library/MY17_Can_Library_Test.c ****       begin.handwheel_input_selected == end.handwheel_input_selected);
 2477              		.loc 1 435 0 discriminator 3
 2478 0196 6B46     		mov	r3, sp	@ tmp387,
 2479 0198 0131     		add	r1, r1, #1	@ tmp389,
 2480 019a 5B18     		add	r3, r3, r1	@ tmp388, tmp387, tmp389
 2481 019c 627D     		ldrb	r2, [r4, #21]	@ tmp316,
 2482 019e 1B78     		ldrb	r3, [r3]	@ tmp317,
 2483 01a0 9A42     		cmp	r2, r3	@ tmp316, tmp317
 2484 01a2 00D0     		beq	.LCB2045	@
 2485 01a4 61E7     		b	.L173	@long jump	@
 2486              	.LCB2045:
 438:../MY17/lib/MY17_Can_Library/MY17_Can_Library_Test.c **** }
 2487              		.loc 1 438 0
 2488 01a6 0248     		ldr	r0, .L197+4	@ D.5499,
 2489 01a8 5FE7     		b	.L173	@
 2490              	.L198:
 2491 01aa C046     		.align	2
 2492              	.L197:
 2493 01ac A8040000 		.word	.LC74
 2494 01b0 98040000 		.word	.LC72
 2495              		.cfi_endproc
 2496              	.LFE18:
 2497              		.size	Can_MC_State_Test, .-Can_MC_State_Test
 2498              		.section	.text.Can_CurrentSensor_Current_Test,"ax",%progbits
 2499              		.align	2
 2500              		.global	Can_CurrentSensor_Current_Test
 2501              		.code	16
 2502              		.thumb_func
 2503              		.type	Can_CurrentSensor_Current_Test, %function
 2504              	Can_CurrentSensor_Current_Test:
 2505              	.LFB19:
 440:../MY17/lib/MY17_Can_Library/MY17_Can_Library_Test.c **** 
 441:../MY17/lib/MY17_Can_Library/MY17_Can_Library_Test.c **** void Can_CurrentSensor_Current_Test(PRINT print) {
 2506              		.loc 1 441 0
 2507              		.cfi_startproc
 2508              	.LVL154:
 2509 0000 10B5     		push	{r4, lr}	@
 2510              		.cfi_def_cfa_offset 8
ARM GAS  /var/folders/9j/_txx49hn253_s3mnzkyxlj8m0000gp/T//ccxigpJH.s 			page 57


 2511              		.cfi_offset 4, -8
 2512              		.cfi_offset 14, -4
 442:../MY17/lib/MY17_Can_Library/MY17_Can_Library_Test.c ****   Can_CurrentSensor_Current_T begin;
 443:../MY17/lib/MY17_Can_Library/MY17_Can_Library_Test.c ****   begin.current_mA = -15000;
 2513              		.loc 1 443 0
 2514 0002 0F4B     		ldr	r3, .L202	@ tmp114,
 441:../MY17/lib/MY17_Can_Library/MY17_Can_Library_Test.c ****   Can_CurrentSensor_Current_T begin;
 2515              		.loc 1 441 0
 2516 0004 88B0     		sub	sp, sp, #32	@,,
 2517              		.cfi_def_cfa_offset 40
 444:../MY17/lib/MY17_Can_Library/MY17_Can_Library_Test.c **** 
 445:../MY17/lib/MY17_Can_Library/MY17_Can_Library_Test.c ****   BOILERPLATE(Can_CurrentSensor_Current);
 2518              		.loc 1 445 0
 2519 0006 05A9     		add	r1, sp, #20	@ tmp125,,
 441:../MY17/lib/MY17_Can_Library/MY17_Can_Library_Test.c ****   Can_CurrentSensor_Current_T begin;
 2520              		.loc 1 441 0
 2521 0008 041C     		mov	r4, r0	@ print, print
 2522              		.loc 1 445 0
 2523 000a 6846     		mov	r0, sp	@,
 2524              	.LVL155:
 443:../MY17/lib/MY17_Can_Library/MY17_Can_Library_Test.c **** 
 2525              		.loc 1 443 0
 2526 000c 0093     		str	r3, [sp]	@ tmp114, begin.current_mA
 2527              		.loc 1 445 0
 2528 000e FFF7FEFF 		bl	Can_CurrentSensor_Current_ToCan	@
 2529              	.LVL156:
 2530 0012 1720     		mov	r0, #23	@ tmp126,
 2531 0014 0022     		mov	r2, #0	@ tmp117,
 2532 0016 0023     		mov	r3, #0	@,
 2533 0018 6844     		add	r0, r0, sp	@ tmp126,
 2534 001a 02A9     		add	r1, sp, #8	@,,
 2535 001c 0292     		str	r2, [sp, #8]	@ tmp117, end_bitstring
 2536 001e 0393     		str	r3, [sp, #12]	@ tmp117,
 2537 0020 FFF7FEFF 		bl	to_bitstring	@
 2538              	.LVL157:
 2539 0024 05A8     		add	r0, sp, #20	@ tmp127,,
 2540 0026 01A9     		add	r1, sp, #4	@,,
 2541 0028 FFF7FEFF 		bl	Can_CurrentSensor_Current_FromCan	@
 2542              	.LVL158:
 446:../MY17/lib/MY17_Can_Library/MY17_Can_Library_Test.c **** 
 447:../MY17/lib/MY17_Can_Library/MY17_Can_Library_Test.c ****   bool equal = begin.current_mA == end.current_mA;
 448:../MY17/lib/MY17_Can_Library/MY17_Can_Library_Test.c ****   print(equal ? "CurrentSensor_Current_PASS\r\n" : "CurrentSensor_Current_FAIL!!!!!!!!!!!!!!!!\r\n"
 2543              		.loc 1 448 0
 2544 002c 009B     		ldr	r3, [sp]	@ tmp128, begin.current_mA
 2545 002e 019A     		ldr	r2, [sp, #4]	@ tmp129, end.current_mA
 2546 0030 9342     		cmp	r3, r2	@ tmp128, tmp129
 2547 0032 03D0     		beq	.L201	@,
 2548 0034 0348     		ldr	r0, .L202+4	@ D.5505,
 2549              	.L200:
 2550              		.loc 1 448 0 is_stmt 0 discriminator 4
 2551 0036 A047     		blx	r4	@ print
 2552              	.LVL159:
 449:../MY17/lib/MY17_Can_Library/MY17_Can_Library_Test.c **** }
 2553              		.loc 1 449 0 is_stmt 1 discriminator 4
 2554 0038 08B0     		add	sp, sp, #32	@,,
 2555              		@ sp needed	@
 2556              	.LVL160:
ARM GAS  /var/folders/9j/_txx49hn253_s3mnzkyxlj8m0000gp/T//ccxigpJH.s 			page 58


 2557 003a 10BD     		pop	{r4, pc}
 2558              	.LVL161:
 2559              	.L201:
 448:../MY17/lib/MY17_Can_Library/MY17_Can_Library_Test.c **** }
 2560              		.loc 1 448 0
 2561 003c 0248     		ldr	r0, .L202+8	@ D.5505,
 2562 003e FAE7     		b	.L200	@
 2563              	.L203:
 2564              		.align	2
 2565              	.L202:
 2566 0040 68C5FFFF 		.word	-15000
 2567 0044 E8040000 		.word	.LC78
 2568 0048 C8040000 		.word	.LC76
 2569              		.cfi_endproc
 2570              	.LFE19:
 2571              		.size	Can_CurrentSensor_Current_Test, .-Can_CurrentSensor_Current_Test
 2572              		.section	.text.Can_CurrentSensor_Voltage_Test,"ax",%progbits
 2573              		.align	2
 2574              		.global	Can_CurrentSensor_Voltage_Test
 2575              		.code	16
 2576              		.thumb_func
 2577              		.type	Can_CurrentSensor_Voltage_Test, %function
 2578              	Can_CurrentSensor_Voltage_Test:
 2579              	.LFB20:
 450:../MY17/lib/MY17_Can_Library/MY17_Can_Library_Test.c **** 
 451:../MY17/lib/MY17_Can_Library/MY17_Can_Library_Test.c **** 
 452:../MY17/lib/MY17_Can_Library/MY17_Can_Library_Test.c **** void Can_CurrentSensor_Voltage_Test(PRINT print) {
 2580              		.loc 1 452 0
 2581              		.cfi_startproc
 2582              	.LVL162:
 2583 0000 10B5     		push	{r4, lr}	@
 2584              		.cfi_def_cfa_offset 8
 2585              		.cfi_offset 4, -8
 2586              		.cfi_offset 14, -4
 453:../MY17/lib/MY17_Can_Library/MY17_Can_Library_Test.c ****   Can_CurrentSensor_Voltage_T begin;
 454:../MY17/lib/MY17_Can_Library/MY17_Can_Library_Test.c ****   begin.voltage_mV = 300000;
 2587              		.loc 1 454 0
 2588 0002 0F4B     		ldr	r3, .L207	@ tmp114,
 452:../MY17/lib/MY17_Can_Library/MY17_Can_Library_Test.c ****   Can_CurrentSensor_Voltage_T begin;
 2589              		.loc 1 452 0
 2590 0004 88B0     		sub	sp, sp, #32	@,,
 2591              		.cfi_def_cfa_offset 40
 455:../MY17/lib/MY17_Can_Library/MY17_Can_Library_Test.c **** 
 456:../MY17/lib/MY17_Can_Library/MY17_Can_Library_Test.c ****   BOILERPLATE(Can_CurrentSensor_Voltage);
 2592              		.loc 1 456 0
 2593 0006 05A9     		add	r1, sp, #20	@ tmp125,,
 452:../MY17/lib/MY17_Can_Library/MY17_Can_Library_Test.c ****   Can_CurrentSensor_Voltage_T begin;
 2594              		.loc 1 452 0
 2595 0008 041C     		mov	r4, r0	@ print, print
 2596              		.loc 1 456 0
 2597 000a 6846     		mov	r0, sp	@,
 2598              	.LVL163:
 454:../MY17/lib/MY17_Can_Library/MY17_Can_Library_Test.c **** 
 2599              		.loc 1 454 0
 2600 000c 0093     		str	r3, [sp]	@ tmp114, begin.voltage_mV
 2601              		.loc 1 456 0
 2602 000e FFF7FEFF 		bl	Can_CurrentSensor_Voltage_ToCan	@
ARM GAS  /var/folders/9j/_txx49hn253_s3mnzkyxlj8m0000gp/T//ccxigpJH.s 			page 59


 2603              	.LVL164:
 2604 0012 1720     		mov	r0, #23	@ tmp126,
 2605 0014 0022     		mov	r2, #0	@ tmp117,
 2606 0016 0023     		mov	r3, #0	@,
 2607 0018 6844     		add	r0, r0, sp	@ tmp126,
 2608 001a 02A9     		add	r1, sp, #8	@,,
 2609 001c 0292     		str	r2, [sp, #8]	@ tmp117, end_bitstring
 2610 001e 0393     		str	r3, [sp, #12]	@ tmp117,
 2611 0020 FFF7FEFF 		bl	to_bitstring	@
 2612              	.LVL165:
 2613 0024 05A8     		add	r0, sp, #20	@ tmp127,,
 2614 0026 01A9     		add	r1, sp, #4	@,,
 2615 0028 FFF7FEFF 		bl	Can_CurrentSensor_Voltage_FromCan	@
 2616              	.LVL166:
 457:../MY17/lib/MY17_Can_Library/MY17_Can_Library_Test.c **** 
 458:../MY17/lib/MY17_Can_Library/MY17_Can_Library_Test.c ****   bool equal = begin.voltage_mV == end.voltage_mV;
 459:../MY17/lib/MY17_Can_Library/MY17_Can_Library_Test.c ****   print(equal ? "CurrentSensor_Voltage_PASS\r\n" : "CurrentSensor_Voltage_FAIL!!!!!!!!!!!!!!!!\r\n"
 2617              		.loc 1 459 0
 2618 002c 009B     		ldr	r3, [sp]	@ tmp128, begin.voltage_mV
 2619 002e 019A     		ldr	r2, [sp, #4]	@ tmp129, end.voltage_mV
 2620 0030 9342     		cmp	r3, r2	@ tmp128, tmp129
 2621 0032 03D0     		beq	.L206	@,
 2622 0034 0348     		ldr	r0, .L207+4	@ D.5511,
 2623              	.L205:
 2624              		.loc 1 459 0 is_stmt 0 discriminator 4
 2625 0036 A047     		blx	r4	@ print
 2626              	.LVL167:
 460:../MY17/lib/MY17_Can_Library/MY17_Can_Library_Test.c **** }
 2627              		.loc 1 460 0 is_stmt 1 discriminator 4
 2628 0038 08B0     		add	sp, sp, #32	@,,
 2629              		@ sp needed	@
 2630              	.LVL168:
 2631 003a 10BD     		pop	{r4, pc}
 2632              	.LVL169:
 2633              	.L206:
 459:../MY17/lib/MY17_Can_Library/MY17_Can_Library_Test.c **** }
 2634              		.loc 1 459 0
 2635 003c 0248     		ldr	r0, .L207+8	@ D.5511,
 2636 003e FAE7     		b	.L205	@
 2637              	.L208:
 2638              		.align	2
 2639              	.L207:
 2640 0040 E0930400 		.word	300000
 2641 0044 38050000 		.word	.LC82
 2642 0048 18050000 		.word	.LC80
 2643              		.cfi_endproc
 2644              	.LFE20:
 2645              		.size	Can_CurrentSensor_Voltage_Test, .-Can_CurrentSensor_Voltage_Test
 2646              		.section	.text.Can_CurrentSensor_Power_Test,"ax",%progbits
 2647              		.align	2
 2648              		.global	Can_CurrentSensor_Power_Test
 2649              		.code	16
 2650              		.thumb_func
 2651              		.type	Can_CurrentSensor_Power_Test, %function
 2652              	Can_CurrentSensor_Power_Test:
 2653              	.LFB21:
 461:../MY17/lib/MY17_Can_Library/MY17_Can_Library_Test.c **** 
ARM GAS  /var/folders/9j/_txx49hn253_s3mnzkyxlj8m0000gp/T//ccxigpJH.s 			page 60


 462:../MY17/lib/MY17_Can_Library/MY17_Can_Library_Test.c **** void Can_CurrentSensor_Power_Test(PRINT print) {
 2654              		.loc 1 462 0
 2655              		.cfi_startproc
 2656              	.LVL170:
 2657 0000 10B5     		push	{r4, lr}	@
 2658              		.cfi_def_cfa_offset 8
 2659              		.cfi_offset 4, -8
 2660              		.cfi_offset 14, -4
 463:../MY17/lib/MY17_Can_Library/MY17_Can_Library_Test.c ****   Can_CurrentSensor_Power_T begin;
 464:../MY17/lib/MY17_Can_Library/MY17_Can_Library_Test.c ****   begin.power_W = 80000;
 2661              		.loc 1 464 0
 2662 0002 0F4B     		ldr	r3, .L212	@ tmp114,
 462:../MY17/lib/MY17_Can_Library/MY17_Can_Library_Test.c ****   Can_CurrentSensor_Power_T begin;
 2663              		.loc 1 462 0
 2664 0004 88B0     		sub	sp, sp, #32	@,,
 2665              		.cfi_def_cfa_offset 40
 465:../MY17/lib/MY17_Can_Library/MY17_Can_Library_Test.c **** 
 466:../MY17/lib/MY17_Can_Library/MY17_Can_Library_Test.c ****   BOILERPLATE(Can_CurrentSensor_Power);
 2666              		.loc 1 466 0
 2667 0006 05A9     		add	r1, sp, #20	@ tmp125,,
 462:../MY17/lib/MY17_Can_Library/MY17_Can_Library_Test.c ****   Can_CurrentSensor_Power_T begin;
 2668              		.loc 1 462 0
 2669 0008 041C     		mov	r4, r0	@ print, print
 2670              		.loc 1 466 0
 2671 000a 6846     		mov	r0, sp	@,
 2672              	.LVL171:
 464:../MY17/lib/MY17_Can_Library/MY17_Can_Library_Test.c **** 
 2673              		.loc 1 464 0
 2674 000c 0093     		str	r3, [sp]	@ tmp114, begin.power_W
 2675              		.loc 1 466 0
 2676 000e FFF7FEFF 		bl	Can_CurrentSensor_Power_ToCan	@
 2677              	.LVL172:
 2678 0012 1720     		mov	r0, #23	@ tmp126,
 2679 0014 0022     		mov	r2, #0	@ tmp117,
 2680 0016 0023     		mov	r3, #0	@,
 2681 0018 6844     		add	r0, r0, sp	@ tmp126,
 2682 001a 02A9     		add	r1, sp, #8	@,,
 2683 001c 0292     		str	r2, [sp, #8]	@ tmp117, end_bitstring
 2684 001e 0393     		str	r3, [sp, #12]	@ tmp117,
 2685 0020 FFF7FEFF 		bl	to_bitstring	@
 2686              	.LVL173:
 2687 0024 05A8     		add	r0, sp, #20	@ tmp127,,
 2688 0026 01A9     		add	r1, sp, #4	@,,
 2689 0028 FFF7FEFF 		bl	Can_CurrentSensor_Power_FromCan	@
 2690              	.LVL174:
 467:../MY17/lib/MY17_Can_Library/MY17_Can_Library_Test.c **** 
 468:../MY17/lib/MY17_Can_Library/MY17_Can_Library_Test.c ****   bool equal = begin.power_W == end.power_W;
 469:../MY17/lib/MY17_Can_Library/MY17_Can_Library_Test.c ****   print(equal ? "CurrentSensor_Power_PASS\r\n" : "CurrentSensor_Power_FAIL!!!!!!!!!!!!!!!!\r\n");
 2691              		.loc 1 469 0
 2692 002c 009B     		ldr	r3, [sp]	@ tmp128, begin.power_W
 2693 002e 019A     		ldr	r2, [sp, #4]	@ tmp129, end.power_W
 2694 0030 9342     		cmp	r3, r2	@ tmp128, tmp129
 2695 0032 03D0     		beq	.L211	@,
 2696 0034 0348     		ldr	r0, .L212+4	@ D.5517,
 2697              	.L210:
 2698              		.loc 1 469 0 is_stmt 0 discriminator 4
 2699 0036 A047     		blx	r4	@ print
ARM GAS  /var/folders/9j/_txx49hn253_s3mnzkyxlj8m0000gp/T//ccxigpJH.s 			page 61


 2700              	.LVL175:
 470:../MY17/lib/MY17_Can_Library/MY17_Can_Library_Test.c **** }
 2701              		.loc 1 470 0 is_stmt 1 discriminator 4
 2702 0038 08B0     		add	sp, sp, #32	@,,
 2703              		@ sp needed	@
 2704              	.LVL176:
 2705 003a 10BD     		pop	{r4, pc}
 2706              	.LVL177:
 2707              	.L211:
 469:../MY17/lib/MY17_Can_Library/MY17_Can_Library_Test.c **** }
 2708              		.loc 1 469 0
 2709 003c 0248     		ldr	r0, .L212+8	@ D.5517,
 2710 003e FAE7     		b	.L210	@
 2711              	.L213:
 2712              		.align	2
 2713              	.L212:
 2714 0040 80380100 		.word	80000
 2715 0044 84050000 		.word	.LC86
 2716 0048 68050000 		.word	.LC84
 2717              		.cfi_endproc
 2718              	.LFE21:
 2719              		.size	Can_CurrentSensor_Power_Test, .-Can_CurrentSensor_Power_Test
 2720              		.section	.text.Can_CurrentSensor_Energy_Test,"ax",%progbits
 2721              		.align	2
 2722              		.global	Can_CurrentSensor_Energy_Test
 2723              		.code	16
 2724              		.thumb_func
 2725              		.type	Can_CurrentSensor_Energy_Test, %function
 2726              	Can_CurrentSensor_Energy_Test:
 2727              	.LFB22:
 471:../MY17/lib/MY17_Can_Library/MY17_Can_Library_Test.c **** 
 472:../MY17/lib/MY17_Can_Library/MY17_Can_Library_Test.c **** void Can_CurrentSensor_Energy_Test(PRINT print) {
 2728              		.loc 1 472 0
 2729              		.cfi_startproc
 2730              	.LVL178:
 2731 0000 10B5     		push	{r4, lr}	@
 2732              		.cfi_def_cfa_offset 8
 2733              		.cfi_offset 4, -8
 2734              		.cfi_offset 14, -4
 473:../MY17/lib/MY17_Can_Library/MY17_Can_Library_Test.c ****   Can_CurrentSensor_Energy_T begin;
 474:../MY17/lib/MY17_Can_Library/MY17_Can_Library_Test.c ****   begin.energy_Wh = 10000;
 2735              		.loc 1 474 0
 2736 0002 0F4B     		ldr	r3, .L217	@ tmp114,
 472:../MY17/lib/MY17_Can_Library/MY17_Can_Library_Test.c ****   Can_CurrentSensor_Energy_T begin;
 2737              		.loc 1 472 0
 2738 0004 88B0     		sub	sp, sp, #32	@,,
 2739              		.cfi_def_cfa_offset 40
 475:../MY17/lib/MY17_Can_Library/MY17_Can_Library_Test.c **** 
 476:../MY17/lib/MY17_Can_Library/MY17_Can_Library_Test.c ****   BOILERPLATE(Can_CurrentSensor_Energy);
 2740              		.loc 1 476 0
 2741 0006 05A9     		add	r1, sp, #20	@ tmp125,,
 472:../MY17/lib/MY17_Can_Library/MY17_Can_Library_Test.c ****   Can_CurrentSensor_Energy_T begin;
 2742              		.loc 1 472 0
 2743 0008 041C     		mov	r4, r0	@ print, print
 2744              		.loc 1 476 0
 2745 000a 6846     		mov	r0, sp	@,
 2746              	.LVL179:
ARM GAS  /var/folders/9j/_txx49hn253_s3mnzkyxlj8m0000gp/T//ccxigpJH.s 			page 62


 474:../MY17/lib/MY17_Can_Library/MY17_Can_Library_Test.c **** 
 2747              		.loc 1 474 0
 2748 000c 0093     		str	r3, [sp]	@ tmp114, begin.energy_Wh
 2749              		.loc 1 476 0
 2750 000e FFF7FEFF 		bl	Can_CurrentSensor_Energy_ToCan	@
 2751              	.LVL180:
 2752 0012 1720     		mov	r0, #23	@ tmp126,
 2753 0014 0022     		mov	r2, #0	@ tmp117,
 2754 0016 0023     		mov	r3, #0	@,
 2755 0018 6844     		add	r0, r0, sp	@ tmp126,
 2756 001a 02A9     		add	r1, sp, #8	@,,
 2757 001c 0292     		str	r2, [sp, #8]	@ tmp117, end_bitstring
 2758 001e 0393     		str	r3, [sp, #12]	@ tmp117,
 2759 0020 FFF7FEFF 		bl	to_bitstring	@
 2760              	.LVL181:
 2761 0024 05A8     		add	r0, sp, #20	@ tmp127,,
 2762 0026 01A9     		add	r1, sp, #4	@,,
 2763 0028 FFF7FEFF 		bl	Can_CurrentSensor_Energy_FromCan	@
 2764              	.LVL182:
 477:../MY17/lib/MY17_Can_Library/MY17_Can_Library_Test.c **** 
 478:../MY17/lib/MY17_Can_Library/MY17_Can_Library_Test.c ****   bool equal = begin.energy_Wh == end.energy_Wh;
 479:../MY17/lib/MY17_Can_Library/MY17_Can_Library_Test.c ****   print(equal ? "CurrentSensor_Energy_PASS\r\n" : "CurrentSensor_Energy_FAIL!!!!!!!!!!!!!!!!\r\n");
 2765              		.loc 1 479 0
 2766 002c 009B     		ldr	r3, [sp]	@ tmp128, begin.energy_Wh
 2767 002e 019A     		ldr	r2, [sp, #4]	@ tmp129, end.energy_Wh
 2768 0030 9342     		cmp	r3, r2	@ tmp128, tmp129
 2769 0032 03D0     		beq	.L216	@,
 2770 0034 0348     		ldr	r0, .L217+4	@ D.5523,
 2771              	.L215:
 2772              		.loc 1 479 0 is_stmt 0 discriminator 4
 2773 0036 A047     		blx	r4	@ print
 2774              	.LVL183:
 480:../MY17/lib/MY17_Can_Library/MY17_Can_Library_Test.c **** }
 2775              		.loc 1 480 0 is_stmt 1 discriminator 4
 2776 0038 08B0     		add	sp, sp, #32	@,,
 2777              		@ sp needed	@
 2778              	.LVL184:
 2779 003a 10BD     		pop	{r4, pc}
 2780              	.LVL185:
 2781              	.L216:
 479:../MY17/lib/MY17_Can_Library/MY17_Can_Library_Test.c **** }
 2782              		.loc 1 479 0
 2783 003c 0248     		ldr	r0, .L217+8	@ D.5523,
 2784 003e FAE7     		b	.L215	@
 2785              	.L218:
 2786              		.align	2
 2787              	.L217:
 2788 0040 10270000 		.word	10000
 2789 0044 CC050000 		.word	.LC90
 2790 0048 B0050000 		.word	.LC88
 2791              		.cfi_endproc
 2792              	.LFE22:
 2793              		.size	Can_CurrentSensor_Energy_Test, .-Can_CurrentSensor_Energy_Test
 2794              		.section	.text.Can_All_Tests,"ax",%progbits
 2795              		.align	2
 2796              		.global	Can_All_Tests
 2797              		.code	16
ARM GAS  /var/folders/9j/_txx49hn253_s3mnzkyxlj8m0000gp/T//ccxigpJH.s 			page 63


 2798              		.thumb_func
 2799              		.type	Can_All_Tests, %function
 2800              	Can_All_Tests:
 2801              	.LFB23:
 481:../MY17/lib/MY17_Can_Library/MY17_Can_Library_Test.c **** 
 482:../MY17/lib/MY17_Can_Library/MY17_Can_Library_Test.c **** void Can_All_Tests(PRINT print) {
 2802              		.loc 1 482 0
 2803              		.cfi_startproc
 2804              	.LVL186:
 2805 0000 10B5     		push	{r4, lr}	@
 2806              		.cfi_def_cfa_offset 8
 2807              		.cfi_offset 4, -8
 2808              		.cfi_offset 14, -4
 2809              		.loc 1 482 0
 2810 0002 041C     		mov	r4, r0	@ print, print
 483:../MY17/lib/MY17_Can_Library/MY17_Can_Library_Test.c ****   print("\n*********TEST RESULTS **************\n\n");
 2811              		.loc 1 483 0
 2812 0004 2248     		ldr	r0, .L220	@,
 2813              	.LVL187:
 2814 0006 A047     		blx	r4	@ print
 2815              	.LVL188:
 484:../MY17/lib/MY17_Can_Library/MY17_Can_Library_Test.c **** 
 485:../MY17/lib/MY17_Can_Library/MY17_Can_Library_Test.c ****   Can_FrontCanNode_DriverOutput_Test(print);
 2816              		.loc 1 485 0
 2817 0008 201C     		mov	r0, r4	@, print
 2818 000a FFF7FEFF 		bl	Can_FrontCanNode_DriverOutput_Test	@
 2819              	.LVL189:
 486:../MY17/lib/MY17_Can_Library/MY17_Can_Library_Test.c ****   Can_FrontCanNode_RawValues_Test(print);
 2820              		.loc 1 486 0
 2821 000e 201C     		mov	r0, r4	@, print
 2822 0010 FFF7FEFF 		bl	Can_FrontCanNode_RawValues_Test	@
 2823              	.LVL190:
 487:../MY17/lib/MY17_Can_Library/MY17_Can_Library_Test.c ****   Can_FrontCanNode_WheelSpeed_Test(print);
 2824              		.loc 1 487 0
 2825 0014 201C     		mov	r0, r4	@, print
 2826 0016 FFF7FEFF 		bl	Can_FrontCanNode_WheelSpeed_Test	@
 2827              	.LVL191:
 488:../MY17/lib/MY17_Can_Library/MY17_Can_Library_Test.c ****   Can_RearCanNode_Heartbeat_Test(print);
 2828              		.loc 1 488 0
 2829 001a 201C     		mov	r0, r4	@, print
 2830 001c FFF7FEFF 		bl	Can_RearCanNode_Heartbeat_Test	@
 2831              	.LVL192:
 489:../MY17/lib/MY17_Can_Library/MY17_Can_Library_Test.c ****   Can_RearCanNode_WheelSpeed_Test(print);
 2832              		.loc 1 489 0
 2833 0020 201C     		mov	r0, r4	@, print
 2834 0022 FFF7FEFF 		bl	Can_RearCanNode_WheelSpeed_Test	@
 2835              	.LVL193:
 490:../MY17/lib/MY17_Can_Library/MY17_Can_Library_Test.c **** 
 491:../MY17/lib/MY17_Can_Library/MY17_Can_Library_Test.c ****   Can_Vcu_BmsHeartbeat_Test(print);
 2836              		.loc 1 491 0
 2837 0026 201C     		mov	r0, r4	@, print
 2838 0028 FFF7FEFF 		bl	Can_Vcu_BmsHeartbeat_Test	@
 2839              	.LVL194:
 492:../MY17/lib/MY17_Can_Library/MY17_Can_Library_Test.c ****   Can_Vcu_DashHeartbeat_Test(print);
 2840              		.loc 1 492 0
 2841 002c 201C     		mov	r0, r4	@, print
 2842 002e FFF7FEFF 		bl	Can_Vcu_DashHeartbeat_Test	@
ARM GAS  /var/folders/9j/_txx49hn253_s3mnzkyxlj8m0000gp/T//ccxigpJH.s 			page 64


 2843              	.LVL195:
 493:../MY17/lib/MY17_Can_Library/MY17_Can_Library_Test.c ****   Can_Vcu_MCRequest_Test(print);
 2844              		.loc 1 493 0
 2845 0032 201C     		mov	r0, r4	@, print
 2846 0034 FFF7FEFF 		bl	Can_Vcu_MCRequest_Test	@
 2847              	.LVL196:
 494:../MY17/lib/MY17_Can_Library/MY17_Can_Library_Test.c ****   Can_Vcu_MCTorque_Test(print);
 2848              		.loc 1 494 0
 2849 0038 201C     		mov	r0, r4	@, print
 2850 003a FFF7FEFF 		bl	Can_Vcu_MCTorque_Test	@
 2851              	.LVL197:
 495:../MY17/lib/MY17_Can_Library/MY17_Can_Library_Test.c **** 
 496:../MY17/lib/MY17_Can_Library/MY17_Can_Library_Test.c ****   Can_Bms_Heartbeat_Test(print);
 2852              		.loc 1 496 0
 2853 003e 201C     		mov	r0, r4	@, print
 2854 0040 FFF7FEFF 		bl	Can_Bms_Heartbeat_Test	@
 2855              	.LVL198:
 497:../MY17/lib/MY17_Can_Library/MY17_Can_Library_Test.c ****   Can_Bms_CellTemps_Test(print);
 2856              		.loc 1 497 0
 2857 0044 201C     		mov	r0, r4	@, print
 2858 0046 FFF7FEFF 		bl	Can_Bms_CellTemps_Test	@
 2859              	.LVL199:
 498:../MY17/lib/MY17_Can_Library/MY17_Can_Library_Test.c ****   Can_Bms_PackStatus_Test(print);
 2860              		.loc 1 498 0
 2861 004a 201C     		mov	r0, r4	@, print
 2862 004c FFF7FEFF 		bl	Can_Bms_PackStatus_Test	@
 2863              	.LVL200:
 499:../MY17/lib/MY17_Can_Library/MY17_Can_Library_Test.c ****   Can_Bms_Error_Test(print);
 2864              		.loc 1 499 0
 2865 0050 201C     		mov	r0, r4	@, print
 2866 0052 FFF7FEFF 		bl	Can_Bms_Error_Test	@
 2867              	.LVL201:
 500:../MY17/lib/MY17_Can_Library/MY17_Can_Library_Test.c **** 
 501:../MY17/lib/MY17_Can_Library/MY17_Can_Library_Test.c ****   Can_Dash_Heartbeat_Test(print);
 2868              		.loc 1 501 0
 2869 0056 201C     		mov	r0, r4	@, print
 2870 0058 FFF7FEFF 		bl	Can_Dash_Heartbeat_Test	@
 2871              	.LVL202:
 502:../MY17/lib/MY17_Can_Library/MY17_Can_Library_Test.c ****   Can_Dash_Request_Test(print);
 2872              		.loc 1 502 0
 2873 005c 201C     		mov	r0, r4	@, print
 2874 005e FFF7FEFF 		bl	Can_Dash_Request_Test	@
 2875              	.LVL203:
 503:../MY17/lib/MY17_Can_Library/MY17_Can_Library_Test.c **** 
 504:../MY17/lib/MY17_Can_Library/MY17_Can_Library_Test.c ****   Can_MC_DataReading_Test(print);
 2876              		.loc 1 504 0
 2877 0062 201C     		mov	r0, r4	@, print
 2878 0064 FFF7FEFF 		bl	Can_MC_DataReading_Test	@
 2879              	.LVL204:
 505:../MY17/lib/MY17_Can_Library/MY17_Can_Library_Test.c ****   Can_MC_ErrorAndWarning_Test(print);
 2880              		.loc 1 505 0
 2881 0068 201C     		mov	r0, r4	@, print
 2882 006a FFF7FEFF 		bl	Can_MC_ErrorAndWarning_Test	@
 2883              	.LVL205:
 506:../MY17/lib/MY17_Can_Library/MY17_Can_Library_Test.c ****   Can_MC_State_Test(print);
 2884              		.loc 1 506 0
 2885 006e 201C     		mov	r0, r4	@, print
ARM GAS  /var/folders/9j/_txx49hn253_s3mnzkyxlj8m0000gp/T//ccxigpJH.s 			page 65


 2886 0070 FFF7FEFF 		bl	Can_MC_State_Test	@
 2887              	.LVL206:
 507:../MY17/lib/MY17_Can_Library/MY17_Can_Library_Test.c **** 
 508:../MY17/lib/MY17_Can_Library/MY17_Can_Library_Test.c ****   Can_CurrentSensor_Current_Test(print);
 2888              		.loc 1 508 0
 2889 0074 201C     		mov	r0, r4	@, print
 2890 0076 FFF7FEFF 		bl	Can_CurrentSensor_Current_Test	@
 2891              	.LVL207:
 509:../MY17/lib/MY17_Can_Library/MY17_Can_Library_Test.c ****   Can_CurrentSensor_Voltage_Test(print);
 2892              		.loc 1 509 0
 2893 007a 201C     		mov	r0, r4	@, print
 2894 007c FFF7FEFF 		bl	Can_CurrentSensor_Voltage_Test	@
 2895              	.LVL208:
 510:../MY17/lib/MY17_Can_Library/MY17_Can_Library_Test.c ****   Can_CurrentSensor_Power_Test(print);
 2896              		.loc 1 510 0
 2897 0080 201C     		mov	r0, r4	@, print
 2898 0082 FFF7FEFF 		bl	Can_CurrentSensor_Power_Test	@
 2899              	.LVL209:
 511:../MY17/lib/MY17_Can_Library/MY17_Can_Library_Test.c ****   Can_CurrentSensor_Energy_Test(print);
 2900              		.loc 1 511 0
 2901 0086 201C     		mov	r0, r4	@, print
 2902 0088 FFF7FEFF 		bl	Can_CurrentSensor_Energy_Test	@
 2903              	.LVL210:
 512:../MY17/lib/MY17_Can_Library/MY17_Can_Library_Test.c **** }
 2904              		.loc 1 512 0
 2905              		@ sp needed	@
 2906              	.LVL211:
 2907 008c 10BD     		pop	{r4, pc}
 2908              	.L221:
 2909 008e C046     		.align	2
 2910              	.L220:
 2911 0090 F8050000 		.word	.LC92
 2912              		.cfi_endproc
 2913              	.LFE23:
 2914              		.size	Can_All_Tests, .-Can_All_Tests
 2915              		.section	.rodata.str1.4,"aMS",%progbits,1
 2916              		.align	2
 2917              	.LC0:
 2918 0000 3100     		.ascii	"1\000"
 2919 0002 0000     		.space	2
 2920              	.LC2:
 2921 0004 3000     		.ascii	"0\000"
 2922 0006 0000     		.space	2
 2923              	.LC4:
 2924 0008 46726F6E 		.ascii	"FrontCanNode_DriverOutput_PASS\015\012\000"
 2924      7443616E 
 2924      4E6F6465 
 2924      5F447269 
 2924      7665724F 
 2925 0029 000000   		.space	3
 2926              	.LC6:
 2927 002c 46726F6E 		.ascii	"FrontCanNode_DriverOutput_FAIL!!!!!!!!!!!!!!!!\015\012"
 2927      7443616E 
 2927      4E6F6465 
 2927      5F447269 
 2927      7665724F 
 2928 005c 00       		.ascii	"\000"
ARM GAS  /var/folders/9j/_txx49hn253_s3mnzkyxlj8m0000gp/T//ccxigpJH.s 			page 66


 2929 005d 000000   		.space	3
 2930              	.LC8:
 2931 0060 46726F6E 		.ascii	"FrontCanNode_RawValues_FAIL!!!!!!!!!!!!!!!!\015\012"
 2931      7443616E 
 2931      4E6F6465 
 2931      5F526177 
 2931      56616C75 
 2932 008d 00       		.ascii	"\000"
 2933 008e 0000     		.space	2
 2934              	.LC10:
 2935 0090 46726F6E 		.ascii	"FrontCanNode_RawValues_PASS\015\012\000"
 2935      7443616E 
 2935      4E6F6465 
 2935      5F526177 
 2935      56616C75 
 2936 00ae 0000     		.space	2
 2937              	.LC12:
 2938 00b0 46726F6E 		.ascii	"FrontCanNode_WheelSpeed_FAIL!!!!!!!!!!!!!!!!\015\012"
 2938      7443616E 
 2938      4E6F6465 
 2938      5F576865 
 2938      656C5370 
 2939 00de 00       		.ascii	"\000"
 2940 00df 00       		.space	1
 2941              	.LC14:
 2942 00e0 46726F6E 		.ascii	"FrontCanNode_WheelSpeed_PASS\015\012\000"
 2942      7443616E 
 2942      4E6F6465 
 2942      5F576865 
 2942      656C5370 
 2943 00ff 00       		.space	1
 2944              	.LC16:
 2945 0100 52656172 		.ascii	"RearCanNode_Heartbeat_PASS\015\012\000"
 2945      43616E4E 
 2945      6F64655F 
 2945      48656172 
 2945      74626561 
 2946 011d 000000   		.space	3
 2947              	.LC18:
 2948 0120 52656172 		.ascii	"RearCanNode_Heartbeat_FAIL!!!!!!!!!!!!!!!!\015\012\000"
 2948      43616E4E 
 2948      6F64655F 
 2948      48656172 
 2948      74626561 
 2949 014d 000000   		.space	3
 2950              	.LC20:
 2951 0150 52656172 		.ascii	"RearCanNode_WheelSpeed_FAIL!!!!!!!!!!!!!!!!\015\012"
 2951      43616E4E 
 2951      6F64655F 
 2951      57686565 
 2951      6C537065 
 2952 017d 00       		.ascii	"\000"
 2953 017e 0000     		.space	2
 2954              	.LC22:
 2955 0180 52656172 		.ascii	"RearCanNode_WheelSpeed_PASS\015\012\000"
 2955      43616E4E 
 2955      6F64655F 
ARM GAS  /var/folders/9j/_txx49hn253_s3mnzkyxlj8m0000gp/T//ccxigpJH.s 			page 67


 2955      57686565 
 2955      6C537065 
 2956 019e 0000     		.space	2
 2957              	.LC24:
 2958 01a0 5663755F 		.ascii	"Vcu_BmsHeartbeat_PASS\015\012\000"
 2958      426D7348 
 2958      65617274 
 2958      62656174 
 2958      5F504153 
 2959              	.LC26:
 2960 01b8 5663755F 		.ascii	"Vcu_BmsHeartbeat_FAIL!!!!!!!!!!!!!!!!\015\012\000"
 2960      426D7348 
 2960      65617274 
 2960      62656174 
 2960      5F464149 
 2961              	.LC28:
 2962 01e0 5663755F 		.ascii	"Vcu_DashHeartbeat_PASS\015\012\000"
 2962      44617368 
 2962      48656172 
 2962      74626561 
 2962      745F5041 
 2963 01f9 000000   		.space	3
 2964              	.LC30:
 2965 01fc 5663755F 		.ascii	"Vcu_DashHeartbeat_FAIL!!!!!!!!!!!!!!!!\015\012\000"
 2965      44617368 
 2965      48656172 
 2965      74626561 
 2965      745F4641 
 2966 0225 000000   		.space	3
 2967              	.LC32:
 2968 0228 5663755F 		.ascii	"Vcu_MCRequest_FAIL!!!!!!!!!!!!!!!!\015\012\000"
 2968      4D435265 
 2968      71756573 
 2968      745F4641 
 2968      494C2121 
 2969 024d 000000   		.space	3
 2970              	.LC34:
 2971 0250 5663755F 		.ascii	"Vcu_MCRequest_PASS\015\012\000"
 2971      4D435265 
 2971      71756573 
 2971      745F5041 
 2971      53530D0A 
 2972 0265 000000   		.space	3
 2973              	.LC36:
 2974 0268 5663755F 		.ascii	"Vcu_MCTorque_PASS\015\012\000"
 2974      4D43546F 
 2974      72717565 
 2974      5F504153 
 2974      530D0A00 
 2975              	.LC38:
 2976 027c 5663755F 		.ascii	"Vcu_MCTorque_FAIL!!!!!!!!!!!!!!!!\015\012\000"
 2976      4D43546F 
 2976      72717565 
 2976      5F464149 
 2976      4C212121 
 2977              	.LC40:
 2978 02a0 426D735F 		.ascii	"Bms_Heartbeat_PASS\015\012\000"
ARM GAS  /var/folders/9j/_txx49hn253_s3mnzkyxlj8m0000gp/T//ccxigpJH.s 			page 68


 2978      48656172 
 2978      74626561 
 2978      745F5041 
 2978      53530D0A 
 2979 02b5 000000   		.space	3
 2980              	.LC42:
 2981 02b8 426D735F 		.ascii	"Bms_Heartbeat_FAIL!!!!!!!!!!!!!!!!\015\012\000"
 2981      48656172 
 2981      74626561 
 2981      745F4641 
 2981      494C2121 
 2982 02dd 000000   		.space	3
 2983              	.LC44:
 2984 02e0 426D735F 		.ascii	"Bms_CellTemps_FAIL!!!!!!!!!!!!!!!!\015\012\000"
 2984      43656C6C 
 2984      54656D70 
 2984      735F4641 
 2984      494C2121 
 2985 0305 000000   		.space	3
 2986              	.LC46:
 2987 0308 426D735F 		.ascii	"Bms_CellTemps_PASS\015\012\000"
 2987      43656C6C 
 2987      54656D70 
 2987      735F5041 
 2987      53530D0A 
 2988 031d 000000   		.space	3
 2989              	.LC48:
 2990 0320 426D735F 		.ascii	"Bms_PackStatus_PASS\015\012\000"
 2990      5061636B 
 2990      53746174 
 2990      75735F50 
 2990      4153530D 
 2991 0336 0000     		.space	2
 2992              	.LC50:
 2993 0338 426D735F 		.ascii	"Bms_PackStatus_FAIL!!!!!!!!!!!!!!!!\015\012\000"
 2993      5061636B 
 2993      53746174 
 2993      75735F46 
 2993      41494C21 
 2994 035e 0000     		.space	2
 2995              	.LC52:
 2996 0360 426D735F 		.ascii	"Bms_Error_PASS\015\012\000"
 2996      4572726F 
 2996      725F5041 
 2996      53530D0A 
 2996      00
 2997 0371 000000   		.space	3
 2998              	.LC54:
 2999 0374 426D735F 		.ascii	"Bms_Error_FAIL!!!!!!!!!!!!!!!!\015\012\000"
 2999      4572726F 
 2999      725F4641 
 2999      494C2121 
 2999      21212121 
 3000 0395 000000   		.space	3
 3001              	.LC56:
 3002 0398 44617368 		.ascii	"Dash_Heartbeat_PASS\015\012\000"
 3002      5F486561 
ARM GAS  /var/folders/9j/_txx49hn253_s3mnzkyxlj8m0000gp/T//ccxigpJH.s 			page 69


 3002      72746265 
 3002      61745F50 
 3002      4153530D 
 3003 03ae 0000     		.space	2
 3004              	.LC58:
 3005 03b0 44617368 		.ascii	"Dash_Heartbeat_FAIL!!!!!!!!!!!!!!!!\015\012\000"
 3005      5F486561 
 3005      72746265 
 3005      61745F46 
 3005      41494C21 
 3006 03d6 0000     		.space	2
 3007              	.LC60:
 3008 03d8 44617368 		.ascii	"Dash_Request_PASS\015\012\000"
 3008      5F526571 
 3008      75657374 
 3008      5F504153 
 3008      530D0A00 
 3009              	.LC62:
 3010 03ec 44617368 		.ascii	"Dash_Request_FAIL!!!!!!!!!!!!!!!!\015\012\000"
 3010      5F526571 
 3010      75657374 
 3010      5F464149 
 3010      4C212121 
 3011              	.LC64:
 3012 0410 4D435F44 		.ascii	"MC_DataReading_FAIL!!!!!!!!!!!!!!!!\015\012\000"
 3012      61746152 
 3012      65616469 
 3012      6E675F46 
 3012      41494C21 
 3013 0436 0000     		.space	2
 3014              	.LC66:
 3015 0438 4D435F44 		.ascii	"MC_DataReading_PASS\015\012\000"
 3015      61746152 
 3015      65616469 
 3015      6E675F50 
 3015      4153530D 
 3016 044e 0000     		.space	2
 3017              	.LC68:
 3018 0450 4D435F45 		.ascii	"MC_ErrorAndWarning_FAIL!!!!!!!!!!!!!!!!\015\012\000"
 3018      72726F72 
 3018      416E6457 
 3018      61726E69 
 3018      6E675F46 
 3019 047a 0000     		.space	2
 3020              	.LC70:
 3021 047c 4D435F45 		.ascii	"MC_ErrorAndWarning_PASS\015\012\000"
 3021      72726F72 
 3021      416E6457 
 3021      61726E69 
 3021      6E675F50 
 3022 0496 0000     		.space	2
 3023              	.LC72:
 3024 0498 4D435F53 		.ascii	"MC_State_PASS\015\012\000"
 3024      74617465 
 3024      5F504153 
 3024      530D0A00 
 3025              	.LC74:
ARM GAS  /var/folders/9j/_txx49hn253_s3mnzkyxlj8m0000gp/T//ccxigpJH.s 			page 70


 3026 04a8 4D435F53 		.ascii	"MC_State_FAIL!!!!!!!!!!!!!!!!\015\012\000"
 3026      74617465 
 3026      5F464149 
 3026      4C212121 
 3026      21212121 
 3027              	.LC76:
 3028 04c8 43757272 		.ascii	"CurrentSensor_Current_PASS\015\012\000"
 3028      656E7453 
 3028      656E736F 
 3028      725F4375 
 3028      7272656E 
 3029 04e5 000000   		.space	3
 3030              	.LC78:
 3031 04e8 43757272 		.ascii	"CurrentSensor_Current_FAIL!!!!!!!!!!!!!!!!\015\012\000"
 3031      656E7453 
 3031      656E736F 
 3031      725F4375 
 3031      7272656E 
 3032 0515 000000   		.space	3
 3033              	.LC80:
 3034 0518 43757272 		.ascii	"CurrentSensor_Voltage_PASS\015\012\000"
 3034      656E7453 
 3034      656E736F 
 3034      725F566F 
 3034      6C746167 
 3035 0535 000000   		.space	3
 3036              	.LC82:
 3037 0538 43757272 		.ascii	"CurrentSensor_Voltage_FAIL!!!!!!!!!!!!!!!!\015\012\000"
 3037      656E7453 
 3037      656E736F 
 3037      725F566F 
 3037      6C746167 
 3038 0565 000000   		.space	3
 3039              	.LC84:
 3040 0568 43757272 		.ascii	"CurrentSensor_Power_PASS\015\012\000"
 3040      656E7453 
 3040      656E736F 
 3040      725F506F 
 3040      7765725F 
 3041 0583 00       		.space	1
 3042              	.LC86:
 3043 0584 43757272 		.ascii	"CurrentSensor_Power_FAIL!!!!!!!!!!!!!!!!\015\012\000"
 3043      656E7453 
 3043      656E736F 
 3043      725F506F 
 3043      7765725F 
 3044 05af 00       		.space	1
 3045              	.LC88:
 3046 05b0 43757272 		.ascii	"CurrentSensor_Energy_PASS\015\012\000"
 3046      656E7453 
 3046      656E736F 
 3046      725F456E 
 3046      65726779 
 3047              	.LC90:
 3048 05cc 43757272 		.ascii	"CurrentSensor_Energy_FAIL!!!!!!!!!!!!!!!!\015\012\000"
 3048      656E7453 
 3048      656E736F 
ARM GAS  /var/folders/9j/_txx49hn253_s3mnzkyxlj8m0000gp/T//ccxigpJH.s 			page 71


 3048      725F456E 
 3048      65726779 
 3049              	.LC92:
 3050 05f8 0A2A2A2A 		.ascii	"\012*********TEST RESULTS **************\012\012\000"
 3050      2A2A2A2A 
 3050      2A2A5445 
 3050      53542052 
 3050      4553554C 
 3051              		.text
 3052              	.Letext0:
 3053              		.file 2 "/usr/local/Cellar/gcc-arm-none-eabi/20150925/arm-none-eabi/include/machine/_default_types
 3054              		.file 3 "/usr/local/Cellar/gcc-arm-none-eabi/20150925/arm-none-eabi/include/sys/_stdint.h"
 3055              		.file 4 "../MY17/lib/MY17_Can_Library/can_raw.h"
 3056              		.file 5 "../MY17/lib/MY17_Can_Library/ids.h"
 3057              		.file 6 "../MY17/lib/MY17_Can_Library/can_node.h"
 3058              		.file 7 "../MY17/lib/MY17_Can_Library/vcu.h"
 3059              		.file 8 "../MY17/lib/MY17_Can_Library/bms.h"
 3060              		.file 9 "../MY17/lib/MY17_Can_Library/dash.h"
 3061              		.file 10 "../MY17/lib/MY17_Can_Library/mc.h"
 3062              		.file 11 "../MY17/lib/MY17_Can_Library/current_sensor.h"
 3063              		.file 12 "../MY17/lib/MY17_Can_Library/MY17_Can_Library.h"