ARM GAS  /var/folders/9j/_txx49hn253_s3mnzkyxlj8m0000gp/T//ccd02Qpg.s 			page 1


   1              		.cpu cortex-m0
   2              		.fpu softvfp
   3              		.eabi_attribute 20, 1	@ Tag_ABI_FP_denormal
   4              		.eabi_attribute 21, 1	@ Tag_ABI_FP_exceptions
   5              		.eabi_attribute 23, 3	@ Tag_ABI_FP_number_model
   6              		.eabi_attribute 24, 1	@ Tag_ABI_align8_needed
   7              		.eabi_attribute 25, 1	@ Tag_ABI_align8_preserved
   8              		.eabi_attribute 26, 1	@ Tag_ABI_enum_size
   9              		.eabi_attribute 30, 2	@ Tag_ABI_optimization_goals
  10              		.eabi_attribute 34, 0	@ Tag_CPU_unaligned_access
  11              		.eabi_attribute 18, 4	@ Tag_ABI_PCS_wchar_t
  12              		.file	"ring_buffer.c"
  13              	@ GNU C (GNU Tools for ARM Embedded Processors) version 4.9.3 20150529 (release) [ARM/embedded-4_9-
  14              	@	compiled by GNU C version 4.2.1 (Based on Apple Inc. build 5658) (LLVM build 2336.9.00), GMP vers
  15              	@ GGC heuristics: --param ggc-min-expand=100 --param ggc-min-heapsize=131072
  16              	@ options passed:  -I . -I inc/
  17              	@ -I ../lpc11cx4-library/lpc_chip_11cxx_lib/inc
  18              	@ -I ../lpc11cx4-library/evt_lib/inc/ -I ../MY17/lib/MY17_Can_Library
  19              	@ -imultilib armv6-m
  20              	@ -iprefix /usr/local/Cellar/gcc-arm-none-eabi/20150925/bin/../lib/gcc/arm-none-eabi/4.9.3/
  21              	@ -isysroot /usr/local/Cellar/gcc-arm-none-eabi/20150925/bin/../arm-none-eabi
  22              	@ -MD bin/ring_buffer.d -MF bin/ring_buffer.d -MP -MQ bin/ring_buffer.o
  23              	@ -D__USES_INITFINI__ -D UART_BAUD=115200 -D CORE_M0 -D DEBUG_ENABLE
  24              	@ -D CAN_ARCHITECTURE_ARM
  25              	@ ../lpc11cx4-library/lpc_chip_11cxx_lib/src/ring_buffer.c -mcpu=cortex-m0
  26              	@ -mthumb -auxbase-strip bin/ring_buffer.o -g -ggdb3 -O2 -Wall
  27              	@ -Wstrict-prototypes -Wextra -std=gnu90 -ffunction-sections
  28              	@ -fdata-sections -fdiagnostics-color=always -fverbose-asm
  29              	@ options enabled:  -faggressive-loop-optimizations -fauto-inc-dec
  30              	@ -fbranch-count-reg -fcaller-saves -fcombine-stack-adjustments -fcommon
  31              	@ -fcompare-elim -fcprop-registers -fcrossjumping -fcse-follow-jumps
  32              	@ -fdata-sections -fdefer-pop -fdelete-null-pointer-checks -fdevirtualize
  33              	@ -fdevirtualize-speculatively -fdwarf2-cfi-asm -fearly-inlining
  34              	@ -feliminate-unused-debug-types -fexpensive-optimizations
  35              	@ -fforward-propagate -ffunction-cse -ffunction-sections -fgcse -fgcse-lm
  36              	@ -fgnu-runtime -fgnu-unique -fguess-branch-probability
  37              	@ -fhoist-adjacent-loads -fident -fif-conversion -fif-conversion2
  38              	@ -findirect-inlining -finline -finline-atomics
  39              	@ -finline-functions-called-once -finline-small-functions -fipa-cp
  40              	@ -fipa-profile -fipa-pure-const -fipa-reference -fipa-sra
  41              	@ -fira-hoist-pressure -fira-share-save-slots -fira-share-spill-slots
  42              	@ -fisolate-erroneous-paths-dereference -fivopts -fkeep-static-consts
  43              	@ -fleading-underscore -flifetime-dse -fmath-errno -fmerge-constants
  44              	@ -fmerge-debug-strings -fmove-loop-invariants -fomit-frame-pointer
  45              	@ -foptimize-sibling-calls -foptimize-strlen -fpartial-inlining -fpeephole
  46              	@ -fpeephole2 -fprefetch-loop-arrays -freg-struct-return -freorder-blocks
  47              	@ -freorder-functions -frerun-cse-after-loop
  48              	@ -fsched-critical-path-heuristic -fsched-dep-count-heuristic
  49              	@ -fsched-group-heuristic -fsched-interblock -fsched-last-insn-heuristic
  50              	@ -fsched-pressure -fsched-rank-heuristic -fsched-spec
  51              	@ -fsched-spec-insn-heuristic -fsched-stalled-insns-dep -fschedule-insns2
  52              	@ -fsection-anchors -fshow-column -fshrink-wrap -fsigned-zeros
  53              	@ -fsplit-ivs-in-unroller -fsplit-wide-types -fstrict-aliasing
  54              	@ -fstrict-overflow -fstrict-volatile-bitfields -fsync-libcalls
  55              	@ -fthread-jumps -ftoplevel-reorder -ftrapping-math -ftree-bit-ccp
  56              	@ -ftree-builtin-call-dce -ftree-ccp -ftree-ch -ftree-coalesce-vars
  57              	@ -ftree-copy-prop -ftree-copyrename -ftree-cselim -ftree-dce
ARM GAS  /var/folders/9j/_txx49hn253_s3mnzkyxlj8m0000gp/T//ccd02Qpg.s 			page 2


  58              	@ -ftree-dominator-opts -ftree-dse -ftree-forwprop -ftree-fre
  59              	@ -ftree-loop-if-convert -ftree-loop-im -ftree-loop-ivcanon
  60              	@ -ftree-loop-optimize -ftree-parallelize-loops= -ftree-phiprop -ftree-pre
  61              	@ -ftree-pta -ftree-reassoc -ftree-scev-cprop -ftree-sink -ftree-slsr
  62              	@ -ftree-sra -ftree-switch-conversion -ftree-tail-merge -ftree-ter
  63              	@ -ftree-vrp -funit-at-a-time -fvar-tracking -fvar-tracking-assignments
  64              	@ -fverbose-asm -fzero-initialized-in-bss -mlittle-endian -mlra
  65              	@ -mpic-data-is-text-relative -msched-prolog -mthumb
  66              	@ -mvectorize-with-neon-quad
  67              	
  68              		.text
  69              	.Ltext0:
  70              		.cfi_sections	.debug_frame
  71              		.section	.text.RingBuffer_Init,"ax",%progbits
  72              		.align	2
  73              		.global	RingBuffer_Init
  74              		.code	16
  75              		.thumb_func
  76              		.type	RingBuffer_Init, %function
  77              	RingBuffer_Init:
  78              	.LFB6:
  79              		.file 1 "../lpc11cx4-library/lpc_chip_11cxx_lib/src/ring_buffer.c"
   1:../lpc11cx4-library/lpc_chip_11cxx_lib/src/ring_buffer.c **** /*
   2:../lpc11cx4-library/lpc_chip_11cxx_lib/src/ring_buffer.c ****  * @brief Common ring buffer support functions
   3:../lpc11cx4-library/lpc_chip_11cxx_lib/src/ring_buffer.c ****  *
   4:../lpc11cx4-library/lpc_chip_11cxx_lib/src/ring_buffer.c ****  * @note
   5:../lpc11cx4-library/lpc_chip_11cxx_lib/src/ring_buffer.c ****  * Copyright(C) NXP Semiconductors, 2012
   6:../lpc11cx4-library/lpc_chip_11cxx_lib/src/ring_buffer.c ****  * All rights reserved.
   7:../lpc11cx4-library/lpc_chip_11cxx_lib/src/ring_buffer.c ****  *
   8:../lpc11cx4-library/lpc_chip_11cxx_lib/src/ring_buffer.c ****  * @par
   9:../lpc11cx4-library/lpc_chip_11cxx_lib/src/ring_buffer.c ****  * Software that is described herein is for illustrative purposes only
  10:../lpc11cx4-library/lpc_chip_11cxx_lib/src/ring_buffer.c ****  * which provides customers with programming information regarding the
  11:../lpc11cx4-library/lpc_chip_11cxx_lib/src/ring_buffer.c ****  * LPC products.  This software is supplied "AS IS" without any warranties of
  12:../lpc11cx4-library/lpc_chip_11cxx_lib/src/ring_buffer.c ****  * any kind, and NXP Semiconductors and its licensor disclaim any and
  13:../lpc11cx4-library/lpc_chip_11cxx_lib/src/ring_buffer.c ****  * all warranties, express or implied, including all implied warranties of
  14:../lpc11cx4-library/lpc_chip_11cxx_lib/src/ring_buffer.c ****  * merchantability, fitness for a particular purpose and non-infringement of
  15:../lpc11cx4-library/lpc_chip_11cxx_lib/src/ring_buffer.c ****  * intellectual property rights.  NXP Semiconductors assumes no responsibility
  16:../lpc11cx4-library/lpc_chip_11cxx_lib/src/ring_buffer.c ****  * or liability for the use of the software, conveys no license or rights under any
  17:../lpc11cx4-library/lpc_chip_11cxx_lib/src/ring_buffer.c ****  * patent, copyright, mask work right, or any other intellectual property rights in
  18:../lpc11cx4-library/lpc_chip_11cxx_lib/src/ring_buffer.c ****  * or to any products. NXP Semiconductors reserves the right to make changes
  19:../lpc11cx4-library/lpc_chip_11cxx_lib/src/ring_buffer.c ****  * in the software without notification. NXP Semiconductors also makes no
  20:../lpc11cx4-library/lpc_chip_11cxx_lib/src/ring_buffer.c ****  * representation or warranty that such application will be suitable for the
  21:../lpc11cx4-library/lpc_chip_11cxx_lib/src/ring_buffer.c ****  * specified use without further testing or modification.
  22:../lpc11cx4-library/lpc_chip_11cxx_lib/src/ring_buffer.c ****  *
  23:../lpc11cx4-library/lpc_chip_11cxx_lib/src/ring_buffer.c ****  * @par
  24:../lpc11cx4-library/lpc_chip_11cxx_lib/src/ring_buffer.c ****  * Permission to use, copy, modify, and distribute this software and its
  25:../lpc11cx4-library/lpc_chip_11cxx_lib/src/ring_buffer.c ****  * documentation is hereby granted, under NXP Semiconductors' and its
  26:../lpc11cx4-library/lpc_chip_11cxx_lib/src/ring_buffer.c ****  * licensor's relevant copyrights in the software, without fee, provided that it
  27:../lpc11cx4-library/lpc_chip_11cxx_lib/src/ring_buffer.c ****  * is used in conjunction with NXP Semiconductors microcontrollers.  This
  28:../lpc11cx4-library/lpc_chip_11cxx_lib/src/ring_buffer.c ****  * copyright, permission, and disclaimer notice must appear in all copies of
  29:../lpc11cx4-library/lpc_chip_11cxx_lib/src/ring_buffer.c ****  * this code.
  30:../lpc11cx4-library/lpc_chip_11cxx_lib/src/ring_buffer.c ****  */
  31:../lpc11cx4-library/lpc_chip_11cxx_lib/src/ring_buffer.c **** 
  32:../lpc11cx4-library/lpc_chip_11cxx_lib/src/ring_buffer.c **** #include <string.h>
  33:../lpc11cx4-library/lpc_chip_11cxx_lib/src/ring_buffer.c **** #include "ring_buffer.h"
  34:../lpc11cx4-library/lpc_chip_11cxx_lib/src/ring_buffer.c **** 
  35:../lpc11cx4-library/lpc_chip_11cxx_lib/src/ring_buffer.c **** /*****************************************************************************
ARM GAS  /var/folders/9j/_txx49hn253_s3mnzkyxlj8m0000gp/T//ccd02Qpg.s 			page 3


  36:../lpc11cx4-library/lpc_chip_11cxx_lib/src/ring_buffer.c ****  * Private types/enumerations/variables
  37:../lpc11cx4-library/lpc_chip_11cxx_lib/src/ring_buffer.c ****  ****************************************************************************/
  38:../lpc11cx4-library/lpc_chip_11cxx_lib/src/ring_buffer.c **** 
  39:../lpc11cx4-library/lpc_chip_11cxx_lib/src/ring_buffer.c **** #define RB_INDH(rb)                ((rb)->head % (rb)->count)
  40:../lpc11cx4-library/lpc_chip_11cxx_lib/src/ring_buffer.c **** #define RB_INDT(rb)                ((rb)->tail % (rb)->count)
  41:../lpc11cx4-library/lpc_chip_11cxx_lib/src/ring_buffer.c **** 
  42:../lpc11cx4-library/lpc_chip_11cxx_lib/src/ring_buffer.c **** /*****************************************************************************
  43:../lpc11cx4-library/lpc_chip_11cxx_lib/src/ring_buffer.c ****  * Public types/enumerations/variables
  44:../lpc11cx4-library/lpc_chip_11cxx_lib/src/ring_buffer.c ****  ****************************************************************************/
  45:../lpc11cx4-library/lpc_chip_11cxx_lib/src/ring_buffer.c **** 
  46:../lpc11cx4-library/lpc_chip_11cxx_lib/src/ring_buffer.c **** /*****************************************************************************
  47:../lpc11cx4-library/lpc_chip_11cxx_lib/src/ring_buffer.c ****  * Private functions
  48:../lpc11cx4-library/lpc_chip_11cxx_lib/src/ring_buffer.c ****  ****************************************************************************/
  49:../lpc11cx4-library/lpc_chip_11cxx_lib/src/ring_buffer.c **** 
  50:../lpc11cx4-library/lpc_chip_11cxx_lib/src/ring_buffer.c **** /*****************************************************************************
  51:../lpc11cx4-library/lpc_chip_11cxx_lib/src/ring_buffer.c ****  * Public functions
  52:../lpc11cx4-library/lpc_chip_11cxx_lib/src/ring_buffer.c ****  ****************************************************************************/
  53:../lpc11cx4-library/lpc_chip_11cxx_lib/src/ring_buffer.c **** 
  54:../lpc11cx4-library/lpc_chip_11cxx_lib/src/ring_buffer.c **** /* Initialize ring buffer */
  55:../lpc11cx4-library/lpc_chip_11cxx_lib/src/ring_buffer.c **** int RingBuffer_Init(RINGBUFF_T *RingBuff, void *buffer, uint32_t itemSize, uint32_t count)
  56:../lpc11cx4-library/lpc_chip_11cxx_lib/src/ring_buffer.c **** {
  80              		.loc 1 56 0
  81              		.cfi_startproc
  82              	.LVL0:
  57:../lpc11cx4-library/lpc_chip_11cxx_lib/src/ring_buffer.c **** 	RingBuff->data = buffer;
  58:../lpc11cx4-library/lpc_chip_11cxx_lib/src/ring_buffer.c **** 	RingBuff->count = count;
  83              		.loc 1 58 0
  84 0000 4360     		str	r3, [r0, #4]	@ count, RingBuff_2(D)->count
  59:../lpc11cx4-library/lpc_chip_11cxx_lib/src/ring_buffer.c **** 	RingBuff->itemSz = itemSize;
  60:../lpc11cx4-library/lpc_chip_11cxx_lib/src/ring_buffer.c **** 	RingBuff->head = RingBuff->tail = 0;
  85              		.loc 1 60 0
  86 0002 0023     		mov	r3, #0	@ tmp115,
  87              	.LVL1:
  57:../lpc11cx4-library/lpc_chip_11cxx_lib/src/ring_buffer.c **** 	RingBuff->data = buffer;
  88              		.loc 1 57 0
  89 0004 0160     		str	r1, [r0]	@ buffer, RingBuff_2(D)->data
  59:../lpc11cx4-library/lpc_chip_11cxx_lib/src/ring_buffer.c **** 	RingBuff->itemSz = itemSize;
  90              		.loc 1 59 0
  91 0006 8260     		str	r2, [r0, #8]	@ itemSize, RingBuff_2(D)->itemSz
  92              		.loc 1 60 0
  93 0008 0361     		str	r3, [r0, #16]	@ tmp115, RingBuff_2(D)->tail
  94 000a C360     		str	r3, [r0, #12]	@ tmp115, RingBuff_2(D)->head
  61:../lpc11cx4-library/lpc_chip_11cxx_lib/src/ring_buffer.c **** 
  62:../lpc11cx4-library/lpc_chip_11cxx_lib/src/ring_buffer.c **** 	return 1;
  63:../lpc11cx4-library/lpc_chip_11cxx_lib/src/ring_buffer.c **** }
  95              		.loc 1 63 0
  96              		@ sp needed	@
  97 000c 0120     		mov	r0, #1	@,
  98              	.LVL2:
  99 000e 7047     		bx	lr
 100              		.cfi_endproc
 101              	.LFE6:
 102              		.size	RingBuffer_Init, .-RingBuffer_Init
 103              		.global	__aeabi_uidivmod
 104              		.section	.text.RingBuffer_Insert,"ax",%progbits
 105              		.align	2
 106              		.global	RingBuffer_Insert
ARM GAS  /var/folders/9j/_txx49hn253_s3mnzkyxlj8m0000gp/T//ccd02Qpg.s 			page 4


 107              		.code	16
 108              		.thumb_func
 109              		.type	RingBuffer_Insert, %function
 110              	RingBuffer_Insert:
 111              	.LFB7:
  64:../lpc11cx4-library/lpc_chip_11cxx_lib/src/ring_buffer.c **** 
  65:../lpc11cx4-library/lpc_chip_11cxx_lib/src/ring_buffer.c **** /* Insert a single item into Ring Buffer */
  66:../lpc11cx4-library/lpc_chip_11cxx_lib/src/ring_buffer.c **** int RingBuffer_Insert(RINGBUFF_T *RingBuff, const void *data)
  67:../lpc11cx4-library/lpc_chip_11cxx_lib/src/ring_buffer.c **** {
 112              		.loc 1 67 0
 113              		.cfi_startproc
 114              	.LVL3:
 115 0000 F8B5     		push	{r3, r4, r5, r6, r7, lr}	@
 116              		.cfi_def_cfa_offset 24
 117              		.cfi_offset 3, -24
 118              		.cfi_offset 4, -20
 119              		.cfi_offset 5, -16
 120              		.cfi_offset 6, -12
 121              		.cfi_offset 7, -8
 122              		.cfi_offset 14, -4
 123 0002 4F46     		mov	r7, r9	@,
 124 0004 4646     		mov	r6, r8	@,
 125              	.LBB24:
 126              	.LBB25:
 127              	.LBB26:
 128              	.LBB27:
 129              		.file 2 "../lpc11cx4-library/lpc_chip_11cxx_lib/inc/ring_buffer.h"
   1:../lpc11cx4-library/lpc_chip_11cxx_lib/inc/ring_buffer.h **** /*
   2:../lpc11cx4-library/lpc_chip_11cxx_lib/inc/ring_buffer.h ****  * @brief Common ring buffer support functions
   3:../lpc11cx4-library/lpc_chip_11cxx_lib/inc/ring_buffer.h ****  *
   4:../lpc11cx4-library/lpc_chip_11cxx_lib/inc/ring_buffer.h ****  * @note
   5:../lpc11cx4-library/lpc_chip_11cxx_lib/inc/ring_buffer.h ****  * Copyright(C) NXP Semiconductors, 2012
   6:../lpc11cx4-library/lpc_chip_11cxx_lib/inc/ring_buffer.h ****  * All rights reserved.
   7:../lpc11cx4-library/lpc_chip_11cxx_lib/inc/ring_buffer.h ****  *
   8:../lpc11cx4-library/lpc_chip_11cxx_lib/inc/ring_buffer.h ****  * @par
   9:../lpc11cx4-library/lpc_chip_11cxx_lib/inc/ring_buffer.h ****  * Software that is described herein is for illustrative purposes only
  10:../lpc11cx4-library/lpc_chip_11cxx_lib/inc/ring_buffer.h ****  * which provides customers with programming information regarding the
  11:../lpc11cx4-library/lpc_chip_11cxx_lib/inc/ring_buffer.h ****  * LPC products.  This software is supplied "AS IS" without any warranties of
  12:../lpc11cx4-library/lpc_chip_11cxx_lib/inc/ring_buffer.h ****  * any kind, and NXP Semiconductors and its licensor disclaim any and
  13:../lpc11cx4-library/lpc_chip_11cxx_lib/inc/ring_buffer.h ****  * all warranties, express or implied, including all implied warranties of
  14:../lpc11cx4-library/lpc_chip_11cxx_lib/inc/ring_buffer.h ****  * merchantability, fitness for a particular purpose and non-infringement of
  15:../lpc11cx4-library/lpc_chip_11cxx_lib/inc/ring_buffer.h ****  * intellectual property rights.  NXP Semiconductors assumes no responsibility
  16:../lpc11cx4-library/lpc_chip_11cxx_lib/inc/ring_buffer.h ****  * or liability for the use of the software, conveys no license or rights under any
  17:../lpc11cx4-library/lpc_chip_11cxx_lib/inc/ring_buffer.h ****  * patent, copyright, mask work right, or any other intellectual property rights in
  18:../lpc11cx4-library/lpc_chip_11cxx_lib/inc/ring_buffer.h ****  * or to any products. NXP Semiconductors reserves the right to make changes
  19:../lpc11cx4-library/lpc_chip_11cxx_lib/inc/ring_buffer.h ****  * in the software without notification. NXP Semiconductors also makes no
  20:../lpc11cx4-library/lpc_chip_11cxx_lib/inc/ring_buffer.h ****  * representation or warranty that such application will be suitable for the
  21:../lpc11cx4-library/lpc_chip_11cxx_lib/inc/ring_buffer.h ****  * specified use without further testing or modification.
  22:../lpc11cx4-library/lpc_chip_11cxx_lib/inc/ring_buffer.h ****  *
  23:../lpc11cx4-library/lpc_chip_11cxx_lib/inc/ring_buffer.h ****  * @par
  24:../lpc11cx4-library/lpc_chip_11cxx_lib/inc/ring_buffer.h ****  * Permission to use, copy, modify, and distribute this software and its
  25:../lpc11cx4-library/lpc_chip_11cxx_lib/inc/ring_buffer.h ****  * documentation is hereby granted, under NXP Semiconductors' and its
  26:../lpc11cx4-library/lpc_chip_11cxx_lib/inc/ring_buffer.h ****  * licensor's relevant copyrights in the software, without fee, provided that it
  27:../lpc11cx4-library/lpc_chip_11cxx_lib/inc/ring_buffer.h ****  * is used in conjunction with NXP Semiconductors microcontrollers.  This
  28:../lpc11cx4-library/lpc_chip_11cxx_lib/inc/ring_buffer.h ****  * copyright, permission, and disclaimer notice must appear in all copies of
  29:../lpc11cx4-library/lpc_chip_11cxx_lib/inc/ring_buffer.h ****  * this code.
  30:../lpc11cx4-library/lpc_chip_11cxx_lib/inc/ring_buffer.h ****  */
ARM GAS  /var/folders/9j/_txx49hn253_s3mnzkyxlj8m0000gp/T//ccd02Qpg.s 			page 5


  31:../lpc11cx4-library/lpc_chip_11cxx_lib/inc/ring_buffer.h **** 
  32:../lpc11cx4-library/lpc_chip_11cxx_lib/inc/ring_buffer.h **** #ifndef __RING_BUFFER_H_
  33:../lpc11cx4-library/lpc_chip_11cxx_lib/inc/ring_buffer.h **** #define __RING_BUFFER_H_
  34:../lpc11cx4-library/lpc_chip_11cxx_lib/inc/ring_buffer.h **** 
  35:../lpc11cx4-library/lpc_chip_11cxx_lib/inc/ring_buffer.h **** #include "lpc_types.h"
  36:../lpc11cx4-library/lpc_chip_11cxx_lib/inc/ring_buffer.h **** 
  37:../lpc11cx4-library/lpc_chip_11cxx_lib/inc/ring_buffer.h **** /** @defgroup Ring_Buffer CHIP: Simple ring buffer implementation
  38:../lpc11cx4-library/lpc_chip_11cxx_lib/inc/ring_buffer.h ****  * @ingroup CHIP_Common
  39:../lpc11cx4-library/lpc_chip_11cxx_lib/inc/ring_buffer.h ****  * @{
  40:../lpc11cx4-library/lpc_chip_11cxx_lib/inc/ring_buffer.h ****  */
  41:../lpc11cx4-library/lpc_chip_11cxx_lib/inc/ring_buffer.h **** 
  42:../lpc11cx4-library/lpc_chip_11cxx_lib/inc/ring_buffer.h **** /**
  43:../lpc11cx4-library/lpc_chip_11cxx_lib/inc/ring_buffer.h ****  * @brief Ring buffer structure
  44:../lpc11cx4-library/lpc_chip_11cxx_lib/inc/ring_buffer.h ****  */
  45:../lpc11cx4-library/lpc_chip_11cxx_lib/inc/ring_buffer.h **** typedef struct {
  46:../lpc11cx4-library/lpc_chip_11cxx_lib/inc/ring_buffer.h **** 	void *data;
  47:../lpc11cx4-library/lpc_chip_11cxx_lib/inc/ring_buffer.h **** 	uint32_t count;
  48:../lpc11cx4-library/lpc_chip_11cxx_lib/inc/ring_buffer.h **** 	uint32_t itemSz;
  49:../lpc11cx4-library/lpc_chip_11cxx_lib/inc/ring_buffer.h **** 	uint32_t head;
  50:../lpc11cx4-library/lpc_chip_11cxx_lib/inc/ring_buffer.h **** 	uint32_t tail;
  51:../lpc11cx4-library/lpc_chip_11cxx_lib/inc/ring_buffer.h **** } RINGBUFF_T;
  52:../lpc11cx4-library/lpc_chip_11cxx_lib/inc/ring_buffer.h **** 
  53:../lpc11cx4-library/lpc_chip_11cxx_lib/inc/ring_buffer.h **** /**
  54:../lpc11cx4-library/lpc_chip_11cxx_lib/inc/ring_buffer.h ****  * @def		RB_VHEAD(rb)
  55:../lpc11cx4-library/lpc_chip_11cxx_lib/inc/ring_buffer.h ****  * volatile typecasted head index
  56:../lpc11cx4-library/lpc_chip_11cxx_lib/inc/ring_buffer.h ****  */
  57:../lpc11cx4-library/lpc_chip_11cxx_lib/inc/ring_buffer.h **** // #define RB_VHEAD(rb)              (*(volatile uint32_t *) &(rb)->head)
  58:../lpc11cx4-library/lpc_chip_11cxx_lib/inc/ring_buffer.h **** #define RB_VHEAD(rb)				((volatile uint32_t)(rb->head))
  59:../lpc11cx4-library/lpc_chip_11cxx_lib/inc/ring_buffer.h **** 
  60:../lpc11cx4-library/lpc_chip_11cxx_lib/inc/ring_buffer.h **** /**
  61:../lpc11cx4-library/lpc_chip_11cxx_lib/inc/ring_buffer.h ****  * @def		RB_VTAIL(rb)
  62:../lpc11cx4-library/lpc_chip_11cxx_lib/inc/ring_buffer.h ****  * volatile typecasted tail index
  63:../lpc11cx4-library/lpc_chip_11cxx_lib/inc/ring_buffer.h ****  */
  64:../lpc11cx4-library/lpc_chip_11cxx_lib/inc/ring_buffer.h **** // #define RB_VTAIL(rb)              (*(volatile uint32_t *) &(rb)->tail)
  65:../lpc11cx4-library/lpc_chip_11cxx_lib/inc/ring_buffer.h **** #define RB_VTAIL(rb)				((volatile uint32_t)(rb->tail))
  66:../lpc11cx4-library/lpc_chip_11cxx_lib/inc/ring_buffer.h **** 
  67:../lpc11cx4-library/lpc_chip_11cxx_lib/inc/ring_buffer.h **** /**
  68:../lpc11cx4-library/lpc_chip_11cxx_lib/inc/ring_buffer.h ****  * @brief	Initialize ring buffer
  69:../lpc11cx4-library/lpc_chip_11cxx_lib/inc/ring_buffer.h ****  * @param	RingBuff	: Pointer to ring buffer to initialize
  70:../lpc11cx4-library/lpc_chip_11cxx_lib/inc/ring_buffer.h ****  * @param	buffer		: Pointer to buffer to associate with RingBuff
  71:../lpc11cx4-library/lpc_chip_11cxx_lib/inc/ring_buffer.h ****  * @param	itemSize	: Size of each buffer item size
  72:../lpc11cx4-library/lpc_chip_11cxx_lib/inc/ring_buffer.h ****  * @param	count		: Size of ring buffer
  73:../lpc11cx4-library/lpc_chip_11cxx_lib/inc/ring_buffer.h ****  * @note	Memory pointed by @a buffer must have correct alignment of
  74:../lpc11cx4-library/lpc_chip_11cxx_lib/inc/ring_buffer.h ****  * 			@a itemSize, and @a count must be a power of 2 and must at
  75:../lpc11cx4-library/lpc_chip_11cxx_lib/inc/ring_buffer.h ****  * 			least be 2 or greater.
  76:../lpc11cx4-library/lpc_chip_11cxx_lib/inc/ring_buffer.h ****  * @return	Nothing
  77:../lpc11cx4-library/lpc_chip_11cxx_lib/inc/ring_buffer.h ****  */
  78:../lpc11cx4-library/lpc_chip_11cxx_lib/inc/ring_buffer.h **** int RingBuffer_Init(RINGBUFF_T *RingBuff, void *buffer, uint32_t itemSize, uint32_t count);
  79:../lpc11cx4-library/lpc_chip_11cxx_lib/inc/ring_buffer.h **** 
  80:../lpc11cx4-library/lpc_chip_11cxx_lib/inc/ring_buffer.h **** /**
  81:../lpc11cx4-library/lpc_chip_11cxx_lib/inc/ring_buffer.h ****  * @brief	Resets the ring buffer to empty
  82:../lpc11cx4-library/lpc_chip_11cxx_lib/inc/ring_buffer.h ****  * @param	RingBuff	: Pointer to ring buffer
  83:../lpc11cx4-library/lpc_chip_11cxx_lib/inc/ring_buffer.h ****  * @return	Nothing
  84:../lpc11cx4-library/lpc_chip_11cxx_lib/inc/ring_buffer.h ****  */
  85:../lpc11cx4-library/lpc_chip_11cxx_lib/inc/ring_buffer.h **** STATIC INLINE void RingBuffer_Flush(RINGBUFF_T *RingBuff)
  86:../lpc11cx4-library/lpc_chip_11cxx_lib/inc/ring_buffer.h **** {
  87:../lpc11cx4-library/lpc_chip_11cxx_lib/inc/ring_buffer.h **** 	RingBuff->head = RingBuff->tail = 0;
ARM GAS  /var/folders/9j/_txx49hn253_s3mnzkyxlj8m0000gp/T//ccd02Qpg.s 			page 6


  88:../lpc11cx4-library/lpc_chip_11cxx_lib/inc/ring_buffer.h **** }
  89:../lpc11cx4-library/lpc_chip_11cxx_lib/inc/ring_buffer.h **** 
  90:../lpc11cx4-library/lpc_chip_11cxx_lib/inc/ring_buffer.h **** /**
  91:../lpc11cx4-library/lpc_chip_11cxx_lib/inc/ring_buffer.h ****  * @brief	Return size the ring buffer
  92:../lpc11cx4-library/lpc_chip_11cxx_lib/inc/ring_buffer.h ****  * @param	RingBuff	: Pointer to ring buffer
  93:../lpc11cx4-library/lpc_chip_11cxx_lib/inc/ring_buffer.h ****  * @return	Size of the ring buffer in bytes
  94:../lpc11cx4-library/lpc_chip_11cxx_lib/inc/ring_buffer.h ****  */
  95:../lpc11cx4-library/lpc_chip_11cxx_lib/inc/ring_buffer.h **** STATIC INLINE uint32_t RingBuffer_GetSize(RINGBUFF_T *RingBuff)
  96:../lpc11cx4-library/lpc_chip_11cxx_lib/inc/ring_buffer.h **** {
  97:../lpc11cx4-library/lpc_chip_11cxx_lib/inc/ring_buffer.h **** 	return RingBuff->count;
  98:../lpc11cx4-library/lpc_chip_11cxx_lib/inc/ring_buffer.h **** }
  99:../lpc11cx4-library/lpc_chip_11cxx_lib/inc/ring_buffer.h **** 
 100:../lpc11cx4-library/lpc_chip_11cxx_lib/inc/ring_buffer.h **** /**
 101:../lpc11cx4-library/lpc_chip_11cxx_lib/inc/ring_buffer.h ****  * @brief	Return number of items in the ring buffer
 102:../lpc11cx4-library/lpc_chip_11cxx_lib/inc/ring_buffer.h ****  * @param	RingBuff	: Pointer to ring buffer
 103:../lpc11cx4-library/lpc_chip_11cxx_lib/inc/ring_buffer.h ****  * @return	Number of items in the ring buffer
 104:../lpc11cx4-library/lpc_chip_11cxx_lib/inc/ring_buffer.h ****  */
 105:../lpc11cx4-library/lpc_chip_11cxx_lib/inc/ring_buffer.h **** STATIC INLINE uint32_t RingBuffer_GetCount(RINGBUFF_T *RingBuff)
 106:../lpc11cx4-library/lpc_chip_11cxx_lib/inc/ring_buffer.h **** {
 107:../lpc11cx4-library/lpc_chip_11cxx_lib/inc/ring_buffer.h **** 	return RB_VHEAD(RingBuff) - RB_VTAIL(RingBuff);
 130              		.loc 2 107 0
 131 0006 0269     		ldr	r2, [r0, #16]	@ tmp145, MEM[(long unsigned int *)RingBuff_4(D) + 16B]
 132              	.LBE27:
 133              	.LBE26:
 134              	.LBE25:
 135              	.LBE24:
 136              		.loc 1 67 0
 137 0008 C0B4     		push	{r6, r7}	@
 138              		.cfi_def_cfa_offset 32
 139              		.cfi_offset 8, -32
 140              		.cfi_offset 9, -28
 141              	.LBB32:
 142              	.LBB30:
 108:../lpc11cx4-library/lpc_chip_11cxx_lib/inc/ring_buffer.h **** }
 109:../lpc11cx4-library/lpc_chip_11cxx_lib/inc/ring_buffer.h **** 
 110:../lpc11cx4-library/lpc_chip_11cxx_lib/inc/ring_buffer.h **** /**
 111:../lpc11cx4-library/lpc_chip_11cxx_lib/inc/ring_buffer.h ****  * @brief	Return number of free items in the ring buffer
 112:../lpc11cx4-library/lpc_chip_11cxx_lib/inc/ring_buffer.h ****  * @param	RingBuff	: Pointer to ring buffer
 113:../lpc11cx4-library/lpc_chip_11cxx_lib/inc/ring_buffer.h ****  * @return	Number of free items in the ring buffer
 114:../lpc11cx4-library/lpc_chip_11cxx_lib/inc/ring_buffer.h ****  */
 115:../lpc11cx4-library/lpc_chip_11cxx_lib/inc/ring_buffer.h **** STATIC INLINE uint32_t RingBuffer_GetFree(RINGBUFF_T *RingBuff)
 116:../lpc11cx4-library/lpc_chip_11cxx_lib/inc/ring_buffer.h **** {
 117:../lpc11cx4-library/lpc_chip_11cxx_lib/inc/ring_buffer.h **** 	return RingBuff->count - RingBuffer_GetCount(RingBuff);
 118:../lpc11cx4-library/lpc_chip_11cxx_lib/inc/ring_buffer.h **** }
 119:../lpc11cx4-library/lpc_chip_11cxx_lib/inc/ring_buffer.h **** 
 120:../lpc11cx4-library/lpc_chip_11cxx_lib/inc/ring_buffer.h **** /**
 121:../lpc11cx4-library/lpc_chip_11cxx_lib/inc/ring_buffer.h ****  * @brief	Return number of items in the ring buffer
 122:../lpc11cx4-library/lpc_chip_11cxx_lib/inc/ring_buffer.h ****  * @param	RingBuff	: Pointer to ring buffer
 123:../lpc11cx4-library/lpc_chip_11cxx_lib/inc/ring_buffer.h ****  * @return	1 if the ring buffer is full, otherwise 0
 124:../lpc11cx4-library/lpc_chip_11cxx_lib/inc/ring_buffer.h ****  */
 125:../lpc11cx4-library/lpc_chip_11cxx_lib/inc/ring_buffer.h **** STATIC INLINE int RingBuffer_IsFull(RINGBUFF_T *RingBuff)
 126:../lpc11cx4-library/lpc_chip_11cxx_lib/inc/ring_buffer.h **** {
 127:../lpc11cx4-library/lpc_chip_11cxx_lib/inc/ring_buffer.h **** 	return (RingBuffer_GetCount(RingBuff) >= RingBuff->count);
 143              		.loc 2 127 0
 144 000a 4568     		ldr	r5, [r0, #4]	@ D.4726, RingBuff_4(D)->count
 145 000c C668     		ldr	r6, [r0, #12]	@ D.4727, MEM[(long unsigned int *)RingBuff_4(D) + 12B]
 146              	.LBE30:
ARM GAS  /var/folders/9j/_txx49hn253_s3mnzkyxlj8m0000gp/T//ccd02Qpg.s 			page 7


 147              	.LBE32:
 148              		.loc 1 67 0
 149 000e 031C     		mov	r3, r0	@ RingBuff, RingBuff
  68:../lpc11cx4-library/lpc_chip_11cxx_lib/src/ring_buffer.c **** 	uint8_t *ptr = RingBuff->data;
 150              		.loc 1 68 0
 151 0010 0768     		ldr	r7, [r0]	@ ptr, RingBuff_4(D)->data
 152              	.LVL4:
 153              	.LBB33:
 154              	.LBB31:
 155              	.LBB29:
 156              	.LBB28:
 107:../lpc11cx4-library/lpc_chip_11cxx_lib/inc/ring_buffer.h **** }
 157              		.loc 2 107 0
 158 0012 B21A     		sub	r2, r6, r2	@ D.4727, D.4727, tmp145
 159              	.LBE28:
 160              	.LBE29:
 161              	.LBE31:
 162              	.LBE33:
  69:../lpc11cx4-library/lpc_chip_11cxx_lib/src/ring_buffer.c **** 
  70:../lpc11cx4-library/lpc_chip_11cxx_lib/src/ring_buffer.c **** 	/* We cannot insert when queue is full */
  71:../lpc11cx4-library/lpc_chip_11cxx_lib/src/ring_buffer.c **** 	if (RingBuffer_IsFull(RingBuff))
  72:../lpc11cx4-library/lpc_chip_11cxx_lib/src/ring_buffer.c **** 		return 0;
 163              		.loc 1 72 0
 164 0014 0020     		mov	r0, #0	@ D.4725,
 165              	.LVL5:
  71:../lpc11cx4-library/lpc_chip_11cxx_lib/src/ring_buffer.c **** 		return 0;
 166              		.loc 1 71 0
 167 0016 AA42     		cmp	r2, r5	@ D.4727, D.4726
 168 0018 12D2     		bcs	.L3	@,
 169 001a 1C1C     		mov	r4, r3	@ RingBuff, RingBuff
  73:../lpc11cx4-library/lpc_chip_11cxx_lib/src/ring_buffer.c **** 
  74:../lpc11cx4-library/lpc_chip_11cxx_lib/src/ring_buffer.c **** 	ptr += RB_INDH(RingBuff) * RingBuff->itemSz;
 170              		.loc 1 74 0
 171 001c 9B68     		ldr	r3, [r3, #8]	@ D.4726, RingBuff_4(D)->itemSz
 172              	.LVL6:
 173 001e 8846     		mov	r8, r1	@ data, data
 174 0020 9946     		mov	r9, r3	@ D.4726, D.4726
 175              	.LVL7:
 176 0022 301C     		mov	r0, r6	@, D.4727
 177 0024 291C     		mov	r1, r5	@, D.4726
 178              	.LVL8:
 179 0026 FFF7FEFF 		bl	__aeabi_uidivmod	@
 180              	.LVL9:
 181 002a 4846     		mov	r0, r9	@ D.4726, D.4726
 182 002c 4843     		mul	r0, r1	@ D.4726, D.4726
  75:../lpc11cx4-library/lpc_chip_11cxx_lib/src/ring_buffer.c **** 	memcpy(ptr, data, RingBuff->itemSz);
 183              		.loc 1 75 0
 184 002e 4A46     		mov	r2, r9	@, D.4726
  74:../lpc11cx4-library/lpc_chip_11cxx_lib/src/ring_buffer.c **** 	memcpy(ptr, data, RingBuff->itemSz);
 185              		.loc 1 74 0
 186 0030 3818     		add	r0, r7, r0	@ ptr, ptr, D.4726
 187              		.loc 1 75 0
 188 0032 4146     		mov	r1, r8	@, data
 189 0034 FFF7FEFF 		bl	memcpy	@
 190              	.LVL10:
  76:../lpc11cx4-library/lpc_chip_11cxx_lib/src/ring_buffer.c **** 	RingBuff->head++;
  77:../lpc11cx4-library/lpc_chip_11cxx_lib/src/ring_buffer.c **** 
ARM GAS  /var/folders/9j/_txx49hn253_s3mnzkyxlj8m0000gp/T//ccd02Qpg.s 			page 8


  78:../lpc11cx4-library/lpc_chip_11cxx_lib/src/ring_buffer.c **** 	return 1;
 191              		.loc 1 78 0
 192 0038 0120     		mov	r0, #1	@ D.4725,
  76:../lpc11cx4-library/lpc_chip_11cxx_lib/src/ring_buffer.c **** 	RingBuff->head++;
 193              		.loc 1 76 0
 194 003a E368     		ldr	r3, [r4, #12]	@ tmp148, RingBuff_4(D)->head
 195 003c 0133     		add	r3, r3, #1	@ D.4726,
 196 003e E360     		str	r3, [r4, #12]	@ D.4726, RingBuff_4(D)->head
 197              	.LVL11:
 198              	.L3:
  79:../lpc11cx4-library/lpc_chip_11cxx_lib/src/ring_buffer.c **** }
 199              		.loc 1 79 0
 200              		@ sp needed	@
 201 0040 0CBC     		pop	{r2, r3}
 202 0042 9046     		mov	r8, r2
 203 0044 9946     		mov	r9, r3
 204 0046 F8BD     		pop	{r3, r4, r5, r6, r7, pc}
 205              		.cfi_endproc
 206              	.LFE7:
 207              		.size	RingBuffer_Insert, .-RingBuffer_Insert
 208              		.section	.text.RingBuffer_InsertMult,"ax",%progbits
 209              		.align	2
 210              		.global	RingBuffer_InsertMult
 211              		.code	16
 212              		.thumb_func
 213              		.type	RingBuffer_InsertMult, %function
 214              	RingBuffer_InsertMult:
 215              	.LFB8:
  80:../lpc11cx4-library/lpc_chip_11cxx_lib/src/ring_buffer.c **** 
  81:../lpc11cx4-library/lpc_chip_11cxx_lib/src/ring_buffer.c **** /* Insert multiple items into Ring Buffer */
  82:../lpc11cx4-library/lpc_chip_11cxx_lib/src/ring_buffer.c **** uint32_t RingBuffer_InsertMult(RINGBUFF_T *RingBuff, const void *data, int num)
  83:../lpc11cx4-library/lpc_chip_11cxx_lib/src/ring_buffer.c **** {
 216              		.loc 1 83 0
 217              		.cfi_startproc
 218              	.LVL12:
 219 0000 F8B5     		push	{r3, r4, r5, r6, r7, lr}	@
 220              		.cfi_def_cfa_offset 24
 221              		.cfi_offset 3, -24
 222              		.cfi_offset 4, -20
 223              		.cfi_offset 5, -16
 224              		.cfi_offset 6, -12
 225              		.cfi_offset 7, -8
 226              		.cfi_offset 14, -4
 227 0002 4F46     		mov	r7, r9	@,
 228 0004 4646     		mov	r6, r8	@,
  84:../lpc11cx4-library/lpc_chip_11cxx_lib/src/ring_buffer.c **** 
  85:../lpc11cx4-library/lpc_chip_11cxx_lib/src/ring_buffer.c **** 	uint8_t *ptr = RingBuff->data;
 229              		.loc 1 85 0
 230 0006 0368     		ldr	r3, [r0]	@ ptr, RingBuff_5(D)->data
  83:../lpc11cx4-library/lpc_chip_11cxx_lib/src/ring_buffer.c **** 
 231              		.loc 1 83 0
 232 0008 C0B4     		push	{r6, r7}	@
 233              		.cfi_def_cfa_offset 32
 234              		.cfi_offset 8, -32
 235              		.cfi_offset 9, -28
  83:../lpc11cx4-library/lpc_chip_11cxx_lib/src/ring_buffer.c **** 
 236              		.loc 1 83 0
ARM GAS  /var/folders/9j/_txx49hn253_s3mnzkyxlj8m0000gp/T//ccd02Qpg.s 			page 9


 237 000a 151C     		mov	r5, r2	@ num, num
 238              		.loc 1 85 0
 239 000c 9946     		mov	r9, r3	@ ptr, ptr
 240              	.LVL13:
 241 000e C268     		ldr	r2, [r0, #12]	@ D.4734, MEM[(long unsigned int *)RingBuff_5(D) + 12B]
 242              	.LVL14:
 243              	.LBB34:
 244              	.LBB35:
 245              	.LBB36:
 246              	.LBB37:
 107:../lpc11cx4-library/lpc_chip_11cxx_lib/inc/ring_buffer.h **** }
 247              		.loc 2 107 0
 248 0010 0369     		ldr	r3, [r0, #16]	@ tmp191, MEM[(long unsigned int *)RingBuff_5(D) + 16B]
 249              	.LVL15:
 250              	.LBE37:
 251              	.LBE36:
 252              		.loc 2 127 0
 253 0012 4768     		ldr	r7, [r0, #4]	@ D.4735, RingBuff_5(D)->count
 254              	.LBB39:
 255              	.LBB38:
 107:../lpc11cx4-library/lpc_chip_11cxx_lib/inc/ring_buffer.h **** }
 256              		.loc 2 107 0
 257 0014 D31A     		sub	r3, r2, r3	@ D.4734, D.4734, tmp191
 258              	.LBE38:
 259              	.LBE39:
 260              	.LBE35:
 261              	.LBE34:
  86:../lpc11cx4-library/lpc_chip_11cxx_lib/src/ring_buffer.c **** 	int cnt1, cnt2;
  87:../lpc11cx4-library/lpc_chip_11cxx_lib/src/ring_buffer.c **** 
  88:../lpc11cx4-library/lpc_chip_11cxx_lib/src/ring_buffer.c **** 	/* We cannot insert when queue is full */
  89:../lpc11cx4-library/lpc_chip_11cxx_lib/src/ring_buffer.c **** 	if (RingBuffer_IsFull(RingBuff))
  90:../lpc11cx4-library/lpc_chip_11cxx_lib/src/ring_buffer.c **** 		return 0;
 262              		.loc 1 90 0
 263 0016 0024     		mov	r4, #0	@ D.4734,
  89:../lpc11cx4-library/lpc_chip_11cxx_lib/src/ring_buffer.c **** 		return 0;
 264              		.loc 1 89 0
 265 0018 BB42     		cmp	r3, r7	@ D.4734, D.4735
 266 001a 32D2     		bcs	.L7	@,
 267 001c A846     		mov	r8, r5	@ num, num
 268 001e 0E1C     		mov	r6, r1	@ data, data
 269 0020 051C     		mov	r5, r0	@ RingBuff, RingBuff
 270              	.LVL16:
  91:../lpc11cx4-library/lpc_chip_11cxx_lib/src/ring_buffer.c **** 
  92:../lpc11cx4-library/lpc_chip_11cxx_lib/src/ring_buffer.c **** 	/* Calculate the segment lengths */
  93:../lpc11cx4-library/lpc_chip_11cxx_lib/src/ring_buffer.c **** 	cnt1 = cnt2 = RingBuffer_GetFree(RingBuff);
  94:../lpc11cx4-library/lpc_chip_11cxx_lib/src/ring_buffer.c **** 	if (RB_INDH(RingBuff) + cnt1 >= RingBuff->count)
 271              		.loc 1 94 0
 272 0022 391C     		mov	r1, r7	@, D.4735
 273              	.LVL17:
 274 0024 101C     		mov	r0, r2	@, D.4734
 275              	.LVL18:
 276              	.LBB40:
 277              	.LBB41:
 117:../lpc11cx4-library/lpc_chip_11cxx_lib/inc/ring_buffer.h **** }
 278              		.loc 2 117 0
 279 0026 FC1A     		sub	r4, r7, r3	@ cnt1, D.4735, D.4734
 280              	.LVL19:
ARM GAS  /var/folders/9j/_txx49hn253_s3mnzkyxlj8m0000gp/T//ccd02Qpg.s 			page 10


 281              	.LBE41:
 282              	.LBE40:
 283              		.loc 1 94 0
 284 0028 FFF7FEFF 		bl	__aeabi_uidivmod	@
 285              	.LVL20:
 286 002c 6318     		add	r3, r4, r1	@ D.4735, cnt1, D.4735
 287 002e 0022     		mov	r2, #0	@ D.4737,
 288 0030 BB42     		cmp	r3, r7	@ D.4735, D.4735
 289 0032 02D3     		bcc	.L8	@,
  95:../lpc11cx4-library/lpc_chip_11cxx_lib/src/ring_buffer.c **** 		cnt1 = RingBuff->count - RB_INDH(RingBuff);
 290              		.loc 1 95 0
 291 0034 7B1A     		sub	r3, r7, r1	@ cnt1, D.4735, D.4735
 292              	.LVL21:
 293 0036 E21A     		sub	r2, r4, r3	@ D.4737, cnt1, cnt1
 294 0038 1C1C     		mov	r4, r3	@ cnt1, cnt1
 295              	.LVL22:
 296              	.L8:
  96:../lpc11cx4-library/lpc_chip_11cxx_lib/src/ring_buffer.c **** 	cnt2 -= cnt1;
  97:../lpc11cx4-library/lpc_chip_11cxx_lib/src/ring_buffer.c **** 
  98:../lpc11cx4-library/lpc_chip_11cxx_lib/src/ring_buffer.c **** 	cnt1 = MIN(cnt1, num);
 297              		.loc 1 98 0
 298 003a 4445     		cmp	r4, r8	@ cnt1, num
 299 003c 28DC     		bgt	.L13	@,
 300              	.LVL23:
  99:../lpc11cx4-library/lpc_chip_11cxx_lib/src/ring_buffer.c **** 	num -= cnt1;
 301              		.loc 1 99 0
 302 003e 4346     		mov	r3, r8	@ num, num
 303 0040 1B1B     		sub	r3, r3, r4	@ cnt2, num, cnt1
 304              	.LVL24:
 305 0042 9846     		mov	r8, r3	@ cnt2, cnt2
 100:../lpc11cx4-library/lpc_chip_11cxx_lib/src/ring_buffer.c **** 
 101:../lpc11cx4-library/lpc_chip_11cxx_lib/src/ring_buffer.c **** 	cnt2 = MIN(cnt2, num);
 306              		.loc 1 101 0
 307 0044 9342     		cmp	r3, r2	@ cnt2, D.4737
 308 0046 21DC     		bgt	.L14	@,
 309              	.L10:
 310              	.LVL25:
 102:../lpc11cx4-library/lpc_chip_11cxx_lib/src/ring_buffer.c **** 	num -= cnt2;
 103:../lpc11cx4-library/lpc_chip_11cxx_lib/src/ring_buffer.c **** 
 104:../lpc11cx4-library/lpc_chip_11cxx_lib/src/ring_buffer.c **** 	/* Write segment 1 */
 105:../lpc11cx4-library/lpc_chip_11cxx_lib/src/ring_buffer.c **** 	ptr += RB_INDH(RingBuff) * RingBuff->itemSz;
 311              		.loc 1 105 0
 312 0048 AA68     		ldr	r2, [r5, #8]	@ D.4735, RingBuff_5(D)->itemSz
 313              	.LVL26:
 314 004a 5143     		mul	r1, r2	@ D.4735, D.4735
 315              	.LVL27:
 316 004c 4944     		add	r1, r1, r9	@ ptr, ptr
 317              	.LVL28:
 106:../lpc11cx4-library/lpc_chip_11cxx_lib/src/ring_buffer.c **** 	memcpy(ptr, data, cnt1 * RingBuff->itemSz);
 318              		.loc 1 106 0
 319 004e 6243     		mul	r2, r4	@ D.4735, cnt1
 105:../lpc11cx4-library/lpc_chip_11cxx_lib/src/ring_buffer.c **** 	memcpy(ptr, data, cnt1 * RingBuff->itemSz);
 320              		.loc 1 105 0
 321 0050 081C     		mov	r0, r1	@ ptr, ptr
 322              		.loc 1 106 0
 323 0052 311C     		mov	r1, r6	@, data
 324              	.LVL29:
ARM GAS  /var/folders/9j/_txx49hn253_s3mnzkyxlj8m0000gp/T//ccd02Qpg.s 			page 11


 325 0054 FFF7FEFF 		bl	memcpy	@
 326              	.LVL30:
 107:../lpc11cx4-library/lpc_chip_11cxx_lib/src/ring_buffer.c **** 	RingBuff->head += cnt1;
 327              		.loc 1 107 0
 328 0058 EB68     		ldr	r3, [r5, #12]	@ tmp195, RingBuff_5(D)->head
 108:../lpc11cx4-library/lpc_chip_11cxx_lib/src/ring_buffer.c **** 
 109:../lpc11cx4-library/lpc_chip_11cxx_lib/src/ring_buffer.c **** 	/* Write segment 2 */
 110:../lpc11cx4-library/lpc_chip_11cxx_lib/src/ring_buffer.c **** 	ptr = (uint8_t *) RingBuff->data + RB_INDH(RingBuff) * RingBuff->itemSz;
 329              		.loc 1 110 0
 330 005a 6968     		ldr	r1, [r5, #4]	@, RingBuff_5(D)->count
 107:../lpc11cx4-library/lpc_chip_11cxx_lib/src/ring_buffer.c **** 	RingBuff->head += cnt1;
 331              		.loc 1 107 0
 332 005c E018     		add	r0, r4, r3	@ D.4735, cnt1, tmp195
 333 005e E860     		str	r0, [r5, #12]	@ D.4735, RingBuff_5(D)->head
 334              		.loc 1 110 0
 335 0060 FFF7FEFF 		bl	__aeabi_uidivmod	@
 336              	.LVL31:
 337 0064 AF68     		ldr	r7, [r5, #8]	@ D.4735, RingBuff_5(D)->itemSz
 338              	.LVL32:
 339 0066 2B68     		ldr	r3, [r5]	@ tmp196, RingBuff_5(D)->data
 340 0068 7943     		mul	r1, r7	@ D.4735, D.4735
 341 006a 5818     		add	r0, r3, r1	@ ptr, tmp196, D.4735
 111:../lpc11cx4-library/lpc_chip_11cxx_lib/src/ring_buffer.c **** 	data = (const uint8_t *) data + cnt1 * RingBuff->itemSz;
 342              		.loc 1 111 0
 343 006c 3B1C     		mov	r3, r7	@ D.4735, D.4735
 112:../lpc11cx4-library/lpc_chip_11cxx_lib/src/ring_buffer.c **** 	memcpy(ptr, data, cnt2 * RingBuff->itemSz);
 344              		.loc 1 112 0
 345 006e 4246     		mov	r2, r8	@ D.4735, cnt2
 111:../lpc11cx4-library/lpc_chip_11cxx_lib/src/ring_buffer.c **** 	data = (const uint8_t *) data + cnt1 * RingBuff->itemSz;
 346              		.loc 1 111 0
 347 0070 6343     		mul	r3, r4	@ D.4735, cnt1
 348              		.loc 1 112 0
 349 0072 7A43     		mul	r2, r7	@ D.4735, D.4735
 111:../lpc11cx4-library/lpc_chip_11cxx_lib/src/ring_buffer.c **** 	data = (const uint8_t *) data + cnt1 * RingBuff->itemSz;
 350              		.loc 1 111 0
 351 0074 F118     		add	r1, r6, r3	@ data, data, D.4735
 352              	.LVL33:
 353              		.loc 1 112 0
 354 0076 FFF7FEFF 		bl	memcpy	@
 355              	.LVL34:
 113:../lpc11cx4-library/lpc_chip_11cxx_lib/src/ring_buffer.c **** 	RingBuff->head += cnt2;
 356              		.loc 1 113 0
 357 007a EB68     		ldr	r3, [r5, #12]	@ D.4735, RingBuff_5(D)->head
 114:../lpc11cx4-library/lpc_chip_11cxx_lib/src/ring_buffer.c **** 
 115:../lpc11cx4-library/lpc_chip_11cxx_lib/src/ring_buffer.c **** 	return cnt1 + cnt2;
 358              		.loc 1 115 0
 359 007c 4444     		add	r4, r4, r8	@ D.4734, cnt2
 360              	.LVL35:
 113:../lpc11cx4-library/lpc_chip_11cxx_lib/src/ring_buffer.c **** 	RingBuff->head += cnt2;
 361              		.loc 1 113 0
 362 007e 4344     		add	r3, r3, r8	@ D.4735, cnt2
 363 0080 EB60     		str	r3, [r5, #12]	@ D.4735, RingBuff_5(D)->head
 364              	.LVL36:
 365              	.L7:
 116:../lpc11cx4-library/lpc_chip_11cxx_lib/src/ring_buffer.c **** }
 366              		.loc 1 116 0
 367 0082 201C     		mov	r0, r4	@, D.4734
ARM GAS  /var/folders/9j/_txx49hn253_s3mnzkyxlj8m0000gp/T//ccd02Qpg.s 			page 12


 368              		@ sp needed	@
 369 0084 0CBC     		pop	{r2, r3}
 370 0086 9046     		mov	r8, r2
 371 0088 9946     		mov	r9, r3
 372 008a F8BD     		pop	{r3, r4, r5, r6, r7, pc}
 373              	.LVL37:
 374              	.L14:
 101:../lpc11cx4-library/lpc_chip_11cxx_lib/src/ring_buffer.c **** 	num -= cnt2;
 375              		.loc 1 101 0
 376 008c 9046     		mov	r8, r2	@ cnt2, D.4737
 377 008e DBE7     		b	.L10	@
 378              	.LVL38:
 379              	.L13:
  98:../lpc11cx4-library/lpc_chip_11cxx_lib/src/ring_buffer.c **** 	num -= cnt1;
 380              		.loc 1 98 0
 381 0090 4446     		mov	r4, r8	@ cnt1, num
 382              	.LVL39:
  99:../lpc11cx4-library/lpc_chip_11cxx_lib/src/ring_buffer.c **** 
 383              		.loc 1 99 0
 384 0092 4346     		mov	r3, r8	@ num, num
 385 0094 1B1B     		sub	r3, r3, r4	@ cnt2, num, cnt1
 386              	.LVL40:
 387 0096 9846     		mov	r8, r3	@ cnt2, cnt2
 101:../lpc11cx4-library/lpc_chip_11cxx_lib/src/ring_buffer.c **** 	num -= cnt2;
 388              		.loc 1 101 0
 389 0098 9342     		cmp	r3, r2	@ cnt2, D.4737
 390 009a D5DD     		ble	.L10	@,
 391 009c F6E7     		b	.L14	@
 392              		.cfi_endproc
 393              	.LFE8:
 394              		.size	RingBuffer_InsertMult, .-RingBuffer_InsertMult
 395 009e C046     		.section	.text.RingBuffer_Pop,"ax",%progbits
 396              		.align	2
 397              		.global	RingBuffer_Pop
 398              		.code	16
 399              		.thumb_func
 400              		.type	RingBuffer_Pop, %function
 401              	RingBuffer_Pop:
 402              	.LFB9:
 117:../lpc11cx4-library/lpc_chip_11cxx_lib/src/ring_buffer.c **** 
 118:../lpc11cx4-library/lpc_chip_11cxx_lib/src/ring_buffer.c **** /* Pop single item from Ring Buffer */
 119:../lpc11cx4-library/lpc_chip_11cxx_lib/src/ring_buffer.c **** int RingBuffer_Pop(RINGBUFF_T *RingBuff, void *data)
 120:../lpc11cx4-library/lpc_chip_11cxx_lib/src/ring_buffer.c **** {
 403              		.loc 1 120 0
 404              		.cfi_startproc
 405              	.LVL41:
 406 0000 F8B5     		push	{r3, r4, r5, r6, r7, lr}	@
 407              		.cfi_def_cfa_offset 24
 408              		.cfi_offset 3, -24
 409              		.cfi_offset 4, -20
 410              		.cfi_offset 5, -16
 411              		.cfi_offset 6, -12
 412              		.cfi_offset 7, -8
 413              		.cfi_offset 14, -4
 414              		.loc 1 120 0
 415 0002 031C     		mov	r3, r0	@ RingBuff, RingBuff
 416 0004 0269     		ldr	r2, [r0, #16]	@ D.4748, MEM[(long unsigned int *)RingBuff_4(D) + 16B]
ARM GAS  /var/folders/9j/_txx49hn253_s3mnzkyxlj8m0000gp/T//ccd02Qpg.s 			page 13


 121:../lpc11cx4-library/lpc_chip_11cxx_lib/src/ring_buffer.c **** 	uint8_t *ptr = RingBuff->data;
 122:../lpc11cx4-library/lpc_chip_11cxx_lib/src/ring_buffer.c **** 
 123:../lpc11cx4-library/lpc_chip_11cxx_lib/src/ring_buffer.c **** 	/* We cannot pop when queue is empty */
 124:../lpc11cx4-library/lpc_chip_11cxx_lib/src/ring_buffer.c **** 	if (RingBuffer_IsEmpty(RingBuff))
 417              		.loc 1 124 0
 418 0006 DC68     		ldr	r4, [r3, #12]	@ tmp143, MEM[(long unsigned int *)RingBuff_4(D) + 12B]
 121:../lpc11cx4-library/lpc_chip_11cxx_lib/src/ring_buffer.c **** 	uint8_t *ptr = RingBuff->data;
 419              		.loc 1 121 0
 420 0008 0668     		ldr	r6, [r0]	@ ptr, RingBuff_4(D)->data
 421              	.LVL42:
 125:../lpc11cx4-library/lpc_chip_11cxx_lib/src/ring_buffer.c **** 		return 0;
 422              		.loc 1 125 0
 423 000a 0020     		mov	r0, #0	@ D.4747,
 424              	.LVL43:
 124:../lpc11cx4-library/lpc_chip_11cxx_lib/src/ring_buffer.c **** 		return 0;
 425              		.loc 1 124 0
 426 000c 9442     		cmp	r4, r2	@ tmp143, D.4748
 427 000e 10D0     		beq	.L16	@,
 428 0010 0D1C     		mov	r5, r1	@ data, data
 126:../lpc11cx4-library/lpc_chip_11cxx_lib/src/ring_buffer.c **** 
 127:../lpc11cx4-library/lpc_chip_11cxx_lib/src/ring_buffer.c **** 	ptr += RB_INDT(RingBuff) * RingBuff->itemSz;
 429              		.loc 1 127 0
 430 0012 101C     		mov	r0, r2	@, D.4748
 431 0014 5968     		ldr	r1, [r3, #4]	@, RingBuff_4(D)->count
 432              	.LVL44:
 433 0016 9F68     		ldr	r7, [r3, #8]	@ D.4749, RingBuff_4(D)->itemSz
 434              	.LVL45:
 435 0018 1C1C     		mov	r4, r3	@ RingBuff, RingBuff
 436 001a FFF7FEFF 		bl	__aeabi_uidivmod	@
 437              	.LVL46:
 438 001e 7943     		mul	r1, r7	@ D.4749, D.4749
 128:../lpc11cx4-library/lpc_chip_11cxx_lib/src/ring_buffer.c **** 	memcpy(data, ptr, RingBuff->itemSz);
 439              		.loc 1 128 0
 440 0020 281C     		mov	r0, r5	@, data
 127:../lpc11cx4-library/lpc_chip_11cxx_lib/src/ring_buffer.c **** 	memcpy(data, ptr, RingBuff->itemSz);
 441              		.loc 1 127 0
 442 0022 7118     		add	r1, r6, r1	@ ptr, ptr, D.4749
 443              		.loc 1 128 0
 444 0024 3A1C     		mov	r2, r7	@, D.4749
 445 0026 FFF7FEFF 		bl	memcpy	@
 446              	.LVL47:
 129:../lpc11cx4-library/lpc_chip_11cxx_lib/src/ring_buffer.c **** 	RingBuff->tail++;
 130:../lpc11cx4-library/lpc_chip_11cxx_lib/src/ring_buffer.c ****  
 131:../lpc11cx4-library/lpc_chip_11cxx_lib/src/ring_buffer.c **** 	return 1;
 447              		.loc 1 131 0
 448 002a 0120     		mov	r0, #1	@ D.4747,
 129:../lpc11cx4-library/lpc_chip_11cxx_lib/src/ring_buffer.c **** 	RingBuff->tail++;
 449              		.loc 1 129 0
 450 002c 2369     		ldr	r3, [r4, #16]	@ tmp145, RingBuff_4(D)->tail
 451 002e 0133     		add	r3, r3, #1	@ D.4749,
 452 0030 2361     		str	r3, [r4, #16]	@ D.4749, RingBuff_4(D)->tail
 453              	.LVL48:
 454              	.L16:
 132:../lpc11cx4-library/lpc_chip_11cxx_lib/src/ring_buffer.c **** }
 455              		.loc 1 132 0
 456              		@ sp needed	@
 457 0032 F8BD     		pop	{r3, r4, r5, r6, r7, pc}
ARM GAS  /var/folders/9j/_txx49hn253_s3mnzkyxlj8m0000gp/T//ccd02Qpg.s 			page 14


 458              		.cfi_endproc
 459              	.LFE9:
 460              		.size	RingBuffer_Pop, .-RingBuffer_Pop
 461              		.section	.text.RingBuffer_PopMult,"ax",%progbits
 462              		.align	2
 463              		.global	RingBuffer_PopMult
 464              		.code	16
 465              		.thumb_func
 466              		.type	RingBuffer_PopMult, %function
 467              	RingBuffer_PopMult:
 468              	.LFB10:
 133:../lpc11cx4-library/lpc_chip_11cxx_lib/src/ring_buffer.c **** 
 134:../lpc11cx4-library/lpc_chip_11cxx_lib/src/ring_buffer.c **** /* Pop multiple items from Ring buffer */
 135:../lpc11cx4-library/lpc_chip_11cxx_lib/src/ring_buffer.c **** uint32_t RingBuffer_PopMult(RINGBUFF_T *RingBuff, void *data, int num)
 136:../lpc11cx4-library/lpc_chip_11cxx_lib/src/ring_buffer.c **** {
 469              		.loc 1 136 0
 470              		.cfi_startproc
 471              	.LVL49:
 472 0000 F8B5     		push	{r3, r4, r5, r6, r7, lr}	@
 473              		.cfi_def_cfa_offset 24
 474              		.cfi_offset 3, -24
 475              		.cfi_offset 4, -20
 476              		.cfi_offset 5, -16
 477              		.cfi_offset 6, -12
 478              		.cfi_offset 7, -8
 479              		.cfi_offset 14, -4
 480 0002 4F46     		mov	r7, r9	@,
 481 0004 4646     		mov	r6, r8	@,
 482 0006 041C     		mov	r4, r0	@ RingBuff, RingBuff
 483 0008 C0B4     		push	{r6, r7}	@
 484              		.cfi_def_cfa_offset 32
 485              		.cfi_offset 8, -32
 486              		.cfi_offset 9, -28
 487 000a C568     		ldr	r5, [r0, #12]	@ D.4755, MEM[(long unsigned int *)RingBuff_5(D) + 12B]
 137:../lpc11cx4-library/lpc_chip_11cxx_lib/src/ring_buffer.c **** 	uint8_t *ptr = RingBuff->data;
 488              		.loc 1 137 0
 489 000c 0768     		ldr	r7, [r0]	@ ptr, RingBuff_5(D)->data
 490              	.LVL50:
 491 000e 0069     		ldr	r0, [r0, #16]	@ D.4755, MEM[(long unsigned int *)RingBuff_5(D) + 16B]
 492              	.LVL51:
 138:../lpc11cx4-library/lpc_chip_11cxx_lib/src/ring_buffer.c **** 	int cnt1, cnt2;
 139:../lpc11cx4-library/lpc_chip_11cxx_lib/src/ring_buffer.c **** 
 140:../lpc11cx4-library/lpc_chip_11cxx_lib/src/ring_buffer.c **** 	/* We cannot insert when queue is empty */
 141:../lpc11cx4-library/lpc_chip_11cxx_lib/src/ring_buffer.c **** 	if (RingBuffer_IsEmpty(RingBuff))
 493              		.loc 1 141 0
 494 0010 8542     		cmp	r5, r0	@ D.4755, D.4755
 495 0012 3FD0     		beq	.L23	@,
 142:../lpc11cx4-library/lpc_chip_11cxx_lib/src/ring_buffer.c **** 		return 0;
 143:../lpc11cx4-library/lpc_chip_11cxx_lib/src/ring_buffer.c **** 
 144:../lpc11cx4-library/lpc_chip_11cxx_lib/src/ring_buffer.c **** 	/* Calculate the segment lengths */
 145:../lpc11cx4-library/lpc_chip_11cxx_lib/src/ring_buffer.c **** 	cnt1 = cnt2 = RingBuffer_GetCount(RingBuff);
 146:../lpc11cx4-library/lpc_chip_11cxx_lib/src/ring_buffer.c **** 	if (RB_INDT(RingBuff) + cnt1 >= RingBuff->count)
 496              		.loc 1 146 0
 497 0014 6368     		ldr	r3, [r4, #4]	@ D.4756, RingBuff_5(D)->count
 498 0016 8846     		mov	r8, r1	@ data, data
 499              	.LVL52:
 500 0018 191C     		mov	r1, r3	@, D.4756
ARM GAS  /var/folders/9j/_txx49hn253_s3mnzkyxlj8m0000gp/T//ccd02Qpg.s 			page 15


 501              	.LVL53:
 502 001a 161C     		mov	r6, r2	@ num, num
 503              	.LBB42:
 504              	.LBB43:
 107:../lpc11cx4-library/lpc_chip_11cxx_lib/inc/ring_buffer.h **** }
 505              		.loc 2 107 0
 506 001c 2D1A     		sub	r5, r5, r0	@ cnt1, D.4755, D.4755
 507              	.LVL54:
 508              	.LBE43:
 509              	.LBE42:
 510              		.loc 1 146 0
 511 001e 9946     		mov	r9, r3	@ D.4756, D.4756
 512 0020 FFF7FEFF 		bl	__aeabi_uidivmod	@
 513              	.LVL55:
 514 0024 4A19     		add	r2, r1, r5	@ D.4756, D.4756, cnt1
 515 0026 0023     		mov	r3, #0	@ D.4758,
 516 0028 9145     		cmp	r9, r2	@ D.4756, D.4756
 517 002a 03D8     		bhi	.L20	@,
 147:../lpc11cx4-library/lpc_chip_11cxx_lib/src/ring_buffer.c **** 		cnt1 = RingBuff->count - RB_INDT(RingBuff);
 518              		.loc 1 147 0
 519 002c 4B46     		mov	r3, r9	@ D.4756, D.4756
 520 002e 5A1A     		sub	r2, r3, r1	@ cnt1, D.4756, D.4756
 521              	.LVL56:
 522 0030 AB1A     		sub	r3, r5, r2	@ D.4758, cnt1, cnt1
 523 0032 151C     		mov	r5, r2	@ cnt1, cnt1
 524              	.LVL57:
 525              	.L20:
 148:../lpc11cx4-library/lpc_chip_11cxx_lib/src/ring_buffer.c **** 	cnt2 -= cnt1;
 149:../lpc11cx4-library/lpc_chip_11cxx_lib/src/ring_buffer.c **** 
 150:../lpc11cx4-library/lpc_chip_11cxx_lib/src/ring_buffer.c **** 	cnt1 = MIN(cnt1, num);
 526              		.loc 1 150 0
 527 0034 B542     		cmp	r5, r6	@ cnt1, num
 528 0036 28DC     		bgt	.L25	@,
 529              	.LVL58:
 151:../lpc11cx4-library/lpc_chip_11cxx_lib/src/ring_buffer.c **** 	num -= cnt1;
 530              		.loc 1 151 0
 531 0038 761B     		sub	r6, r6, r5	@ cnt2, num, cnt1
 532              	.LVL59:
 152:../lpc11cx4-library/lpc_chip_11cxx_lib/src/ring_buffer.c **** 
 153:../lpc11cx4-library/lpc_chip_11cxx_lib/src/ring_buffer.c **** 	cnt2 = MIN(cnt2, num);
 533              		.loc 1 153 0
 534 003a 9E42     		cmp	r6, r3	@ cnt2, D.4758
 535 003c 23DC     		bgt	.L26	@,
 536              	.LVL60:
 537              	.L22:
 154:../lpc11cx4-library/lpc_chip_11cxx_lib/src/ring_buffer.c **** 	num -= cnt2;
 155:../lpc11cx4-library/lpc_chip_11cxx_lib/src/ring_buffer.c **** 
 156:../lpc11cx4-library/lpc_chip_11cxx_lib/src/ring_buffer.c **** 	/* Write segment 1 */
 157:../lpc11cx4-library/lpc_chip_11cxx_lib/src/ring_buffer.c **** 	ptr += RB_INDT(RingBuff) * RingBuff->itemSz;
 538              		.loc 1 157 0
 539 003e A368     		ldr	r3, [r4, #8]	@ D.4756, RingBuff_5(D)->itemSz
 540              	.LVL61:
 158:../lpc11cx4-library/lpc_chip_11cxx_lib/src/ring_buffer.c **** 	memcpy(data, ptr, cnt1 * RingBuff->itemSz);
 541              		.loc 1 158 0
 542 0040 4046     		mov	r0, r8	@, data
 543 0042 1A1C     		mov	r2, r3	@ D.4756, D.4756
 157:../lpc11cx4-library/lpc_chip_11cxx_lib/src/ring_buffer.c **** 	memcpy(data, ptr, cnt1 * RingBuff->itemSz);
ARM GAS  /var/folders/9j/_txx49hn253_s3mnzkyxlj8m0000gp/T//ccd02Qpg.s 			page 16


 544              		.loc 1 157 0
 545 0044 4B43     		mul	r3, r1	@ D.4756, D.4756
 546              	.LVL62:
 547              		.loc 1 158 0
 548 0046 6A43     		mul	r2, r5	@ D.4756, cnt1
 549              	.LVL63:
 157:../lpc11cx4-library/lpc_chip_11cxx_lib/src/ring_buffer.c **** 	memcpy(data, ptr, cnt1 * RingBuff->itemSz);
 550              		.loc 1 157 0
 551 0048 F918     		add	r1, r7, r3	@ ptr, ptr, D.4756
 552              	.LVL64:
 553              		.loc 1 158 0
 554 004a FFF7FEFF 		bl	memcpy	@
 555              	.LVL65:
 159:../lpc11cx4-library/lpc_chip_11cxx_lib/src/ring_buffer.c **** 	RingBuff->tail += cnt1;
 160:../lpc11cx4-library/lpc_chip_11cxx_lib/src/ring_buffer.c **** 
 161:../lpc11cx4-library/lpc_chip_11cxx_lib/src/ring_buffer.c **** 	/* Write segment 2 */
 162:../lpc11cx4-library/lpc_chip_11cxx_lib/src/ring_buffer.c **** 	ptr = (uint8_t *) RingBuff->data + RB_INDT(RingBuff) * RingBuff->itemSz;
 556              		.loc 1 162 0
 557 004e A768     		ldr	r7, [r4, #8]	@ D.4756, RingBuff_5(D)->itemSz
 159:../lpc11cx4-library/lpc_chip_11cxx_lib/src/ring_buffer.c **** 	RingBuff->tail += cnt1;
 558              		.loc 1 159 0
 559 0050 2369     		ldr	r3, [r4, #16]	@ tmp191, RingBuff_5(D)->tail
 163:../lpc11cx4-library/lpc_chip_11cxx_lib/src/ring_buffer.c **** 	data = (uint8_t *) data + cnt1 * RingBuff->itemSz;
 560              		.loc 1 163 0
 561 0052 391C     		mov	r1, r7	@ D.4756, D.4756
 159:../lpc11cx4-library/lpc_chip_11cxx_lib/src/ring_buffer.c **** 	RingBuff->tail += cnt1;
 562              		.loc 1 159 0
 563 0054 E818     		add	r0, r5, r3	@ D.4756, cnt1, tmp191
 564              	.LVL66:
 164:../lpc11cx4-library/lpc_chip_11cxx_lib/src/ring_buffer.c **** 	memcpy(data, ptr, cnt2 * RingBuff->itemSz);
 565              		.loc 1 164 0
 566 0056 3B1C     		mov	r3, r7	@ D.4756, D.4756
 163:../lpc11cx4-library/lpc_chip_11cxx_lib/src/ring_buffer.c **** 	data = (uint8_t *) data + cnt1 * RingBuff->itemSz;
 567              		.loc 1 163 0
 568 0058 6943     		mul	r1, r5	@ D.4756, cnt1
 569              	.LVL67:
 570              		.loc 1 164 0
 571 005a 7343     		mul	r3, r6	@ D.4756, cnt2
 572              	.LVL68:
 163:../lpc11cx4-library/lpc_chip_11cxx_lib/src/ring_buffer.c **** 	data = (uint8_t *) data + cnt1 * RingBuff->itemSz;
 573              		.loc 1 163 0
 574 005c 8844     		add	r8, r8, r1	@ data, D.4756
 575              	.LVL69:
 159:../lpc11cx4-library/lpc_chip_11cxx_lib/src/ring_buffer.c **** 	RingBuff->tail += cnt1;
 576              		.loc 1 159 0
 577 005e 2061     		str	r0, [r4, #16]	@ D.4756, RingBuff_5(D)->tail
 162:../lpc11cx4-library/lpc_chip_11cxx_lib/src/ring_buffer.c **** 	data = (uint8_t *) data + cnt1 * RingBuff->itemSz;
 578              		.loc 1 162 0
 579 0060 6168     		ldr	r1, [r4, #4]	@, RingBuff_5(D)->count
 580              		.loc 1 164 0
 581 0062 9946     		mov	r9, r3	@ D.4756, D.4756
 162:../lpc11cx4-library/lpc_chip_11cxx_lib/src/ring_buffer.c **** 	data = (uint8_t *) data + cnt1 * RingBuff->itemSz;
 582              		.loc 1 162 0
 583 0064 FFF7FEFF 		bl	__aeabi_uidivmod	@
 584              	.LVL70:
 585 0068 4F43     		mul	r7, r1	@ D.4756, D.4756
 586 006a 2368     		ldr	r3, [r4]	@ tmp194, RingBuff_5(D)->data
ARM GAS  /var/folders/9j/_txx49hn253_s3mnzkyxlj8m0000gp/T//ccd02Qpg.s 			page 17


 587              		.loc 1 164 0
 588 006c 4046     		mov	r0, r8	@, data
 162:../lpc11cx4-library/lpc_chip_11cxx_lib/src/ring_buffer.c **** 	data = (uint8_t *) data + cnt1 * RingBuff->itemSz;
 589              		.loc 1 162 0
 590 006e D919     		add	r1, r3, r7	@ ptr, tmp194, D.4756
 591              		.loc 1 164 0
 592 0070 4A46     		mov	r2, r9	@, D.4756
 593 0072 FFF7FEFF 		bl	memcpy	@
 594              	.LVL71:
 165:../lpc11cx4-library/lpc_chip_11cxx_lib/src/ring_buffer.c **** 	RingBuff->tail += cnt2;
 595              		.loc 1 165 0
 596 0076 2369     		ldr	r3, [r4, #16]	@ tmp195, RingBuff_5(D)->tail
 166:../lpc11cx4-library/lpc_chip_11cxx_lib/src/ring_buffer.c **** 
 167:../lpc11cx4-library/lpc_chip_11cxx_lib/src/ring_buffer.c **** 	return cnt1 + cnt2;
 597              		.loc 1 167 0
 598 0078 A819     		add	r0, r5, r6	@ D.4755, cnt1, cnt2
 165:../lpc11cx4-library/lpc_chip_11cxx_lib/src/ring_buffer.c **** 	RingBuff->tail += cnt2;
 599              		.loc 1 165 0
 600 007a 9B19     		add	r3, r3, r6	@ D.4756, tmp195, cnt2
 601 007c 2361     		str	r3, [r4, #16]	@ D.4756, RingBuff_5(D)->tail
 602              	.LVL72:
 603              	.L19:
 168:../lpc11cx4-library/lpc_chip_11cxx_lib/src/ring_buffer.c **** }
 604              		.loc 1 168 0
 605              		@ sp needed	@
 606              	.LVL73:
 607 007e 0CBC     		pop	{r2, r3}
 608 0080 9046     		mov	r8, r2
 609 0082 9946     		mov	r9, r3
 610 0084 F8BD     		pop	{r3, r4, r5, r6, r7, pc}
 611              	.LVL74:
 612              	.L26:
 153:../lpc11cx4-library/lpc_chip_11cxx_lib/src/ring_buffer.c **** 	num -= cnt2;
 613              		.loc 1 153 0
 614 0086 1E1C     		mov	r6, r3	@ cnt2, D.4758
 615              	.LVL75:
 616 0088 D9E7     		b	.L22	@
 617              	.LVL76:
 618              	.L25:
 150:../lpc11cx4-library/lpc_chip_11cxx_lib/src/ring_buffer.c **** 	num -= cnt1;
 619              		.loc 1 150 0
 620 008a 351C     		mov	r5, r6	@ cnt1, num
 621              	.LVL77:
 151:../lpc11cx4-library/lpc_chip_11cxx_lib/src/ring_buffer.c **** 
 622              		.loc 1 151 0
 623 008c 761B     		sub	r6, r6, r5	@ cnt2, num, cnt1
 624              	.LVL78:
 153:../lpc11cx4-library/lpc_chip_11cxx_lib/src/ring_buffer.c **** 	num -= cnt2;
 625              		.loc 1 153 0
 626 008e 9E42     		cmp	r6, r3	@ cnt2, D.4758
 627 0090 D5DD     		ble	.L22	@,
 628 0092 F8E7     		b	.L26	@
 629              	.LVL79:
 630              	.L23:
 142:../lpc11cx4-library/lpc_chip_11cxx_lib/src/ring_buffer.c **** 
 631              		.loc 1 142 0
 632 0094 0020     		mov	r0, #0	@ D.4755,
ARM GAS  /var/folders/9j/_txx49hn253_s3mnzkyxlj8m0000gp/T//ccd02Qpg.s 			page 18


 633 0096 F2E7     		b	.L19	@
 634              		.cfi_endproc
 635              	.LFE10:
 636              		.size	RingBuffer_PopMult, .-RingBuffer_PopMult
 637              		.text
 638              	.Letext0:
 639              		.file 3 "/usr/local/Cellar/gcc-arm-none-eabi/20150925/arm-none-eabi/include/machine/_default_types
 640              		.file 4 "/usr/local/Cellar/gcc-arm-none-eabi/20150925/arm-none-eabi/include/sys/_stdint.h"