ARM GAS  /var/folders/9j/_txx49hn253_s3mnzkyxlj8m0000gp/T//ccU5KKen.s 			page 1


   1              		.cpu cortex-m0
   2              		.fpu softvfp
   3              		.eabi_attribute 20, 1	@ Tag_ABI_FP_denormal
   4              		.eabi_attribute 21, 1	@ Tag_ABI_FP_exceptions
   5              		.eabi_attribute 23, 3	@ Tag_ABI_FP_number_model
   6              		.eabi_attribute 24, 1	@ Tag_ABI_align8_needed
   7              		.eabi_attribute 25, 1	@ Tag_ABI_align8_preserved
   8              		.eabi_attribute 26, 1	@ Tag_ABI_enum_size
   9              		.eabi_attribute 30, 2	@ Tag_ABI_optimization_goals
  10              		.eabi_attribute 34, 0	@ Tag_CPU_unaligned_access
  11              		.eabi_attribute 18, 4	@ Tag_ABI_PCS_wchar_t
  12              		.file	"serial.c"
  13              	@ GNU C (GNU Tools for ARM Embedded Processors) version 4.9.3 20150529 (release) [ARM/embedded-4_9-
  14              	@	compiled by GNU C version 4.2.1 (Based on Apple Inc. build 5658) (LLVM build 2336.9.00), GMP vers
  15              	@ GGC heuristics: --param ggc-min-expand=100 --param ggc-min-heapsize=131072
  16              	@ options passed:  -I . -I inc/
  17              	@ -I ../lpc11cx4-library/lpc_chip_11cxx_lib/inc
  18              	@ -I ../lpc11cx4-library/evt_lib/inc/ -I ../MY17/lib/MY17_Can_Library
  19              	@ -imultilib armv6-m
  20              	@ -iprefix /usr/local/Cellar/gcc-arm-none-eabi/20150925/bin/../lib/gcc/arm-none-eabi/4.9.3/
  21              	@ -isysroot /usr/local/Cellar/gcc-arm-none-eabi/20150925/bin/../arm-none-eabi
  22              	@ -MD bin/serial.d -MF bin/serial.d -MP -MQ bin/serial.o
  23              	@ -D__USES_INITFINI__ -D UART_BAUD=115200 -D CORE_M0 -D DEBUG_ENABLE
  24              	@ -D CAN_ARCHITECTURE_ARM src/serial.c -mcpu=cortex-m0 -mthumb
  25              	@ -auxbase-strip bin/serial.o -g -ggdb3 -O2 -Wall -Wstrict-prototypes
  26              	@ -Wextra -std=gnu90 -ffunction-sections -fdata-sections
  27              	@ -fdiagnostics-color=always -fverbose-asm
  28              	@ options enabled:  -faggressive-loop-optimizations -fauto-inc-dec
  29              	@ -fbranch-count-reg -fcaller-saves -fcombine-stack-adjustments -fcommon
  30              	@ -fcompare-elim -fcprop-registers -fcrossjumping -fcse-follow-jumps
  31              	@ -fdata-sections -fdefer-pop -fdelete-null-pointer-checks -fdevirtualize
  32              	@ -fdevirtualize-speculatively -fdwarf2-cfi-asm -fearly-inlining
  33              	@ -feliminate-unused-debug-types -fexpensive-optimizations
  34              	@ -fforward-propagate -ffunction-cse -ffunction-sections -fgcse -fgcse-lm
  35              	@ -fgnu-runtime -fgnu-unique -fguess-branch-probability
  36              	@ -fhoist-adjacent-loads -fident -fif-conversion -fif-conversion2
  37              	@ -findirect-inlining -finline -finline-atomics
  38              	@ -finline-functions-called-once -finline-small-functions -fipa-cp
  39              	@ -fipa-profile -fipa-pure-const -fipa-reference -fipa-sra
  40              	@ -fira-hoist-pressure -fira-share-save-slots -fira-share-spill-slots
  41              	@ -fisolate-erroneous-paths-dereference -fivopts -fkeep-static-consts
  42              	@ -fleading-underscore -flifetime-dse -fmath-errno -fmerge-constants
  43              	@ -fmerge-debug-strings -fmove-loop-invariants -fomit-frame-pointer
  44              	@ -foptimize-sibling-calls -foptimize-strlen -fpartial-inlining -fpeephole
  45              	@ -fpeephole2 -fprefetch-loop-arrays -freg-struct-return -freorder-blocks
  46              	@ -freorder-functions -frerun-cse-after-loop
  47              	@ -fsched-critical-path-heuristic -fsched-dep-count-heuristic
  48              	@ -fsched-group-heuristic -fsched-interblock -fsched-last-insn-heuristic
  49              	@ -fsched-pressure -fsched-rank-heuristic -fsched-spec
  50              	@ -fsched-spec-insn-heuristic -fsched-stalled-insns-dep -fschedule-insns2
  51              	@ -fsection-anchors -fshow-column -fshrink-wrap -fsigned-zeros
  52              	@ -fsplit-ivs-in-unroller -fsplit-wide-types -fstrict-aliasing
  53              	@ -fstrict-overflow -fstrict-volatile-bitfields -fsync-libcalls
  54              	@ -fthread-jumps -ftoplevel-reorder -ftrapping-math -ftree-bit-ccp
  55              	@ -ftree-builtin-call-dce -ftree-ccp -ftree-ch -ftree-coalesce-vars
  56              	@ -ftree-copy-prop -ftree-copyrename -ftree-cselim -ftree-dce
  57              	@ -ftree-dominator-opts -ftree-dse -ftree-forwprop -ftree-fre
ARM GAS  /var/folders/9j/_txx49hn253_s3mnzkyxlj8m0000gp/T//ccU5KKen.s 			page 2


  58              	@ -ftree-loop-if-convert -ftree-loop-im -ftree-loop-ivcanon
  59              	@ -ftree-loop-optimize -ftree-parallelize-loops= -ftree-phiprop -ftree-pre
  60              	@ -ftree-pta -ftree-reassoc -ftree-scev-cprop -ftree-sink -ftree-slsr
  61              	@ -ftree-sra -ftree-switch-conversion -ftree-tail-merge -ftree-ter
  62              	@ -ftree-vrp -funit-at-a-time -fvar-tracking -fvar-tracking-assignments
  63              	@ -fverbose-asm -fzero-initialized-in-bss -mlittle-endian -mlra
  64              	@ -mpic-data-is-text-relative -msched-prolog -mthumb
  65              	@ -mvectorize-with-neon-quad
  66              	
  67              		.text
  68              	.Ltext0:
  69              		.cfi_sections	.debug_frame
  70              		.section	.text.Serial_Init,"ax",%progbits
  71              		.align	2
  72              		.global	Serial_Init
  73              		.code	16
  74              		.thumb_func
  75              		.type	Serial_Init, %function
  76              	Serial_Init:
  77              	.LFB198:
  78              		.file 1 "src/serial.c"
   1:src/serial.c  **** #include "serial.h"
   2:src/serial.c  **** 
   3:src/serial.c  **** #include <stdlib.h>
   4:src/serial.c  **** #include <string.h>
   5:src/serial.c  **** #include <stdint.h>
   6:src/serial.c  **** 
   7:src/serial.c  **** #include "chip.h"
   8:src/serial.c  **** 
   9:src/serial.c  **** void Serial_Init(uint32_t baudrate) {
  79              		.loc 1 9 0
  80              		.cfi_startproc
  81              	.LVL0:
  82              	.LBB12:
  83              	.LBB13:
  84              		.file 2 "../lpc11cx4-library/lpc_chip_11cxx_lib/inc/iocon_11xx.h"
   1:../lpc11cx4-library/lpc_chip_11cxx_lib/inc/iocon_11xx.h **** /*
   2:../lpc11cx4-library/lpc_chip_11cxx_lib/inc/iocon_11xx.h ****  * @brief IOCON registers and control functions
   3:../lpc11cx4-library/lpc_chip_11cxx_lib/inc/iocon_11xx.h ****  *
   4:../lpc11cx4-library/lpc_chip_11cxx_lib/inc/iocon_11xx.h ****  * @note
   5:../lpc11cx4-library/lpc_chip_11cxx_lib/inc/iocon_11xx.h ****  * Copyright(C) NXP Semiconductors, 2012
   6:../lpc11cx4-library/lpc_chip_11cxx_lib/inc/iocon_11xx.h ****  * All rights reserved.
   7:../lpc11cx4-library/lpc_chip_11cxx_lib/inc/iocon_11xx.h ****  *
   8:../lpc11cx4-library/lpc_chip_11cxx_lib/inc/iocon_11xx.h ****  * @par
   9:../lpc11cx4-library/lpc_chip_11cxx_lib/inc/iocon_11xx.h ****  * Software that is described herein is for illustrative purposes only
  10:../lpc11cx4-library/lpc_chip_11cxx_lib/inc/iocon_11xx.h ****  * which provides customers with programming information regarding the
  11:../lpc11cx4-library/lpc_chip_11cxx_lib/inc/iocon_11xx.h ****  * LPC products.  This software is supplied "AS IS" without any warranties of
  12:../lpc11cx4-library/lpc_chip_11cxx_lib/inc/iocon_11xx.h ****  * any kind, and NXP Semiconductors and its licensor disclaim any and
  13:../lpc11cx4-library/lpc_chip_11cxx_lib/inc/iocon_11xx.h ****  * all warranties, express or implied, including all implied warranties of
  14:../lpc11cx4-library/lpc_chip_11cxx_lib/inc/iocon_11xx.h ****  * merchantability, fitness for a particular purpose and non-infringement of
  15:../lpc11cx4-library/lpc_chip_11cxx_lib/inc/iocon_11xx.h ****  * intellectual property rights.  NXP Semiconductors assumes no responsibility
  16:../lpc11cx4-library/lpc_chip_11cxx_lib/inc/iocon_11xx.h ****  * or liability for the use of the software, conveys no license or rights under any
  17:../lpc11cx4-library/lpc_chip_11cxx_lib/inc/iocon_11xx.h ****  * patent, copyright, mask work right, or any other intellectual property rights in
  18:../lpc11cx4-library/lpc_chip_11cxx_lib/inc/iocon_11xx.h ****  * or to any products. NXP Semiconductors reserves the right to make changes
  19:../lpc11cx4-library/lpc_chip_11cxx_lib/inc/iocon_11xx.h ****  * in the software without notification. NXP Semiconductors also makes no
  20:../lpc11cx4-library/lpc_chip_11cxx_lib/inc/iocon_11xx.h ****  * representation or warranty that such application will be suitable for the
  21:../lpc11cx4-library/lpc_chip_11cxx_lib/inc/iocon_11xx.h ****  * specified use without further testing or modification.
ARM GAS  /var/folders/9j/_txx49hn253_s3mnzkyxlj8m0000gp/T//ccU5KKen.s 			page 3


  22:../lpc11cx4-library/lpc_chip_11cxx_lib/inc/iocon_11xx.h ****  *
  23:../lpc11cx4-library/lpc_chip_11cxx_lib/inc/iocon_11xx.h ****  * @par
  24:../lpc11cx4-library/lpc_chip_11cxx_lib/inc/iocon_11xx.h ****  * Permission to use, copy, modify, and distribute this software and its
  25:../lpc11cx4-library/lpc_chip_11cxx_lib/inc/iocon_11xx.h ****  * documentation is hereby granted, under NXP Semiconductors' and its
  26:../lpc11cx4-library/lpc_chip_11cxx_lib/inc/iocon_11xx.h ****  * licensor's relevant copyrights in the software, without fee, provided that it
  27:../lpc11cx4-library/lpc_chip_11cxx_lib/inc/iocon_11xx.h ****  * is used in conjunction with NXP Semiconductors microcontrollers.  This
  28:../lpc11cx4-library/lpc_chip_11cxx_lib/inc/iocon_11xx.h ****  * copyright, permission, and disclaimer notice must appear in all copies of
  29:../lpc11cx4-library/lpc_chip_11cxx_lib/inc/iocon_11xx.h ****  * this code.
  30:../lpc11cx4-library/lpc_chip_11cxx_lib/inc/iocon_11xx.h ****  */
  31:../lpc11cx4-library/lpc_chip_11cxx_lib/inc/iocon_11xx.h **** 
  32:../lpc11cx4-library/lpc_chip_11cxx_lib/inc/iocon_11xx.h **** #ifndef __IOCON_11XX_H_
  33:../lpc11cx4-library/lpc_chip_11cxx_lib/inc/iocon_11xx.h **** #define __IOCON_11XX_H_
  34:../lpc11cx4-library/lpc_chip_11cxx_lib/inc/iocon_11xx.h **** 
  35:../lpc11cx4-library/lpc_chip_11cxx_lib/inc/iocon_11xx.h **** #ifdef __cplusplus
  36:../lpc11cx4-library/lpc_chip_11cxx_lib/inc/iocon_11xx.h **** extern "C" {
  37:../lpc11cx4-library/lpc_chip_11cxx_lib/inc/iocon_11xx.h **** #endif
  38:../lpc11cx4-library/lpc_chip_11cxx_lib/inc/iocon_11xx.h **** 
  39:../lpc11cx4-library/lpc_chip_11cxx_lib/inc/iocon_11xx.h **** /** @defgroup IOCON_11XX CHIP: LPC11xx IO Control driver
  40:../lpc11cx4-library/lpc_chip_11cxx_lib/inc/iocon_11xx.h ****  * @ingroup CHIP_11XX_Drivers
  41:../lpc11cx4-library/lpc_chip_11cxx_lib/inc/iocon_11xx.h ****  * @{
  42:../lpc11cx4-library/lpc_chip_11cxx_lib/inc/iocon_11xx.h ****  */
  43:../lpc11cx4-library/lpc_chip_11cxx_lib/inc/iocon_11xx.h **** 
  44:../lpc11cx4-library/lpc_chip_11cxx_lib/inc/iocon_11xx.h **** /**
  45:../lpc11cx4-library/lpc_chip_11cxx_lib/inc/iocon_11xx.h ****  * @brief IO Configuration Unit register block structure
  46:../lpc11cx4-library/lpc_chip_11cxx_lib/inc/iocon_11xx.h ****  */
  47:../lpc11cx4-library/lpc_chip_11cxx_lib/inc/iocon_11xx.h **** #if defined(CHIP_LPC11UXX) || defined(CHIP_LPC11EXX) || defined(CHIP_LPC11AXX)
  48:../lpc11cx4-library/lpc_chip_11cxx_lib/inc/iocon_11xx.h **** typedef struct {						/*!< LPC11AXX/LPC11UXX/LPC11EXX IOCON Structure */
  49:../lpc11cx4-library/lpc_chip_11cxx_lib/inc/iocon_11xx.h **** 	__IO uint32_t  PIO0[24];
  50:../lpc11cx4-library/lpc_chip_11cxx_lib/inc/iocon_11xx.h **** 	__IO uint32_t  PIO1[32];
  51:../lpc11cx4-library/lpc_chip_11cxx_lib/inc/iocon_11xx.h **** } LPC_IOCON_T;
  52:../lpc11cx4-library/lpc_chip_11cxx_lib/inc/iocon_11xx.h **** 
  53:../lpc11cx4-library/lpc_chip_11cxx_lib/inc/iocon_11xx.h **** #else
  54:../lpc11cx4-library/lpc_chip_11cxx_lib/inc/iocon_11xx.h **** /**
  55:../lpc11cx4-library/lpc_chip_11cxx_lib/inc/iocon_11xx.h ****  * @brief LPC11XX I/O Configuration register offset
  56:../lpc11cx4-library/lpc_chip_11cxx_lib/inc/iocon_11xx.h ****  */
  57:../lpc11cx4-library/lpc_chip_11cxx_lib/inc/iocon_11xx.h **** typedef enum CHIP_IOCON_PIO {
  58:../lpc11cx4-library/lpc_chip_11cxx_lib/inc/iocon_11xx.h **** 	IOCON_PIO0_0 = (0x00C >> 2),
  59:../lpc11cx4-library/lpc_chip_11cxx_lib/inc/iocon_11xx.h **** 	IOCON_PIO0_1 = (0x010 >> 2),
  60:../lpc11cx4-library/lpc_chip_11cxx_lib/inc/iocon_11xx.h **** 	IOCON_PIO0_2 = (0x01C >> 2),
  61:../lpc11cx4-library/lpc_chip_11cxx_lib/inc/iocon_11xx.h **** 	IOCON_PIO0_3 = (0x02C >> 2),
  62:../lpc11cx4-library/lpc_chip_11cxx_lib/inc/iocon_11xx.h **** 	IOCON_PIO0_4 = (0x030 >> 2),
  63:../lpc11cx4-library/lpc_chip_11cxx_lib/inc/iocon_11xx.h **** 	IOCON_PIO0_5 = (0x034 >> 2),
  64:../lpc11cx4-library/lpc_chip_11cxx_lib/inc/iocon_11xx.h **** 	IOCON_PIO0_6 = (0x04C >> 2),
  65:../lpc11cx4-library/lpc_chip_11cxx_lib/inc/iocon_11xx.h **** 	IOCON_PIO0_7 = (0x050 >> 2),
  66:../lpc11cx4-library/lpc_chip_11cxx_lib/inc/iocon_11xx.h **** 	IOCON_PIO0_8 = (0x060 >> 2),
  67:../lpc11cx4-library/lpc_chip_11cxx_lib/inc/iocon_11xx.h **** 	IOCON_PIO0_9 = (0x064 >> 2),
  68:../lpc11cx4-library/lpc_chip_11cxx_lib/inc/iocon_11xx.h **** 	IOCON_PIO0_10 = (0x068 >> 2),
  69:../lpc11cx4-library/lpc_chip_11cxx_lib/inc/iocon_11xx.h **** 	IOCON_PIO0_11 = (0x074 >> 2),
  70:../lpc11cx4-library/lpc_chip_11cxx_lib/inc/iocon_11xx.h **** 
  71:../lpc11cx4-library/lpc_chip_11cxx_lib/inc/iocon_11xx.h **** 	IOCON_PIO1_0 = (0x078 >> 2),
  72:../lpc11cx4-library/lpc_chip_11cxx_lib/inc/iocon_11xx.h **** 	IOCON_PIO1_1 = (0x07C >> 2),
  73:../lpc11cx4-library/lpc_chip_11cxx_lib/inc/iocon_11xx.h **** 	IOCON_PIO1_2 = (0x080 >> 2),
  74:../lpc11cx4-library/lpc_chip_11cxx_lib/inc/iocon_11xx.h **** 	IOCON_PIO1_3 = (0x090 >> 2),
  75:../lpc11cx4-library/lpc_chip_11cxx_lib/inc/iocon_11xx.h **** 	IOCON_PIO1_4 = (0x094 >> 2),
  76:../lpc11cx4-library/lpc_chip_11cxx_lib/inc/iocon_11xx.h **** 	IOCON_PIO1_5 = (0x0A0 >> 2),
  77:../lpc11cx4-library/lpc_chip_11cxx_lib/inc/iocon_11xx.h **** 	IOCON_PIO1_6 = (0x0A4 >> 2),
  78:../lpc11cx4-library/lpc_chip_11cxx_lib/inc/iocon_11xx.h **** 	IOCON_PIO1_7 = (0x0A8 >> 2),
ARM GAS  /var/folders/9j/_txx49hn253_s3mnzkyxlj8m0000gp/T//ccU5KKen.s 			page 4


  79:../lpc11cx4-library/lpc_chip_11cxx_lib/inc/iocon_11xx.h **** 	IOCON_PIO1_8 = (0x014 >> 2),
  80:../lpc11cx4-library/lpc_chip_11cxx_lib/inc/iocon_11xx.h **** 	IOCON_PIO1_9 = (0x038 >> 2),
  81:../lpc11cx4-library/lpc_chip_11cxx_lib/inc/iocon_11xx.h **** 	IOCON_PIO1_10 = (0x06C >> 2),
  82:../lpc11cx4-library/lpc_chip_11cxx_lib/inc/iocon_11xx.h **** 	IOCON_PIO1_11 = (0x098 >> 2),
  83:../lpc11cx4-library/lpc_chip_11cxx_lib/inc/iocon_11xx.h **** 
  84:../lpc11cx4-library/lpc_chip_11cxx_lib/inc/iocon_11xx.h **** 	IOCON_PIO2_0 = (0x008 >> 2),
  85:../lpc11cx4-library/lpc_chip_11cxx_lib/inc/iocon_11xx.h **** 	IOCON_PIO2_1 = (0x028 >> 2),
  86:../lpc11cx4-library/lpc_chip_11cxx_lib/inc/iocon_11xx.h **** 	IOCON_PIO2_2 = (0x05C >> 2),
  87:../lpc11cx4-library/lpc_chip_11cxx_lib/inc/iocon_11xx.h **** 	IOCON_PIO2_3 = (0x08C >> 2),
  88:../lpc11cx4-library/lpc_chip_11cxx_lib/inc/iocon_11xx.h **** 	IOCON_PIO2_4 = (0x040 >> 2),
  89:../lpc11cx4-library/lpc_chip_11cxx_lib/inc/iocon_11xx.h **** 	IOCON_PIO2_5 = (0x044 >> 2),
  90:../lpc11cx4-library/lpc_chip_11cxx_lib/inc/iocon_11xx.h **** 	IOCON_PIO2_6 = (0x000 >> 2),
  91:../lpc11cx4-library/lpc_chip_11cxx_lib/inc/iocon_11xx.h **** 	IOCON_PIO2_7 = (0x020 >> 2),
  92:../lpc11cx4-library/lpc_chip_11cxx_lib/inc/iocon_11xx.h **** 	IOCON_PIO2_8 = (0x024 >> 2),
  93:../lpc11cx4-library/lpc_chip_11cxx_lib/inc/iocon_11xx.h **** 	IOCON_PIO2_9 = (0x054 >> 2),
  94:../lpc11cx4-library/lpc_chip_11cxx_lib/inc/iocon_11xx.h **** 	IOCON_PIO2_10 = (0x058 >> 2),
  95:../lpc11cx4-library/lpc_chip_11cxx_lib/inc/iocon_11xx.h **** #if !defined(CHIP_LPC1125)
  96:../lpc11cx4-library/lpc_chip_11cxx_lib/inc/iocon_11xx.h **** 	IOCON_PIO2_11 = (0x070 >> 2),
  97:../lpc11cx4-library/lpc_chip_11cxx_lib/inc/iocon_11xx.h **** #endif
  98:../lpc11cx4-library/lpc_chip_11cxx_lib/inc/iocon_11xx.h **** 
  99:../lpc11cx4-library/lpc_chip_11cxx_lib/inc/iocon_11xx.h **** 	IOCON_PIO3_0 = (0x084 >> 2),
 100:../lpc11cx4-library/lpc_chip_11cxx_lib/inc/iocon_11xx.h **** #if !defined(CHIP_LPC1125)
 101:../lpc11cx4-library/lpc_chip_11cxx_lib/inc/iocon_11xx.h **** 	IOCON_PIO3_1 = (0x088 >> 2),
 102:../lpc11cx4-library/lpc_chip_11cxx_lib/inc/iocon_11xx.h **** #endif    
 103:../lpc11cx4-library/lpc_chip_11cxx_lib/inc/iocon_11xx.h **** 	IOCON_PIO3_2 = (0x09C >> 2),
 104:../lpc11cx4-library/lpc_chip_11cxx_lib/inc/iocon_11xx.h **** 	IOCON_PIO3_3 = (0x0AC >> 2),
 105:../lpc11cx4-library/lpc_chip_11cxx_lib/inc/iocon_11xx.h **** 	IOCON_PIO3_4 = (0x03C >> 2),
 106:../lpc11cx4-library/lpc_chip_11cxx_lib/inc/iocon_11xx.h **** 	IOCON_PIO3_5 = (0x048 >> 2),
 107:../lpc11cx4-library/lpc_chip_11cxx_lib/inc/iocon_11xx.h **** } CHIP_IOCON_PIO_T;
 108:../lpc11cx4-library/lpc_chip_11cxx_lib/inc/iocon_11xx.h **** 
 109:../lpc11cx4-library/lpc_chip_11cxx_lib/inc/iocon_11xx.h **** /**
 110:../lpc11cx4-library/lpc_chip_11cxx_lib/inc/iocon_11xx.h ****  * @brief LPC11XX Pin location select
 111:../lpc11cx4-library/lpc_chip_11cxx_lib/inc/iocon_11xx.h ****  */
 112:../lpc11cx4-library/lpc_chip_11cxx_lib/inc/iocon_11xx.h **** typedef enum CHIP_IOCON_PIN_LOC {
 113:../lpc11cx4-library/lpc_chip_11cxx_lib/inc/iocon_11xx.h **** 	IOCON_SCKLOC_PIO0_10        = (0xB0),		/*!< Selects SCK0 function in pin location PIO0_10 */
 114:../lpc11cx4-library/lpc_chip_11cxx_lib/inc/iocon_11xx.h **** #if !defined(CHIP_LPC1125)
 115:../lpc11cx4-library/lpc_chip_11cxx_lib/inc/iocon_11xx.h **** 	IOCON_SCKLOC_PIO2_11        = (0xB0 | 1),	/*!< Selects SCK0 function in pin location PIO2_11 */
 116:../lpc11cx4-library/lpc_chip_11cxx_lib/inc/iocon_11xx.h **** #endif    
 117:../lpc11cx4-library/lpc_chip_11cxx_lib/inc/iocon_11xx.h **** 	IOCON_SCKLOC_PIO0_6         = (0xB0 | 2),	/*!< Selects SCK0 function in pin location PIO0_6 */
 118:../lpc11cx4-library/lpc_chip_11cxx_lib/inc/iocon_11xx.h ****     
 119:../lpc11cx4-library/lpc_chip_11cxx_lib/inc/iocon_11xx.h **** 	IOCON_DSRLOC_PIO2_1         = (0xB4),		/*!< Selects DSR function in pin location PIO2_1 */
 120:../lpc11cx4-library/lpc_chip_11cxx_lib/inc/iocon_11xx.h **** #if !defined(CHIP_LPC1125)
 121:../lpc11cx4-library/lpc_chip_11cxx_lib/inc/iocon_11xx.h **** 	IOCON_DSRLOC_PIO3_1         = (0xB4 | 1),	/*!< Selects DSR function in pin location PIO3_1 */
 122:../lpc11cx4-library/lpc_chip_11cxx_lib/inc/iocon_11xx.h **** #endif    
 123:../lpc11cx4-library/lpc_chip_11cxx_lib/inc/iocon_11xx.h ****     
 124:../lpc11cx4-library/lpc_chip_11cxx_lib/inc/iocon_11xx.h **** 	IOCON_DCDLOC_PIO2_2         = (0xB8),		/*!< Selects DCD function in pin location PIO2_2 */
 125:../lpc11cx4-library/lpc_chip_11cxx_lib/inc/iocon_11xx.h **** 	IOCON_DCDLOC_PIO3_2         = (0xB8 | 1),	/*!< Selects DCD function in pin location PIO3_2 */
 126:../lpc11cx4-library/lpc_chip_11cxx_lib/inc/iocon_11xx.h ****     
 127:../lpc11cx4-library/lpc_chip_11cxx_lib/inc/iocon_11xx.h **** 	IOCON_RILOC_PIO2_3          = (0xBC),		/*!< Selects RI function in pin location PIO2_3 */
 128:../lpc11cx4-library/lpc_chip_11cxx_lib/inc/iocon_11xx.h **** 	IOCON_RILOC_PIO3_3          = (0xBC | 1),	/*!< Selects Ri function in pin location PIO3_3 */
 129:../lpc11cx4-library/lpc_chip_11cxx_lib/inc/iocon_11xx.h **** 
 130:../lpc11cx4-library/lpc_chip_11cxx_lib/inc/iocon_11xx.h **** #if defined(CHIP_LPC1125)
 131:../lpc11cx4-library/lpc_chip_11cxx_lib/inc/iocon_11xx.h **** 	IOCON_SSEL1_LOC_PIO2_2      = (0x18),		/*!< Selects SSEL1 function in pin location PIO2_2 */
 132:../lpc11cx4-library/lpc_chip_11cxx_lib/inc/iocon_11xx.h **** 	IOCON_SSEL1_LOC_PIO2_4      = (0x18 | 1),	/*!< Selects SSEL1 function in pin location PIO2_4 */
 133:../lpc11cx4-library/lpc_chip_11cxx_lib/inc/iocon_11xx.h **** 	
 134:../lpc11cx4-library/lpc_chip_11cxx_lib/inc/iocon_11xx.h ****     IOCON_CT16B0_CAP0_LOC_PIO0_2 = (0xC0),		/*!< Selects SSEL1 CTB16B0_CAP0 function in pin locatio
 135:../lpc11cx4-library/lpc_chip_11cxx_lib/inc/iocon_11xx.h ****     IOCON_CT16B0_CAP0_LOC_PIO3_3 = (0xC0 | 1),	/*!< Selects SSEL1 CTB16B0_CAP0 function in pin loca
ARM GAS  /var/folders/9j/_txx49hn253_s3mnzkyxlj8m0000gp/T//ccU5KKen.s 			page 5


 136:../lpc11cx4-library/lpc_chip_11cxx_lib/inc/iocon_11xx.h ****     
 137:../lpc11cx4-library/lpc_chip_11cxx_lib/inc/iocon_11xx.h ****     IOCON_SCK1_LOC_PIO2_1       = (0xC4),		/*!< Selects SCK1 function in pin location PIO2_1 */
 138:../lpc11cx4-library/lpc_chip_11cxx_lib/inc/iocon_11xx.h ****     IOCON_SCK1_LOC_PIO3_2       = (0xC4 | 1),	/*!< Selects SCK1 function in pin location PIO3_2 */
 139:../lpc11cx4-library/lpc_chip_11cxx_lib/inc/iocon_11xx.h ****     
 140:../lpc11cx4-library/lpc_chip_11cxx_lib/inc/iocon_11xx.h ****     IOCON_MISO1_LOC_PIO2_2      = (0xC8),		/*!< Selects MISO1 function in pin location PIO2_2 */
 141:../lpc11cx4-library/lpc_chip_11cxx_lib/inc/iocon_11xx.h ****     IOCON_MISO1_LOC_PIO1_10     = (0xC8 | 1),	/*!< Selects MISO1 function in pin location PIO1_10 *
 142:../lpc11cx4-library/lpc_chip_11cxx_lib/inc/iocon_11xx.h ****     
 143:../lpc11cx4-library/lpc_chip_11cxx_lib/inc/iocon_11xx.h ****     IOCON_MOSI1_LOC_PIO2_3      = (0xCC),		/*!< Selects MOSI1 function in pin location PIO2_3 */
 144:../lpc11cx4-library/lpc_chip_11cxx_lib/inc/iocon_11xx.h ****     IOCON_MOSI1_LOC_PIO1_9      = (0xCC),		/*!< Selects MOSI1 function in pin location PIO1_9 */
 145:../lpc11cx4-library/lpc_chip_11cxx_lib/inc/iocon_11xx.h ****     
 146:../lpc11cx4-library/lpc_chip_11cxx_lib/inc/iocon_11xx.h ****     IOCON_CT326B0_CAP0_LOC_PIO1_5 = (0xD0),		/*!< Selects CT32B0_CAP0 function in pin location PIO1
 147:../lpc11cx4-library/lpc_chip_11cxx_lib/inc/iocon_11xx.h ****     IOCON_CT326B0_CAP0_LOC_PIO2_9 = (0xD0 | 1),	/*!< Selects CT32B0_CAP0 function in pin location P
 148:../lpc11cx4-library/lpc_chip_11cxx_lib/inc/iocon_11xx.h ****     
 149:../lpc11cx4-library/lpc_chip_11cxx_lib/inc/iocon_11xx.h ****     IOCON_U0_RXD_LOC_PIO1_6     = (0xD4),		/*!< Selects U0 RXD function in pin location PIO1_6 */
 150:../lpc11cx4-library/lpc_chip_11cxx_lib/inc/iocon_11xx.h ****     IOCON_U0_RXD_LOC_PIO2_7     = (0xD4 | 1),   /*!< Selects U0 RXD function in pin location PIO2_7
 151:../lpc11cx4-library/lpc_chip_11cxx_lib/inc/iocon_11xx.h ****     IOCON_U0_RXD_LOC_PIO3_4     = (0xD4 | 3),   /*!< Selects U0 RXD function in pin location PIO3_4
 152:../lpc11cx4-library/lpc_chip_11cxx_lib/inc/iocon_11xx.h **** #endif
 153:../lpc11cx4-library/lpc_chip_11cxx_lib/inc/iocon_11xx.h **** 
 154:../lpc11cx4-library/lpc_chip_11cxx_lib/inc/iocon_11xx.h **** } CHIP_IOCON_PIN_LOC_T;
 155:../lpc11cx4-library/lpc_chip_11cxx_lib/inc/iocon_11xx.h **** 
 156:../lpc11cx4-library/lpc_chip_11cxx_lib/inc/iocon_11xx.h **** typedef struct {						/*!< LPC11XX/LPC11XXLV/LPC11UXX IOCON Structure */
 157:../lpc11cx4-library/lpc_chip_11cxx_lib/inc/iocon_11xx.h **** 	__IO uint32_t  REG[48];
 158:../lpc11cx4-library/lpc_chip_11cxx_lib/inc/iocon_11xx.h **** } LPC_IOCON_T;
 159:../lpc11cx4-library/lpc_chip_11cxx_lib/inc/iocon_11xx.h **** #endif
 160:../lpc11cx4-library/lpc_chip_11cxx_lib/inc/iocon_11xx.h **** 
 161:../lpc11cx4-library/lpc_chip_11cxx_lib/inc/iocon_11xx.h **** /**
 162:../lpc11cx4-library/lpc_chip_11cxx_lib/inc/iocon_11xx.h ****  * IOCON function and mode selection definitions
 163:../lpc11cx4-library/lpc_chip_11cxx_lib/inc/iocon_11xx.h ****  * See the User Manual for specific modes and functions supported by the
 164:../lpc11cx4-library/lpc_chip_11cxx_lib/inc/iocon_11xx.h ****  * various LPC11xx devices. Functionality can vary per device.
 165:../lpc11cx4-library/lpc_chip_11cxx_lib/inc/iocon_11xx.h ****  */
 166:../lpc11cx4-library/lpc_chip_11cxx_lib/inc/iocon_11xx.h **** #define IOCON_FUNC0             0x0				/*!< Selects pin function 0 */
 167:../lpc11cx4-library/lpc_chip_11cxx_lib/inc/iocon_11xx.h **** #define IOCON_FUNC1             0x1				/*!< Selects pin function 1 */
 168:../lpc11cx4-library/lpc_chip_11cxx_lib/inc/iocon_11xx.h **** #define IOCON_FUNC2             0x2				/*!< Selects pin function 2 */
 169:../lpc11cx4-library/lpc_chip_11cxx_lib/inc/iocon_11xx.h **** #define IOCON_FUNC3             0x3				/*!< Selects pin function 3 */
 170:../lpc11cx4-library/lpc_chip_11cxx_lib/inc/iocon_11xx.h **** #define IOCON_FUNC4             0x4				/*!< Selects pin function 4 */
 171:../lpc11cx4-library/lpc_chip_11cxx_lib/inc/iocon_11xx.h **** #define IOCON_FUNC5             0x5				/*!< Selects pin function 5 */
 172:../lpc11cx4-library/lpc_chip_11cxx_lib/inc/iocon_11xx.h **** #define IOCON_FUNC6             0x6				/*!< Selects pin function 6 */
 173:../lpc11cx4-library/lpc_chip_11cxx_lib/inc/iocon_11xx.h **** #define IOCON_FUNC7             0x7				/*!< Selects pin function 7 */
 174:../lpc11cx4-library/lpc_chip_11cxx_lib/inc/iocon_11xx.h **** #define IOCON_MODE_INACT        (0x0 << 3)		/*!< No addition pin function */
 175:../lpc11cx4-library/lpc_chip_11cxx_lib/inc/iocon_11xx.h **** #define IOCON_MODE_PULLDOWN     (0x1 << 3)		/*!< Selects pull-down function */
 176:../lpc11cx4-library/lpc_chip_11cxx_lib/inc/iocon_11xx.h **** #define IOCON_MODE_PULLUP       (0x2 << 3)		/*!< Selects pull-up function */
 177:../lpc11cx4-library/lpc_chip_11cxx_lib/inc/iocon_11xx.h **** #define IOCON_MODE_REPEATER     (0x3 << 3)		/*!< Selects pin repeater function */
 178:../lpc11cx4-library/lpc_chip_11cxx_lib/inc/iocon_11xx.h **** #define IOCON_HYS_EN            (0x1 << 5)		/*!< Enables hysteresis */
 179:../lpc11cx4-library/lpc_chip_11cxx_lib/inc/iocon_11xx.h **** #define IOCON_INV_EN            (0x1 << 6)		/*!< Enables invert function on input */
 180:../lpc11cx4-library/lpc_chip_11cxx_lib/inc/iocon_11xx.h **** #define IOCON_ADMODE_EN         (0x0 << 7)		/*!< Enables analog input function (analog pins only) *
 181:../lpc11cx4-library/lpc_chip_11cxx_lib/inc/iocon_11xx.h **** #define IOCON_DIGMODE_EN        (0x1 << 7)		/*!< Enables digital function (analog pins only) */
 182:../lpc11cx4-library/lpc_chip_11cxx_lib/inc/iocon_11xx.h **** #define IOCON_SFI2C_EN          (0x0 << 8)		/*!< I2C standard mode/fast-mode */
 183:../lpc11cx4-library/lpc_chip_11cxx_lib/inc/iocon_11xx.h **** #define IOCON_STDI2C_EN         (0x1 << 8)		/*!< I2C standard I/O functionality */
 184:../lpc11cx4-library/lpc_chip_11cxx_lib/inc/iocon_11xx.h **** #define IOCON_FASTI2C_EN        (0x2 << 8)		/*!< I2C Fast-mode Plus */
 185:../lpc11cx4-library/lpc_chip_11cxx_lib/inc/iocon_11xx.h **** #define IOCON_FILT_DIS          (0x1 << 8)		/*!< Disables noise pulses filtering (10nS glitch filte
 186:../lpc11cx4-library/lpc_chip_11cxx_lib/inc/iocon_11xx.h **** #define IOCON_OPENDRAIN_EN      (0x1 << 10)		/*!< Enables open-drain function */
 187:../lpc11cx4-library/lpc_chip_11cxx_lib/inc/iocon_11xx.h **** 
 188:../lpc11cx4-library/lpc_chip_11cxx_lib/inc/iocon_11xx.h **** /**
 189:../lpc11cx4-library/lpc_chip_11cxx_lib/inc/iocon_11xx.h ****  * IOCON function and mode selection definitions (old)
 190:../lpc11cx4-library/lpc_chip_11cxx_lib/inc/iocon_11xx.h ****  * For backwards compatibility.
 191:../lpc11cx4-library/lpc_chip_11cxx_lib/inc/iocon_11xx.h ****  */
 192:../lpc11cx4-library/lpc_chip_11cxx_lib/inc/iocon_11xx.h **** #define MD_PLN					(0x0 << 3)		/*!< Disable pull-down and pull-up resistor at resistor at pad */
ARM GAS  /var/folders/9j/_txx49hn253_s3mnzkyxlj8m0000gp/T//ccU5KKen.s 			page 6


 193:../lpc11cx4-library/lpc_chip_11cxx_lib/inc/iocon_11xx.h **** #define MD_PDN					(0x1 << 3)		/*!< Enable pull-down resistor at pad */
 194:../lpc11cx4-library/lpc_chip_11cxx_lib/inc/iocon_11xx.h **** #define MD_PUP					(0x2 << 3)		/*!< Enable pull-up resistor at pad */
 195:../lpc11cx4-library/lpc_chip_11cxx_lib/inc/iocon_11xx.h **** #define MD_BUK					(0x3 << 3)		/*!< Enable pull-down and pull-up resistor at resistor at pad (repea
 196:../lpc11cx4-library/lpc_chip_11cxx_lib/inc/iocon_11xx.h **** #define MD_HYS					(0x1 << 5)		/*!< Enable hysteresis */
 197:../lpc11cx4-library/lpc_chip_11cxx_lib/inc/iocon_11xx.h **** #define MD_INV					(0x1 << 6)		/*!< Invert enable */
 198:../lpc11cx4-library/lpc_chip_11cxx_lib/inc/iocon_11xx.h **** #define MD_ADMODE				(0x0 << 7)		/*!< Select analog mode */
 199:../lpc11cx4-library/lpc_chip_11cxx_lib/inc/iocon_11xx.h **** #define MD_DIGMODE				(0x1 << 7)		/*!< Select digitial mode */
 200:../lpc11cx4-library/lpc_chip_11cxx_lib/inc/iocon_11xx.h **** #define MD_DISFIL				(0x0 << 8)		/*!< Disable 10nS input glitch filter */
 201:../lpc11cx4-library/lpc_chip_11cxx_lib/inc/iocon_11xx.h **** #define MD_ENFIL				(0x1 << 8)		/*!< Enable 10nS input glitch filter */
 202:../lpc11cx4-library/lpc_chip_11cxx_lib/inc/iocon_11xx.h **** #define MD_SFI2C				(0x0 << 8)		/*!< I2C standard mode/fast-mode */
 203:../lpc11cx4-library/lpc_chip_11cxx_lib/inc/iocon_11xx.h **** #define MD_STDI2C				(0x1 << 8)		/*!< I2C standard I/O functionality */
 204:../lpc11cx4-library/lpc_chip_11cxx_lib/inc/iocon_11xx.h **** #define MD_FASTI2C				(0x2 << 8)		/*!< I2C Fast-mode Plus */
 205:../lpc11cx4-library/lpc_chip_11cxx_lib/inc/iocon_11xx.h **** #define MD_OPENDRAIN			(0x1 << 10)		/*!< Open drain mode bit */
 206:../lpc11cx4-library/lpc_chip_11cxx_lib/inc/iocon_11xx.h **** #define FUNC0 0x0
 207:../lpc11cx4-library/lpc_chip_11cxx_lib/inc/iocon_11xx.h **** #define FUNC1 0x1
 208:../lpc11cx4-library/lpc_chip_11cxx_lib/inc/iocon_11xx.h **** #define FUNC2 0x2
 209:../lpc11cx4-library/lpc_chip_11cxx_lib/inc/iocon_11xx.h **** #define FUNC3 0x3
 210:../lpc11cx4-library/lpc_chip_11cxx_lib/inc/iocon_11xx.h **** #define FUNC4 0x4
 211:../lpc11cx4-library/lpc_chip_11cxx_lib/inc/iocon_11xx.h **** #define FUNC5 0x5
 212:../lpc11cx4-library/lpc_chip_11cxx_lib/inc/iocon_11xx.h **** #define FUNC6 0x6
 213:../lpc11cx4-library/lpc_chip_11cxx_lib/inc/iocon_11xx.h **** #define FUNC7 0x7
 214:../lpc11cx4-library/lpc_chip_11cxx_lib/inc/iocon_11xx.h **** 
 215:../lpc11cx4-library/lpc_chip_11cxx_lib/inc/iocon_11xx.h **** #if defined(CHIP_LPC11UXX) || defined(CHIP_LPC11EXX) || defined(CHIP_LPC11AXX)
 216:../lpc11cx4-library/lpc_chip_11cxx_lib/inc/iocon_11xx.h **** /**
 217:../lpc11cx4-library/lpc_chip_11cxx_lib/inc/iocon_11xx.h ****  * @brief	Sets I/O Control pin mux
 218:../lpc11cx4-library/lpc_chip_11cxx_lib/inc/iocon_11xx.h ****  * @param	pIOCON		: The base of IOCON peripheral on the chip
 219:../lpc11cx4-library/lpc_chip_11cxx_lib/inc/iocon_11xx.h ****  * @param	port		: GPIO port to mux
 220:../lpc11cx4-library/lpc_chip_11cxx_lib/inc/iocon_11xx.h ****  * @param	pin			: GPIO pin to mux
 221:../lpc11cx4-library/lpc_chip_11cxx_lib/inc/iocon_11xx.h ****  * @param	modefunc	: OR'ed values or type IOCON_*
 222:../lpc11cx4-library/lpc_chip_11cxx_lib/inc/iocon_11xx.h ****  * @return	Nothing
 223:../lpc11cx4-library/lpc_chip_11cxx_lib/inc/iocon_11xx.h ****  */
 224:../lpc11cx4-library/lpc_chip_11cxx_lib/inc/iocon_11xx.h **** void Chip_IOCON_PinMuxSet(LPC_IOCON_T *pIOCON, uint8_t port, uint8_t pin, uint32_t modefunc);
 225:../lpc11cx4-library/lpc_chip_11cxx_lib/inc/iocon_11xx.h **** 
 226:../lpc11cx4-library/lpc_chip_11cxx_lib/inc/iocon_11xx.h **** /**
 227:../lpc11cx4-library/lpc_chip_11cxx_lib/inc/iocon_11xx.h ****  * @brief	I/O Control pin mux
 228:../lpc11cx4-library/lpc_chip_11cxx_lib/inc/iocon_11xx.h ****  * @param	pIOCON	: The base of IOCON peripheral on the chip
 229:../lpc11cx4-library/lpc_chip_11cxx_lib/inc/iocon_11xx.h ****  * @param	port	: GPIO port to mux
 230:../lpc11cx4-library/lpc_chip_11cxx_lib/inc/iocon_11xx.h ****  * @param	pin		: GPIO pin to mux
 231:../lpc11cx4-library/lpc_chip_11cxx_lib/inc/iocon_11xx.h ****  * @param	mode	: OR'ed values or type IOCON_*
 232:../lpc11cx4-library/lpc_chip_11cxx_lib/inc/iocon_11xx.h ****  * @param	func	: Pin function, value of type IOCON_FUNC?
 233:../lpc11cx4-library/lpc_chip_11cxx_lib/inc/iocon_11xx.h ****  * @return	Nothing
 234:../lpc11cx4-library/lpc_chip_11cxx_lib/inc/iocon_11xx.h ****  */
 235:../lpc11cx4-library/lpc_chip_11cxx_lib/inc/iocon_11xx.h **** STATIC INLINE void Chip_IOCON_PinMux(LPC_IOCON_T *pIOCON, uint8_t port, uint8_t pin, uint16_t mode,
 236:../lpc11cx4-library/lpc_chip_11cxx_lib/inc/iocon_11xx.h **** {
 237:../lpc11cx4-library/lpc_chip_11cxx_lib/inc/iocon_11xx.h **** 	Chip_IOCON_PinMuxSet(pIOCON, port, pin, (uint32_t) (mode | func));
 238:../lpc11cx4-library/lpc_chip_11cxx_lib/inc/iocon_11xx.h **** }
 239:../lpc11cx4-library/lpc_chip_11cxx_lib/inc/iocon_11xx.h **** 
 240:../lpc11cx4-library/lpc_chip_11cxx_lib/inc/iocon_11xx.h **** #else
 241:../lpc11cx4-library/lpc_chip_11cxx_lib/inc/iocon_11xx.h **** 
 242:../lpc11cx4-library/lpc_chip_11cxx_lib/inc/iocon_11xx.h **** /**
 243:../lpc11cx4-library/lpc_chip_11cxx_lib/inc/iocon_11xx.h ****  * @brief	Sets I/O Control pin mux
 244:../lpc11cx4-library/lpc_chip_11cxx_lib/inc/iocon_11xx.h ****  * @param	pIOCON		: The base of IOCON peripheral on the chip
 245:../lpc11cx4-library/lpc_chip_11cxx_lib/inc/iocon_11xx.h ****  * @param	pin			: GPIO pin to mux
 246:../lpc11cx4-library/lpc_chip_11cxx_lib/inc/iocon_11xx.h ****  * @param	modefunc	: OR'ed values or type IOCON_*
 247:../lpc11cx4-library/lpc_chip_11cxx_lib/inc/iocon_11xx.h ****  * @return	Nothing
 248:../lpc11cx4-library/lpc_chip_11cxx_lib/inc/iocon_11xx.h ****  */
 249:../lpc11cx4-library/lpc_chip_11cxx_lib/inc/iocon_11xx.h **** STATIC INLINE void Chip_IOCON_PinMuxSet(LPC_IOCON_T *pIOCON, CHIP_IOCON_PIO_T pin, uint32_t modefun
ARM GAS  /var/folders/9j/_txx49hn253_s3mnzkyxlj8m0000gp/T//ccU5KKen.s 			page 7


 250:../lpc11cx4-library/lpc_chip_11cxx_lib/inc/iocon_11xx.h **** {
 251:../lpc11cx4-library/lpc_chip_11cxx_lib/inc/iocon_11xx.h **** 	pIOCON->REG[pin] = modefunc;
  85              		.loc 2 251 0
  86 0000 0122     		mov	r2, #1	@ tmp113,
  87 0002 A421     		mov	r1, #164	@ tmp112,
  88              	.LBE13:
  89              	.LBE12:
  90              		.loc 1 9 0
  91 0004 38B5     		push	{r3, r4, r5, lr}	@
  92              		.cfi_def_cfa_offset 16
  93              		.cfi_offset 3, -16
  94              		.cfi_offset 4, -12
  95              		.cfi_offset 5, -8
  96              		.cfi_offset 14, -4
  97              		.loc 1 9 0
  98 0006 051C     		mov	r5, r0	@ baudrate, baudrate
  99              	.LBB16:
 100              	.LBB14:
 101              		.loc 2 251 0
 102 0008 094B     		ldr	r3, .L2	@ tmp111,
 103              	.LBE14:
 104              	.LBE16:
  10:src/serial.c  ****   Chip_IOCON_PinMuxSet(LPC_IOCON, IOCON_PIO1_6, (IOCON_FUNC1 | IOCON_MODE_INACT)); /* RXD */
  11:src/serial.c  ****   Chip_IOCON_PinMuxSet(LPC_IOCON, IOCON_PIO1_7, (IOCON_FUNC1 | IOCON_MODE_INACT)); /* TXD */
  12:src/serial.c  **** 
  13:src/serial.c  ****   Chip_UART_Init(LPC_USART);
 105              		.loc 1 13 0
 106 000a 0A4C     		ldr	r4, .L2+4	@ tmp117,
 107              	.LBB17:
 108              	.LBB15:
 109              		.loc 2 251 0
 110 000c 5A50     		str	r2, [r3, r1]	@ tmp113, MEM[(struct LPC_IOCON_T *)1074020352B].REG
 111              	.LVL1:
 112              	.LBE15:
 113              	.LBE17:
 114              	.LBB18:
 115              	.LBB19:
 116 000e 0431     		add	r1, r1, #4	@ tmp115,
 117 0010 5A50     		str	r2, [r3, r1]	@ tmp113, MEM[(struct LPC_IOCON_T *)1074020352B].REG
 118              	.LBE19:
 119              	.LBE18:
 120              		.loc 1 13 0
 121 0012 201C     		mov	r0, r4	@, tmp117
 122              	.LVL2:
 123 0014 FFF7FEFF 		bl	Chip_UART_Init	@
 124              	.LVL3:
  14:src/serial.c  ****   Chip_UART_SetBaud(LPC_USART, baudrate);
 125              		.loc 1 14 0
 126 0018 291C     		mov	r1, r5	@, baudrate
 127 001a 201C     		mov	r0, r4	@, tmp117
 128 001c FFF7FEFF 		bl	Chip_UART_SetBaud	@
 129              	.LVL4:
 130              	.LBB20:
 131              	.LBB21:
 132              		.file 3 "../lpc11cx4-library/lpc_chip_11cxx_lib/inc/uart_11xx.h"
   1:../lpc11cx4-library/lpc_chip_11cxx_lib/inc/uart_11xx.h **** /*
   2:../lpc11cx4-library/lpc_chip_11cxx_lib/inc/uart_11xx.h ****  * @brief LPC11xx UART chip driver
ARM GAS  /var/folders/9j/_txx49hn253_s3mnzkyxlj8m0000gp/T//ccU5KKen.s 			page 8


   3:../lpc11cx4-library/lpc_chip_11cxx_lib/inc/uart_11xx.h ****  *
   4:../lpc11cx4-library/lpc_chip_11cxx_lib/inc/uart_11xx.h ****  * @note
   5:../lpc11cx4-library/lpc_chip_11cxx_lib/inc/uart_11xx.h ****  * Copyright(C) NXP Semiconductors, 2012
   6:../lpc11cx4-library/lpc_chip_11cxx_lib/inc/uart_11xx.h ****  * All rights reserved.
   7:../lpc11cx4-library/lpc_chip_11cxx_lib/inc/uart_11xx.h ****  *
   8:../lpc11cx4-library/lpc_chip_11cxx_lib/inc/uart_11xx.h ****  * @par
   9:../lpc11cx4-library/lpc_chip_11cxx_lib/inc/uart_11xx.h ****  * Software that is described herein is for illustrative purposes only
  10:../lpc11cx4-library/lpc_chip_11cxx_lib/inc/uart_11xx.h ****  * which provides customers with programming information regarding the
  11:../lpc11cx4-library/lpc_chip_11cxx_lib/inc/uart_11xx.h ****  * LPC products.  This software is supplied "AS IS" without any warranties of
  12:../lpc11cx4-library/lpc_chip_11cxx_lib/inc/uart_11xx.h ****  * any kind, and NXP Semiconductors and its licensor disclaim any and
  13:../lpc11cx4-library/lpc_chip_11cxx_lib/inc/uart_11xx.h ****  * all warranties, express or implied, including all implied warranties of
  14:../lpc11cx4-library/lpc_chip_11cxx_lib/inc/uart_11xx.h ****  * merchantability, fitness for a particular purpose and non-infringement of
  15:../lpc11cx4-library/lpc_chip_11cxx_lib/inc/uart_11xx.h ****  * intellectual property rights.  NXP Semiconductors assumes no responsibility
  16:../lpc11cx4-library/lpc_chip_11cxx_lib/inc/uart_11xx.h ****  * or liability for the use of the software, conveys no license or rights under any
  17:../lpc11cx4-library/lpc_chip_11cxx_lib/inc/uart_11xx.h ****  * patent, copyright, mask work right, or any other intellectual property rights in
  18:../lpc11cx4-library/lpc_chip_11cxx_lib/inc/uart_11xx.h ****  * or to any products. NXP Semiconductors reserves the right to make changes
  19:../lpc11cx4-library/lpc_chip_11cxx_lib/inc/uart_11xx.h ****  * in the software without notification. NXP Semiconductors also makes no
  20:../lpc11cx4-library/lpc_chip_11cxx_lib/inc/uart_11xx.h ****  * representation or warranty that such application will be suitable for the
  21:../lpc11cx4-library/lpc_chip_11cxx_lib/inc/uart_11xx.h ****  * specified use without further testing or modification.
  22:../lpc11cx4-library/lpc_chip_11cxx_lib/inc/uart_11xx.h ****  *
  23:../lpc11cx4-library/lpc_chip_11cxx_lib/inc/uart_11xx.h ****  * @par
  24:../lpc11cx4-library/lpc_chip_11cxx_lib/inc/uart_11xx.h ****  * Permission to use, copy, modify, and distribute this software and its
  25:../lpc11cx4-library/lpc_chip_11cxx_lib/inc/uart_11xx.h ****  * documentation is hereby granted, under NXP Semiconductors' and its
  26:../lpc11cx4-library/lpc_chip_11cxx_lib/inc/uart_11xx.h ****  * licensor's relevant copyrights in the software, without fee, provided that it
  27:../lpc11cx4-library/lpc_chip_11cxx_lib/inc/uart_11xx.h ****  * is used in conjunction with NXP Semiconductors microcontrollers.  This
  28:../lpc11cx4-library/lpc_chip_11cxx_lib/inc/uart_11xx.h ****  * copyright, permission, and disclaimer notice must appear in all copies of
  29:../lpc11cx4-library/lpc_chip_11cxx_lib/inc/uart_11xx.h ****  * this code.
  30:../lpc11cx4-library/lpc_chip_11cxx_lib/inc/uart_11xx.h ****  */
  31:../lpc11cx4-library/lpc_chip_11cxx_lib/inc/uart_11xx.h **** 
  32:../lpc11cx4-library/lpc_chip_11cxx_lib/inc/uart_11xx.h **** #ifndef __UART_11XX_H_
  33:../lpc11cx4-library/lpc_chip_11cxx_lib/inc/uart_11xx.h **** #define __UART_11XX_H_
  34:../lpc11cx4-library/lpc_chip_11cxx_lib/inc/uart_11xx.h **** 
  35:../lpc11cx4-library/lpc_chip_11cxx_lib/inc/uart_11xx.h **** #include "ring_buffer.h"
  36:../lpc11cx4-library/lpc_chip_11cxx_lib/inc/uart_11xx.h **** 
  37:../lpc11cx4-library/lpc_chip_11cxx_lib/inc/uart_11xx.h **** #ifdef __cplusplus
  38:../lpc11cx4-library/lpc_chip_11cxx_lib/inc/uart_11xx.h **** extern "C" {
  39:../lpc11cx4-library/lpc_chip_11cxx_lib/inc/uart_11xx.h **** #endif
  40:../lpc11cx4-library/lpc_chip_11cxx_lib/inc/uart_11xx.h **** 
  41:../lpc11cx4-library/lpc_chip_11cxx_lib/inc/uart_11xx.h **** /** @defgroup UART_11XX CHIP: LPC11xx UART driver
  42:../lpc11cx4-library/lpc_chip_11cxx_lib/inc/uart_11xx.h ****  * @ingroup CHIP_11XX_Drivers
  43:../lpc11cx4-library/lpc_chip_11cxx_lib/inc/uart_11xx.h ****  * @{
  44:../lpc11cx4-library/lpc_chip_11cxx_lib/inc/uart_11xx.h ****  */
  45:../lpc11cx4-library/lpc_chip_11cxx_lib/inc/uart_11xx.h **** 
  46:../lpc11cx4-library/lpc_chip_11cxx_lib/inc/uart_11xx.h **** /**
  47:../lpc11cx4-library/lpc_chip_11cxx_lib/inc/uart_11xx.h ****  * @brief USART register block structure
  48:../lpc11cx4-library/lpc_chip_11cxx_lib/inc/uart_11xx.h ****  */
  49:../lpc11cx4-library/lpc_chip_11cxx_lib/inc/uart_11xx.h **** typedef struct {					/*!< USARTn Structure       */
  50:../lpc11cx4-library/lpc_chip_11cxx_lib/inc/uart_11xx.h **** 
  51:../lpc11cx4-library/lpc_chip_11cxx_lib/inc/uart_11xx.h **** 	union {
  52:../lpc11cx4-library/lpc_chip_11cxx_lib/inc/uart_11xx.h **** 		__IO uint32_t  DLL;			/*!< Divisor Latch LSB. Least significant byte of the baud rate divisor val
  53:../lpc11cx4-library/lpc_chip_11cxx_lib/inc/uart_11xx.h **** 		__O  uint32_t  THR;			/*!< Transmit Holding Register. The next character to be transmitted is wri
  54:../lpc11cx4-library/lpc_chip_11cxx_lib/inc/uart_11xx.h **** 		__I  uint32_t  RBR;			/*!< Receiver Buffer Register. Contains the next received character to be r
  55:../lpc11cx4-library/lpc_chip_11cxx_lib/inc/uart_11xx.h **** 	};
  56:../lpc11cx4-library/lpc_chip_11cxx_lib/inc/uart_11xx.h **** 
  57:../lpc11cx4-library/lpc_chip_11cxx_lib/inc/uart_11xx.h **** 	union {
  58:../lpc11cx4-library/lpc_chip_11cxx_lib/inc/uart_11xx.h **** 		__IO uint32_t IER;			/*!< Interrupt Enable Register. Contains individual interrupt enable bits fo
  59:../lpc11cx4-library/lpc_chip_11cxx_lib/inc/uart_11xx.h **** 		__IO uint32_t DLM;			/*!< Divisor Latch MSB. Most significant byte of the baud rate divisor value
ARM GAS  /var/folders/9j/_txx49hn253_s3mnzkyxlj8m0000gp/T//ccU5KKen.s 			page 9


  60:../lpc11cx4-library/lpc_chip_11cxx_lib/inc/uart_11xx.h **** 	};
  61:../lpc11cx4-library/lpc_chip_11cxx_lib/inc/uart_11xx.h **** 
  62:../lpc11cx4-library/lpc_chip_11cxx_lib/inc/uart_11xx.h **** 	union {
  63:../lpc11cx4-library/lpc_chip_11cxx_lib/inc/uart_11xx.h **** 		__O  uint32_t FCR;			/*!< FIFO Control Register. Controls UART FIFO usage and modes. */
  64:../lpc11cx4-library/lpc_chip_11cxx_lib/inc/uart_11xx.h **** 		__I  uint32_t IIR;			/*!< Interrupt ID Register. Identifies which interrupt(s) are pending. */
  65:../lpc11cx4-library/lpc_chip_11cxx_lib/inc/uart_11xx.h **** 	};
  66:../lpc11cx4-library/lpc_chip_11cxx_lib/inc/uart_11xx.h **** 
  67:../lpc11cx4-library/lpc_chip_11cxx_lib/inc/uart_11xx.h **** 	__IO uint32_t LCR;				/*!< Line Control Register. Contains controls for frame formatting and break
  68:../lpc11cx4-library/lpc_chip_11cxx_lib/inc/uart_11xx.h **** 	__IO uint32_t MCR;				/*!< Modem Control Register. Only present on USART ports with full modem sup
  69:../lpc11cx4-library/lpc_chip_11cxx_lib/inc/uart_11xx.h **** 	__I  uint32_t LSR;				/*!< Line Status Register. Contains flags for transmit and receive status, i
  70:../lpc11cx4-library/lpc_chip_11cxx_lib/inc/uart_11xx.h **** 	__I  uint32_t MSR;				/*!< Modem Status Register. Only present on USART ports with full modem supp
  71:../lpc11cx4-library/lpc_chip_11cxx_lib/inc/uart_11xx.h **** 	__IO uint32_t SCR;				/*!< Scratch Pad Register. Eight-bit temporary storage for software. */
  72:../lpc11cx4-library/lpc_chip_11cxx_lib/inc/uart_11xx.h **** 	__IO uint32_t ACR;				/*!< Auto-baud Control Register. Contains controls for the auto-baud feature
  73:../lpc11cx4-library/lpc_chip_11cxx_lib/inc/uart_11xx.h **** 	__IO uint32_t ICR;				/*!< IrDA control register (not all UARTS) */
  74:../lpc11cx4-library/lpc_chip_11cxx_lib/inc/uart_11xx.h **** 	__IO uint32_t FDR;				/*!< Fractional Divider Register. Generates a clock input for the baud rate 
  75:../lpc11cx4-library/lpc_chip_11cxx_lib/inc/uart_11xx.h **** 	__IO uint32_t OSR;				/*!< Oversampling Register. Controls the degree of oversampling during each 
  76:../lpc11cx4-library/lpc_chip_11cxx_lib/inc/uart_11xx.h **** 	__IO uint32_t TER1;				/*!< Transmit Enable Register. Turns off USART transmitter for use with sof
  77:../lpc11cx4-library/lpc_chip_11cxx_lib/inc/uart_11xx.h **** 	uint32_t  RESERVED0[3];
  78:../lpc11cx4-library/lpc_chip_11cxx_lib/inc/uart_11xx.h ****     __IO uint32_t HDEN;				/*!< Half-duplex enable Register- only on some UARTs */
  79:../lpc11cx4-library/lpc_chip_11cxx_lib/inc/uart_11xx.h **** 	__I  uint32_t RESERVED1[1];
  80:../lpc11cx4-library/lpc_chip_11cxx_lib/inc/uart_11xx.h **** 	__IO uint32_t SCICTRL;			/*!< Smart card interface control register- only on some UARTs */
  81:../lpc11cx4-library/lpc_chip_11cxx_lib/inc/uart_11xx.h **** 
  82:../lpc11cx4-library/lpc_chip_11cxx_lib/inc/uart_11xx.h **** 	__IO uint32_t RS485CTRL;		/*!< RS-485/EIA-485 Control. Contains controls to configure various aspe
  83:../lpc11cx4-library/lpc_chip_11cxx_lib/inc/uart_11xx.h **** 	__IO uint32_t RS485ADRMATCH;	/*!< RS-485/EIA-485 address match. Contains the address match value f
  84:../lpc11cx4-library/lpc_chip_11cxx_lib/inc/uart_11xx.h **** 	__IO uint32_t RS485DLY;			/*!< RS-485/EIA-485 direction control delay. */
  85:../lpc11cx4-library/lpc_chip_11cxx_lib/inc/uart_11xx.h **** 
  86:../lpc11cx4-library/lpc_chip_11cxx_lib/inc/uart_11xx.h **** 	union {
  87:../lpc11cx4-library/lpc_chip_11cxx_lib/inc/uart_11xx.h **** 		__IO uint32_t SYNCCTRL;		/*!< Synchronous mode control register. Only on USARTs. */
  88:../lpc11cx4-library/lpc_chip_11cxx_lib/inc/uart_11xx.h **** 		__I  uint32_t FIFOLVL;		/*!< FIFO Level register. Provides the current fill levels of the transmi
  89:../lpc11cx4-library/lpc_chip_11cxx_lib/inc/uart_11xx.h **** 	};
  90:../lpc11cx4-library/lpc_chip_11cxx_lib/inc/uart_11xx.h **** 
  91:../lpc11cx4-library/lpc_chip_11cxx_lib/inc/uart_11xx.h **** 	__IO uint32_t TER2;				/*!< Transmit Enable Register. Only on LPC177X_8X UART4 and LPC18XX/43XX US
  92:../lpc11cx4-library/lpc_chip_11cxx_lib/inc/uart_11xx.h **** } LPC_USART_T;
  93:../lpc11cx4-library/lpc_chip_11cxx_lib/inc/uart_11xx.h **** 
  94:../lpc11cx4-library/lpc_chip_11cxx_lib/inc/uart_11xx.h **** 
  95:../lpc11cx4-library/lpc_chip_11cxx_lib/inc/uart_11xx.h **** /**
  96:../lpc11cx4-library/lpc_chip_11cxx_lib/inc/uart_11xx.h ****  * @brief Macro defines for UART Receive Buffer register
  97:../lpc11cx4-library/lpc_chip_11cxx_lib/inc/uart_11xx.h ****  */
  98:../lpc11cx4-library/lpc_chip_11cxx_lib/inc/uart_11xx.h **** #define UART_RBR_MASKBIT    (0xFF)		        /*!< UART Received Buffer mask bit (8 bits) */
  99:../lpc11cx4-library/lpc_chip_11cxx_lib/inc/uart_11xx.h **** 
 100:../lpc11cx4-library/lpc_chip_11cxx_lib/inc/uart_11xx.h **** /**
 101:../lpc11cx4-library/lpc_chip_11cxx_lib/inc/uart_11xx.h ****  * @brief Macro defines for UART Divisor Latch LSB register
 102:../lpc11cx4-library/lpc_chip_11cxx_lib/inc/uart_11xx.h ****  */
 103:../lpc11cx4-library/lpc_chip_11cxx_lib/inc/uart_11xx.h **** #define UART_LOAD_DLL(div)  ((div) & 0xFF)		/*!< Macro for loading LSB of divisor */
 104:../lpc11cx4-library/lpc_chip_11cxx_lib/inc/uart_11xx.h **** #define UART_DLL_MASKBIT    (0xFF)	            /*!< Divisor latch LSB bit mask */
 105:../lpc11cx4-library/lpc_chip_11cxx_lib/inc/uart_11xx.h **** 
 106:../lpc11cx4-library/lpc_chip_11cxx_lib/inc/uart_11xx.h **** /**
 107:../lpc11cx4-library/lpc_chip_11cxx_lib/inc/uart_11xx.h ****  * @brief Macro defines for UART Divisor Latch MSB register
 108:../lpc11cx4-library/lpc_chip_11cxx_lib/inc/uart_11xx.h ****  */
 109:../lpc11cx4-library/lpc_chip_11cxx_lib/inc/uart_11xx.h **** #define UART_LOAD_DLM(div)  (((div) >> 8) & 0xFF)	/*!< Macro for loading MSB of divisors */
 110:../lpc11cx4-library/lpc_chip_11cxx_lib/inc/uart_11xx.h **** #define UART_DLM_MASKBIT    (0xFF)		            /*!< Divisor latch MSB bit mask */
 111:../lpc11cx4-library/lpc_chip_11cxx_lib/inc/uart_11xx.h **** 
 112:../lpc11cx4-library/lpc_chip_11cxx_lib/inc/uart_11xx.h **** /**
 113:../lpc11cx4-library/lpc_chip_11cxx_lib/inc/uart_11xx.h ****  * @brief Macro defines for UART Interrupt Enable Register
 114:../lpc11cx4-library/lpc_chip_11cxx_lib/inc/uart_11xx.h ****  */
 115:../lpc11cx4-library/lpc_chip_11cxx_lib/inc/uart_11xx.h **** #define UART_IER_RBRINT      (1 << 0)	/*!< RBR Interrupt enable */
 116:../lpc11cx4-library/lpc_chip_11cxx_lib/inc/uart_11xx.h **** #define UART_IER_THREINT     (1 << 1)	/*!< THR Interrupt enable */
ARM GAS  /var/folders/9j/_txx49hn253_s3mnzkyxlj8m0000gp/T//ccU5KKen.s 			page 10


 117:../lpc11cx4-library/lpc_chip_11cxx_lib/inc/uart_11xx.h **** #define UART_IER_RLSINT      (1 << 2)	/*!< RX line status interrupt enable */
 118:../lpc11cx4-library/lpc_chip_11cxx_lib/inc/uart_11xx.h **** #define UART_IER_MSINT       (1 << 3)	/*!< Modem status interrupt enable - valid for 11xx, 17xx/40x
 119:../lpc11cx4-library/lpc_chip_11cxx_lib/inc/uart_11xx.h **** #define UART_IER_CTSINT      (1 << 7)	/*!< CTS signal transition interrupt enable - valid for 17xx/
 120:../lpc11cx4-library/lpc_chip_11cxx_lib/inc/uart_11xx.h **** #define UART_IER_ABEOINT     (1 << 8)	/*!< Enables the end of auto-baud interrupt */
 121:../lpc11cx4-library/lpc_chip_11cxx_lib/inc/uart_11xx.h **** #define UART_IER_ABTOINT     (1 << 9)	/*!< Enables the auto-baud time-out interrupt */
 122:../lpc11cx4-library/lpc_chip_11cxx_lib/inc/uart_11xx.h **** #define UART_IER_BITMASK     (0x307)	/*!< UART interrupt enable register bit mask  - valid for 13xx
 123:../lpc11cx4-library/lpc_chip_11cxx_lib/inc/uart_11xx.h **** #define UART1_IER_BITMASK    (0x30F)	/*!< UART1 interrupt enable register bit mask - valid for 11xx
 124:../lpc11cx4-library/lpc_chip_11cxx_lib/inc/uart_11xx.h **** #define UART2_IER_BITMASK    (0x38F)	/*!< UART2 interrupt enable register bit mask - valid for 17xx
 125:../lpc11cx4-library/lpc_chip_11cxx_lib/inc/uart_11xx.h **** 
 126:../lpc11cx4-library/lpc_chip_11cxx_lib/inc/uart_11xx.h **** /**
 127:../lpc11cx4-library/lpc_chip_11cxx_lib/inc/uart_11xx.h ****  * @brief Macro defines for UART Interrupt Identification Register
 128:../lpc11cx4-library/lpc_chip_11cxx_lib/inc/uart_11xx.h ****  */
 129:../lpc11cx4-library/lpc_chip_11cxx_lib/inc/uart_11xx.h **** #define UART_IIR_INTSTAT_PEND   (1 << 0)	/*!< Interrupt pending status - Active low */
 130:../lpc11cx4-library/lpc_chip_11cxx_lib/inc/uart_11xx.h **** #define UART_IIR_FIFO_EN        (3 << 6)	/*!< These bits are equivalent to FCR[0] */
 131:../lpc11cx4-library/lpc_chip_11cxx_lib/inc/uart_11xx.h **** #define UART_IIR_ABEO_INT       (1 << 8)	/*!< End of auto-baud interrupt */
 132:../lpc11cx4-library/lpc_chip_11cxx_lib/inc/uart_11xx.h **** #define UART_IIR_ABTO_INT       (1 << 9)	/*!< Auto-baud time-out interrupt */
 133:../lpc11cx4-library/lpc_chip_11cxx_lib/inc/uart_11xx.h **** #define UART_IIR_BITMASK        (0x3CF)		/*!< UART interrupt identification register bit mask */
 134:../lpc11cx4-library/lpc_chip_11cxx_lib/inc/uart_11xx.h **** 
 135:../lpc11cx4-library/lpc_chip_11cxx_lib/inc/uart_11xx.h **** /* Interrupt ID bit definitions */
 136:../lpc11cx4-library/lpc_chip_11cxx_lib/inc/uart_11xx.h **** #define UART_IIR_INTID_MASK     (7 << 1)	/*!< Interrupt identification: Interrupt ID mask */
 137:../lpc11cx4-library/lpc_chip_11cxx_lib/inc/uart_11xx.h **** #define UART_IIR_INTID_RLS      (3 << 1)	/*!< Interrupt identification: Receive line interrupt */
 138:../lpc11cx4-library/lpc_chip_11cxx_lib/inc/uart_11xx.h **** #define UART_IIR_INTID_RDA      (2 << 1)	/*!< Interrupt identification: Receive data available inte
 139:../lpc11cx4-library/lpc_chip_11cxx_lib/inc/uart_11xx.h **** #define UART_IIR_INTID_CTI      (6 << 1)	/*!< Interrupt identification: Character time-out indicato
 140:../lpc11cx4-library/lpc_chip_11cxx_lib/inc/uart_11xx.h **** #define UART_IIR_INTID_THRE     (1 << 1)	/*!< Interrupt identification: THRE interrupt */
 141:../lpc11cx4-library/lpc_chip_11cxx_lib/inc/uart_11xx.h **** #define UART_IIR_INTID_MODEM    (0 << 1)	/*!< Interrupt identification: Modem interrupt */
 142:../lpc11cx4-library/lpc_chip_11cxx_lib/inc/uart_11xx.h **** 
 143:../lpc11cx4-library/lpc_chip_11cxx_lib/inc/uart_11xx.h **** /**
 144:../lpc11cx4-library/lpc_chip_11cxx_lib/inc/uart_11xx.h ****  * @brief Macro defines for UART FIFO Control Register
 145:../lpc11cx4-library/lpc_chip_11cxx_lib/inc/uart_11xx.h ****  */
 146:../lpc11cx4-library/lpc_chip_11cxx_lib/inc/uart_11xx.h **** #define UART_FCR_FIFO_EN        (1 << 0)	/*!< UART FIFO enable */
 147:../lpc11cx4-library/lpc_chip_11cxx_lib/inc/uart_11xx.h **** #define UART_FCR_RX_RS          (1 << 1)	/*!< UART RX FIFO reset */
 148:../lpc11cx4-library/lpc_chip_11cxx_lib/inc/uart_11xx.h **** #define UART_FCR_TX_RS          (1 << 2)	/*!< UART TX FIFO reset */
 149:../lpc11cx4-library/lpc_chip_11cxx_lib/inc/uart_11xx.h **** #define UART_FCR_DMAMODE_SEL    (1 << 3)	/*!< UART DMA mode selection - valid for 17xx/40xx, 18xx/4
 150:../lpc11cx4-library/lpc_chip_11cxx_lib/inc/uart_11xx.h **** #define UART_FCR_BITMASK        (0xCF)		/*!< UART FIFO control bit mask */
 151:../lpc11cx4-library/lpc_chip_11cxx_lib/inc/uart_11xx.h **** 
 152:../lpc11cx4-library/lpc_chip_11cxx_lib/inc/uart_11xx.h **** #define UART_TX_FIFO_SIZE       (16)
 153:../lpc11cx4-library/lpc_chip_11cxx_lib/inc/uart_11xx.h **** 
 154:../lpc11cx4-library/lpc_chip_11cxx_lib/inc/uart_11xx.h **** /* FIFO trigger level bit definitions */
 155:../lpc11cx4-library/lpc_chip_11cxx_lib/inc/uart_11xx.h **** #define UART_FCR_TRG_LEV0       (0)			/*!< UART FIFO trigger level 0: 1 character */
 156:../lpc11cx4-library/lpc_chip_11cxx_lib/inc/uart_11xx.h **** #define UART_FCR_TRG_LEV1       (1 << 6)	/*!< UART FIFO trigger level 1: 4 character */
 157:../lpc11cx4-library/lpc_chip_11cxx_lib/inc/uart_11xx.h **** #define UART_FCR_TRG_LEV2       (2 << 6)	/*!< UART FIFO trigger level 2: 8 character */
 158:../lpc11cx4-library/lpc_chip_11cxx_lib/inc/uart_11xx.h **** #define UART_FCR_TRG_LEV3       (3 << 6)	/*!< UART FIFO trigger level 3: 14 character */
 159:../lpc11cx4-library/lpc_chip_11cxx_lib/inc/uart_11xx.h **** 
 160:../lpc11cx4-library/lpc_chip_11cxx_lib/inc/uart_11xx.h **** /**
 161:../lpc11cx4-library/lpc_chip_11cxx_lib/inc/uart_11xx.h ****  * @brief Macro defines for UART Line Control Register
 162:../lpc11cx4-library/lpc_chip_11cxx_lib/inc/uart_11xx.h ****  */
 163:../lpc11cx4-library/lpc_chip_11cxx_lib/inc/uart_11xx.h **** /* UART word length select bit definitions */
 164:../lpc11cx4-library/lpc_chip_11cxx_lib/inc/uart_11xx.h **** #define UART_LCR_WLEN_MASK      (3 << 0)		/*!< UART word length select bit mask */
 165:../lpc11cx4-library/lpc_chip_11cxx_lib/inc/uart_11xx.h **** #define UART_LCR_WLEN5          (0 << 0)		/*!< UART word length select: 5 bit data mode */
 166:../lpc11cx4-library/lpc_chip_11cxx_lib/inc/uart_11xx.h **** #define UART_LCR_WLEN6          (1 << 0)		/*!< UART word length select: 6 bit data mode */
 167:../lpc11cx4-library/lpc_chip_11cxx_lib/inc/uart_11xx.h **** #define UART_LCR_WLEN7          (2 << 0)		/*!< UART word length select: 7 bit data mode */
 168:../lpc11cx4-library/lpc_chip_11cxx_lib/inc/uart_11xx.h **** #define UART_LCR_WLEN8          (3 << 0)		/*!< UART word length select: 8 bit data mode */
 169:../lpc11cx4-library/lpc_chip_11cxx_lib/inc/uart_11xx.h **** 
 170:../lpc11cx4-library/lpc_chip_11cxx_lib/inc/uart_11xx.h **** /* UART Stop bit select bit definitions */
 171:../lpc11cx4-library/lpc_chip_11cxx_lib/inc/uart_11xx.h **** #define UART_LCR_SBS_MASK       (1 << 2)		/*!< UART stop bit select: bit mask */
 172:../lpc11cx4-library/lpc_chip_11cxx_lib/inc/uart_11xx.h **** #define UART_LCR_SBS_1BIT       (0 << 2)		/*!< UART stop bit select: 1 stop bit */
 173:../lpc11cx4-library/lpc_chip_11cxx_lib/inc/uart_11xx.h **** #define UART_LCR_SBS_2BIT       (1 << 2)		/*!< UART stop bit select: 2 stop bits (in 5 bit data mod
ARM GAS  /var/folders/9j/_txx49hn253_s3mnzkyxlj8m0000gp/T//ccU5KKen.s 			page 11


 174:../lpc11cx4-library/lpc_chip_11cxx_lib/inc/uart_11xx.h **** 
 175:../lpc11cx4-library/lpc_chip_11cxx_lib/inc/uart_11xx.h **** /* UART Parity enable bit definitions */
 176:../lpc11cx4-library/lpc_chip_11cxx_lib/inc/uart_11xx.h **** #define UART_LCR_PARITY_EN      (1 << 3)		/*!< UART Parity Enable */
 177:../lpc11cx4-library/lpc_chip_11cxx_lib/inc/uart_11xx.h **** #define UART_LCR_PARITY_DIS     (0 << 3)		/*!< UART Parity Disable */
 178:../lpc11cx4-library/lpc_chip_11cxx_lib/inc/uart_11xx.h **** #define UART_LCR_PARITY_ODD     (0 << 4)		/*!< UART Parity select: Odd parity */
 179:../lpc11cx4-library/lpc_chip_11cxx_lib/inc/uart_11xx.h **** #define UART_LCR_PARITY_EVEN    (1 << 4)		/*!< UART Parity select: Even parity */
 180:../lpc11cx4-library/lpc_chip_11cxx_lib/inc/uart_11xx.h **** #define UART_LCR_PARITY_F_1     (2 << 4)		/*!< UART Parity select: Forced 1 stick parity */
 181:../lpc11cx4-library/lpc_chip_11cxx_lib/inc/uart_11xx.h **** #define UART_LCR_PARITY_F_0     (3 << 4)		/*!< UART Parity select: Forced 0 stick parity */
 182:../lpc11cx4-library/lpc_chip_11cxx_lib/inc/uart_11xx.h **** #define UART_LCR_BREAK_EN       (1 << 6)		/*!< UART Break transmission enable */
 183:../lpc11cx4-library/lpc_chip_11cxx_lib/inc/uart_11xx.h **** #define UART_LCR_DLAB_EN        (1 << 7)		/*!< UART Divisor Latches Access bit enable */
 184:../lpc11cx4-library/lpc_chip_11cxx_lib/inc/uart_11xx.h **** #define UART_LCR_BITMASK        (0xFF)			/*!< UART line control bit mask */
 185:../lpc11cx4-library/lpc_chip_11cxx_lib/inc/uart_11xx.h **** 
 186:../lpc11cx4-library/lpc_chip_11cxx_lib/inc/uart_11xx.h **** /**
 187:../lpc11cx4-library/lpc_chip_11cxx_lib/inc/uart_11xx.h ****  * @brief Macro defines for UART Modem Control Register
 188:../lpc11cx4-library/lpc_chip_11cxx_lib/inc/uart_11xx.h ****  */
 189:../lpc11cx4-library/lpc_chip_11cxx_lib/inc/uart_11xx.h **** #define UART_MCR_DTR_CTRL       (1 << 0)		/*!< Source for modem output pin DTR */
 190:../lpc11cx4-library/lpc_chip_11cxx_lib/inc/uart_11xx.h **** #define UART_MCR_RTS_CTRL       (1 << 1)		/*!< Source for modem output pin RTS */
 191:../lpc11cx4-library/lpc_chip_11cxx_lib/inc/uart_11xx.h **** #define UART_MCR_LOOPB_EN       (1 << 4)		/*!< Loop back mode select */
 192:../lpc11cx4-library/lpc_chip_11cxx_lib/inc/uart_11xx.h **** #define UART_MCR_AUTO_RTS_EN    (1 << 6)		/*!< Enable Auto RTS flow-control */
 193:../lpc11cx4-library/lpc_chip_11cxx_lib/inc/uart_11xx.h **** #define UART_MCR_AUTO_CTS_EN    (1 << 7)		/*!< Enable Auto CTS flow-control */
 194:../lpc11cx4-library/lpc_chip_11cxx_lib/inc/uart_11xx.h **** #define UART_MCR_BITMASK        (0xD3)			/*!< UART bit mask value */
 195:../lpc11cx4-library/lpc_chip_11cxx_lib/inc/uart_11xx.h **** 
 196:../lpc11cx4-library/lpc_chip_11cxx_lib/inc/uart_11xx.h **** /**
 197:../lpc11cx4-library/lpc_chip_11cxx_lib/inc/uart_11xx.h ****  * @brief Macro defines for UART Line Status Register
 198:../lpc11cx4-library/lpc_chip_11cxx_lib/inc/uart_11xx.h ****  */
 199:../lpc11cx4-library/lpc_chip_11cxx_lib/inc/uart_11xx.h **** #define UART_LSR_RDR        (1 << 0)	/*!< Line status: Receive data ready */
 200:../lpc11cx4-library/lpc_chip_11cxx_lib/inc/uart_11xx.h **** #define UART_LSR_OE         (1 << 1)	/*!< Line status: Overrun error */
 201:../lpc11cx4-library/lpc_chip_11cxx_lib/inc/uart_11xx.h **** #define UART_LSR_PE         (1 << 2)	/*!< Line status: Parity error */
 202:../lpc11cx4-library/lpc_chip_11cxx_lib/inc/uart_11xx.h **** #define UART_LSR_FE         (1 << 3)	/*!< Line status: Framing error */
 203:../lpc11cx4-library/lpc_chip_11cxx_lib/inc/uart_11xx.h **** #define UART_LSR_BI         (1 << 4)	/*!< Line status: Break interrupt */
 204:../lpc11cx4-library/lpc_chip_11cxx_lib/inc/uart_11xx.h **** #define UART_LSR_THRE       (1 << 5)	/*!< Line status: Transmit holding register empty */
 205:../lpc11cx4-library/lpc_chip_11cxx_lib/inc/uart_11xx.h **** #define UART_LSR_TEMT       (1 << 6)	/*!< Line status: Transmitter empty */
 206:../lpc11cx4-library/lpc_chip_11cxx_lib/inc/uart_11xx.h **** #define UART_LSR_RXFE       (1 << 7)	/*!< Line status: Error in RX FIFO */
 207:../lpc11cx4-library/lpc_chip_11cxx_lib/inc/uart_11xx.h **** #define UART_LSR_TXFE       (1 << 8)	/*!< Line status: Error in RX FIFO */
 208:../lpc11cx4-library/lpc_chip_11cxx_lib/inc/uart_11xx.h **** #define UART_LSR_BITMASK    (0xFF)		/*!< UART Line status bit mask */
 209:../lpc11cx4-library/lpc_chip_11cxx_lib/inc/uart_11xx.h **** #define UART1_LSR_BITMASK   (0x1FF)		/*!< UART1 Line status bit mask - valid for 11xx, 18xx/43xx UA
 210:../lpc11cx4-library/lpc_chip_11cxx_lib/inc/uart_11xx.h **** 
 211:../lpc11cx4-library/lpc_chip_11cxx_lib/inc/uart_11xx.h **** /**
 212:../lpc11cx4-library/lpc_chip_11cxx_lib/inc/uart_11xx.h ****  * @brief Macro defines for UART Modem Status Register
 213:../lpc11cx4-library/lpc_chip_11cxx_lib/inc/uart_11xx.h ****  */
 214:../lpc11cx4-library/lpc_chip_11cxx_lib/inc/uart_11xx.h **** #define UART_MSR_DELTA_CTS      (1 << 0)	/*!< Modem status: State change of input CTS */
 215:../lpc11cx4-library/lpc_chip_11cxx_lib/inc/uart_11xx.h **** #define UART_MSR_DELTA_DSR      (1 << 1)	/*!< Modem status: State change of input DSR */
 216:../lpc11cx4-library/lpc_chip_11cxx_lib/inc/uart_11xx.h **** #define UART_MSR_LO2HI_RI       (1 << 2)	/*!< Modem status: Low to high transition of input RI */
 217:../lpc11cx4-library/lpc_chip_11cxx_lib/inc/uart_11xx.h **** #define UART_MSR_DELTA_DCD      (1 << 3)	/*!< Modem status: State change of input DCD */
 218:../lpc11cx4-library/lpc_chip_11cxx_lib/inc/uart_11xx.h **** #define UART_MSR_CTS            (1 << 4)	/*!< Modem status: Clear To Send State */
 219:../lpc11cx4-library/lpc_chip_11cxx_lib/inc/uart_11xx.h **** #define UART_MSR_DSR            (1 << 5)	/*!< Modem status: Data Set Ready State */
 220:../lpc11cx4-library/lpc_chip_11cxx_lib/inc/uart_11xx.h **** #define UART_MSR_RI             (1 << 6)	/*!< Modem status: Ring Indicator State */
 221:../lpc11cx4-library/lpc_chip_11cxx_lib/inc/uart_11xx.h **** #define UART_MSR_DCD            (1 << 7)	/*!< Modem status: Data Carrier Detect State */
 222:../lpc11cx4-library/lpc_chip_11cxx_lib/inc/uart_11xx.h **** #define UART_MSR_BITMASK        (0xFF)		/*!< Modem status: MSR register bit-mask value */
 223:../lpc11cx4-library/lpc_chip_11cxx_lib/inc/uart_11xx.h **** 
 224:../lpc11cx4-library/lpc_chip_11cxx_lib/inc/uart_11xx.h **** /**
 225:../lpc11cx4-library/lpc_chip_11cxx_lib/inc/uart_11xx.h ****  * @brief Macro defines for UART Auto baudrate control register
 226:../lpc11cx4-library/lpc_chip_11cxx_lib/inc/uart_11xx.h ****  */
 227:../lpc11cx4-library/lpc_chip_11cxx_lib/inc/uart_11xx.h **** #define UART_ACR_START              (1 << 0)	/*!< UART Auto-baud start */
 228:../lpc11cx4-library/lpc_chip_11cxx_lib/inc/uart_11xx.h **** #define UART_ACR_MODE               (1 << 1)	/*!< UART Auto baudrate Mode 1 */
 229:../lpc11cx4-library/lpc_chip_11cxx_lib/inc/uart_11xx.h **** #define UART_ACR_AUTO_RESTART       (1 << 2)	/*!< UART Auto baudrate restart */
 230:../lpc11cx4-library/lpc_chip_11cxx_lib/inc/uart_11xx.h **** #define UART_ACR_ABEOINT_CLR        (1 << 8)	/*!< UART End of auto-baud interrupt clear */
ARM GAS  /var/folders/9j/_txx49hn253_s3mnzkyxlj8m0000gp/T//ccU5KKen.s 			page 12


 231:../lpc11cx4-library/lpc_chip_11cxx_lib/inc/uart_11xx.h **** #define UART_ACR_ABTOINT_CLR        (1 << 9)	/*!< UART Auto-baud time-out interrupt clear */
 232:../lpc11cx4-library/lpc_chip_11cxx_lib/inc/uart_11xx.h **** #define UART_ACR_BITMASK            (0x307)		/*!< UART Auto Baudrate register bit mask */
 233:../lpc11cx4-library/lpc_chip_11cxx_lib/inc/uart_11xx.h **** 
 234:../lpc11cx4-library/lpc_chip_11cxx_lib/inc/uart_11xx.h **** /**
 235:../lpc11cx4-library/lpc_chip_11cxx_lib/inc/uart_11xx.h ****  * @brief Macro defines for UART RS485 Control register
 236:../lpc11cx4-library/lpc_chip_11cxx_lib/inc/uart_11xx.h ****  */
 237:../lpc11cx4-library/lpc_chip_11cxx_lib/inc/uart_11xx.h **** #define UART_RS485CTRL_NMM_EN       (1 << 0)	/*!< RS-485/EIA-485 Normal Multi-drop Mode (NMM) is di
 238:../lpc11cx4-library/lpc_chip_11cxx_lib/inc/uart_11xx.h **** #define UART_RS485CTRL_RX_DIS       (1 << 1)	/*!< The receiver is disabled */
 239:../lpc11cx4-library/lpc_chip_11cxx_lib/inc/uart_11xx.h **** #define UART_RS485CTRL_AADEN        (1 << 2)	/*!< Auto Address Detect (AAD) is enabled */
 240:../lpc11cx4-library/lpc_chip_11cxx_lib/inc/uart_11xx.h **** #define UART_RS485CTRL_SEL_DTR      (1 << 3)	/*!< If direction control is enabled (bit DCTRL = 1), 
 241:../lpc11cx4-library/lpc_chip_11cxx_lib/inc/uart_11xx.h **** 												        used for direction control */
 242:../lpc11cx4-library/lpc_chip_11cxx_lib/inc/uart_11xx.h **** #define UART_RS485CTRL_DCTRL_EN     (1 << 4)	/*!< Enable Auto Direction Control */
 243:../lpc11cx4-library/lpc_chip_11cxx_lib/inc/uart_11xx.h **** #define UART_RS485CTRL_OINV_1       (1 << 5)	/*!< This bit reverses the polarity of the direction
 244:../lpc11cx4-library/lpc_chip_11cxx_lib/inc/uart_11xx.h **** 												       control signal on the RTS (or DTR) pin. The direction control pin
 245:../lpc11cx4-library/lpc_chip_11cxx_lib/inc/uart_11xx.h **** 												       will be driven to logic "1" when the transmitter has data to be sent */
 246:../lpc11cx4-library/lpc_chip_11cxx_lib/inc/uart_11xx.h **** #define UART_RS485CTRL_BITMASK      (0x3F)		/*!< RS485 control bit-mask value */
 247:../lpc11cx4-library/lpc_chip_11cxx_lib/inc/uart_11xx.h **** 
 248:../lpc11cx4-library/lpc_chip_11cxx_lib/inc/uart_11xx.h **** /**
 249:../lpc11cx4-library/lpc_chip_11cxx_lib/inc/uart_11xx.h ****  * @brief Macro defines for UART IrDA Control Register - valid for 11xx, 17xx/40xx UART0/2/3, 18xx/
 250:../lpc11cx4-library/lpc_chip_11cxx_lib/inc/uart_11xx.h ****  */
 251:../lpc11cx4-library/lpc_chip_11cxx_lib/inc/uart_11xx.h **** #define UART_ICR_IRDAEN         (1 << 0)			/*!< IrDA mode enable */
 252:../lpc11cx4-library/lpc_chip_11cxx_lib/inc/uart_11xx.h **** #define UART_ICR_IRDAINV        (1 << 1)			/*!< IrDA serial input inverted */
 253:../lpc11cx4-library/lpc_chip_11cxx_lib/inc/uart_11xx.h **** #define UART_ICR_FIXPULSE_EN    (1 << 2)			/*!< IrDA fixed pulse width mode */
 254:../lpc11cx4-library/lpc_chip_11cxx_lib/inc/uart_11xx.h **** #define UART_ICR_PULSEDIV(n)    ((n & 0x07) << 3)	/*!< PulseDiv - Configures the pulse when FixPuls
 255:../lpc11cx4-library/lpc_chip_11cxx_lib/inc/uart_11xx.h **** #define UART_ICR_BITMASK        (0x3F)				/*!< UART IRDA bit mask */
 256:../lpc11cx4-library/lpc_chip_11cxx_lib/inc/uart_11xx.h **** 
 257:../lpc11cx4-library/lpc_chip_11cxx_lib/inc/uart_11xx.h **** /**
 258:../lpc11cx4-library/lpc_chip_11cxx_lib/inc/uart_11xx.h ****  * @brief Macro defines for UART half duplex register - ????
 259:../lpc11cx4-library/lpc_chip_11cxx_lib/inc/uart_11xx.h ****  */
 260:../lpc11cx4-library/lpc_chip_11cxx_lib/inc/uart_11xx.h **** #define UART_HDEN_HDEN          ((1 << 0))			/*!< enable half-duplex mode*/
 261:../lpc11cx4-library/lpc_chip_11cxx_lib/inc/uart_11xx.h **** 
 262:../lpc11cx4-library/lpc_chip_11cxx_lib/inc/uart_11xx.h **** /**
 263:../lpc11cx4-library/lpc_chip_11cxx_lib/inc/uart_11xx.h ****  * @brief Macro defines for UART Smart card interface Control Register - valid for 11xx, 18xx/43xx 
 264:../lpc11cx4-library/lpc_chip_11cxx_lib/inc/uart_11xx.h ****  */
 265:../lpc11cx4-library/lpc_chip_11cxx_lib/inc/uart_11xx.h **** #define UART_SCICTRL_SCIEN        (1 << 0)			/*!< enable asynchronous half-duplex smart card interf
 266:../lpc11cx4-library/lpc_chip_11cxx_lib/inc/uart_11xx.h **** #define UART_SCICTRL_NACKDIS      (1 << 1)			/*!< NACK response is inhibited*/
 267:../lpc11cx4-library/lpc_chip_11cxx_lib/inc/uart_11xx.h **** #define UART_SCICTRL_PROTSEL_T1   (1 << 2)			/*!< ISO7816-3 protocol T1 is selected*/
 268:../lpc11cx4-library/lpc_chip_11cxx_lib/inc/uart_11xx.h **** #define UART_SCICTRL_TXRETRY(n)   ((n & 0x07) << 5)	/*!< number of retransmission*/
 269:../lpc11cx4-library/lpc_chip_11cxx_lib/inc/uart_11xx.h **** #define UART_SCICTRL_GUARDTIME(n) ((n & 0xFF) << 8)	/*!< Extra guard time*/
 270:../lpc11cx4-library/lpc_chip_11cxx_lib/inc/uart_11xx.h **** 
 271:../lpc11cx4-library/lpc_chip_11cxx_lib/inc/uart_11xx.h **** /**
 272:../lpc11cx4-library/lpc_chip_11cxx_lib/inc/uart_11xx.h ****  * @brief Macro defines for UART Fractional Divider Register
 273:../lpc11cx4-library/lpc_chip_11cxx_lib/inc/uart_11xx.h ****  */
 274:../lpc11cx4-library/lpc_chip_11cxx_lib/inc/uart_11xx.h **** #define UART_FDR_DIVADDVAL(n)   (n & 0x0F)			/*!< Baud-rate generation pre-scaler divisor */
 275:../lpc11cx4-library/lpc_chip_11cxx_lib/inc/uart_11xx.h **** #define UART_FDR_MULVAL(n)      ((n << 4) & 0xF0)	/*!< Baud-rate pre-scaler multiplier value */
 276:../lpc11cx4-library/lpc_chip_11cxx_lib/inc/uart_11xx.h **** #define UART_FDR_BITMASK        (0xFF)				/*!< UART Fractional Divider register bit mask */
 277:../lpc11cx4-library/lpc_chip_11cxx_lib/inc/uart_11xx.h **** 
 278:../lpc11cx4-library/lpc_chip_11cxx_lib/inc/uart_11xx.h **** /**
 279:../lpc11cx4-library/lpc_chip_11cxx_lib/inc/uart_11xx.h ****  * @brief Macro defines for UART Tx Enable Register
 280:../lpc11cx4-library/lpc_chip_11cxx_lib/inc/uart_11xx.h ****  */
 281:../lpc11cx4-library/lpc_chip_11cxx_lib/inc/uart_11xx.h **** #define UART_TER1_TXEN      (1 << 7)		/*!< Transmit enable bit  - valid for 11xx, 13xx, 17xx/40xx o
 282:../lpc11cx4-library/lpc_chip_11cxx_lib/inc/uart_11xx.h **** #define UART_TER2_TXEN      (1 << 0)		/*!< Transmit enable bit  - valid for 18xx/43xx only */
 283:../lpc11cx4-library/lpc_chip_11cxx_lib/inc/uart_11xx.h **** 
 284:../lpc11cx4-library/lpc_chip_11cxx_lib/inc/uart_11xx.h **** /**
 285:../lpc11cx4-library/lpc_chip_11cxx_lib/inc/uart_11xx.h ****  * @brief Macro defines for UART Synchronous Control Register - 11xx, 18xx/43xx UART0/2/3 only 
 286:../lpc11cx4-library/lpc_chip_11cxx_lib/inc/uart_11xx.h ****  */
 287:../lpc11cx4-library/lpc_chip_11cxx_lib/inc/uart_11xx.h **** #define UART_SYNCCTRL_SYNC             (1 << 0)			/*!< enable synchronous mode*/
ARM GAS  /var/folders/9j/_txx49hn253_s3mnzkyxlj8m0000gp/T//ccU5KKen.s 			page 13


 288:../lpc11cx4-library/lpc_chip_11cxx_lib/inc/uart_11xx.h **** #define UART_SYNCCTRL_CSRC_MASTER      (1 << 1)  		/*!< synchronous master mode*/
 289:../lpc11cx4-library/lpc_chip_11cxx_lib/inc/uart_11xx.h **** #define UART_SYNCCTRL_FES              (1 << 2)			/*!< sample on falling edge*/
 290:../lpc11cx4-library/lpc_chip_11cxx_lib/inc/uart_11xx.h **** #define UART_SYNCCTRL_TSBYPASS         (1 << 3)			/*!< to be defined*/
 291:../lpc11cx4-library/lpc_chip_11cxx_lib/inc/uart_11xx.h **** #define UART_SYNCCTRL_CSCEN            (1 << 4)			/*!< Continuous running clock enable (master mode
 292:../lpc11cx4-library/lpc_chip_11cxx_lib/inc/uart_11xx.h **** #define UART_SYNCCTRL_STARTSTOPDISABLE (1 << 5)	        /*!< Do not send start/stop bit*/
 293:../lpc11cx4-library/lpc_chip_11cxx_lib/inc/uart_11xx.h **** #define UART_SYNCCTRL_CCCLR            (1 << 6)			/*!< stop continuous clock*/
 294:../lpc11cx4-library/lpc_chip_11cxx_lib/inc/uart_11xx.h **** 
 295:../lpc11cx4-library/lpc_chip_11cxx_lib/inc/uart_11xx.h **** /**
 296:../lpc11cx4-library/lpc_chip_11cxx_lib/inc/uart_11xx.h ****  * @brief	Enable transmission on UART TxD pin
 297:../lpc11cx4-library/lpc_chip_11cxx_lib/inc/uart_11xx.h ****  * @param	pUART	: Pointer to selected pUART peripheral
 298:../lpc11cx4-library/lpc_chip_11cxx_lib/inc/uart_11xx.h ****  * @return Nothing
 299:../lpc11cx4-library/lpc_chip_11cxx_lib/inc/uart_11xx.h ****  */
 300:../lpc11cx4-library/lpc_chip_11cxx_lib/inc/uart_11xx.h **** STATIC INLINE void Chip_UART_TXEnable(LPC_USART_T *pUART)
 301:../lpc11cx4-library/lpc_chip_11cxx_lib/inc/uart_11xx.h **** {
 302:../lpc11cx4-library/lpc_chip_11cxx_lib/inc/uart_11xx.h **** 	pUART->TER1 = UART_TER1_TXEN;
 303:../lpc11cx4-library/lpc_chip_11cxx_lib/inc/uart_11xx.h **** }
 304:../lpc11cx4-library/lpc_chip_11cxx_lib/inc/uart_11xx.h **** 
 305:../lpc11cx4-library/lpc_chip_11cxx_lib/inc/uart_11xx.h **** /**
 306:../lpc11cx4-library/lpc_chip_11cxx_lib/inc/uart_11xx.h ****  * @brief	Disable transmission on UART TxD pin
 307:../lpc11cx4-library/lpc_chip_11cxx_lib/inc/uart_11xx.h ****  * @param	pUART	: Pointer to selected pUART peripheral
 308:../lpc11cx4-library/lpc_chip_11cxx_lib/inc/uart_11xx.h ****  * @return Nothing
 309:../lpc11cx4-library/lpc_chip_11cxx_lib/inc/uart_11xx.h ****  */
 310:../lpc11cx4-library/lpc_chip_11cxx_lib/inc/uart_11xx.h **** STATIC INLINE void Chip_UART_TXDisable(LPC_USART_T *pUART)
 311:../lpc11cx4-library/lpc_chip_11cxx_lib/inc/uart_11xx.h **** {
 312:../lpc11cx4-library/lpc_chip_11cxx_lib/inc/uart_11xx.h **** 	pUART->TER1 = 0;
 313:../lpc11cx4-library/lpc_chip_11cxx_lib/inc/uart_11xx.h **** }
 314:../lpc11cx4-library/lpc_chip_11cxx_lib/inc/uart_11xx.h **** 
 315:../lpc11cx4-library/lpc_chip_11cxx_lib/inc/uart_11xx.h **** /**
 316:../lpc11cx4-library/lpc_chip_11cxx_lib/inc/uart_11xx.h ****  * @brief	Transmit a single data byte through the UART peripheral
 317:../lpc11cx4-library/lpc_chip_11cxx_lib/inc/uart_11xx.h ****  * @param	pUART	: Pointer to selected UART peripheral
 318:../lpc11cx4-library/lpc_chip_11cxx_lib/inc/uart_11xx.h ****  * @param	data	: Byte to transmit
 319:../lpc11cx4-library/lpc_chip_11cxx_lib/inc/uart_11xx.h ****  * @return	Nothing
 320:../lpc11cx4-library/lpc_chip_11cxx_lib/inc/uart_11xx.h ****  * @note	This function attempts to place a byte into the UART transmit
 321:../lpc11cx4-library/lpc_chip_11cxx_lib/inc/uart_11xx.h ****  *			FIFO or transmit hold register regard regardless of UART state
 322:../lpc11cx4-library/lpc_chip_11cxx_lib/inc/uart_11xx.h ****  */
 323:../lpc11cx4-library/lpc_chip_11cxx_lib/inc/uart_11xx.h **** STATIC INLINE void Chip_UART_SendByte(LPC_USART_T *pUART, uint8_t data)
 324:../lpc11cx4-library/lpc_chip_11cxx_lib/inc/uart_11xx.h **** {
 325:../lpc11cx4-library/lpc_chip_11cxx_lib/inc/uart_11xx.h **** 	pUART->THR = (uint32_t) data;
 326:../lpc11cx4-library/lpc_chip_11cxx_lib/inc/uart_11xx.h **** }
 327:../lpc11cx4-library/lpc_chip_11cxx_lib/inc/uart_11xx.h **** 
 328:../lpc11cx4-library/lpc_chip_11cxx_lib/inc/uart_11xx.h **** /**
 329:../lpc11cx4-library/lpc_chip_11cxx_lib/inc/uart_11xx.h ****  * @brief	Read a single byte data from the UART peripheral
 330:../lpc11cx4-library/lpc_chip_11cxx_lib/inc/uart_11xx.h ****  * @param	pUART	: Pointer to selected UART peripheral
 331:../lpc11cx4-library/lpc_chip_11cxx_lib/inc/uart_11xx.h ****  * @return	A single byte of data read
 332:../lpc11cx4-library/lpc_chip_11cxx_lib/inc/uart_11xx.h ****  * @note	This function reads a byte from the UART receive FIFO or
 333:../lpc11cx4-library/lpc_chip_11cxx_lib/inc/uart_11xx.h ****  *			receive hold register regard regardless of UART state. The
 334:../lpc11cx4-library/lpc_chip_11cxx_lib/inc/uart_11xx.h ****  *			FIFO status should be read first prior to using this function
 335:../lpc11cx4-library/lpc_chip_11cxx_lib/inc/uart_11xx.h ****  */
 336:../lpc11cx4-library/lpc_chip_11cxx_lib/inc/uart_11xx.h **** STATIC INLINE uint8_t Chip_UART_ReadByte(LPC_USART_T *pUART)
 337:../lpc11cx4-library/lpc_chip_11cxx_lib/inc/uart_11xx.h **** {
 338:../lpc11cx4-library/lpc_chip_11cxx_lib/inc/uart_11xx.h **** 	return (uint8_t) (pUART->RBR & UART_RBR_MASKBIT);
 339:../lpc11cx4-library/lpc_chip_11cxx_lib/inc/uart_11xx.h **** }
 340:../lpc11cx4-library/lpc_chip_11cxx_lib/inc/uart_11xx.h **** 
 341:../lpc11cx4-library/lpc_chip_11cxx_lib/inc/uart_11xx.h **** /**
 342:../lpc11cx4-library/lpc_chip_11cxx_lib/inc/uart_11xx.h ****  * @brief	Enable UART interrupts
 343:../lpc11cx4-library/lpc_chip_11cxx_lib/inc/uart_11xx.h ****  * @param	pUART	: Pointer to selected UART peripheral
 344:../lpc11cx4-library/lpc_chip_11cxx_lib/inc/uart_11xx.h ****  * @param	intMask	: OR'ed Interrupts to enable in the Interrupt Enable Register (IER)
ARM GAS  /var/folders/9j/_txx49hn253_s3mnzkyxlj8m0000gp/T//ccU5KKen.s 			page 14


 345:../lpc11cx4-library/lpc_chip_11cxx_lib/inc/uart_11xx.h ****  * @return	Nothing
 346:../lpc11cx4-library/lpc_chip_11cxx_lib/inc/uart_11xx.h ****  * @note	Use an OR'ed value of UART_IER_* definitions with this function
 347:../lpc11cx4-library/lpc_chip_11cxx_lib/inc/uart_11xx.h ****  *			to enable specific UART interrupts. The Divisor Latch Access Bit
 348:../lpc11cx4-library/lpc_chip_11cxx_lib/inc/uart_11xx.h ****  *			(DLAB) in LCR must be cleared in order to access the IER register.
 349:../lpc11cx4-library/lpc_chip_11cxx_lib/inc/uart_11xx.h ****  *			This function doesn't alter the DLAB state
 350:../lpc11cx4-library/lpc_chip_11cxx_lib/inc/uart_11xx.h ****  */
 351:../lpc11cx4-library/lpc_chip_11cxx_lib/inc/uart_11xx.h **** STATIC INLINE void Chip_UART_IntEnable(LPC_USART_T *pUART, uint32_t intMask)
 352:../lpc11cx4-library/lpc_chip_11cxx_lib/inc/uart_11xx.h **** {
 353:../lpc11cx4-library/lpc_chip_11cxx_lib/inc/uart_11xx.h **** 	pUART->IER |= intMask;
 354:../lpc11cx4-library/lpc_chip_11cxx_lib/inc/uart_11xx.h **** }
 355:../lpc11cx4-library/lpc_chip_11cxx_lib/inc/uart_11xx.h **** 
 356:../lpc11cx4-library/lpc_chip_11cxx_lib/inc/uart_11xx.h **** /**
 357:../lpc11cx4-library/lpc_chip_11cxx_lib/inc/uart_11xx.h ****  * @brief	Disable UART interrupts
 358:../lpc11cx4-library/lpc_chip_11cxx_lib/inc/uart_11xx.h ****  * @param	pUART	: Pointer to selected UART peripheral
 359:../lpc11cx4-library/lpc_chip_11cxx_lib/inc/uart_11xx.h ****  * @param	intMask	: OR'ed Interrupts to disable in the Interrupt Enable Register (IER)
 360:../lpc11cx4-library/lpc_chip_11cxx_lib/inc/uart_11xx.h ****  * @return	Nothing
 361:../lpc11cx4-library/lpc_chip_11cxx_lib/inc/uart_11xx.h ****  * @note	Use an OR'ed value of UART_IER_* definitions with this function
 362:../lpc11cx4-library/lpc_chip_11cxx_lib/inc/uart_11xx.h ****  *			to disable specific UART interrupts. The Divisor Latch Access Bit
 363:../lpc11cx4-library/lpc_chip_11cxx_lib/inc/uart_11xx.h ****  *			(DLAB) in LCR must be cleared in order to access the IER register.
 364:../lpc11cx4-library/lpc_chip_11cxx_lib/inc/uart_11xx.h ****  *			This function doesn't alter the DLAB state
 365:../lpc11cx4-library/lpc_chip_11cxx_lib/inc/uart_11xx.h ****  */
 366:../lpc11cx4-library/lpc_chip_11cxx_lib/inc/uart_11xx.h **** STATIC INLINE void Chip_UART_IntDisable(LPC_USART_T *pUART, uint32_t intMask)
 367:../lpc11cx4-library/lpc_chip_11cxx_lib/inc/uart_11xx.h **** {
 368:../lpc11cx4-library/lpc_chip_11cxx_lib/inc/uart_11xx.h **** 	pUART->IER &= ~intMask;
 369:../lpc11cx4-library/lpc_chip_11cxx_lib/inc/uart_11xx.h **** }
 370:../lpc11cx4-library/lpc_chip_11cxx_lib/inc/uart_11xx.h **** 
 371:../lpc11cx4-library/lpc_chip_11cxx_lib/inc/uart_11xx.h **** /**
 372:../lpc11cx4-library/lpc_chip_11cxx_lib/inc/uart_11xx.h ****  * @brief	Returns UART interrupts that are enabled
 373:../lpc11cx4-library/lpc_chip_11cxx_lib/inc/uart_11xx.h ****  * @param	pUART	: Pointer to selected UART peripheral
 374:../lpc11cx4-library/lpc_chip_11cxx_lib/inc/uart_11xx.h ****  * @return	Returns the enabled UART interrupts
 375:../lpc11cx4-library/lpc_chip_11cxx_lib/inc/uart_11xx.h ****  * @note	Use an OR'ed value of UART_IER_* definitions with this function
 376:../lpc11cx4-library/lpc_chip_11cxx_lib/inc/uart_11xx.h ****  *			to determine which interrupts are enabled. You can check
 377:../lpc11cx4-library/lpc_chip_11cxx_lib/inc/uart_11xx.h ****  *			for multiple enabled bits if needed.
 378:../lpc11cx4-library/lpc_chip_11cxx_lib/inc/uart_11xx.h ****  */
 379:../lpc11cx4-library/lpc_chip_11cxx_lib/inc/uart_11xx.h **** STATIC INLINE uint32_t Chip_UART_GetIntsEnabled(LPC_USART_T *pUART)
 380:../lpc11cx4-library/lpc_chip_11cxx_lib/inc/uart_11xx.h **** {
 381:../lpc11cx4-library/lpc_chip_11cxx_lib/inc/uart_11xx.h **** 	return pUART->IER;
 382:../lpc11cx4-library/lpc_chip_11cxx_lib/inc/uart_11xx.h **** }
 383:../lpc11cx4-library/lpc_chip_11cxx_lib/inc/uart_11xx.h **** 
 384:../lpc11cx4-library/lpc_chip_11cxx_lib/inc/uart_11xx.h **** /**
 385:../lpc11cx4-library/lpc_chip_11cxx_lib/inc/uart_11xx.h ****  * @brief	Read the Interrupt Identification Register (IIR)
 386:../lpc11cx4-library/lpc_chip_11cxx_lib/inc/uart_11xx.h ****  * @param	pUART	: Pointer to selected UART peripheral
 387:../lpc11cx4-library/lpc_chip_11cxx_lib/inc/uart_11xx.h ****  * @return	Current pending interrupt status per the IIR register
 388:../lpc11cx4-library/lpc_chip_11cxx_lib/inc/uart_11xx.h ****  */
 389:../lpc11cx4-library/lpc_chip_11cxx_lib/inc/uart_11xx.h **** STATIC INLINE uint32_t Chip_UART_ReadIntIDReg(LPC_USART_T *pUART)
 390:../lpc11cx4-library/lpc_chip_11cxx_lib/inc/uart_11xx.h **** {
 391:../lpc11cx4-library/lpc_chip_11cxx_lib/inc/uart_11xx.h **** 	return pUART->IIR;
 392:../lpc11cx4-library/lpc_chip_11cxx_lib/inc/uart_11xx.h **** }
 393:../lpc11cx4-library/lpc_chip_11cxx_lib/inc/uart_11xx.h **** 
 394:../lpc11cx4-library/lpc_chip_11cxx_lib/inc/uart_11xx.h **** /**
 395:../lpc11cx4-library/lpc_chip_11cxx_lib/inc/uart_11xx.h ****  * @brief	Setup the UART FIFOs
 396:../lpc11cx4-library/lpc_chip_11cxx_lib/inc/uart_11xx.h ****  * @param	pUART	: Pointer to selected UART peripheral
 397:../lpc11cx4-library/lpc_chip_11cxx_lib/inc/uart_11xx.h ****  * @param	fcr		: FIFO control register setup OR'ed flags
 398:../lpc11cx4-library/lpc_chip_11cxx_lib/inc/uart_11xx.h ****  * @return	Nothing
 399:../lpc11cx4-library/lpc_chip_11cxx_lib/inc/uart_11xx.h ****  * @note	Use OR'ed value of UART_FCR_* definitions with this function
 400:../lpc11cx4-library/lpc_chip_11cxx_lib/inc/uart_11xx.h ****  *			to select specific options. For example, to enable the FIFOs
 401:../lpc11cx4-library/lpc_chip_11cxx_lib/inc/uart_11xx.h ****  *			with a RX trip level of 8 characters, use something like
ARM GAS  /var/folders/9j/_txx49hn253_s3mnzkyxlj8m0000gp/T//ccU5KKen.s 			page 15


 402:../lpc11cx4-library/lpc_chip_11cxx_lib/inc/uart_11xx.h ****  *			(UART_FCR_FIFO_EN | UART_FCR_TRG_LEV2)
 403:../lpc11cx4-library/lpc_chip_11cxx_lib/inc/uart_11xx.h ****  */
 404:../lpc11cx4-library/lpc_chip_11cxx_lib/inc/uart_11xx.h **** STATIC INLINE void Chip_UART_SetupFIFOS(LPC_USART_T *pUART, uint32_t fcr)
 405:../lpc11cx4-library/lpc_chip_11cxx_lib/inc/uart_11xx.h **** {
 406:../lpc11cx4-library/lpc_chip_11cxx_lib/inc/uart_11xx.h **** 	pUART->FCR = fcr;
 407:../lpc11cx4-library/lpc_chip_11cxx_lib/inc/uart_11xx.h **** }
 408:../lpc11cx4-library/lpc_chip_11cxx_lib/inc/uart_11xx.h **** 
 409:../lpc11cx4-library/lpc_chip_11cxx_lib/inc/uart_11xx.h **** /**
 410:../lpc11cx4-library/lpc_chip_11cxx_lib/inc/uart_11xx.h ****  * @brief	Configure data width, parity and stop bits
 411:../lpc11cx4-library/lpc_chip_11cxx_lib/inc/uart_11xx.h ****  * @param	pUART	: Pointer to selected pUART peripheral
 412:../lpc11cx4-library/lpc_chip_11cxx_lib/inc/uart_11xx.h ****  * @param	config	: UART configuration, OR'ed values of UART_LCR_* defines
 413:../lpc11cx4-library/lpc_chip_11cxx_lib/inc/uart_11xx.h ****  * @return	Nothing
 414:../lpc11cx4-library/lpc_chip_11cxx_lib/inc/uart_11xx.h ****  * @note	Select OR'ed config options for the UART from the UART_LCR_*
 415:../lpc11cx4-library/lpc_chip_11cxx_lib/inc/uart_11xx.h ****  *			definitions. For example, a configuration of 8 data bits, 1
 416:../lpc11cx4-library/lpc_chip_11cxx_lib/inc/uart_11xx.h ****  *			stop bit, and even (enabled) parity would be
 417:../lpc11cx4-library/lpc_chip_11cxx_lib/inc/uart_11xx.h ****  *			(UART_LCR_WLEN8 | UART_LCR_SBS_1BIT | UART_LCR_PARITY_EN | UART_LCR_PARITY_EVEN)
 418:../lpc11cx4-library/lpc_chip_11cxx_lib/inc/uart_11xx.h ****  */
 419:../lpc11cx4-library/lpc_chip_11cxx_lib/inc/uart_11xx.h **** STATIC INLINE void Chip_UART_ConfigData(LPC_USART_T *pUART, uint32_t config)
 420:../lpc11cx4-library/lpc_chip_11cxx_lib/inc/uart_11xx.h **** {
 421:../lpc11cx4-library/lpc_chip_11cxx_lib/inc/uart_11xx.h **** 	pUART->LCR = config;
 133              		.loc 3 421 0
 134 0020 0323     		mov	r3, #3	@ tmp120,
 135 0022 E360     		str	r3, [r4, #12]	@ tmp120, MEM[(struct LPC_USART_T *)1073774592B].LCR
 136              	.LVL5:
 137              	.LBE21:
 138              	.LBE20:
 139              	.LBB22:
 140              	.LBB23:
 406:../lpc11cx4-library/lpc_chip_11cxx_lib/inc/uart_11xx.h **** }
 141              		.loc 3 406 0
 142 0024 7E33     		add	r3, r3, #126	@ tmp122,
 143 0026 A360     		str	r3, [r4, #8]	@ tmp122, MEM[(struct LPC_USART_T *)1073774592B].D.5762.FCR
 144              	.LVL6:
 145              	.LBE23:
 146              	.LBE22:
 147              	.LBB24:
 148              	.LBB25:
 302:../lpc11cx4-library/lpc_chip_11cxx_lib/inc/uart_11xx.h **** }
 149              		.loc 3 302 0
 150 0028 013B     		sub	r3, r3, #1	@ tmp124,
 151 002a 2363     		str	r3, [r4, #48]	@ tmp124, MEM[(struct LPC_USART_T *)1073774592B].TER1
 152              	.LBE25:
 153              	.LBE24:
  15:src/serial.c  ****   // Configure data width, parity, and stop bits
  16:src/serial.c  ****   Chip_UART_ConfigData(LPC_USART, (UART_LCR_WLEN8 | UART_LCR_SBS_1BIT | UART_LCR_PARITY_DIS));
  17:src/serial.c  ****   Chip_UART_SetupFIFOS(LPC_USART, (UART_FCR_FIFO_EN | UART_FCR_TRG_LEV2));
  18:src/serial.c  ****   Chip_UART_TXEnable(LPC_USART);
  19:src/serial.c  **** }
 154              		.loc 1 19 0
 155              		@ sp needed	@
 156              	.LVL7:
 157 002c 38BD     		pop	{r3, r4, r5, pc}
 158              	.L3:
 159 002e C046     		.align	2
 160              	.L2:
 161 0030 00400440 		.word	1074020352
 162 0034 00800040 		.word	1073774592
ARM GAS  /var/folders/9j/_txx49hn253_s3mnzkyxlj8m0000gp/T//ccU5KKen.s 			page 16


 163              		.cfi_endproc
 164              	.LFE198:
 165              		.size	Serial_Init, .-Serial_Init
 166              		.section	.text.Serial_Print,"ax",%progbits
 167              		.align	2
 168              		.global	Serial_Print
 169              		.code	16
 170              		.thumb_func
 171              		.type	Serial_Print, %function
 172              	Serial_Print:
 173              	.LFB199:
  20:src/serial.c  **** 
  21:src/serial.c  **** uint32_t Serial_Print(const char *str) {
 174              		.loc 1 21 0
 175              		.cfi_startproc
 176              	.LVL8:
 177 0000 10B5     		push	{r4, lr}	@
 178              		.cfi_def_cfa_offset 8
 179              		.cfi_offset 4, -8
 180              		.cfi_offset 14, -4
 181              		.loc 1 21 0
 182 0002 041C     		mov	r4, r0	@ str, str
  22:src/serial.c  ****   return Chip_UART_SendBlocking(LPC_USART, str, strlen(str));
 183              		.loc 1 22 0
 184 0004 FFF7FEFF 		bl	strlen	@
 185              	.LVL9:
 186 0008 211C     		mov	r1, r4	@, str
 187 000a 021C     		mov	r2, r0	@ tmp116,
 188 000c 0148     		ldr	r0, .L5	@,
 189 000e FFF7FEFF 		bl	Chip_UART_SendBlocking	@
 190              	.LVL10:
  23:src/serial.c  **** }
 191              		.loc 1 23 0
 192              		@ sp needed	@
 193              	.LVL11:
 194 0012 10BD     		pop	{r4, pc}
 195              	.L6:
 196              		.align	2
 197              	.L5:
 198 0014 00800040 		.word	1073774592
 199              		.cfi_endproc
 200              	.LFE199:
 201              		.size	Serial_Print, .-Serial_Print
 202              		.section	.text.Serial_Print_Void,"ax",%progbits
 203              		.align	2
 204              		.global	Serial_Print_Void
 205              		.code	16
 206              		.thumb_func
 207              		.type	Serial_Print_Void, %function
 208              	Serial_Print_Void:
 209              	.LFB200:
  24:src/serial.c  **** 
  25:src/serial.c  **** void Serial_Print_Void(const char *str) {
 210              		.loc 1 25 0
 211              		.cfi_startproc
 212              	.LVL12:
 213 0000 10B5     		push	{r4, lr}	@
ARM GAS  /var/folders/9j/_txx49hn253_s3mnzkyxlj8m0000gp/T//ccU5KKen.s 			page 17


 214              		.cfi_def_cfa_offset 8
 215              		.cfi_offset 4, -8
 216              		.cfi_offset 14, -4
 217              		.loc 1 25 0
 218 0002 041C     		mov	r4, r0	@ str, str
  26:src/serial.c  ****   Chip_UART_SendBlocking(LPC_USART, str, strlen(str));
 219              		.loc 1 26 0
 220 0004 FFF7FEFF 		bl	strlen	@
 221              	.LVL13:
 222 0008 211C     		mov	r1, r4	@, str
 223 000a 021C     		mov	r2, r0	@ tmp113,
 224 000c 0148     		ldr	r0, .L8	@,
 225 000e FFF7FEFF 		bl	Chip_UART_SendBlocking	@
 226              	.LVL14:
  27:src/serial.c  **** }
 227              		.loc 1 27 0
 228              		@ sp needed	@
 229              	.LVL15:
 230 0012 10BD     		pop	{r4, pc}
 231              	.L9:
 232              		.align	2
 233              	.L8:
 234 0014 00800040 		.word	1073774592
 235              		.cfi_endproc
 236              	.LFE200:
 237              		.size	Serial_Print_Void, .-Serial_Print_Void
 238              		.section	.text.Serial_Println,"ax",%progbits
 239              		.align	2
 240              		.global	Serial_Println
 241              		.code	16
 242              		.thumb_func
 243              		.type	Serial_Println, %function
 244              	Serial_Println:
 245              	.LFB201:
  28:src/serial.c  **** uint32_t Serial_Println(const char *str) {
 246              		.loc 1 28 0
 247              		.cfi_startproc
 248              	.LVL16:
 249 0000 10B5     		push	{r4, lr}	@
 250              		.cfi_def_cfa_offset 8
 251              		.cfi_offset 4, -8
 252              		.cfi_offset 14, -4
  29:src/serial.c  ****   uint32_t count = Serial_Print(str);
 253              		.loc 1 29 0
 254 0002 FFF7FEFF 		bl	Serial_Print	@
 255              	.LVL17:
 256 0006 041C     		mov	r4, r0	@ count,
 257              	.LVL18:
  30:src/serial.c  ****   return count + Serial_Print("\r\n");
 258              		.loc 1 30 0
 259 0008 0248     		ldr	r0, .L11	@,
 260              	.LVL19:
 261 000a FFF7FEFF 		bl	Serial_Print	@
 262              	.LVL20:
  31:src/serial.c  **** }
 263              		.loc 1 31 0
 264              		@ sp needed	@
ARM GAS  /var/folders/9j/_txx49hn253_s3mnzkyxlj8m0000gp/T//ccU5KKen.s 			page 18


  30:src/serial.c  ****   return count + Serial_Print("\r\n");
 265              		.loc 1 30 0
 266 000e 0019     		add	r0, r0, r4	@ D.6909, D.6908, count
 267              	.LVL21:
 268              		.loc 1 31 0
 269 0010 10BD     		pop	{r4, pc}
 270              	.L12:
 271 0012 C046     		.align	2
 272              	.L11:
 273 0014 00000000 		.word	.LC0
 274              		.cfi_endproc
 275              	.LFE201:
 276              		.size	Serial_Println, .-Serial_Println
 277              		.section	.text.Serial_PrintNumber,"ax",%progbits
 278              		.align	2
 279              		.global	Serial_PrintNumber
 280              		.code	16
 281              		.thumb_func
 282              		.type	Serial_PrintNumber, %function
 283              	Serial_PrintNumber:
 284              	.LFB202:
  32:src/serial.c  **** 
  33:src/serial.c  **** uint32_t Serial_PrintNumber(uint32_t n, uint32_t base) {
 285              		.loc 1 33 0
 286              		.cfi_startproc
 287              	.LVL22:
 288 0000 00B5     		push	{lr}	@
 289              		.cfi_def_cfa_offset 4
 290              		.cfi_offset 14, -4
 291 0002 8BB0     		sub	sp, sp, #44	@,,
 292              		.cfi_def_cfa_offset 48
 293              	.LVL23:
 294              		.loc 1 33 0
 295 0004 0A1C     		mov	r2, r1	@ base, base
  34:src/serial.c  ****   const uint8_t max_digits = 33;
  35:src/serial.c  ****   char n_str[max_digits];
  36:src/serial.c  ****   itoa(n, n_str, base);
 296              		.loc 1 36 0
 297 0006 01A9     		add	r1, sp, #4	@ tmp120,,
 298              	.LVL24:
 299 0008 FFF7FEFF 		bl	itoa	@
 300              	.LVL25:
  37:src/serial.c  ****   return Serial_Print(n_str);
 301              		.loc 1 37 0
 302 000c 01A8     		add	r0, sp, #4	@ tmp121,,
 303              	.LVL26:
 304 000e FFF7FEFF 		bl	Serial_Print	@
 305              	.LVL27:
  38:src/serial.c  **** }
 306              		.loc 1 38 0
 307 0012 0BB0     		add	sp, sp, #44	@,,
 308              		@ sp needed	@
 309 0014 00BD     		pop	{pc}
 310              		.cfi_endproc
 311              	.LFE202:
 312              		.size	Serial_PrintNumber, .-Serial_PrintNumber
 313 0016 C046     		.section	.text.Serial_PrintlnNumber,"ax",%progbits
ARM GAS  /var/folders/9j/_txx49hn253_s3mnzkyxlj8m0000gp/T//ccU5KKen.s 			page 19


 314              		.align	2
 315              		.global	Serial_PrintlnNumber
 316              		.code	16
 317              		.thumb_func
 318              		.type	Serial_PrintlnNumber, %function
 319              	Serial_PrintlnNumber:
 320              	.LFB203:
  39:src/serial.c  **** 
  40:src/serial.c  **** uint32_t Serial_PrintlnNumber(uint32_t n, uint32_t base) {
 321              		.loc 1 40 0
 322              		.cfi_startproc
 323              	.LVL28:
 324 0000 10B5     		push	{r4, lr}	@
 325              		.cfi_def_cfa_offset 8
 326              		.cfi_offset 4, -8
 327              		.cfi_offset 14, -4
  41:src/serial.c  ****   uint32_t count = Serial_PrintNumber(n, base);
 328              		.loc 1 41 0
 329 0002 FFF7FEFF 		bl	Serial_PrintNumber	@
 330              	.LVL29:
 331 0006 041C     		mov	r4, r0	@ count,
 332              	.LVL30:
  42:src/serial.c  ****   return count + Serial_Print("\r\n");
 333              		.loc 1 42 0
 334 0008 0248     		ldr	r0, .L15	@,
 335              	.LVL31:
 336 000a FFF7FEFF 		bl	Serial_Print	@
 337              	.LVL32:
  43:src/serial.c  **** }
 338              		.loc 1 43 0
 339              		@ sp needed	@
  42:src/serial.c  ****   return count + Serial_Print("\r\n");
 340              		.loc 1 42 0
 341 000e 0019     		add	r0, r0, r4	@ D.6920, D.6919, count
 342              	.LVL33:
 343              		.loc 1 43 0
 344 0010 10BD     		pop	{r4, pc}
 345              	.L16:
 346 0012 C046     		.align	2
 347              	.L15:
 348 0014 00000000 		.word	.LC0
 349              		.cfi_endproc
 350              	.LFE203:
 351              		.size	Serial_PrintlnNumber, .-Serial_PrintlnNumber
 352              		.section	.rodata.str1.4,"aMS",%progbits,1
 353              		.align	2
 354              	.LC0:
 355 0000 0D0A00   		.ascii	"\015\012\000"
 356              		.text
 357              	.Letext0:
 358              		.file 4 "/usr/local/Cellar/gcc-arm-none-eabi/20150925/arm-none-eabi/include/machine/_default_types
 359              		.file 5 "/usr/local/Cellar/gcc-arm-none-eabi/20150925/arm-none-eabi/include/sys/_stdint.h"
 360              		.file 6 "/usr/local/Cellar/gcc-arm-none-eabi/20150925/lib/gcc/arm-none-eabi/4.9.3/include/stddef.h
 361              		.file 7 "/usr/local/Cellar/gcc-arm-none-eabi/20150925/arm-none-eabi/include/string.h"
 362              		.file 8 "/usr/local/Cellar/gcc-arm-none-eabi/20150925/arm-none-eabi/include/stdlib.h"
 363              		.file 9 "../lpc11cx4-library/lpc_chip_11cxx_lib/inc/chip.h"