ARM GAS  /var/folders/9j/_txx49hn253_s3mnzkyxlj8m0000gp/T//ccgYRR5b.s 			page 1


   1              		.cpu cortex-m0
   2              		.fpu softvfp
   3              		.eabi_attribute 20, 1	@ Tag_ABI_FP_denormal
   4              		.eabi_attribute 21, 1	@ Tag_ABI_FP_exceptions
   5              		.eabi_attribute 23, 3	@ Tag_ABI_FP_number_model
   6              		.eabi_attribute 24, 1	@ Tag_ABI_align8_needed
   7              		.eabi_attribute 25, 1	@ Tag_ABI_align8_preserved
   8              		.eabi_attribute 26, 1	@ Tag_ABI_enum_size
   9              		.eabi_attribute 30, 2	@ Tag_ABI_optimization_goals
  10              		.eabi_attribute 34, 0	@ Tag_CPU_unaligned_access
  11              		.eabi_attribute 18, 4	@ Tag_ABI_PCS_wchar_t
  12              		.file	"uart_11xx.c"
  13              	@ GNU C (GNU Tools for ARM Embedded Processors) version 4.9.3 20150529 (release) [ARM/embedded-4_9-
  14              	@	compiled by GNU C version 4.2.1 (Based on Apple Inc. build 5658) (LLVM build 2336.9.00), GMP vers
  15              	@ GGC heuristics: --param ggc-min-expand=100 --param ggc-min-heapsize=131072
  16              	@ options passed:  -I . -I inc/
  17              	@ -I ../lpc11cx4-library/lpc_chip_11cxx_lib/inc
  18              	@ -I ../lpc11cx4-library/evt_lib/inc/ -I ../MY17/lib/MY17_Can_Library
  19              	@ -imultilib armv6-m
  20              	@ -iprefix /usr/local/Cellar/gcc-arm-none-eabi/20150925/bin/../lib/gcc/arm-none-eabi/4.9.3/
  21              	@ -isysroot /usr/local/Cellar/gcc-arm-none-eabi/20150925/bin/../arm-none-eabi
  22              	@ -MD bin/uart_11xx.d -MF bin/uart_11xx.d -MP -MQ bin/uart_11xx.o
  23              	@ -D__USES_INITFINI__ -D UART_BAUD=115200 -D CORE_M0 -D DEBUG_ENABLE
  24              	@ -D CAN_ARCHITECTURE_ARM
  25              	@ ../lpc11cx4-library/lpc_chip_11cxx_lib/src/uart_11xx.c -mcpu=cortex-m0
  26              	@ -mthumb -auxbase-strip bin/uart_11xx.o -g -ggdb3 -O2 -Wall
  27              	@ -Wstrict-prototypes -Wextra -std=gnu90 -ffunction-sections
  28              	@ -fdata-sections -fdiagnostics-color=always -fverbose-asm
  29              	@ options enabled:  -faggressive-loop-optimizations -fauto-inc-dec
  30              	@ -fbranch-count-reg -fcaller-saves -fcombine-stack-adjustments -fcommon
  31              	@ -fcompare-elim -fcprop-registers -fcrossjumping -fcse-follow-jumps
  32              	@ -fdata-sections -fdefer-pop -fdelete-null-pointer-checks -fdevirtualize
  33              	@ -fdevirtualize-speculatively -fdwarf2-cfi-asm -fearly-inlining
  34              	@ -feliminate-unused-debug-types -fexpensive-optimizations
  35              	@ -fforward-propagate -ffunction-cse -ffunction-sections -fgcse -fgcse-lm
  36              	@ -fgnu-runtime -fgnu-unique -fguess-branch-probability
  37              	@ -fhoist-adjacent-loads -fident -fif-conversion -fif-conversion2
  38              	@ -findirect-inlining -finline -finline-atomics
  39              	@ -finline-functions-called-once -finline-small-functions -fipa-cp
  40              	@ -fipa-profile -fipa-pure-const -fipa-reference -fipa-sra
  41              	@ -fira-hoist-pressure -fira-share-save-slots -fira-share-spill-slots
  42              	@ -fisolate-erroneous-paths-dereference -fivopts -fkeep-static-consts
  43              	@ -fleading-underscore -flifetime-dse -fmath-errno -fmerge-constants
  44              	@ -fmerge-debug-strings -fmove-loop-invariants -fomit-frame-pointer
  45              	@ -foptimize-sibling-calls -foptimize-strlen -fpartial-inlining -fpeephole
  46              	@ -fpeephole2 -fprefetch-loop-arrays -freg-struct-return -freorder-blocks
  47              	@ -freorder-functions -frerun-cse-after-loop
  48              	@ -fsched-critical-path-heuristic -fsched-dep-count-heuristic
  49              	@ -fsched-group-heuristic -fsched-interblock -fsched-last-insn-heuristic
  50              	@ -fsched-pressure -fsched-rank-heuristic -fsched-spec
  51              	@ -fsched-spec-insn-heuristic -fsched-stalled-insns-dep -fschedule-insns2
  52              	@ -fsection-anchors -fshow-column -fshrink-wrap -fsigned-zeros
  53              	@ -fsplit-ivs-in-unroller -fsplit-wide-types -fstrict-aliasing
  54              	@ -fstrict-overflow -fstrict-volatile-bitfields -fsync-libcalls
  55              	@ -fthread-jumps -ftoplevel-reorder -ftrapping-math -ftree-bit-ccp
  56              	@ -ftree-builtin-call-dce -ftree-ccp -ftree-ch -ftree-coalesce-vars
  57              	@ -ftree-copy-prop -ftree-copyrename -ftree-cselim -ftree-dce
ARM GAS  /var/folders/9j/_txx49hn253_s3mnzkyxlj8m0000gp/T//ccgYRR5b.s 			page 2


  58              	@ -ftree-dominator-opts -ftree-dse -ftree-forwprop -ftree-fre
  59              	@ -ftree-loop-if-convert -ftree-loop-im -ftree-loop-ivcanon
  60              	@ -ftree-loop-optimize -ftree-parallelize-loops= -ftree-phiprop -ftree-pre
  61              	@ -ftree-pta -ftree-reassoc -ftree-scev-cprop -ftree-sink -ftree-slsr
  62              	@ -ftree-sra -ftree-switch-conversion -ftree-tail-merge -ftree-ter
  63              	@ -ftree-vrp -funit-at-a-time -fvar-tracking -fvar-tracking-assignments
  64              	@ -fverbose-asm -fzero-initialized-in-bss -mlittle-endian -mlra
  65              	@ -mpic-data-is-text-relative -msched-prolog -mthumb
  66              	@ -mvectorize-with-neon-quad
  67              	
  68              		.text
  69              	.Ltext0:
  70              		.cfi_sections	.debug_frame
  71              		.section	.text.Chip_UART_Init,"ax",%progbits
  72              		.align	2
  73              		.global	Chip_UART_Init
  74              		.code	16
  75              		.thumb_func
  76              		.type	Chip_UART_Init, %function
  77              	Chip_UART_Init:
  78              	.LFB198:
  79              		.file 1 "../lpc11cx4-library/lpc_chip_11cxx_lib/src/uart_11xx.c"
   1:../lpc11cx4-library/lpc_chip_11cxx_lib/src/uart_11xx.c **** /*
   2:../lpc11cx4-library/lpc_chip_11cxx_lib/src/uart_11xx.c ****  * @brief LPC11xx UART chip driver
   3:../lpc11cx4-library/lpc_chip_11cxx_lib/src/uart_11xx.c ****  *
   4:../lpc11cx4-library/lpc_chip_11cxx_lib/src/uart_11xx.c ****  * @note
   5:../lpc11cx4-library/lpc_chip_11cxx_lib/src/uart_11xx.c ****  * Copyright(C) NXP Semiconductors, 2012
   6:../lpc11cx4-library/lpc_chip_11cxx_lib/src/uart_11xx.c ****  * All rights reserved.
   7:../lpc11cx4-library/lpc_chip_11cxx_lib/src/uart_11xx.c ****  *
   8:../lpc11cx4-library/lpc_chip_11cxx_lib/src/uart_11xx.c ****  * @par
   9:../lpc11cx4-library/lpc_chip_11cxx_lib/src/uart_11xx.c ****  * Software that is described herein is for illustrative purposes only
  10:../lpc11cx4-library/lpc_chip_11cxx_lib/src/uart_11xx.c ****  * which provides customers with programming information regarding the
  11:../lpc11cx4-library/lpc_chip_11cxx_lib/src/uart_11xx.c ****  * LPC products.  This software is supplied "AS IS" without any warranties of
  12:../lpc11cx4-library/lpc_chip_11cxx_lib/src/uart_11xx.c ****  * any kind, and NXP Semiconductors and its licensor disclaim any and
  13:../lpc11cx4-library/lpc_chip_11cxx_lib/src/uart_11xx.c ****  * all warranties, express or implied, including all implied warranties of
  14:../lpc11cx4-library/lpc_chip_11cxx_lib/src/uart_11xx.c ****  * merchantability, fitness for a particular purpose and non-infringement of
  15:../lpc11cx4-library/lpc_chip_11cxx_lib/src/uart_11xx.c ****  * intellectual property rights.  NXP Semiconductors assumes no responsibility
  16:../lpc11cx4-library/lpc_chip_11cxx_lib/src/uart_11xx.c ****  * or liability for the use of the software, conveys no license or rights under any
  17:../lpc11cx4-library/lpc_chip_11cxx_lib/src/uart_11xx.c ****  * patent, copyright, mask work right, or any other intellectual property rights in
  18:../lpc11cx4-library/lpc_chip_11cxx_lib/src/uart_11xx.c ****  * or to any products. NXP Semiconductors reserves the right to make changes
  19:../lpc11cx4-library/lpc_chip_11cxx_lib/src/uart_11xx.c ****  * in the software without notification. NXP Semiconductors also makes no
  20:../lpc11cx4-library/lpc_chip_11cxx_lib/src/uart_11xx.c ****  * representation or warranty that such application will be suitable for the
  21:../lpc11cx4-library/lpc_chip_11cxx_lib/src/uart_11xx.c ****  * specified use without further testing or modification.
  22:../lpc11cx4-library/lpc_chip_11cxx_lib/src/uart_11xx.c ****  *
  23:../lpc11cx4-library/lpc_chip_11cxx_lib/src/uart_11xx.c ****  * @par
  24:../lpc11cx4-library/lpc_chip_11cxx_lib/src/uart_11xx.c ****  * Permission to use, copy, modify, and distribute this software and its
  25:../lpc11cx4-library/lpc_chip_11cxx_lib/src/uart_11xx.c ****  * documentation is hereby granted, under NXP Semiconductors' and its
  26:../lpc11cx4-library/lpc_chip_11cxx_lib/src/uart_11xx.c ****  * licensor's relevant copyrights in the software, without fee, provided that it
  27:../lpc11cx4-library/lpc_chip_11cxx_lib/src/uart_11xx.c ****  * is used in conjunction with NXP Semiconductors microcontrollers.  This
  28:../lpc11cx4-library/lpc_chip_11cxx_lib/src/uart_11xx.c ****  * copyright, permission, and disclaimer notice must appear in all copies of
  29:../lpc11cx4-library/lpc_chip_11cxx_lib/src/uart_11xx.c ****  * this code.
  30:../lpc11cx4-library/lpc_chip_11cxx_lib/src/uart_11xx.c ****  */
  31:../lpc11cx4-library/lpc_chip_11cxx_lib/src/uart_11xx.c **** 
  32:../lpc11cx4-library/lpc_chip_11cxx_lib/src/uart_11xx.c **** #include "chip.h"
  33:../lpc11cx4-library/lpc_chip_11cxx_lib/src/uart_11xx.c **** 
  34:../lpc11cx4-library/lpc_chip_11cxx_lib/src/uart_11xx.c **** /*****************************************************************************
  35:../lpc11cx4-library/lpc_chip_11cxx_lib/src/uart_11xx.c ****  * Private types/enumerations/variables
ARM GAS  /var/folders/9j/_txx49hn253_s3mnzkyxlj8m0000gp/T//ccgYRR5b.s 			page 3


  36:../lpc11cx4-library/lpc_chip_11cxx_lib/src/uart_11xx.c ****  ****************************************************************************/
  37:../lpc11cx4-library/lpc_chip_11cxx_lib/src/uart_11xx.c **** 
  38:../lpc11cx4-library/lpc_chip_11cxx_lib/src/uart_11xx.c **** /*****************************************************************************
  39:../lpc11cx4-library/lpc_chip_11cxx_lib/src/uart_11xx.c ****  * Public types/enumerations/variables
  40:../lpc11cx4-library/lpc_chip_11cxx_lib/src/uart_11xx.c ****  ****************************************************************************/
  41:../lpc11cx4-library/lpc_chip_11cxx_lib/src/uart_11xx.c **** 
  42:../lpc11cx4-library/lpc_chip_11cxx_lib/src/uart_11xx.c **** /*****************************************************************************
  43:../lpc11cx4-library/lpc_chip_11cxx_lib/src/uart_11xx.c ****  * Private functions
  44:../lpc11cx4-library/lpc_chip_11cxx_lib/src/uart_11xx.c ****  ****************************************************************************/
  45:../lpc11cx4-library/lpc_chip_11cxx_lib/src/uart_11xx.c **** 
  46:../lpc11cx4-library/lpc_chip_11cxx_lib/src/uart_11xx.c **** /*****************************************************************************
  47:../lpc11cx4-library/lpc_chip_11cxx_lib/src/uart_11xx.c ****  * Public functions
  48:../lpc11cx4-library/lpc_chip_11cxx_lib/src/uart_11xx.c ****  ****************************************************************************/
  49:../lpc11cx4-library/lpc_chip_11cxx_lib/src/uart_11xx.c **** 
  50:../lpc11cx4-library/lpc_chip_11cxx_lib/src/uart_11xx.c **** /* Initializes the pUART peripheral */
  51:../lpc11cx4-library/lpc_chip_11cxx_lib/src/uart_11xx.c **** void Chip_UART_Init(LPC_USART_T *pUART)
  52:../lpc11cx4-library/lpc_chip_11cxx_lib/src/uart_11xx.c **** {
  80              		.loc 1 52 0
  81              		.cfi_startproc
  82              	.LVL0:
  83              	.LBB68:
  84              	.LBB69:
  85              		.file 2 "../lpc11cx4-library/lpc_chip_11cxx_lib/inc/clock_11xx.h"
   1:../lpc11cx4-library/lpc_chip_11cxx_lib/inc/clock_11xx.h **** /*
   2:../lpc11cx4-library/lpc_chip_11cxx_lib/inc/clock_11xx.h ****  * @brief LPC11XX Clock control functions
   3:../lpc11cx4-library/lpc_chip_11cxx_lib/inc/clock_11xx.h ****  *
   4:../lpc11cx4-library/lpc_chip_11cxx_lib/inc/clock_11xx.h ****  * @note
   5:../lpc11cx4-library/lpc_chip_11cxx_lib/inc/clock_11xx.h ****  * Copyright(C) NXP Semiconductors, 2012
   6:../lpc11cx4-library/lpc_chip_11cxx_lib/inc/clock_11xx.h ****  * All rights reserved.
   7:../lpc11cx4-library/lpc_chip_11cxx_lib/inc/clock_11xx.h ****  *
   8:../lpc11cx4-library/lpc_chip_11cxx_lib/inc/clock_11xx.h ****  * @par
   9:../lpc11cx4-library/lpc_chip_11cxx_lib/inc/clock_11xx.h ****  * Software that is described herein is for illustrative purposes only
  10:../lpc11cx4-library/lpc_chip_11cxx_lib/inc/clock_11xx.h ****  * which provides customers with programming information regarding the
  11:../lpc11cx4-library/lpc_chip_11cxx_lib/inc/clock_11xx.h ****  * LPC products.  This software is supplied "AS IS" without any warranties of
  12:../lpc11cx4-library/lpc_chip_11cxx_lib/inc/clock_11xx.h ****  * any kind, and NXP Semiconductors and its licensor disclaim any and
  13:../lpc11cx4-library/lpc_chip_11cxx_lib/inc/clock_11xx.h ****  * all warranties, express or implied, including all implied warranties of
  14:../lpc11cx4-library/lpc_chip_11cxx_lib/inc/clock_11xx.h ****  * merchantability, fitness for a particular purpose and non-infringement of
  15:../lpc11cx4-library/lpc_chip_11cxx_lib/inc/clock_11xx.h ****  * intellectual property rights.  NXP Semiconductors assumes no responsibility
  16:../lpc11cx4-library/lpc_chip_11cxx_lib/inc/clock_11xx.h ****  * or liability for the use of the software, conveys no license or rights under any
  17:../lpc11cx4-library/lpc_chip_11cxx_lib/inc/clock_11xx.h ****  * patent, copyright, mask work right, or any other intellectual property rights in
  18:../lpc11cx4-library/lpc_chip_11cxx_lib/inc/clock_11xx.h ****  * or to any products. NXP Semiconductors reserves the right to make changes
  19:../lpc11cx4-library/lpc_chip_11cxx_lib/inc/clock_11xx.h ****  * in the software without notification. NXP Semiconductors also makes no
  20:../lpc11cx4-library/lpc_chip_11cxx_lib/inc/clock_11xx.h ****  * representation or warranty that such application will be suitable for the
  21:../lpc11cx4-library/lpc_chip_11cxx_lib/inc/clock_11xx.h ****  * specified use without further testing or modification.
  22:../lpc11cx4-library/lpc_chip_11cxx_lib/inc/clock_11xx.h ****  *
  23:../lpc11cx4-library/lpc_chip_11cxx_lib/inc/clock_11xx.h ****  * @par
  24:../lpc11cx4-library/lpc_chip_11cxx_lib/inc/clock_11xx.h ****  * Permission to use, copy, modify, and distribute this software and its
  25:../lpc11cx4-library/lpc_chip_11cxx_lib/inc/clock_11xx.h ****  * documentation is hereby granted, under NXP Semiconductors' and its
  26:../lpc11cx4-library/lpc_chip_11cxx_lib/inc/clock_11xx.h ****  * licensor's relevant copyrights in the software, without fee, provided that it
  27:../lpc11cx4-library/lpc_chip_11cxx_lib/inc/clock_11xx.h ****  * is used in conjunction with NXP Semiconductors microcontrollers.  This
  28:../lpc11cx4-library/lpc_chip_11cxx_lib/inc/clock_11xx.h ****  * copyright, permission, and disclaimer notice must appear in all copies of
  29:../lpc11cx4-library/lpc_chip_11cxx_lib/inc/clock_11xx.h ****  * this code.
  30:../lpc11cx4-library/lpc_chip_11cxx_lib/inc/clock_11xx.h ****  */
  31:../lpc11cx4-library/lpc_chip_11cxx_lib/inc/clock_11xx.h **** 
  32:../lpc11cx4-library/lpc_chip_11cxx_lib/inc/clock_11xx.h **** #ifndef __CLOCK_11XX_H_
  33:../lpc11cx4-library/lpc_chip_11cxx_lib/inc/clock_11xx.h **** #define __CLOCK_11XX_H_
  34:../lpc11cx4-library/lpc_chip_11cxx_lib/inc/clock_11xx.h **** 
ARM GAS  /var/folders/9j/_txx49hn253_s3mnzkyxlj8m0000gp/T//ccgYRR5b.s 			page 4


  35:../lpc11cx4-library/lpc_chip_11cxx_lib/inc/clock_11xx.h **** #ifdef __cplusplus
  36:../lpc11cx4-library/lpc_chip_11cxx_lib/inc/clock_11xx.h **** extern "C" {
  37:../lpc11cx4-library/lpc_chip_11cxx_lib/inc/clock_11xx.h **** #endif
  38:../lpc11cx4-library/lpc_chip_11cxx_lib/inc/clock_11xx.h **** 
  39:../lpc11cx4-library/lpc_chip_11cxx_lib/inc/clock_11xx.h **** /** @defgroup CLOCK_11XX CHIP: LPC11xx Clock Control block driver
  40:../lpc11cx4-library/lpc_chip_11cxx_lib/inc/clock_11xx.h ****  * @ingroup CHIP_11XX_Drivers
  41:../lpc11cx4-library/lpc_chip_11cxx_lib/inc/clock_11xx.h ****  * @{
  42:../lpc11cx4-library/lpc_chip_11cxx_lib/inc/clock_11xx.h ****  */
  43:../lpc11cx4-library/lpc_chip_11cxx_lib/inc/clock_11xx.h **** 
  44:../lpc11cx4-library/lpc_chip_11cxx_lib/inc/clock_11xx.h **** /** Internal oscillator frequency */
  45:../lpc11cx4-library/lpc_chip_11cxx_lib/inc/clock_11xx.h **** #define SYSCTL_IRC_FREQ (12000000)
  46:../lpc11cx4-library/lpc_chip_11cxx_lib/inc/clock_11xx.h **** 
  47:../lpc11cx4-library/lpc_chip_11cxx_lib/inc/clock_11xx.h **** /**
  48:../lpc11cx4-library/lpc_chip_11cxx_lib/inc/clock_11xx.h ****  * @brief	Set System PLL divider values
  49:../lpc11cx4-library/lpc_chip_11cxx_lib/inc/clock_11xx.h ****  * @param	msel    : PLL feedback divider value. M = msel + 1.
  50:../lpc11cx4-library/lpc_chip_11cxx_lib/inc/clock_11xx.h ****  * @param	psel    : PLL post divider value. P =  (1<<psel).
  51:../lpc11cx4-library/lpc_chip_11cxx_lib/inc/clock_11xx.h ****  * @return	Nothing
  52:../lpc11cx4-library/lpc_chip_11cxx_lib/inc/clock_11xx.h ****  * @note	See the user manual for how to setup the PLL.
  53:../lpc11cx4-library/lpc_chip_11cxx_lib/inc/clock_11xx.h ****  */
  54:../lpc11cx4-library/lpc_chip_11cxx_lib/inc/clock_11xx.h **** STATIC INLINE void Chip_Clock_SetupSystemPLL(uint8_t msel, uint8_t psel)
  55:../lpc11cx4-library/lpc_chip_11cxx_lib/inc/clock_11xx.h **** {
  56:../lpc11cx4-library/lpc_chip_11cxx_lib/inc/clock_11xx.h **** 	LPC_SYSCTL->SYSPLLCTRL = (msel & 0x1F) | ((psel & 0x3) << 5);
  57:../lpc11cx4-library/lpc_chip_11cxx_lib/inc/clock_11xx.h **** }
  58:../lpc11cx4-library/lpc_chip_11cxx_lib/inc/clock_11xx.h **** 
  59:../lpc11cx4-library/lpc_chip_11cxx_lib/inc/clock_11xx.h **** /**
  60:../lpc11cx4-library/lpc_chip_11cxx_lib/inc/clock_11xx.h ****  * @brief	Read System PLL lock status
  61:../lpc11cx4-library/lpc_chip_11cxx_lib/inc/clock_11xx.h ****  * @return	true of the PLL is locked. false if not locked
  62:../lpc11cx4-library/lpc_chip_11cxx_lib/inc/clock_11xx.h ****  */
  63:../lpc11cx4-library/lpc_chip_11cxx_lib/inc/clock_11xx.h **** STATIC INLINE bool Chip_Clock_IsSystemPLLLocked(void)
  64:../lpc11cx4-library/lpc_chip_11cxx_lib/inc/clock_11xx.h **** {
  65:../lpc11cx4-library/lpc_chip_11cxx_lib/inc/clock_11xx.h **** 	return (bool) ((LPC_SYSCTL->SYSPLLSTAT & 1) != 0);
  66:../lpc11cx4-library/lpc_chip_11cxx_lib/inc/clock_11xx.h **** }
  67:../lpc11cx4-library/lpc_chip_11cxx_lib/inc/clock_11xx.h **** 
  68:../lpc11cx4-library/lpc_chip_11cxx_lib/inc/clock_11xx.h **** /**
  69:../lpc11cx4-library/lpc_chip_11cxx_lib/inc/clock_11xx.h ****  * Clock sources for system and USB PLLs
  70:../lpc11cx4-library/lpc_chip_11cxx_lib/inc/clock_11xx.h ****  */
  71:../lpc11cx4-library/lpc_chip_11cxx_lib/inc/clock_11xx.h **** typedef enum CHIP_SYSCTL_PLLCLKSRC {
  72:../lpc11cx4-library/lpc_chip_11cxx_lib/inc/clock_11xx.h **** 	SYSCTL_PLLCLKSRC_IRC = 0,		/*!< Internal oscillator in */
  73:../lpc11cx4-library/lpc_chip_11cxx_lib/inc/clock_11xx.h **** 	SYSCTL_PLLCLKSRC_MAINOSC,		/*!< Crystal (main) oscillator in */
  74:../lpc11cx4-library/lpc_chip_11cxx_lib/inc/clock_11xx.h **** #if defined(CHIP_LPC11AXX)
  75:../lpc11cx4-library/lpc_chip_11cxx_lib/inc/clock_11xx.h **** 	SYSCTL_PLLCLKSRC_EXT_CLKIN,	/*!< External clock in (11Axx only) */
  76:../lpc11cx4-library/lpc_chip_11cxx_lib/inc/clock_11xx.h **** #else
  77:../lpc11cx4-library/lpc_chip_11cxx_lib/inc/clock_11xx.h **** 	SYSCTL_PLLCLKSRC_RESERVED1,	/*!< Reserved */
  78:../lpc11cx4-library/lpc_chip_11cxx_lib/inc/clock_11xx.h **** #endif
  79:../lpc11cx4-library/lpc_chip_11cxx_lib/inc/clock_11xx.h **** 	SYSCTL_PLLCLKSRC_RESERVED2,	/*!< Reserved */
  80:../lpc11cx4-library/lpc_chip_11cxx_lib/inc/clock_11xx.h **** } CHIP_SYSCTL_PLLCLKSRC_T;
  81:../lpc11cx4-library/lpc_chip_11cxx_lib/inc/clock_11xx.h **** 
  82:../lpc11cx4-library/lpc_chip_11cxx_lib/inc/clock_11xx.h **** /**
  83:../lpc11cx4-library/lpc_chip_11cxx_lib/inc/clock_11xx.h ****  * @brief	Set System PLL clock source
  84:../lpc11cx4-library/lpc_chip_11cxx_lib/inc/clock_11xx.h ****  * @param	src	: Clock source for system PLL
  85:../lpc11cx4-library/lpc_chip_11cxx_lib/inc/clock_11xx.h ****  * @return	Nothing
  86:../lpc11cx4-library/lpc_chip_11cxx_lib/inc/clock_11xx.h ****  * @note	This function will also toggle the clock source update register
  87:../lpc11cx4-library/lpc_chip_11cxx_lib/inc/clock_11xx.h ****  * to update the clock source.
  88:../lpc11cx4-library/lpc_chip_11cxx_lib/inc/clock_11xx.h ****  */
  89:../lpc11cx4-library/lpc_chip_11cxx_lib/inc/clock_11xx.h **** void Chip_Clock_SetSystemPLLSource(CHIP_SYSCTL_PLLCLKSRC_T src);
  90:../lpc11cx4-library/lpc_chip_11cxx_lib/inc/clock_11xx.h **** 
  91:../lpc11cx4-library/lpc_chip_11cxx_lib/inc/clock_11xx.h **** #if defined(CHIP_LPC11UXX)
ARM GAS  /var/folders/9j/_txx49hn253_s3mnzkyxlj8m0000gp/T//ccgYRR5b.s 			page 5


  92:../lpc11cx4-library/lpc_chip_11cxx_lib/inc/clock_11xx.h **** /**
  93:../lpc11cx4-library/lpc_chip_11cxx_lib/inc/clock_11xx.h ****  * @brief	Set USB PLL divider values
  94:../lpc11cx4-library/lpc_chip_11cxx_lib/inc/clock_11xx.h ****  * @param	msel    : PLL feedback divider value. M = msel + 1.
  95:../lpc11cx4-library/lpc_chip_11cxx_lib/inc/clock_11xx.h ****  * @param	psel    : PLL post divider value. P = (1<<psel).
  96:../lpc11cx4-library/lpc_chip_11cxx_lib/inc/clock_11xx.h ****  * @return	Nothing
  97:../lpc11cx4-library/lpc_chip_11cxx_lib/inc/clock_11xx.h ****  * @note	See the user manual for how to setup the PLL.
  98:../lpc11cx4-library/lpc_chip_11cxx_lib/inc/clock_11xx.h ****  */
  99:../lpc11cx4-library/lpc_chip_11cxx_lib/inc/clock_11xx.h **** STATIC INLINE void Chip_Clock_SetupUSBPLL(uint8_t msel, uint8_t psel)
 100:../lpc11cx4-library/lpc_chip_11cxx_lib/inc/clock_11xx.h **** {
 101:../lpc11cx4-library/lpc_chip_11cxx_lib/inc/clock_11xx.h **** 	LPC_SYSCTL->USBPLLCTRL = (msel & 0x1F) | ((psel & 0x3) << 5);
 102:../lpc11cx4-library/lpc_chip_11cxx_lib/inc/clock_11xx.h **** }
 103:../lpc11cx4-library/lpc_chip_11cxx_lib/inc/clock_11xx.h **** 
 104:../lpc11cx4-library/lpc_chip_11cxx_lib/inc/clock_11xx.h **** /**
 105:../lpc11cx4-library/lpc_chip_11cxx_lib/inc/clock_11xx.h ****  * @brief	Read USB PLL lock status
 106:../lpc11cx4-library/lpc_chip_11cxx_lib/inc/clock_11xx.h ****  * @return	true of the PLL is locked. false if not locked
 107:../lpc11cx4-library/lpc_chip_11cxx_lib/inc/clock_11xx.h ****  */
 108:../lpc11cx4-library/lpc_chip_11cxx_lib/inc/clock_11xx.h **** STATIC INLINE bool Chip_Clock_IsUSBPLLLocked(void)
 109:../lpc11cx4-library/lpc_chip_11cxx_lib/inc/clock_11xx.h **** {
 110:../lpc11cx4-library/lpc_chip_11cxx_lib/inc/clock_11xx.h **** 	return (bool) ((LPC_SYSCTL->USBPLLSTAT & 1) != 0);
 111:../lpc11cx4-library/lpc_chip_11cxx_lib/inc/clock_11xx.h **** }
 112:../lpc11cx4-library/lpc_chip_11cxx_lib/inc/clock_11xx.h **** 
 113:../lpc11cx4-library/lpc_chip_11cxx_lib/inc/clock_11xx.h **** /**
 114:../lpc11cx4-library/lpc_chip_11cxx_lib/inc/clock_11xx.h ****  * @brief	Set USB PLL clock source
 115:../lpc11cx4-library/lpc_chip_11cxx_lib/inc/clock_11xx.h ****  * @param	src	: Clock source for USB PLL
 116:../lpc11cx4-library/lpc_chip_11cxx_lib/inc/clock_11xx.h ****  * @return	Nothing
 117:../lpc11cx4-library/lpc_chip_11cxx_lib/inc/clock_11xx.h ****  * @note	This function will also toggle the clock source update register
 118:../lpc11cx4-library/lpc_chip_11cxx_lib/inc/clock_11xx.h ****  * to update the clock source.
 119:../lpc11cx4-library/lpc_chip_11cxx_lib/inc/clock_11xx.h ****  */
 120:../lpc11cx4-library/lpc_chip_11cxx_lib/inc/clock_11xx.h **** void Chip_Clock_SetUSBPLLSource(CHIP_SYSCTL_PLLCLKSRC_T src);
 121:../lpc11cx4-library/lpc_chip_11cxx_lib/inc/clock_11xx.h **** 
 122:../lpc11cx4-library/lpc_chip_11cxx_lib/inc/clock_11xx.h **** #endif /*defined(CHIP_LPC11UXX)*/
 123:../lpc11cx4-library/lpc_chip_11cxx_lib/inc/clock_11xx.h **** 
 124:../lpc11cx4-library/lpc_chip_11cxx_lib/inc/clock_11xx.h **** /**
 125:../lpc11cx4-library/lpc_chip_11cxx_lib/inc/clock_11xx.h ****  * @brief	Bypass System Oscillator and set oscillator frequency range
 126:../lpc11cx4-library/lpc_chip_11cxx_lib/inc/clock_11xx.h ****  * @param	bypass	: Flag to bypass oscillator
 127:../lpc11cx4-library/lpc_chip_11cxx_lib/inc/clock_11xx.h ****  * @param	highfr	: Flag to set oscillator range from 15-25 MHz
 128:../lpc11cx4-library/lpc_chip_11cxx_lib/inc/clock_11xx.h ****  * @return	Nothing
 129:../lpc11cx4-library/lpc_chip_11cxx_lib/inc/clock_11xx.h ****  * @note	Sets the PLL input to bypass the oscillator. This would be
 130:../lpc11cx4-library/lpc_chip_11cxx_lib/inc/clock_11xx.h ****  * used if an external clock that is not an oscillator is attached
 131:../lpc11cx4-library/lpc_chip_11cxx_lib/inc/clock_11xx.h ****  * to the XTALIN pin.
 132:../lpc11cx4-library/lpc_chip_11cxx_lib/inc/clock_11xx.h ****  */
 133:../lpc11cx4-library/lpc_chip_11cxx_lib/inc/clock_11xx.h **** void Chip_Clock_SetPLLBypass(bool bypass, bool highfr);
 134:../lpc11cx4-library/lpc_chip_11cxx_lib/inc/clock_11xx.h **** 
 135:../lpc11cx4-library/lpc_chip_11cxx_lib/inc/clock_11xx.h **** /**
 136:../lpc11cx4-library/lpc_chip_11cxx_lib/inc/clock_11xx.h ****  * Watchdog and low frequency oscillator frequencies plus or minus 40%
 137:../lpc11cx4-library/lpc_chip_11cxx_lib/inc/clock_11xx.h ****  */
 138:../lpc11cx4-library/lpc_chip_11cxx_lib/inc/clock_11xx.h **** typedef enum CHIP_WDTLFO_OSC {
 139:../lpc11cx4-library/lpc_chip_11cxx_lib/inc/clock_11xx.h **** 	WDTLFO_OSC_ILLEGAL,
 140:../lpc11cx4-library/lpc_chip_11cxx_lib/inc/clock_11xx.h **** 	WDTLFO_OSC_0_60,	/*!< 0.6 MHz watchdog/LFO rate */
 141:../lpc11cx4-library/lpc_chip_11cxx_lib/inc/clock_11xx.h **** 	WDTLFO_OSC_1_05,	/*!< 1.05 MHz watchdog/LFO rate */
 142:../lpc11cx4-library/lpc_chip_11cxx_lib/inc/clock_11xx.h **** 	WDTLFO_OSC_1_40,	/*!< 1.4 MHz watchdog/LFO rate */
 143:../lpc11cx4-library/lpc_chip_11cxx_lib/inc/clock_11xx.h **** 	WDTLFO_OSC_1_75,	/*!< 1.75 MHz watchdog/LFO rate */
 144:../lpc11cx4-library/lpc_chip_11cxx_lib/inc/clock_11xx.h **** 	WDTLFO_OSC_2_10,	/*!< 2.1 MHz watchdog/LFO rate */
 145:../lpc11cx4-library/lpc_chip_11cxx_lib/inc/clock_11xx.h **** 	WDTLFO_OSC_2_40,	/*!< 2.4 MHz watchdog/LFO rate */
 146:../lpc11cx4-library/lpc_chip_11cxx_lib/inc/clock_11xx.h **** 	WDTLFO_OSC_2_70,	/*!< 2.7 MHz watchdog/LFO rate */
 147:../lpc11cx4-library/lpc_chip_11cxx_lib/inc/clock_11xx.h **** 	WDTLFO_OSC_3_00,	/*!< 3.0 MHz watchdog/LFO rate */
 148:../lpc11cx4-library/lpc_chip_11cxx_lib/inc/clock_11xx.h **** 	WDTLFO_OSC_3_25,	/*!< 3.25 MHz watchdog/LFO rate */
ARM GAS  /var/folders/9j/_txx49hn253_s3mnzkyxlj8m0000gp/T//ccgYRR5b.s 			page 6


 149:../lpc11cx4-library/lpc_chip_11cxx_lib/inc/clock_11xx.h **** 	WDTLFO_OSC_3_50,	/*!< 3.5 MHz watchdog/LFO rate */
 150:../lpc11cx4-library/lpc_chip_11cxx_lib/inc/clock_11xx.h **** 	WDTLFO_OSC_3_75,	/*!< 3.75 MHz watchdog/LFO rate */
 151:../lpc11cx4-library/lpc_chip_11cxx_lib/inc/clock_11xx.h **** 	WDTLFO_OSC_4_00,	/*!< 4.0 MHz watchdog/LFO rate */
 152:../lpc11cx4-library/lpc_chip_11cxx_lib/inc/clock_11xx.h **** 	WDTLFO_OSC_4_20,	/*!< 4.2 MHz watchdog/LFO rate */
 153:../lpc11cx4-library/lpc_chip_11cxx_lib/inc/clock_11xx.h **** 	WDTLFO_OSC_4_40,	/*!< 4.4 MHz watchdog/LFO rate */
 154:../lpc11cx4-library/lpc_chip_11cxx_lib/inc/clock_11xx.h **** 	WDTLFO_OSC_4_60		/*!< 4.6 MHz watchdog/LFO rate */
 155:../lpc11cx4-library/lpc_chip_11cxx_lib/inc/clock_11xx.h **** } CHIP_WDTLFO_OSC_T;
 156:../lpc11cx4-library/lpc_chip_11cxx_lib/inc/clock_11xx.h **** 
 157:../lpc11cx4-library/lpc_chip_11cxx_lib/inc/clock_11xx.h **** /**
 158:../lpc11cx4-library/lpc_chip_11cxx_lib/inc/clock_11xx.h ****  * @brief	Setup Watchdog oscillator rate and divider
 159:../lpc11cx4-library/lpc_chip_11cxx_lib/inc/clock_11xx.h ****  * @param	wdtclk	: Selected watchdog clock rate
 160:../lpc11cx4-library/lpc_chip_11cxx_lib/inc/clock_11xx.h ****  * @param	div		: Watchdog divider value, even value between 2 and 64
 161:../lpc11cx4-library/lpc_chip_11cxx_lib/inc/clock_11xx.h ****  * @return	Nothing
 162:../lpc11cx4-library/lpc_chip_11cxx_lib/inc/clock_11xx.h ****  * @note	Watchdog rate = selected rate divided by divider rate
 163:../lpc11cx4-library/lpc_chip_11cxx_lib/inc/clock_11xx.h ****  */
 164:../lpc11cx4-library/lpc_chip_11cxx_lib/inc/clock_11xx.h **** STATIC INLINE void Chip_Clock_SetWDTOSC(CHIP_WDTLFO_OSC_T wdtclk, uint8_t div)
 165:../lpc11cx4-library/lpc_chip_11cxx_lib/inc/clock_11xx.h **** {
 166:../lpc11cx4-library/lpc_chip_11cxx_lib/inc/clock_11xx.h **** 	LPC_SYSCTL->WDTOSCCTRL  = (((uint32_t) wdtclk) << 5) | ((div >> 1) - 1);
 167:../lpc11cx4-library/lpc_chip_11cxx_lib/inc/clock_11xx.h **** }
 168:../lpc11cx4-library/lpc_chip_11cxx_lib/inc/clock_11xx.h **** 
 169:../lpc11cx4-library/lpc_chip_11cxx_lib/inc/clock_11xx.h **** #if defined(CHIP_LPC11AXX)
 170:../lpc11cx4-library/lpc_chip_11cxx_lib/inc/clock_11xx.h **** /**
 171:../lpc11cx4-library/lpc_chip_11cxx_lib/inc/clock_11xx.h ****  * @brief	Setup low frequency oscillator rate and divider
 172:../lpc11cx4-library/lpc_chip_11cxx_lib/inc/clock_11xx.h ****  * @param	lfoclk	: Selected low frequency clock rate
 173:../lpc11cx4-library/lpc_chip_11cxx_lib/inc/clock_11xx.h ****  * @param	div		: Low frequency divider value, even value between 2 and 64
 174:../lpc11cx4-library/lpc_chip_11cxx_lib/inc/clock_11xx.h ****  * @return	Nothing
 175:../lpc11cx4-library/lpc_chip_11cxx_lib/inc/clock_11xx.h ****  * @note	Low frequency oscillator rate = selected rate divided by divider rate
 176:../lpc11cx4-library/lpc_chip_11cxx_lib/inc/clock_11xx.h ****  */
 177:../lpc11cx4-library/lpc_chip_11cxx_lib/inc/clock_11xx.h **** STATIC INLINE void Chip_Clock_SetLFOSC(CHIP_WDTLFO_OSC_T lfoclk, uint8_t div)
 178:../lpc11cx4-library/lpc_chip_11cxx_lib/inc/clock_11xx.h **** {
 179:../lpc11cx4-library/lpc_chip_11cxx_lib/inc/clock_11xx.h **** 	LPC_SYSCTL->LFOSCCTRL  = (((uint32_t) lfoclk) << 5) | ((div >> 1) - 1);
 180:../lpc11cx4-library/lpc_chip_11cxx_lib/inc/clock_11xx.h **** }
 181:../lpc11cx4-library/lpc_chip_11cxx_lib/inc/clock_11xx.h **** 
 182:../lpc11cx4-library/lpc_chip_11cxx_lib/inc/clock_11xx.h **** #endif /*CHIP_LPC11AXX*/
 183:../lpc11cx4-library/lpc_chip_11cxx_lib/inc/clock_11xx.h **** 
 184:../lpc11cx4-library/lpc_chip_11cxx_lib/inc/clock_11xx.h **** /**
 185:../lpc11cx4-library/lpc_chip_11cxx_lib/inc/clock_11xx.h ****  * Clock sources for main system clock
 186:../lpc11cx4-library/lpc_chip_11cxx_lib/inc/clock_11xx.h ****  */
 187:../lpc11cx4-library/lpc_chip_11cxx_lib/inc/clock_11xx.h **** typedef enum CHIP_SYSCTL_MAINCLKSRC {
 188:../lpc11cx4-library/lpc_chip_11cxx_lib/inc/clock_11xx.h **** 	SYSCTL_MAINCLKSRC_IRC = 0,		/*!< Internal oscillator */
 189:../lpc11cx4-library/lpc_chip_11cxx_lib/inc/clock_11xx.h **** 	SYSCTL_MAINCLKSRC_PLLIN,		/*!< System PLL input */
 190:../lpc11cx4-library/lpc_chip_11cxx_lib/inc/clock_11xx.h **** 	SYSCTL_MAINCLKSRC_LFOSC,		/*!< LF oscillator rate (11Axx only) */
 191:../lpc11cx4-library/lpc_chip_11cxx_lib/inc/clock_11xx.h **** 	SYSCTL_MAINCLKSRC_WDTOSC = SYSCTL_MAINCLKSRC_LFOSC,	/*!< Watchdog oscillator rate */
 192:../lpc11cx4-library/lpc_chip_11cxx_lib/inc/clock_11xx.h **** 	SYSCTL_MAINCLKSRC_PLLOUT,		/*!< System PLL output */
 193:../lpc11cx4-library/lpc_chip_11cxx_lib/inc/clock_11xx.h **** } CHIP_SYSCTL_MAINCLKSRC_T;
 194:../lpc11cx4-library/lpc_chip_11cxx_lib/inc/clock_11xx.h **** 
 195:../lpc11cx4-library/lpc_chip_11cxx_lib/inc/clock_11xx.h **** /**
 196:../lpc11cx4-library/lpc_chip_11cxx_lib/inc/clock_11xx.h ****  * @brief	Set main system clock source
 197:../lpc11cx4-library/lpc_chip_11cxx_lib/inc/clock_11xx.h ****  * @param	src	: Clock source for main system
 198:../lpc11cx4-library/lpc_chip_11cxx_lib/inc/clock_11xx.h ****  * @return	Nothing
 199:../lpc11cx4-library/lpc_chip_11cxx_lib/inc/clock_11xx.h ****  * @note	This function will also toggle the clock source update register
 200:../lpc11cx4-library/lpc_chip_11cxx_lib/inc/clock_11xx.h ****  * to update the clock source.
 201:../lpc11cx4-library/lpc_chip_11cxx_lib/inc/clock_11xx.h ****  */
 202:../lpc11cx4-library/lpc_chip_11cxx_lib/inc/clock_11xx.h **** void Chip_Clock_SetMainClockSource(CHIP_SYSCTL_MAINCLKSRC_T src);
 203:../lpc11cx4-library/lpc_chip_11cxx_lib/inc/clock_11xx.h **** 
 204:../lpc11cx4-library/lpc_chip_11cxx_lib/inc/clock_11xx.h **** /**
 205:../lpc11cx4-library/lpc_chip_11cxx_lib/inc/clock_11xx.h ****  * @brief   Returns the main clock source
ARM GAS  /var/folders/9j/_txx49hn253_s3mnzkyxlj8m0000gp/T//ccgYRR5b.s 			page 7


 206:../lpc11cx4-library/lpc_chip_11cxx_lib/inc/clock_11xx.h ****  * @return	Which clock is used for the core clock source?
 207:../lpc11cx4-library/lpc_chip_11cxx_lib/inc/clock_11xx.h ****  */
 208:../lpc11cx4-library/lpc_chip_11cxx_lib/inc/clock_11xx.h **** STATIC INLINE CHIP_SYSCTL_MAINCLKSRC_T Chip_Clock_GetMainClockSource(void)
 209:../lpc11cx4-library/lpc_chip_11cxx_lib/inc/clock_11xx.h **** {
 210:../lpc11cx4-library/lpc_chip_11cxx_lib/inc/clock_11xx.h **** 	return (CHIP_SYSCTL_MAINCLKSRC_T) (LPC_SYSCTL->MAINCLKSEL);
 211:../lpc11cx4-library/lpc_chip_11cxx_lib/inc/clock_11xx.h **** }
 212:../lpc11cx4-library/lpc_chip_11cxx_lib/inc/clock_11xx.h **** 
 213:../lpc11cx4-library/lpc_chip_11cxx_lib/inc/clock_11xx.h **** /**
 214:../lpc11cx4-library/lpc_chip_11cxx_lib/inc/clock_11xx.h ****  * @brief	Set system clock divider
 215:../lpc11cx4-library/lpc_chip_11cxx_lib/inc/clock_11xx.h ****  * @param	div	: divider for system clock
 216:../lpc11cx4-library/lpc_chip_11cxx_lib/inc/clock_11xx.h ****  * @return	Nothing
 217:../lpc11cx4-library/lpc_chip_11cxx_lib/inc/clock_11xx.h ****  * @note	Use 0 to disable, or a divider value of 1 to 255. The system clock
 218:../lpc11cx4-library/lpc_chip_11cxx_lib/inc/clock_11xx.h ****  * rate is the main system clock divided by this value.
 219:../lpc11cx4-library/lpc_chip_11cxx_lib/inc/clock_11xx.h ****  */
 220:../lpc11cx4-library/lpc_chip_11cxx_lib/inc/clock_11xx.h **** STATIC INLINE void Chip_Clock_SetSysClockDiv(uint32_t div)
 221:../lpc11cx4-library/lpc_chip_11cxx_lib/inc/clock_11xx.h **** {
 222:../lpc11cx4-library/lpc_chip_11cxx_lib/inc/clock_11xx.h **** 	LPC_SYSCTL->SYSAHBCLKDIV  = div;
 223:../lpc11cx4-library/lpc_chip_11cxx_lib/inc/clock_11xx.h **** }
 224:../lpc11cx4-library/lpc_chip_11cxx_lib/inc/clock_11xx.h **** 
 225:../lpc11cx4-library/lpc_chip_11cxx_lib/inc/clock_11xx.h **** /**
 226:../lpc11cx4-library/lpc_chip_11cxx_lib/inc/clock_11xx.h ****  * System and peripheral clocks
 227:../lpc11cx4-library/lpc_chip_11cxx_lib/inc/clock_11xx.h ****  */
 228:../lpc11cx4-library/lpc_chip_11cxx_lib/inc/clock_11xx.h **** typedef enum CHIP_SYSCTL_CLOCK {
 229:../lpc11cx4-library/lpc_chip_11cxx_lib/inc/clock_11xx.h **** 	SYSCTL_CLOCK_SYS = 0,				/*!< 0: System clock */
 230:../lpc11cx4-library/lpc_chip_11cxx_lib/inc/clock_11xx.h **** 	SYSCTL_CLOCK_ROM,					/*!<1:  ROM clock */
 231:../lpc11cx4-library/lpc_chip_11cxx_lib/inc/clock_11xx.h **** 	SYSCTL_CLOCK_RAM,					/*!< 2: RAM clock */
 232:../lpc11cx4-library/lpc_chip_11cxx_lib/inc/clock_11xx.h **** 	SYSCTL_CLOCK_FLASHREG,				/*!< 3: FLASH register interface clock */
 233:../lpc11cx4-library/lpc_chip_11cxx_lib/inc/clock_11xx.h **** 	SYSCTL_CLOCK_FLASHARRAY,			/*!< 4: FLASH array access clock */
 234:../lpc11cx4-library/lpc_chip_11cxx_lib/inc/clock_11xx.h **** #if defined(CHIP_LPC110X)
 235:../lpc11cx4-library/lpc_chip_11cxx_lib/inc/clock_11xx.h **** 	SYSCTL_CLOCK_RESERVED5,				/*!< 5: Reserved */
 236:../lpc11cx4-library/lpc_chip_11cxx_lib/inc/clock_11xx.h **** #else
 237:../lpc11cx4-library/lpc_chip_11cxx_lib/inc/clock_11xx.h **** 	SYSCTL_CLOCK_I2C,					/*!< 5: I2C clock, not on LPC110x */
 238:../lpc11cx4-library/lpc_chip_11cxx_lib/inc/clock_11xx.h **** #endif
 239:../lpc11cx4-library/lpc_chip_11cxx_lib/inc/clock_11xx.h **** 	SYSCTL_CLOCK_GPIO,					/*!< 6: GPIO clock */
 240:../lpc11cx4-library/lpc_chip_11cxx_lib/inc/clock_11xx.h **** 	SYSCTL_CLOCK_CT16B0,				/*!< 7: 16-bit Counter/timer 0 clock */
 241:../lpc11cx4-library/lpc_chip_11cxx_lib/inc/clock_11xx.h **** 	SYSCTL_CLOCK_CT16B1,				/*!< 8: 16-bit Counter/timer 1 clock */
 242:../lpc11cx4-library/lpc_chip_11cxx_lib/inc/clock_11xx.h **** 	SYSCTL_CLOCK_CT32B0,				/*!< 9: 32-bit Counter/timer 0 clock */
 243:../lpc11cx4-library/lpc_chip_11cxx_lib/inc/clock_11xx.h **** 	SYSCTL_CLOCK_CT32B1,				/*!< 10: 32-bit Counter/timer 1 clock */
 244:../lpc11cx4-library/lpc_chip_11cxx_lib/inc/clock_11xx.h **** 	SYSCTL_CLOCK_SSP0,					/*!< 11: SSP0 clock */
 245:../lpc11cx4-library/lpc_chip_11cxx_lib/inc/clock_11xx.h **** 	SYSCTL_CLOCK_UART0,					/*!< 12: UART0 clock */
 246:../lpc11cx4-library/lpc_chip_11cxx_lib/inc/clock_11xx.h **** 	SYSCTL_CLOCK_ADC,					/*!< 13: ADC clock */
 247:../lpc11cx4-library/lpc_chip_11cxx_lib/inc/clock_11xx.h **** #if defined(CHIP_LPC11UXX)
 248:../lpc11cx4-library/lpc_chip_11cxx_lib/inc/clock_11xx.h **** 	SYSCTL_CLOCK_USB,					/*!< 14: USB clock, LPC11Uxx only */
 249:../lpc11cx4-library/lpc_chip_11cxx_lib/inc/clock_11xx.h **** #else
 250:../lpc11cx4-library/lpc_chip_11cxx_lib/inc/clock_11xx.h **** 	SYSCTL_CLOCK_RESERVED14,			/*!< 14: Reserved */
 251:../lpc11cx4-library/lpc_chip_11cxx_lib/inc/clock_11xx.h **** #endif
 252:../lpc11cx4-library/lpc_chip_11cxx_lib/inc/clock_11xx.h **** 	SYSCTL_CLOCK_WDT,					/*!< 15: Watchdog timer clock */
 253:../lpc11cx4-library/lpc_chip_11cxx_lib/inc/clock_11xx.h **** 	SYSCTL_CLOCK_IOCON,					/*!< 16: IOCON block clock */
 254:../lpc11cx4-library/lpc_chip_11cxx_lib/inc/clock_11xx.h **** #if defined(CHIP_LPC11CXX)
 255:../lpc11cx4-library/lpc_chip_11cxx_lib/inc/clock_11xx.h **** 	SYSCTL_CLOCK_CAN,					/*!< 17: CAN clock, LPC11Cxx only */
 256:../lpc11cx4-library/lpc_chip_11cxx_lib/inc/clock_11xx.h **** #else
 257:../lpc11cx4-library/lpc_chip_11cxx_lib/inc/clock_11xx.h **** 	SYSCTL_CLOCK_RESERVED17,			/*!< 17: Reserved */
 258:../lpc11cx4-library/lpc_chip_11cxx_lib/inc/clock_11xx.h **** #endif
 259:../lpc11cx4-library/lpc_chip_11cxx_lib/inc/clock_11xx.h **** #if !(defined(CHIP_LPC110X) || defined(CHIP_LPC11XXLV))  
 260:../lpc11cx4-library/lpc_chip_11cxx_lib/inc/clock_11xx.h **** 	SYSCTL_CLOCK_SSP1,					/*!< 18: SSP1 clock, LPC11A/C/E/Uxx//1125 only */
 261:../lpc11cx4-library/lpc_chip_11cxx_lib/inc/clock_11xx.h **** #if !defined(CHIP_LPC11CXX)
 262:../lpc11cx4-library/lpc_chip_11cxx_lib/inc/clock_11xx.h **** 	SYSCTL_CLOCK_PINT,					/*!< 19: GPIO Pin int register interface clock, LPC11A/E/Uxx only */
ARM GAS  /var/folders/9j/_txx49hn253_s3mnzkyxlj8m0000gp/T//ccgYRR5b.s 			page 8


 263:../lpc11cx4-library/lpc_chip_11cxx_lib/inc/clock_11xx.h **** #if defined(CHIP_LPC11AXX)
 264:../lpc11cx4-library/lpc_chip_11cxx_lib/inc/clock_11xx.h **** 	SYSCTL_CLOCK_ACOMP,					/*!< 20: Analog comparator clock, LPC11Axx only */
 265:../lpc11cx4-library/lpc_chip_11cxx_lib/inc/clock_11xx.h **** 	SYSCTL_CLOCK_DAC,					/*!< 21: DAC clock, LPC11Axx only */
 266:../lpc11cx4-library/lpc_chip_11cxx_lib/inc/clock_11xx.h **** #else
 267:../lpc11cx4-library/lpc_chip_11cxx_lib/inc/clock_11xx.h **** 	SYSCTL_CLOCK_RESERVED20,			/*!< 20: Reserved */
 268:../lpc11cx4-library/lpc_chip_11cxx_lib/inc/clock_11xx.h **** 	SYSCTL_CLOCK_RESERVED21,			/*!< 21: Reserved */
 269:../lpc11cx4-library/lpc_chip_11cxx_lib/inc/clock_11xx.h **** #endif
 270:../lpc11cx4-library/lpc_chip_11cxx_lib/inc/clock_11xx.h **** 	SYSCTL_CLOCK_RESERVED22,			/*!< 22: Reserved */
 271:../lpc11cx4-library/lpc_chip_11cxx_lib/inc/clock_11xx.h **** 	SYSCTL_CLOCK_P0INT,					/*!< 23: GPIO GROUP1 interrupt register clock, LPC11Axx only */
 272:../lpc11cx4-library/lpc_chip_11cxx_lib/inc/clock_11xx.h **** 	SYSCTL_CLOCK_GROUP0INT = SYSCTL_CLOCK_P0INT,/*!< 23: GPIO GROUP0 interrupt register interface cloc
 273:../lpc11cx4-library/lpc_chip_11cxx_lib/inc/clock_11xx.h **** 	SYSCTL_CLOCK_P1INT,					/*!< 24: GPIO GROUP1 interrupt register clock, LPC11Axx only */
 274:../lpc11cx4-library/lpc_chip_11cxx_lib/inc/clock_11xx.h **** 	SYSCTL_CLOCK_GROUP1INT = SYSCTL_CLOCK_P1INT,/*!< 24: GPIO GROUP1 interrupt register interface cloc
 275:../lpc11cx4-library/lpc_chip_11cxx_lib/inc/clock_11xx.h **** 	SYSCTL_CLOCK_RESERVED25,			/*!< 25: Reserved */
 276:../lpc11cx4-library/lpc_chip_11cxx_lib/inc/clock_11xx.h **** #if defined(CHIP_LPC11EXX)  || defined(CHIP_LPC11UXX)
 277:../lpc11cx4-library/lpc_chip_11cxx_lib/inc/clock_11xx.h **** 	SYSCTL_CLOCK_RAM1,					/*!< 26: SRAM block (0x20000000) clock, LPC11E/Uxx only */
 278:../lpc11cx4-library/lpc_chip_11cxx_lib/inc/clock_11xx.h **** #else
 279:../lpc11cx4-library/lpc_chip_11cxx_lib/inc/clock_11xx.h **** 	SYSCTL_CLOCK_RESERVED26,			/*!< 26: Reserved */
 280:../lpc11cx4-library/lpc_chip_11cxx_lib/inc/clock_11xx.h **** #endif
 281:../lpc11cx4-library/lpc_chip_11cxx_lib/inc/clock_11xx.h **** #if defined(CHIP_LPC11UXX)
 282:../lpc11cx4-library/lpc_chip_11cxx_lib/inc/clock_11xx.h **** 	SYSCTL_CLOCK_USBRAM,				/*!< 27: USB SRAM block clock, LPC11Uxx only */
 283:../lpc11cx4-library/lpc_chip_11cxx_lib/inc/clock_11xx.h **** #else
 284:../lpc11cx4-library/lpc_chip_11cxx_lib/inc/clock_11xx.h **** 	SYSCTL_CLOCK_RESERVED27,			/*!< 27: Reserved */
 285:../lpc11cx4-library/lpc_chip_11cxx_lib/inc/clock_11xx.h **** #endif
 286:../lpc11cx4-library/lpc_chip_11cxx_lib/inc/clock_11xx.h **** #endif /* !defined(CHIP_LPC11CXX) */
 287:../lpc11cx4-library/lpc_chip_11cxx_lib/inc/clock_11xx.h **** #endif /* !(defined(CHIP_LPC110X) || defined(CHIP_LPC11XXLV)) */
 288:../lpc11cx4-library/lpc_chip_11cxx_lib/inc/clock_11xx.h **** } CHIP_SYSCTL_CLOCK_T;
 289:../lpc11cx4-library/lpc_chip_11cxx_lib/inc/clock_11xx.h **** 
 290:../lpc11cx4-library/lpc_chip_11cxx_lib/inc/clock_11xx.h **** /**
 291:../lpc11cx4-library/lpc_chip_11cxx_lib/inc/clock_11xx.h ****  * @brief	Enable a system or peripheral clock
 292:../lpc11cx4-library/lpc_chip_11cxx_lib/inc/clock_11xx.h ****  * @param	clk	: Clock to enable
 293:../lpc11cx4-library/lpc_chip_11cxx_lib/inc/clock_11xx.h ****  * @return	Nothing
 294:../lpc11cx4-library/lpc_chip_11cxx_lib/inc/clock_11xx.h ****  */
 295:../lpc11cx4-library/lpc_chip_11cxx_lib/inc/clock_11xx.h **** STATIC INLINE void Chip_Clock_EnablePeriphClock(CHIP_SYSCTL_CLOCK_T clk)
 296:../lpc11cx4-library/lpc_chip_11cxx_lib/inc/clock_11xx.h **** {
 297:../lpc11cx4-library/lpc_chip_11cxx_lib/inc/clock_11xx.h **** 	LPC_SYSCTL->SYSAHBCLKCTRL |= (1 << clk);
  86              		.loc 2 297 0
  87 0000 8021     		mov	r1, #128	@ tmp114,
  88              	.LBE69:
  89              	.LBE68:
  90              		.loc 1 52 0
  91 0002 10B5     		push	{r4, lr}	@
  92              		.cfi_def_cfa_offset 8
  93              		.cfi_offset 4, -8
  94              		.cfi_offset 14, -4
  95              	.LBB72:
  96              	.LBB70:
  97              		.loc 2 297 0
  98 0004 8024     		mov	r4, #128	@ tmp115,
  99 0006 074B     		ldr	r3, .L2	@ tmp113,
 100 0008 6401     		lsl	r4, r4, #5	@ tmp115, tmp115,
 101 000a 5A58     		ldr	r2, [r3, r1]	@ D.6399, MEM[(struct LPC_SYSCTL_T *)1074036736B].SYSAHBCLKCTRL
 102              	.LBE70:
 103              	.LBE72:
  53:../lpc11cx4-library/lpc_chip_11cxx_lib/src/uart_11xx.c **** 	Chip_Clock_EnablePeriphClock(SYSCTL_CLOCK_UART0);
  54:../lpc11cx4-library/lpc_chip_11cxx_lib/src/uart_11xx.c **** 	Chip_Clock_SetUARTClockDiv(1);
  55:../lpc11cx4-library/lpc_chip_11cxx_lib/src/uart_11xx.c **** 
  56:../lpc11cx4-library/lpc_chip_11cxx_lib/src/uart_11xx.c **** 	/* Enable FIFOs by default, reset them */
ARM GAS  /var/folders/9j/_txx49hn253_s3mnzkyxlj8m0000gp/T//ccgYRR5b.s 			page 9


  57:../lpc11cx4-library/lpc_chip_11cxx_lib/src/uart_11xx.c **** 	Chip_UART_SetupFIFOS(pUART, (UART_FCR_FIFO_EN | UART_FCR_RX_RS | UART_FCR_TX_RS));
  58:../lpc11cx4-library/lpc_chip_11cxx_lib/src/uart_11xx.c **** 
  59:../lpc11cx4-library/lpc_chip_11cxx_lib/src/uart_11xx.c **** 	/* Default 8N1, with DLAB disabled */
  60:../lpc11cx4-library/lpc_chip_11cxx_lib/src/uart_11xx.c **** 	Chip_UART_ConfigData(pUART, (UART_LCR_WLEN8 | UART_LCR_SBS_1BIT | UART_LCR_PARITY_DIS));
  61:../lpc11cx4-library/lpc_chip_11cxx_lib/src/uart_11xx.c **** 
  62:../lpc11cx4-library/lpc_chip_11cxx_lib/src/uart_11xx.c **** 	/* Disable fractional divider */
  63:../lpc11cx4-library/lpc_chip_11cxx_lib/src/uart_11xx.c **** 	pUART->FDR = 0x10;
  64:../lpc11cx4-library/lpc_chip_11cxx_lib/src/uart_11xx.c **** }
 104              		.loc 1 64 0
 105              		@ sp needed	@
 106              	.LBB73:
 107              	.LBB71:
 108              		.loc 2 297 0
 109 000c 2243     		orr	r2, r4	@ D.6399, tmp115
 110 000e 5A50     		str	r2, [r3, r1]	@ D.6399, MEM[(struct LPC_SYSCTL_T *)1074036736B].SYSAHBCLKCTRL
 111              	.LVL1:
 112              	.LBE71:
 113              	.LBE73:
 114              	.LBB74:
 115              	.LBB75:
 298:../lpc11cx4-library/lpc_chip_11cxx_lib/inc/clock_11xx.h **** }
 299:../lpc11cx4-library/lpc_chip_11cxx_lib/inc/clock_11xx.h **** 
 300:../lpc11cx4-library/lpc_chip_11cxx_lib/inc/clock_11xx.h **** /**
 301:../lpc11cx4-library/lpc_chip_11cxx_lib/inc/clock_11xx.h ****  * @brief	Disable a system or peripheral clock
 302:../lpc11cx4-library/lpc_chip_11cxx_lib/inc/clock_11xx.h ****  * @param	clk	: Clock to disable
 303:../lpc11cx4-library/lpc_chip_11cxx_lib/inc/clock_11xx.h ****  * @return	Nothing
 304:../lpc11cx4-library/lpc_chip_11cxx_lib/inc/clock_11xx.h ****  */
 305:../lpc11cx4-library/lpc_chip_11cxx_lib/inc/clock_11xx.h **** STATIC INLINE void Chip_Clock_DisablePeriphClock(CHIP_SYSCTL_CLOCK_T clk)
 306:../lpc11cx4-library/lpc_chip_11cxx_lib/inc/clock_11xx.h **** {
 307:../lpc11cx4-library/lpc_chip_11cxx_lib/inc/clock_11xx.h **** 	LPC_SYSCTL->SYSAHBCLKCTRL &= ~(1 << clk);
 308:../lpc11cx4-library/lpc_chip_11cxx_lib/inc/clock_11xx.h **** }
 309:../lpc11cx4-library/lpc_chip_11cxx_lib/inc/clock_11xx.h **** 
 310:../lpc11cx4-library/lpc_chip_11cxx_lib/inc/clock_11xx.h **** /**
 311:../lpc11cx4-library/lpc_chip_11cxx_lib/inc/clock_11xx.h ****  * @brief	Set SSP0 divider
 312:../lpc11cx4-library/lpc_chip_11cxx_lib/inc/clock_11xx.h ****  * @param	div	: divider for SSP0 clock
 313:../lpc11cx4-library/lpc_chip_11cxx_lib/inc/clock_11xx.h ****  * @return	Nothing
 314:../lpc11cx4-library/lpc_chip_11cxx_lib/inc/clock_11xx.h ****  * @note	Use 0 to disable, or a divider value of 1 to 255. The SSP0 clock
 315:../lpc11cx4-library/lpc_chip_11cxx_lib/inc/clock_11xx.h ****  * rate is the main system clock divided by this value.
 316:../lpc11cx4-library/lpc_chip_11cxx_lib/inc/clock_11xx.h ****  */
 317:../lpc11cx4-library/lpc_chip_11cxx_lib/inc/clock_11xx.h **** STATIC INLINE void Chip_Clock_SetSSP0ClockDiv(uint32_t div)
 318:../lpc11cx4-library/lpc_chip_11cxx_lib/inc/clock_11xx.h **** {
 319:../lpc11cx4-library/lpc_chip_11cxx_lib/inc/clock_11xx.h **** 	LPC_SYSCTL->SSP0CLKDIV  = div;
 320:../lpc11cx4-library/lpc_chip_11cxx_lib/inc/clock_11xx.h **** }
 321:../lpc11cx4-library/lpc_chip_11cxx_lib/inc/clock_11xx.h **** 
 322:../lpc11cx4-library/lpc_chip_11cxx_lib/inc/clock_11xx.h **** /**
 323:../lpc11cx4-library/lpc_chip_11cxx_lib/inc/clock_11xx.h ****  * @brief	Return SSP0 divider
 324:../lpc11cx4-library/lpc_chip_11cxx_lib/inc/clock_11xx.h ****  * @return	divider for SSP0 clock
 325:../lpc11cx4-library/lpc_chip_11cxx_lib/inc/clock_11xx.h ****  * @note	A value of 0 means the clock is disabled.
 326:../lpc11cx4-library/lpc_chip_11cxx_lib/inc/clock_11xx.h ****  */
 327:../lpc11cx4-library/lpc_chip_11cxx_lib/inc/clock_11xx.h **** STATIC INLINE uint32_t Chip_Clock_GetSSP0ClockDiv(void)
 328:../lpc11cx4-library/lpc_chip_11cxx_lib/inc/clock_11xx.h **** {
 329:../lpc11cx4-library/lpc_chip_11cxx_lib/inc/clock_11xx.h **** 	return LPC_SYSCTL->SSP0CLKDIV;
 330:../lpc11cx4-library/lpc_chip_11cxx_lib/inc/clock_11xx.h **** }
 331:../lpc11cx4-library/lpc_chip_11cxx_lib/inc/clock_11xx.h **** 
 332:../lpc11cx4-library/lpc_chip_11cxx_lib/inc/clock_11xx.h **** /**
 333:../lpc11cx4-library/lpc_chip_11cxx_lib/inc/clock_11xx.h ****  * @brief	Set UART divider clock
 334:../lpc11cx4-library/lpc_chip_11cxx_lib/inc/clock_11xx.h ****  * @param	div	: divider for UART clock
ARM GAS  /var/folders/9j/_txx49hn253_s3mnzkyxlj8m0000gp/T//ccgYRR5b.s 			page 10


 335:../lpc11cx4-library/lpc_chip_11cxx_lib/inc/clock_11xx.h ****  * @return	Nothing
 336:../lpc11cx4-library/lpc_chip_11cxx_lib/inc/clock_11xx.h ****  * @note	Use 0 to disable, or a divider value of 1 to 255. The UART clock
 337:../lpc11cx4-library/lpc_chip_11cxx_lib/inc/clock_11xx.h ****  * rate is the main system clock divided by this value.
 338:../lpc11cx4-library/lpc_chip_11cxx_lib/inc/clock_11xx.h ****  */
 339:../lpc11cx4-library/lpc_chip_11cxx_lib/inc/clock_11xx.h **** STATIC INLINE void Chip_Clock_SetUARTClockDiv(uint32_t div)
 340:../lpc11cx4-library/lpc_chip_11cxx_lib/inc/clock_11xx.h **** {
 341:../lpc11cx4-library/lpc_chip_11cxx_lib/inc/clock_11xx.h **** 	LPC_SYSCTL->USARTCLKDIV  = div;
 116              		.loc 2 341 0
 117 0010 9822     		mov	r2, #152	@ tmp119,
 118 0012 7F39     		sub	r1, r1, #127	@ tmp120,
 119 0014 9950     		str	r1, [r3, r2]	@ tmp120, MEM[(struct LPC_SYSCTL_T *)1074036736B].USARTCLKDIV
 120              	.LVL2:
 121              	.LBE75:
 122              	.LBE74:
 123              	.LBB76:
 124              	.LBB77:
 125              		.file 3 "../lpc11cx4-library/lpc_chip_11cxx_lib/inc/uart_11xx.h"
   1:../lpc11cx4-library/lpc_chip_11cxx_lib/inc/uart_11xx.h **** /*
   2:../lpc11cx4-library/lpc_chip_11cxx_lib/inc/uart_11xx.h ****  * @brief LPC11xx UART chip driver
   3:../lpc11cx4-library/lpc_chip_11cxx_lib/inc/uart_11xx.h ****  *
   4:../lpc11cx4-library/lpc_chip_11cxx_lib/inc/uart_11xx.h ****  * @note
   5:../lpc11cx4-library/lpc_chip_11cxx_lib/inc/uart_11xx.h ****  * Copyright(C) NXP Semiconductors, 2012
   6:../lpc11cx4-library/lpc_chip_11cxx_lib/inc/uart_11xx.h ****  * All rights reserved.
   7:../lpc11cx4-library/lpc_chip_11cxx_lib/inc/uart_11xx.h ****  *
   8:../lpc11cx4-library/lpc_chip_11cxx_lib/inc/uart_11xx.h ****  * @par
   9:../lpc11cx4-library/lpc_chip_11cxx_lib/inc/uart_11xx.h ****  * Software that is described herein is for illustrative purposes only
  10:../lpc11cx4-library/lpc_chip_11cxx_lib/inc/uart_11xx.h ****  * which provides customers with programming information regarding the
  11:../lpc11cx4-library/lpc_chip_11cxx_lib/inc/uart_11xx.h ****  * LPC products.  This software is supplied "AS IS" without any warranties of
  12:../lpc11cx4-library/lpc_chip_11cxx_lib/inc/uart_11xx.h ****  * any kind, and NXP Semiconductors and its licensor disclaim any and
  13:../lpc11cx4-library/lpc_chip_11cxx_lib/inc/uart_11xx.h ****  * all warranties, express or implied, including all implied warranties of
  14:../lpc11cx4-library/lpc_chip_11cxx_lib/inc/uart_11xx.h ****  * merchantability, fitness for a particular purpose and non-infringement of
  15:../lpc11cx4-library/lpc_chip_11cxx_lib/inc/uart_11xx.h ****  * intellectual property rights.  NXP Semiconductors assumes no responsibility
  16:../lpc11cx4-library/lpc_chip_11cxx_lib/inc/uart_11xx.h ****  * or liability for the use of the software, conveys no license or rights under any
  17:../lpc11cx4-library/lpc_chip_11cxx_lib/inc/uart_11xx.h ****  * patent, copyright, mask work right, or any other intellectual property rights in
  18:../lpc11cx4-library/lpc_chip_11cxx_lib/inc/uart_11xx.h ****  * or to any products. NXP Semiconductors reserves the right to make changes
  19:../lpc11cx4-library/lpc_chip_11cxx_lib/inc/uart_11xx.h ****  * in the software without notification. NXP Semiconductors also makes no
  20:../lpc11cx4-library/lpc_chip_11cxx_lib/inc/uart_11xx.h ****  * representation or warranty that such application will be suitable for the
  21:../lpc11cx4-library/lpc_chip_11cxx_lib/inc/uart_11xx.h ****  * specified use without further testing or modification.
  22:../lpc11cx4-library/lpc_chip_11cxx_lib/inc/uart_11xx.h ****  *
  23:../lpc11cx4-library/lpc_chip_11cxx_lib/inc/uart_11xx.h ****  * @par
  24:../lpc11cx4-library/lpc_chip_11cxx_lib/inc/uart_11xx.h ****  * Permission to use, copy, modify, and distribute this software and its
  25:../lpc11cx4-library/lpc_chip_11cxx_lib/inc/uart_11xx.h ****  * documentation is hereby granted, under NXP Semiconductors' and its
  26:../lpc11cx4-library/lpc_chip_11cxx_lib/inc/uart_11xx.h ****  * licensor's relevant copyrights in the software, without fee, provided that it
  27:../lpc11cx4-library/lpc_chip_11cxx_lib/inc/uart_11xx.h ****  * is used in conjunction with NXP Semiconductors microcontrollers.  This
  28:../lpc11cx4-library/lpc_chip_11cxx_lib/inc/uart_11xx.h ****  * copyright, permission, and disclaimer notice must appear in all copies of
  29:../lpc11cx4-library/lpc_chip_11cxx_lib/inc/uart_11xx.h ****  * this code.
  30:../lpc11cx4-library/lpc_chip_11cxx_lib/inc/uart_11xx.h ****  */
  31:../lpc11cx4-library/lpc_chip_11cxx_lib/inc/uart_11xx.h **** 
  32:../lpc11cx4-library/lpc_chip_11cxx_lib/inc/uart_11xx.h **** #ifndef __UART_11XX_H_
  33:../lpc11cx4-library/lpc_chip_11cxx_lib/inc/uart_11xx.h **** #define __UART_11XX_H_
  34:../lpc11cx4-library/lpc_chip_11cxx_lib/inc/uart_11xx.h **** 
  35:../lpc11cx4-library/lpc_chip_11cxx_lib/inc/uart_11xx.h **** #include "ring_buffer.h"
  36:../lpc11cx4-library/lpc_chip_11cxx_lib/inc/uart_11xx.h **** 
  37:../lpc11cx4-library/lpc_chip_11cxx_lib/inc/uart_11xx.h **** #ifdef __cplusplus
  38:../lpc11cx4-library/lpc_chip_11cxx_lib/inc/uart_11xx.h **** extern "C" {
  39:../lpc11cx4-library/lpc_chip_11cxx_lib/inc/uart_11xx.h **** #endif
  40:../lpc11cx4-library/lpc_chip_11cxx_lib/inc/uart_11xx.h **** 
ARM GAS  /var/folders/9j/_txx49hn253_s3mnzkyxlj8m0000gp/T//ccgYRR5b.s 			page 11


  41:../lpc11cx4-library/lpc_chip_11cxx_lib/inc/uart_11xx.h **** /** @defgroup UART_11XX CHIP: LPC11xx UART driver
  42:../lpc11cx4-library/lpc_chip_11cxx_lib/inc/uart_11xx.h ****  * @ingroup CHIP_11XX_Drivers
  43:../lpc11cx4-library/lpc_chip_11cxx_lib/inc/uart_11xx.h ****  * @{
  44:../lpc11cx4-library/lpc_chip_11cxx_lib/inc/uart_11xx.h ****  */
  45:../lpc11cx4-library/lpc_chip_11cxx_lib/inc/uart_11xx.h **** 
  46:../lpc11cx4-library/lpc_chip_11cxx_lib/inc/uart_11xx.h **** /**
  47:../lpc11cx4-library/lpc_chip_11cxx_lib/inc/uart_11xx.h ****  * @brief USART register block structure
  48:../lpc11cx4-library/lpc_chip_11cxx_lib/inc/uart_11xx.h ****  */
  49:../lpc11cx4-library/lpc_chip_11cxx_lib/inc/uart_11xx.h **** typedef struct {					/*!< USARTn Structure       */
  50:../lpc11cx4-library/lpc_chip_11cxx_lib/inc/uart_11xx.h **** 
  51:../lpc11cx4-library/lpc_chip_11cxx_lib/inc/uart_11xx.h **** 	union {
  52:../lpc11cx4-library/lpc_chip_11cxx_lib/inc/uart_11xx.h **** 		__IO uint32_t  DLL;			/*!< Divisor Latch LSB. Least significant byte of the baud rate divisor val
  53:../lpc11cx4-library/lpc_chip_11cxx_lib/inc/uart_11xx.h **** 		__O  uint32_t  THR;			/*!< Transmit Holding Register. The next character to be transmitted is wri
  54:../lpc11cx4-library/lpc_chip_11cxx_lib/inc/uart_11xx.h **** 		__I  uint32_t  RBR;			/*!< Receiver Buffer Register. Contains the next received character to be r
  55:../lpc11cx4-library/lpc_chip_11cxx_lib/inc/uart_11xx.h **** 	};
  56:../lpc11cx4-library/lpc_chip_11cxx_lib/inc/uart_11xx.h **** 
  57:../lpc11cx4-library/lpc_chip_11cxx_lib/inc/uart_11xx.h **** 	union {
  58:../lpc11cx4-library/lpc_chip_11cxx_lib/inc/uart_11xx.h **** 		__IO uint32_t IER;			/*!< Interrupt Enable Register. Contains individual interrupt enable bits fo
  59:../lpc11cx4-library/lpc_chip_11cxx_lib/inc/uart_11xx.h **** 		__IO uint32_t DLM;			/*!< Divisor Latch MSB. Most significant byte of the baud rate divisor value
  60:../lpc11cx4-library/lpc_chip_11cxx_lib/inc/uart_11xx.h **** 	};
  61:../lpc11cx4-library/lpc_chip_11cxx_lib/inc/uart_11xx.h **** 
  62:../lpc11cx4-library/lpc_chip_11cxx_lib/inc/uart_11xx.h **** 	union {
  63:../lpc11cx4-library/lpc_chip_11cxx_lib/inc/uart_11xx.h **** 		__O  uint32_t FCR;			/*!< FIFO Control Register. Controls UART FIFO usage and modes. */
  64:../lpc11cx4-library/lpc_chip_11cxx_lib/inc/uart_11xx.h **** 		__I  uint32_t IIR;			/*!< Interrupt ID Register. Identifies which interrupt(s) are pending. */
  65:../lpc11cx4-library/lpc_chip_11cxx_lib/inc/uart_11xx.h **** 	};
  66:../lpc11cx4-library/lpc_chip_11cxx_lib/inc/uart_11xx.h **** 
  67:../lpc11cx4-library/lpc_chip_11cxx_lib/inc/uart_11xx.h **** 	__IO uint32_t LCR;				/*!< Line Control Register. Contains controls for frame formatting and break
  68:../lpc11cx4-library/lpc_chip_11cxx_lib/inc/uart_11xx.h **** 	__IO uint32_t MCR;				/*!< Modem Control Register. Only present on USART ports with full modem sup
  69:../lpc11cx4-library/lpc_chip_11cxx_lib/inc/uart_11xx.h **** 	__I  uint32_t LSR;				/*!< Line Status Register. Contains flags for transmit and receive status, i
  70:../lpc11cx4-library/lpc_chip_11cxx_lib/inc/uart_11xx.h **** 	__I  uint32_t MSR;				/*!< Modem Status Register. Only present on USART ports with full modem supp
  71:../lpc11cx4-library/lpc_chip_11cxx_lib/inc/uart_11xx.h **** 	__IO uint32_t SCR;				/*!< Scratch Pad Register. Eight-bit temporary storage for software. */
  72:../lpc11cx4-library/lpc_chip_11cxx_lib/inc/uart_11xx.h **** 	__IO uint32_t ACR;				/*!< Auto-baud Control Register. Contains controls for the auto-baud feature
  73:../lpc11cx4-library/lpc_chip_11cxx_lib/inc/uart_11xx.h **** 	__IO uint32_t ICR;				/*!< IrDA control register (not all UARTS) */
  74:../lpc11cx4-library/lpc_chip_11cxx_lib/inc/uart_11xx.h **** 	__IO uint32_t FDR;				/*!< Fractional Divider Register. Generates a clock input for the baud rate 
  75:../lpc11cx4-library/lpc_chip_11cxx_lib/inc/uart_11xx.h **** 	__IO uint32_t OSR;				/*!< Oversampling Register. Controls the degree of oversampling during each 
  76:../lpc11cx4-library/lpc_chip_11cxx_lib/inc/uart_11xx.h **** 	__IO uint32_t TER1;				/*!< Transmit Enable Register. Turns off USART transmitter for use with sof
  77:../lpc11cx4-library/lpc_chip_11cxx_lib/inc/uart_11xx.h **** 	uint32_t  RESERVED0[3];
  78:../lpc11cx4-library/lpc_chip_11cxx_lib/inc/uart_11xx.h ****     __IO uint32_t HDEN;				/*!< Half-duplex enable Register- only on some UARTs */
  79:../lpc11cx4-library/lpc_chip_11cxx_lib/inc/uart_11xx.h **** 	__I  uint32_t RESERVED1[1];
  80:../lpc11cx4-library/lpc_chip_11cxx_lib/inc/uart_11xx.h **** 	__IO uint32_t SCICTRL;			/*!< Smart card interface control register- only on some UARTs */
  81:../lpc11cx4-library/lpc_chip_11cxx_lib/inc/uart_11xx.h **** 
  82:../lpc11cx4-library/lpc_chip_11cxx_lib/inc/uart_11xx.h **** 	__IO uint32_t RS485CTRL;		/*!< RS-485/EIA-485 Control. Contains controls to configure various aspe
  83:../lpc11cx4-library/lpc_chip_11cxx_lib/inc/uart_11xx.h **** 	__IO uint32_t RS485ADRMATCH;	/*!< RS-485/EIA-485 address match. Contains the address match value f
  84:../lpc11cx4-library/lpc_chip_11cxx_lib/inc/uart_11xx.h **** 	__IO uint32_t RS485DLY;			/*!< RS-485/EIA-485 direction control delay. */
  85:../lpc11cx4-library/lpc_chip_11cxx_lib/inc/uart_11xx.h **** 
  86:../lpc11cx4-library/lpc_chip_11cxx_lib/inc/uart_11xx.h **** 	union {
  87:../lpc11cx4-library/lpc_chip_11cxx_lib/inc/uart_11xx.h **** 		__IO uint32_t SYNCCTRL;		/*!< Synchronous mode control register. Only on USARTs. */
  88:../lpc11cx4-library/lpc_chip_11cxx_lib/inc/uart_11xx.h **** 		__I  uint32_t FIFOLVL;		/*!< FIFO Level register. Provides the current fill levels of the transmi
  89:../lpc11cx4-library/lpc_chip_11cxx_lib/inc/uart_11xx.h **** 	};
  90:../lpc11cx4-library/lpc_chip_11cxx_lib/inc/uart_11xx.h **** 
  91:../lpc11cx4-library/lpc_chip_11cxx_lib/inc/uart_11xx.h **** 	__IO uint32_t TER2;				/*!< Transmit Enable Register. Only on LPC177X_8X UART4 and LPC18XX/43XX US
  92:../lpc11cx4-library/lpc_chip_11cxx_lib/inc/uart_11xx.h **** } LPC_USART_T;
  93:../lpc11cx4-library/lpc_chip_11cxx_lib/inc/uart_11xx.h **** 
  94:../lpc11cx4-library/lpc_chip_11cxx_lib/inc/uart_11xx.h **** 
  95:../lpc11cx4-library/lpc_chip_11cxx_lib/inc/uart_11xx.h **** /**
  96:../lpc11cx4-library/lpc_chip_11cxx_lib/inc/uart_11xx.h ****  * @brief Macro defines for UART Receive Buffer register
  97:../lpc11cx4-library/lpc_chip_11cxx_lib/inc/uart_11xx.h ****  */
ARM GAS  /var/folders/9j/_txx49hn253_s3mnzkyxlj8m0000gp/T//ccgYRR5b.s 			page 12


  98:../lpc11cx4-library/lpc_chip_11cxx_lib/inc/uart_11xx.h **** #define UART_RBR_MASKBIT    (0xFF)		        /*!< UART Received Buffer mask bit (8 bits) */
  99:../lpc11cx4-library/lpc_chip_11cxx_lib/inc/uart_11xx.h **** 
 100:../lpc11cx4-library/lpc_chip_11cxx_lib/inc/uart_11xx.h **** /**
 101:../lpc11cx4-library/lpc_chip_11cxx_lib/inc/uart_11xx.h ****  * @brief Macro defines for UART Divisor Latch LSB register
 102:../lpc11cx4-library/lpc_chip_11cxx_lib/inc/uart_11xx.h ****  */
 103:../lpc11cx4-library/lpc_chip_11cxx_lib/inc/uart_11xx.h **** #define UART_LOAD_DLL(div)  ((div) & 0xFF)		/*!< Macro for loading LSB of divisor */
 104:../lpc11cx4-library/lpc_chip_11cxx_lib/inc/uart_11xx.h **** #define UART_DLL_MASKBIT    (0xFF)	            /*!< Divisor latch LSB bit mask */
 105:../lpc11cx4-library/lpc_chip_11cxx_lib/inc/uart_11xx.h **** 
 106:../lpc11cx4-library/lpc_chip_11cxx_lib/inc/uart_11xx.h **** /**
 107:../lpc11cx4-library/lpc_chip_11cxx_lib/inc/uart_11xx.h ****  * @brief Macro defines for UART Divisor Latch MSB register
 108:../lpc11cx4-library/lpc_chip_11cxx_lib/inc/uart_11xx.h ****  */
 109:../lpc11cx4-library/lpc_chip_11cxx_lib/inc/uart_11xx.h **** #define UART_LOAD_DLM(div)  (((div) >> 8) & 0xFF)	/*!< Macro for loading MSB of divisors */
 110:../lpc11cx4-library/lpc_chip_11cxx_lib/inc/uart_11xx.h **** #define UART_DLM_MASKBIT    (0xFF)		            /*!< Divisor latch MSB bit mask */
 111:../lpc11cx4-library/lpc_chip_11cxx_lib/inc/uart_11xx.h **** 
 112:../lpc11cx4-library/lpc_chip_11cxx_lib/inc/uart_11xx.h **** /**
 113:../lpc11cx4-library/lpc_chip_11cxx_lib/inc/uart_11xx.h ****  * @brief Macro defines for UART Interrupt Enable Register
 114:../lpc11cx4-library/lpc_chip_11cxx_lib/inc/uart_11xx.h ****  */
 115:../lpc11cx4-library/lpc_chip_11cxx_lib/inc/uart_11xx.h **** #define UART_IER_RBRINT      (1 << 0)	/*!< RBR Interrupt enable */
 116:../lpc11cx4-library/lpc_chip_11cxx_lib/inc/uart_11xx.h **** #define UART_IER_THREINT     (1 << 1)	/*!< THR Interrupt enable */
 117:../lpc11cx4-library/lpc_chip_11cxx_lib/inc/uart_11xx.h **** #define UART_IER_RLSINT      (1 << 2)	/*!< RX line status interrupt enable */
 118:../lpc11cx4-library/lpc_chip_11cxx_lib/inc/uart_11xx.h **** #define UART_IER_MSINT       (1 << 3)	/*!< Modem status interrupt enable - valid for 11xx, 17xx/40x
 119:../lpc11cx4-library/lpc_chip_11cxx_lib/inc/uart_11xx.h **** #define UART_IER_CTSINT      (1 << 7)	/*!< CTS signal transition interrupt enable - valid for 17xx/
 120:../lpc11cx4-library/lpc_chip_11cxx_lib/inc/uart_11xx.h **** #define UART_IER_ABEOINT     (1 << 8)	/*!< Enables the end of auto-baud interrupt */
 121:../lpc11cx4-library/lpc_chip_11cxx_lib/inc/uart_11xx.h **** #define UART_IER_ABTOINT     (1 << 9)	/*!< Enables the auto-baud time-out interrupt */
 122:../lpc11cx4-library/lpc_chip_11cxx_lib/inc/uart_11xx.h **** #define UART_IER_BITMASK     (0x307)	/*!< UART interrupt enable register bit mask  - valid for 13xx
 123:../lpc11cx4-library/lpc_chip_11cxx_lib/inc/uart_11xx.h **** #define UART1_IER_BITMASK    (0x30F)	/*!< UART1 interrupt enable register bit mask - valid for 11xx
 124:../lpc11cx4-library/lpc_chip_11cxx_lib/inc/uart_11xx.h **** #define UART2_IER_BITMASK    (0x38F)	/*!< UART2 interrupt enable register bit mask - valid for 17xx
 125:../lpc11cx4-library/lpc_chip_11cxx_lib/inc/uart_11xx.h **** 
 126:../lpc11cx4-library/lpc_chip_11cxx_lib/inc/uart_11xx.h **** /**
 127:../lpc11cx4-library/lpc_chip_11cxx_lib/inc/uart_11xx.h ****  * @brief Macro defines for UART Interrupt Identification Register
 128:../lpc11cx4-library/lpc_chip_11cxx_lib/inc/uart_11xx.h ****  */
 129:../lpc11cx4-library/lpc_chip_11cxx_lib/inc/uart_11xx.h **** #define UART_IIR_INTSTAT_PEND   (1 << 0)	/*!< Interrupt pending status - Active low */
 130:../lpc11cx4-library/lpc_chip_11cxx_lib/inc/uart_11xx.h **** #define UART_IIR_FIFO_EN        (3 << 6)	/*!< These bits are equivalent to FCR[0] */
 131:../lpc11cx4-library/lpc_chip_11cxx_lib/inc/uart_11xx.h **** #define UART_IIR_ABEO_INT       (1 << 8)	/*!< End of auto-baud interrupt */
 132:../lpc11cx4-library/lpc_chip_11cxx_lib/inc/uart_11xx.h **** #define UART_IIR_ABTO_INT       (1 << 9)	/*!< Auto-baud time-out interrupt */
 133:../lpc11cx4-library/lpc_chip_11cxx_lib/inc/uart_11xx.h **** #define UART_IIR_BITMASK        (0x3CF)		/*!< UART interrupt identification register bit mask */
 134:../lpc11cx4-library/lpc_chip_11cxx_lib/inc/uart_11xx.h **** 
 135:../lpc11cx4-library/lpc_chip_11cxx_lib/inc/uart_11xx.h **** /* Interrupt ID bit definitions */
 136:../lpc11cx4-library/lpc_chip_11cxx_lib/inc/uart_11xx.h **** #define UART_IIR_INTID_MASK     (7 << 1)	/*!< Interrupt identification: Interrupt ID mask */
 137:../lpc11cx4-library/lpc_chip_11cxx_lib/inc/uart_11xx.h **** #define UART_IIR_INTID_RLS      (3 << 1)	/*!< Interrupt identification: Receive line interrupt */
 138:../lpc11cx4-library/lpc_chip_11cxx_lib/inc/uart_11xx.h **** #define UART_IIR_INTID_RDA      (2 << 1)	/*!< Interrupt identification: Receive data available inte
 139:../lpc11cx4-library/lpc_chip_11cxx_lib/inc/uart_11xx.h **** #define UART_IIR_INTID_CTI      (6 << 1)	/*!< Interrupt identification: Character time-out indicato
 140:../lpc11cx4-library/lpc_chip_11cxx_lib/inc/uart_11xx.h **** #define UART_IIR_INTID_THRE     (1 << 1)	/*!< Interrupt identification: THRE interrupt */
 141:../lpc11cx4-library/lpc_chip_11cxx_lib/inc/uart_11xx.h **** #define UART_IIR_INTID_MODEM    (0 << 1)	/*!< Interrupt identification: Modem interrupt */
 142:../lpc11cx4-library/lpc_chip_11cxx_lib/inc/uart_11xx.h **** 
 143:../lpc11cx4-library/lpc_chip_11cxx_lib/inc/uart_11xx.h **** /**
 144:../lpc11cx4-library/lpc_chip_11cxx_lib/inc/uart_11xx.h ****  * @brief Macro defines for UART FIFO Control Register
 145:../lpc11cx4-library/lpc_chip_11cxx_lib/inc/uart_11xx.h ****  */
 146:../lpc11cx4-library/lpc_chip_11cxx_lib/inc/uart_11xx.h **** #define UART_FCR_FIFO_EN        (1 << 0)	/*!< UART FIFO enable */
 147:../lpc11cx4-library/lpc_chip_11cxx_lib/inc/uart_11xx.h **** #define UART_FCR_RX_RS          (1 << 1)	/*!< UART RX FIFO reset */
 148:../lpc11cx4-library/lpc_chip_11cxx_lib/inc/uart_11xx.h **** #define UART_FCR_TX_RS          (1 << 2)	/*!< UART TX FIFO reset */
 149:../lpc11cx4-library/lpc_chip_11cxx_lib/inc/uart_11xx.h **** #define UART_FCR_DMAMODE_SEL    (1 << 3)	/*!< UART DMA mode selection - valid for 17xx/40xx, 18xx/4
 150:../lpc11cx4-library/lpc_chip_11cxx_lib/inc/uart_11xx.h **** #define UART_FCR_BITMASK        (0xCF)		/*!< UART FIFO control bit mask */
 151:../lpc11cx4-library/lpc_chip_11cxx_lib/inc/uart_11xx.h **** 
 152:../lpc11cx4-library/lpc_chip_11cxx_lib/inc/uart_11xx.h **** #define UART_TX_FIFO_SIZE       (16)
 153:../lpc11cx4-library/lpc_chip_11cxx_lib/inc/uart_11xx.h **** 
 154:../lpc11cx4-library/lpc_chip_11cxx_lib/inc/uart_11xx.h **** /* FIFO trigger level bit definitions */
ARM GAS  /var/folders/9j/_txx49hn253_s3mnzkyxlj8m0000gp/T//ccgYRR5b.s 			page 13


 155:../lpc11cx4-library/lpc_chip_11cxx_lib/inc/uart_11xx.h **** #define UART_FCR_TRG_LEV0       (0)			/*!< UART FIFO trigger level 0: 1 character */
 156:../lpc11cx4-library/lpc_chip_11cxx_lib/inc/uart_11xx.h **** #define UART_FCR_TRG_LEV1       (1 << 6)	/*!< UART FIFO trigger level 1: 4 character */
 157:../lpc11cx4-library/lpc_chip_11cxx_lib/inc/uart_11xx.h **** #define UART_FCR_TRG_LEV2       (2 << 6)	/*!< UART FIFO trigger level 2: 8 character */
 158:../lpc11cx4-library/lpc_chip_11cxx_lib/inc/uart_11xx.h **** #define UART_FCR_TRG_LEV3       (3 << 6)	/*!< UART FIFO trigger level 3: 14 character */
 159:../lpc11cx4-library/lpc_chip_11cxx_lib/inc/uart_11xx.h **** 
 160:../lpc11cx4-library/lpc_chip_11cxx_lib/inc/uart_11xx.h **** /**
 161:../lpc11cx4-library/lpc_chip_11cxx_lib/inc/uart_11xx.h ****  * @brief Macro defines for UART Line Control Register
 162:../lpc11cx4-library/lpc_chip_11cxx_lib/inc/uart_11xx.h ****  */
 163:../lpc11cx4-library/lpc_chip_11cxx_lib/inc/uart_11xx.h **** /* UART word length select bit definitions */
 164:../lpc11cx4-library/lpc_chip_11cxx_lib/inc/uart_11xx.h **** #define UART_LCR_WLEN_MASK      (3 << 0)		/*!< UART word length select bit mask */
 165:../lpc11cx4-library/lpc_chip_11cxx_lib/inc/uart_11xx.h **** #define UART_LCR_WLEN5          (0 << 0)		/*!< UART word length select: 5 bit data mode */
 166:../lpc11cx4-library/lpc_chip_11cxx_lib/inc/uart_11xx.h **** #define UART_LCR_WLEN6          (1 << 0)		/*!< UART word length select: 6 bit data mode */
 167:../lpc11cx4-library/lpc_chip_11cxx_lib/inc/uart_11xx.h **** #define UART_LCR_WLEN7          (2 << 0)		/*!< UART word length select: 7 bit data mode */
 168:../lpc11cx4-library/lpc_chip_11cxx_lib/inc/uart_11xx.h **** #define UART_LCR_WLEN8          (3 << 0)		/*!< UART word length select: 8 bit data mode */
 169:../lpc11cx4-library/lpc_chip_11cxx_lib/inc/uart_11xx.h **** 
 170:../lpc11cx4-library/lpc_chip_11cxx_lib/inc/uart_11xx.h **** /* UART Stop bit select bit definitions */
 171:../lpc11cx4-library/lpc_chip_11cxx_lib/inc/uart_11xx.h **** #define UART_LCR_SBS_MASK       (1 << 2)		/*!< UART stop bit select: bit mask */
 172:../lpc11cx4-library/lpc_chip_11cxx_lib/inc/uart_11xx.h **** #define UART_LCR_SBS_1BIT       (0 << 2)		/*!< UART stop bit select: 1 stop bit */
 173:../lpc11cx4-library/lpc_chip_11cxx_lib/inc/uart_11xx.h **** #define UART_LCR_SBS_2BIT       (1 << 2)		/*!< UART stop bit select: 2 stop bits (in 5 bit data mod
 174:../lpc11cx4-library/lpc_chip_11cxx_lib/inc/uart_11xx.h **** 
 175:../lpc11cx4-library/lpc_chip_11cxx_lib/inc/uart_11xx.h **** /* UART Parity enable bit definitions */
 176:../lpc11cx4-library/lpc_chip_11cxx_lib/inc/uart_11xx.h **** #define UART_LCR_PARITY_EN      (1 << 3)		/*!< UART Parity Enable */
 177:../lpc11cx4-library/lpc_chip_11cxx_lib/inc/uart_11xx.h **** #define UART_LCR_PARITY_DIS     (0 << 3)		/*!< UART Parity Disable */
 178:../lpc11cx4-library/lpc_chip_11cxx_lib/inc/uart_11xx.h **** #define UART_LCR_PARITY_ODD     (0 << 4)		/*!< UART Parity select: Odd parity */
 179:../lpc11cx4-library/lpc_chip_11cxx_lib/inc/uart_11xx.h **** #define UART_LCR_PARITY_EVEN    (1 << 4)		/*!< UART Parity select: Even parity */
 180:../lpc11cx4-library/lpc_chip_11cxx_lib/inc/uart_11xx.h **** #define UART_LCR_PARITY_F_1     (2 << 4)		/*!< UART Parity select: Forced 1 stick parity */
 181:../lpc11cx4-library/lpc_chip_11cxx_lib/inc/uart_11xx.h **** #define UART_LCR_PARITY_F_0     (3 << 4)		/*!< UART Parity select: Forced 0 stick parity */
 182:../lpc11cx4-library/lpc_chip_11cxx_lib/inc/uart_11xx.h **** #define UART_LCR_BREAK_EN       (1 << 6)		/*!< UART Break transmission enable */
 183:../lpc11cx4-library/lpc_chip_11cxx_lib/inc/uart_11xx.h **** #define UART_LCR_DLAB_EN        (1 << 7)		/*!< UART Divisor Latches Access bit enable */
 184:../lpc11cx4-library/lpc_chip_11cxx_lib/inc/uart_11xx.h **** #define UART_LCR_BITMASK        (0xFF)			/*!< UART line control bit mask */
 185:../lpc11cx4-library/lpc_chip_11cxx_lib/inc/uart_11xx.h **** 
 186:../lpc11cx4-library/lpc_chip_11cxx_lib/inc/uart_11xx.h **** /**
 187:../lpc11cx4-library/lpc_chip_11cxx_lib/inc/uart_11xx.h ****  * @brief Macro defines for UART Modem Control Register
 188:../lpc11cx4-library/lpc_chip_11cxx_lib/inc/uart_11xx.h ****  */
 189:../lpc11cx4-library/lpc_chip_11cxx_lib/inc/uart_11xx.h **** #define UART_MCR_DTR_CTRL       (1 << 0)		/*!< Source for modem output pin DTR */
 190:../lpc11cx4-library/lpc_chip_11cxx_lib/inc/uart_11xx.h **** #define UART_MCR_RTS_CTRL       (1 << 1)		/*!< Source for modem output pin RTS */
 191:../lpc11cx4-library/lpc_chip_11cxx_lib/inc/uart_11xx.h **** #define UART_MCR_LOOPB_EN       (1 << 4)		/*!< Loop back mode select */
 192:../lpc11cx4-library/lpc_chip_11cxx_lib/inc/uart_11xx.h **** #define UART_MCR_AUTO_RTS_EN    (1 << 6)		/*!< Enable Auto RTS flow-control */
 193:../lpc11cx4-library/lpc_chip_11cxx_lib/inc/uart_11xx.h **** #define UART_MCR_AUTO_CTS_EN    (1 << 7)		/*!< Enable Auto CTS flow-control */
 194:../lpc11cx4-library/lpc_chip_11cxx_lib/inc/uart_11xx.h **** #define UART_MCR_BITMASK        (0xD3)			/*!< UART bit mask value */
 195:../lpc11cx4-library/lpc_chip_11cxx_lib/inc/uart_11xx.h **** 
 196:../lpc11cx4-library/lpc_chip_11cxx_lib/inc/uart_11xx.h **** /**
 197:../lpc11cx4-library/lpc_chip_11cxx_lib/inc/uart_11xx.h ****  * @brief Macro defines for UART Line Status Register
 198:../lpc11cx4-library/lpc_chip_11cxx_lib/inc/uart_11xx.h ****  */
 199:../lpc11cx4-library/lpc_chip_11cxx_lib/inc/uart_11xx.h **** #define UART_LSR_RDR        (1 << 0)	/*!< Line status: Receive data ready */
 200:../lpc11cx4-library/lpc_chip_11cxx_lib/inc/uart_11xx.h **** #define UART_LSR_OE         (1 << 1)	/*!< Line status: Overrun error */
 201:../lpc11cx4-library/lpc_chip_11cxx_lib/inc/uart_11xx.h **** #define UART_LSR_PE         (1 << 2)	/*!< Line status: Parity error */
 202:../lpc11cx4-library/lpc_chip_11cxx_lib/inc/uart_11xx.h **** #define UART_LSR_FE         (1 << 3)	/*!< Line status: Framing error */
 203:../lpc11cx4-library/lpc_chip_11cxx_lib/inc/uart_11xx.h **** #define UART_LSR_BI         (1 << 4)	/*!< Line status: Break interrupt */
 204:../lpc11cx4-library/lpc_chip_11cxx_lib/inc/uart_11xx.h **** #define UART_LSR_THRE       (1 << 5)	/*!< Line status: Transmit holding register empty */
 205:../lpc11cx4-library/lpc_chip_11cxx_lib/inc/uart_11xx.h **** #define UART_LSR_TEMT       (1 << 6)	/*!< Line status: Transmitter empty */
 206:../lpc11cx4-library/lpc_chip_11cxx_lib/inc/uart_11xx.h **** #define UART_LSR_RXFE       (1 << 7)	/*!< Line status: Error in RX FIFO */
 207:../lpc11cx4-library/lpc_chip_11cxx_lib/inc/uart_11xx.h **** #define UART_LSR_TXFE       (1 << 8)	/*!< Line status: Error in RX FIFO */
 208:../lpc11cx4-library/lpc_chip_11cxx_lib/inc/uart_11xx.h **** #define UART_LSR_BITMASK    (0xFF)		/*!< UART Line status bit mask */
 209:../lpc11cx4-library/lpc_chip_11cxx_lib/inc/uart_11xx.h **** #define UART1_LSR_BITMASK   (0x1FF)		/*!< UART1 Line status bit mask - valid for 11xx, 18xx/43xx UA
 210:../lpc11cx4-library/lpc_chip_11cxx_lib/inc/uart_11xx.h **** 
 211:../lpc11cx4-library/lpc_chip_11cxx_lib/inc/uart_11xx.h **** /**
ARM GAS  /var/folders/9j/_txx49hn253_s3mnzkyxlj8m0000gp/T//ccgYRR5b.s 			page 14


 212:../lpc11cx4-library/lpc_chip_11cxx_lib/inc/uart_11xx.h ****  * @brief Macro defines for UART Modem Status Register
 213:../lpc11cx4-library/lpc_chip_11cxx_lib/inc/uart_11xx.h ****  */
 214:../lpc11cx4-library/lpc_chip_11cxx_lib/inc/uart_11xx.h **** #define UART_MSR_DELTA_CTS      (1 << 0)	/*!< Modem status: State change of input CTS */
 215:../lpc11cx4-library/lpc_chip_11cxx_lib/inc/uart_11xx.h **** #define UART_MSR_DELTA_DSR      (1 << 1)	/*!< Modem status: State change of input DSR */
 216:../lpc11cx4-library/lpc_chip_11cxx_lib/inc/uart_11xx.h **** #define UART_MSR_LO2HI_RI       (1 << 2)	/*!< Modem status: Low to high transition of input RI */
 217:../lpc11cx4-library/lpc_chip_11cxx_lib/inc/uart_11xx.h **** #define UART_MSR_DELTA_DCD      (1 << 3)	/*!< Modem status: State change of input DCD */
 218:../lpc11cx4-library/lpc_chip_11cxx_lib/inc/uart_11xx.h **** #define UART_MSR_CTS            (1 << 4)	/*!< Modem status: Clear To Send State */
 219:../lpc11cx4-library/lpc_chip_11cxx_lib/inc/uart_11xx.h **** #define UART_MSR_DSR            (1 << 5)	/*!< Modem status: Data Set Ready State */
 220:../lpc11cx4-library/lpc_chip_11cxx_lib/inc/uart_11xx.h **** #define UART_MSR_RI             (1 << 6)	/*!< Modem status: Ring Indicator State */
 221:../lpc11cx4-library/lpc_chip_11cxx_lib/inc/uart_11xx.h **** #define UART_MSR_DCD            (1 << 7)	/*!< Modem status: Data Carrier Detect State */
 222:../lpc11cx4-library/lpc_chip_11cxx_lib/inc/uart_11xx.h **** #define UART_MSR_BITMASK        (0xFF)		/*!< Modem status: MSR register bit-mask value */
 223:../lpc11cx4-library/lpc_chip_11cxx_lib/inc/uart_11xx.h **** 
 224:../lpc11cx4-library/lpc_chip_11cxx_lib/inc/uart_11xx.h **** /**
 225:../lpc11cx4-library/lpc_chip_11cxx_lib/inc/uart_11xx.h ****  * @brief Macro defines for UART Auto baudrate control register
 226:../lpc11cx4-library/lpc_chip_11cxx_lib/inc/uart_11xx.h ****  */
 227:../lpc11cx4-library/lpc_chip_11cxx_lib/inc/uart_11xx.h **** #define UART_ACR_START              (1 << 0)	/*!< UART Auto-baud start */
 228:../lpc11cx4-library/lpc_chip_11cxx_lib/inc/uart_11xx.h **** #define UART_ACR_MODE               (1 << 1)	/*!< UART Auto baudrate Mode 1 */
 229:../lpc11cx4-library/lpc_chip_11cxx_lib/inc/uart_11xx.h **** #define UART_ACR_AUTO_RESTART       (1 << 2)	/*!< UART Auto baudrate restart */
 230:../lpc11cx4-library/lpc_chip_11cxx_lib/inc/uart_11xx.h **** #define UART_ACR_ABEOINT_CLR        (1 << 8)	/*!< UART End of auto-baud interrupt clear */
 231:../lpc11cx4-library/lpc_chip_11cxx_lib/inc/uart_11xx.h **** #define UART_ACR_ABTOINT_CLR        (1 << 9)	/*!< UART Auto-baud time-out interrupt clear */
 232:../lpc11cx4-library/lpc_chip_11cxx_lib/inc/uart_11xx.h **** #define UART_ACR_BITMASK            (0x307)		/*!< UART Auto Baudrate register bit mask */
 233:../lpc11cx4-library/lpc_chip_11cxx_lib/inc/uart_11xx.h **** 
 234:../lpc11cx4-library/lpc_chip_11cxx_lib/inc/uart_11xx.h **** /**
 235:../lpc11cx4-library/lpc_chip_11cxx_lib/inc/uart_11xx.h ****  * @brief Macro defines for UART RS485 Control register
 236:../lpc11cx4-library/lpc_chip_11cxx_lib/inc/uart_11xx.h ****  */
 237:../lpc11cx4-library/lpc_chip_11cxx_lib/inc/uart_11xx.h **** #define UART_RS485CTRL_NMM_EN       (1 << 0)	/*!< RS-485/EIA-485 Normal Multi-drop Mode (NMM) is di
 238:../lpc11cx4-library/lpc_chip_11cxx_lib/inc/uart_11xx.h **** #define UART_RS485CTRL_RX_DIS       (1 << 1)	/*!< The receiver is disabled */
 239:../lpc11cx4-library/lpc_chip_11cxx_lib/inc/uart_11xx.h **** #define UART_RS485CTRL_AADEN        (1 << 2)	/*!< Auto Address Detect (AAD) is enabled */
 240:../lpc11cx4-library/lpc_chip_11cxx_lib/inc/uart_11xx.h **** #define UART_RS485CTRL_SEL_DTR      (1 << 3)	/*!< If direction control is enabled (bit DCTRL = 1), 
 241:../lpc11cx4-library/lpc_chip_11cxx_lib/inc/uart_11xx.h **** 												        used for direction control */
 242:../lpc11cx4-library/lpc_chip_11cxx_lib/inc/uart_11xx.h **** #define UART_RS485CTRL_DCTRL_EN     (1 << 4)	/*!< Enable Auto Direction Control */
 243:../lpc11cx4-library/lpc_chip_11cxx_lib/inc/uart_11xx.h **** #define UART_RS485CTRL_OINV_1       (1 << 5)	/*!< This bit reverses the polarity of the direction
 244:../lpc11cx4-library/lpc_chip_11cxx_lib/inc/uart_11xx.h **** 												       control signal on the RTS (or DTR) pin. The direction control pin
 245:../lpc11cx4-library/lpc_chip_11cxx_lib/inc/uart_11xx.h **** 												       will be driven to logic "1" when the transmitter has data to be sent */
 246:../lpc11cx4-library/lpc_chip_11cxx_lib/inc/uart_11xx.h **** #define UART_RS485CTRL_BITMASK      (0x3F)		/*!< RS485 control bit-mask value */
 247:../lpc11cx4-library/lpc_chip_11cxx_lib/inc/uart_11xx.h **** 
 248:../lpc11cx4-library/lpc_chip_11cxx_lib/inc/uart_11xx.h **** /**
 249:../lpc11cx4-library/lpc_chip_11cxx_lib/inc/uart_11xx.h ****  * @brief Macro defines for UART IrDA Control Register - valid for 11xx, 17xx/40xx UART0/2/3, 18xx/
 250:../lpc11cx4-library/lpc_chip_11cxx_lib/inc/uart_11xx.h ****  */
 251:../lpc11cx4-library/lpc_chip_11cxx_lib/inc/uart_11xx.h **** #define UART_ICR_IRDAEN         (1 << 0)			/*!< IrDA mode enable */
 252:../lpc11cx4-library/lpc_chip_11cxx_lib/inc/uart_11xx.h **** #define UART_ICR_IRDAINV        (1 << 1)			/*!< IrDA serial input inverted */
 253:../lpc11cx4-library/lpc_chip_11cxx_lib/inc/uart_11xx.h **** #define UART_ICR_FIXPULSE_EN    (1 << 2)			/*!< IrDA fixed pulse width mode */
 254:../lpc11cx4-library/lpc_chip_11cxx_lib/inc/uart_11xx.h **** #define UART_ICR_PULSEDIV(n)    ((n & 0x07) << 3)	/*!< PulseDiv - Configures the pulse when FixPuls
 255:../lpc11cx4-library/lpc_chip_11cxx_lib/inc/uart_11xx.h **** #define UART_ICR_BITMASK        (0x3F)				/*!< UART IRDA bit mask */
 256:../lpc11cx4-library/lpc_chip_11cxx_lib/inc/uart_11xx.h **** 
 257:../lpc11cx4-library/lpc_chip_11cxx_lib/inc/uart_11xx.h **** /**
 258:../lpc11cx4-library/lpc_chip_11cxx_lib/inc/uart_11xx.h ****  * @brief Macro defines for UART half duplex register - ????
 259:../lpc11cx4-library/lpc_chip_11cxx_lib/inc/uart_11xx.h ****  */
 260:../lpc11cx4-library/lpc_chip_11cxx_lib/inc/uart_11xx.h **** #define UART_HDEN_HDEN          ((1 << 0))			/*!< enable half-duplex mode*/
 261:../lpc11cx4-library/lpc_chip_11cxx_lib/inc/uart_11xx.h **** 
 262:../lpc11cx4-library/lpc_chip_11cxx_lib/inc/uart_11xx.h **** /**
 263:../lpc11cx4-library/lpc_chip_11cxx_lib/inc/uart_11xx.h ****  * @brief Macro defines for UART Smart card interface Control Register - valid for 11xx, 18xx/43xx 
 264:../lpc11cx4-library/lpc_chip_11cxx_lib/inc/uart_11xx.h ****  */
 265:../lpc11cx4-library/lpc_chip_11cxx_lib/inc/uart_11xx.h **** #define UART_SCICTRL_SCIEN        (1 << 0)			/*!< enable asynchronous half-duplex smart card interf
 266:../lpc11cx4-library/lpc_chip_11cxx_lib/inc/uart_11xx.h **** #define UART_SCICTRL_NACKDIS      (1 << 1)			/*!< NACK response is inhibited*/
 267:../lpc11cx4-library/lpc_chip_11cxx_lib/inc/uart_11xx.h **** #define UART_SCICTRL_PROTSEL_T1   (1 << 2)			/*!< ISO7816-3 protocol T1 is selected*/
 268:../lpc11cx4-library/lpc_chip_11cxx_lib/inc/uart_11xx.h **** #define UART_SCICTRL_TXRETRY(n)   ((n & 0x07) << 5)	/*!< number of retransmission*/
ARM GAS  /var/folders/9j/_txx49hn253_s3mnzkyxlj8m0000gp/T//ccgYRR5b.s 			page 15


 269:../lpc11cx4-library/lpc_chip_11cxx_lib/inc/uart_11xx.h **** #define UART_SCICTRL_GUARDTIME(n) ((n & 0xFF) << 8)	/*!< Extra guard time*/
 270:../lpc11cx4-library/lpc_chip_11cxx_lib/inc/uart_11xx.h **** 
 271:../lpc11cx4-library/lpc_chip_11cxx_lib/inc/uart_11xx.h **** /**
 272:../lpc11cx4-library/lpc_chip_11cxx_lib/inc/uart_11xx.h ****  * @brief Macro defines for UART Fractional Divider Register
 273:../lpc11cx4-library/lpc_chip_11cxx_lib/inc/uart_11xx.h ****  */
 274:../lpc11cx4-library/lpc_chip_11cxx_lib/inc/uart_11xx.h **** #define UART_FDR_DIVADDVAL(n)   (n & 0x0F)			/*!< Baud-rate generation pre-scaler divisor */
 275:../lpc11cx4-library/lpc_chip_11cxx_lib/inc/uart_11xx.h **** #define UART_FDR_MULVAL(n)      ((n << 4) & 0xF0)	/*!< Baud-rate pre-scaler multiplier value */
 276:../lpc11cx4-library/lpc_chip_11cxx_lib/inc/uart_11xx.h **** #define UART_FDR_BITMASK        (0xFF)				/*!< UART Fractional Divider register bit mask */
 277:../lpc11cx4-library/lpc_chip_11cxx_lib/inc/uart_11xx.h **** 
 278:../lpc11cx4-library/lpc_chip_11cxx_lib/inc/uart_11xx.h **** /**
 279:../lpc11cx4-library/lpc_chip_11cxx_lib/inc/uart_11xx.h ****  * @brief Macro defines for UART Tx Enable Register
 280:../lpc11cx4-library/lpc_chip_11cxx_lib/inc/uart_11xx.h ****  */
 281:../lpc11cx4-library/lpc_chip_11cxx_lib/inc/uart_11xx.h **** #define UART_TER1_TXEN      (1 << 7)		/*!< Transmit enable bit  - valid for 11xx, 13xx, 17xx/40xx o
 282:../lpc11cx4-library/lpc_chip_11cxx_lib/inc/uart_11xx.h **** #define UART_TER2_TXEN      (1 << 0)		/*!< Transmit enable bit  - valid for 18xx/43xx only */
 283:../lpc11cx4-library/lpc_chip_11cxx_lib/inc/uart_11xx.h **** 
 284:../lpc11cx4-library/lpc_chip_11cxx_lib/inc/uart_11xx.h **** /**
 285:../lpc11cx4-library/lpc_chip_11cxx_lib/inc/uart_11xx.h ****  * @brief Macro defines for UART Synchronous Control Register - 11xx, 18xx/43xx UART0/2/3 only 
 286:../lpc11cx4-library/lpc_chip_11cxx_lib/inc/uart_11xx.h ****  */
 287:../lpc11cx4-library/lpc_chip_11cxx_lib/inc/uart_11xx.h **** #define UART_SYNCCTRL_SYNC             (1 << 0)			/*!< enable synchronous mode*/
 288:../lpc11cx4-library/lpc_chip_11cxx_lib/inc/uart_11xx.h **** #define UART_SYNCCTRL_CSRC_MASTER      (1 << 1)  		/*!< synchronous master mode*/
 289:../lpc11cx4-library/lpc_chip_11cxx_lib/inc/uart_11xx.h **** #define UART_SYNCCTRL_FES              (1 << 2)			/*!< sample on falling edge*/
 290:../lpc11cx4-library/lpc_chip_11cxx_lib/inc/uart_11xx.h **** #define UART_SYNCCTRL_TSBYPASS         (1 << 3)			/*!< to be defined*/
 291:../lpc11cx4-library/lpc_chip_11cxx_lib/inc/uart_11xx.h **** #define UART_SYNCCTRL_CSCEN            (1 << 4)			/*!< Continuous running clock enable (master mode
 292:../lpc11cx4-library/lpc_chip_11cxx_lib/inc/uart_11xx.h **** #define UART_SYNCCTRL_STARTSTOPDISABLE (1 << 5)	        /*!< Do not send start/stop bit*/
 293:../lpc11cx4-library/lpc_chip_11cxx_lib/inc/uart_11xx.h **** #define UART_SYNCCTRL_CCCLR            (1 << 6)			/*!< stop continuous clock*/
 294:../lpc11cx4-library/lpc_chip_11cxx_lib/inc/uart_11xx.h **** 
 295:../lpc11cx4-library/lpc_chip_11cxx_lib/inc/uart_11xx.h **** /**
 296:../lpc11cx4-library/lpc_chip_11cxx_lib/inc/uart_11xx.h ****  * @brief	Enable transmission on UART TxD pin
 297:../lpc11cx4-library/lpc_chip_11cxx_lib/inc/uart_11xx.h ****  * @param	pUART	: Pointer to selected pUART peripheral
 298:../lpc11cx4-library/lpc_chip_11cxx_lib/inc/uart_11xx.h ****  * @return Nothing
 299:../lpc11cx4-library/lpc_chip_11cxx_lib/inc/uart_11xx.h ****  */
 300:../lpc11cx4-library/lpc_chip_11cxx_lib/inc/uart_11xx.h **** STATIC INLINE void Chip_UART_TXEnable(LPC_USART_T *pUART)
 301:../lpc11cx4-library/lpc_chip_11cxx_lib/inc/uart_11xx.h **** {
 302:../lpc11cx4-library/lpc_chip_11cxx_lib/inc/uart_11xx.h **** 	pUART->TER1 = UART_TER1_TXEN;
 303:../lpc11cx4-library/lpc_chip_11cxx_lib/inc/uart_11xx.h **** }
 304:../lpc11cx4-library/lpc_chip_11cxx_lib/inc/uart_11xx.h **** 
 305:../lpc11cx4-library/lpc_chip_11cxx_lib/inc/uart_11xx.h **** /**
 306:../lpc11cx4-library/lpc_chip_11cxx_lib/inc/uart_11xx.h ****  * @brief	Disable transmission on UART TxD pin
 307:../lpc11cx4-library/lpc_chip_11cxx_lib/inc/uart_11xx.h ****  * @param	pUART	: Pointer to selected pUART peripheral
 308:../lpc11cx4-library/lpc_chip_11cxx_lib/inc/uart_11xx.h ****  * @return Nothing
 309:../lpc11cx4-library/lpc_chip_11cxx_lib/inc/uart_11xx.h ****  */
 310:../lpc11cx4-library/lpc_chip_11cxx_lib/inc/uart_11xx.h **** STATIC INLINE void Chip_UART_TXDisable(LPC_USART_T *pUART)
 311:../lpc11cx4-library/lpc_chip_11cxx_lib/inc/uart_11xx.h **** {
 312:../lpc11cx4-library/lpc_chip_11cxx_lib/inc/uart_11xx.h **** 	pUART->TER1 = 0;
 313:../lpc11cx4-library/lpc_chip_11cxx_lib/inc/uart_11xx.h **** }
 314:../lpc11cx4-library/lpc_chip_11cxx_lib/inc/uart_11xx.h **** 
 315:../lpc11cx4-library/lpc_chip_11cxx_lib/inc/uart_11xx.h **** /**
 316:../lpc11cx4-library/lpc_chip_11cxx_lib/inc/uart_11xx.h ****  * @brief	Transmit a single data byte through the UART peripheral
 317:../lpc11cx4-library/lpc_chip_11cxx_lib/inc/uart_11xx.h ****  * @param	pUART	: Pointer to selected UART peripheral
 318:../lpc11cx4-library/lpc_chip_11cxx_lib/inc/uart_11xx.h ****  * @param	data	: Byte to transmit
 319:../lpc11cx4-library/lpc_chip_11cxx_lib/inc/uart_11xx.h ****  * @return	Nothing
 320:../lpc11cx4-library/lpc_chip_11cxx_lib/inc/uart_11xx.h ****  * @note	This function attempts to place a byte into the UART transmit
 321:../lpc11cx4-library/lpc_chip_11cxx_lib/inc/uart_11xx.h ****  *			FIFO or transmit hold register regard regardless of UART state
 322:../lpc11cx4-library/lpc_chip_11cxx_lib/inc/uart_11xx.h ****  */
 323:../lpc11cx4-library/lpc_chip_11cxx_lib/inc/uart_11xx.h **** STATIC INLINE void Chip_UART_SendByte(LPC_USART_T *pUART, uint8_t data)
 324:../lpc11cx4-library/lpc_chip_11cxx_lib/inc/uart_11xx.h **** {
 325:../lpc11cx4-library/lpc_chip_11cxx_lib/inc/uart_11xx.h **** 	pUART->THR = (uint32_t) data;
ARM GAS  /var/folders/9j/_txx49hn253_s3mnzkyxlj8m0000gp/T//ccgYRR5b.s 			page 16


 326:../lpc11cx4-library/lpc_chip_11cxx_lib/inc/uart_11xx.h **** }
 327:../lpc11cx4-library/lpc_chip_11cxx_lib/inc/uart_11xx.h **** 
 328:../lpc11cx4-library/lpc_chip_11cxx_lib/inc/uart_11xx.h **** /**
 329:../lpc11cx4-library/lpc_chip_11cxx_lib/inc/uart_11xx.h ****  * @brief	Read a single byte data from the UART peripheral
 330:../lpc11cx4-library/lpc_chip_11cxx_lib/inc/uart_11xx.h ****  * @param	pUART	: Pointer to selected UART peripheral
 331:../lpc11cx4-library/lpc_chip_11cxx_lib/inc/uart_11xx.h ****  * @return	A single byte of data read
 332:../lpc11cx4-library/lpc_chip_11cxx_lib/inc/uart_11xx.h ****  * @note	This function reads a byte from the UART receive FIFO or
 333:../lpc11cx4-library/lpc_chip_11cxx_lib/inc/uart_11xx.h ****  *			receive hold register regard regardless of UART state. The
 334:../lpc11cx4-library/lpc_chip_11cxx_lib/inc/uart_11xx.h ****  *			FIFO status should be read first prior to using this function
 335:../lpc11cx4-library/lpc_chip_11cxx_lib/inc/uart_11xx.h ****  */
 336:../lpc11cx4-library/lpc_chip_11cxx_lib/inc/uart_11xx.h **** STATIC INLINE uint8_t Chip_UART_ReadByte(LPC_USART_T *pUART)
 337:../lpc11cx4-library/lpc_chip_11cxx_lib/inc/uart_11xx.h **** {
 338:../lpc11cx4-library/lpc_chip_11cxx_lib/inc/uart_11xx.h **** 	return (uint8_t) (pUART->RBR & UART_RBR_MASKBIT);
 339:../lpc11cx4-library/lpc_chip_11cxx_lib/inc/uart_11xx.h **** }
 340:../lpc11cx4-library/lpc_chip_11cxx_lib/inc/uart_11xx.h **** 
 341:../lpc11cx4-library/lpc_chip_11cxx_lib/inc/uart_11xx.h **** /**
 342:../lpc11cx4-library/lpc_chip_11cxx_lib/inc/uart_11xx.h ****  * @brief	Enable UART interrupts
 343:../lpc11cx4-library/lpc_chip_11cxx_lib/inc/uart_11xx.h ****  * @param	pUART	: Pointer to selected UART peripheral
 344:../lpc11cx4-library/lpc_chip_11cxx_lib/inc/uart_11xx.h ****  * @param	intMask	: OR'ed Interrupts to enable in the Interrupt Enable Register (IER)
 345:../lpc11cx4-library/lpc_chip_11cxx_lib/inc/uart_11xx.h ****  * @return	Nothing
 346:../lpc11cx4-library/lpc_chip_11cxx_lib/inc/uart_11xx.h ****  * @note	Use an OR'ed value of UART_IER_* definitions with this function
 347:../lpc11cx4-library/lpc_chip_11cxx_lib/inc/uart_11xx.h ****  *			to enable specific UART interrupts. The Divisor Latch Access Bit
 348:../lpc11cx4-library/lpc_chip_11cxx_lib/inc/uart_11xx.h ****  *			(DLAB) in LCR must be cleared in order to access the IER register.
 349:../lpc11cx4-library/lpc_chip_11cxx_lib/inc/uart_11xx.h ****  *			This function doesn't alter the DLAB state
 350:../lpc11cx4-library/lpc_chip_11cxx_lib/inc/uart_11xx.h ****  */
 351:../lpc11cx4-library/lpc_chip_11cxx_lib/inc/uart_11xx.h **** STATIC INLINE void Chip_UART_IntEnable(LPC_USART_T *pUART, uint32_t intMask)
 352:../lpc11cx4-library/lpc_chip_11cxx_lib/inc/uart_11xx.h **** {
 353:../lpc11cx4-library/lpc_chip_11cxx_lib/inc/uart_11xx.h **** 	pUART->IER |= intMask;
 354:../lpc11cx4-library/lpc_chip_11cxx_lib/inc/uart_11xx.h **** }
 355:../lpc11cx4-library/lpc_chip_11cxx_lib/inc/uart_11xx.h **** 
 356:../lpc11cx4-library/lpc_chip_11cxx_lib/inc/uart_11xx.h **** /**
 357:../lpc11cx4-library/lpc_chip_11cxx_lib/inc/uart_11xx.h ****  * @brief	Disable UART interrupts
 358:../lpc11cx4-library/lpc_chip_11cxx_lib/inc/uart_11xx.h ****  * @param	pUART	: Pointer to selected UART peripheral
 359:../lpc11cx4-library/lpc_chip_11cxx_lib/inc/uart_11xx.h ****  * @param	intMask	: OR'ed Interrupts to disable in the Interrupt Enable Register (IER)
 360:../lpc11cx4-library/lpc_chip_11cxx_lib/inc/uart_11xx.h ****  * @return	Nothing
 361:../lpc11cx4-library/lpc_chip_11cxx_lib/inc/uart_11xx.h ****  * @note	Use an OR'ed value of UART_IER_* definitions with this function
 362:../lpc11cx4-library/lpc_chip_11cxx_lib/inc/uart_11xx.h ****  *			to disable specific UART interrupts. The Divisor Latch Access Bit
 363:../lpc11cx4-library/lpc_chip_11cxx_lib/inc/uart_11xx.h ****  *			(DLAB) in LCR must be cleared in order to access the IER register.
 364:../lpc11cx4-library/lpc_chip_11cxx_lib/inc/uart_11xx.h ****  *			This function doesn't alter the DLAB state
 365:../lpc11cx4-library/lpc_chip_11cxx_lib/inc/uart_11xx.h ****  */
 366:../lpc11cx4-library/lpc_chip_11cxx_lib/inc/uart_11xx.h **** STATIC INLINE void Chip_UART_IntDisable(LPC_USART_T *pUART, uint32_t intMask)
 367:../lpc11cx4-library/lpc_chip_11cxx_lib/inc/uart_11xx.h **** {
 368:../lpc11cx4-library/lpc_chip_11cxx_lib/inc/uart_11xx.h **** 	pUART->IER &= ~intMask;
 369:../lpc11cx4-library/lpc_chip_11cxx_lib/inc/uart_11xx.h **** }
 370:../lpc11cx4-library/lpc_chip_11cxx_lib/inc/uart_11xx.h **** 
 371:../lpc11cx4-library/lpc_chip_11cxx_lib/inc/uart_11xx.h **** /**
 372:../lpc11cx4-library/lpc_chip_11cxx_lib/inc/uart_11xx.h ****  * @brief	Returns UART interrupts that are enabled
 373:../lpc11cx4-library/lpc_chip_11cxx_lib/inc/uart_11xx.h ****  * @param	pUART	: Pointer to selected UART peripheral
 374:../lpc11cx4-library/lpc_chip_11cxx_lib/inc/uart_11xx.h ****  * @return	Returns the enabled UART interrupts
 375:../lpc11cx4-library/lpc_chip_11cxx_lib/inc/uart_11xx.h ****  * @note	Use an OR'ed value of UART_IER_* definitions with this function
 376:../lpc11cx4-library/lpc_chip_11cxx_lib/inc/uart_11xx.h ****  *			to determine which interrupts are enabled. You can check
 377:../lpc11cx4-library/lpc_chip_11cxx_lib/inc/uart_11xx.h ****  *			for multiple enabled bits if needed.
 378:../lpc11cx4-library/lpc_chip_11cxx_lib/inc/uart_11xx.h ****  */
 379:../lpc11cx4-library/lpc_chip_11cxx_lib/inc/uart_11xx.h **** STATIC INLINE uint32_t Chip_UART_GetIntsEnabled(LPC_USART_T *pUART)
 380:../lpc11cx4-library/lpc_chip_11cxx_lib/inc/uart_11xx.h **** {
 381:../lpc11cx4-library/lpc_chip_11cxx_lib/inc/uart_11xx.h **** 	return pUART->IER;
 382:../lpc11cx4-library/lpc_chip_11cxx_lib/inc/uart_11xx.h **** }
ARM GAS  /var/folders/9j/_txx49hn253_s3mnzkyxlj8m0000gp/T//ccgYRR5b.s 			page 17


 383:../lpc11cx4-library/lpc_chip_11cxx_lib/inc/uart_11xx.h **** 
 384:../lpc11cx4-library/lpc_chip_11cxx_lib/inc/uart_11xx.h **** /**
 385:../lpc11cx4-library/lpc_chip_11cxx_lib/inc/uart_11xx.h ****  * @brief	Read the Interrupt Identification Register (IIR)
 386:../lpc11cx4-library/lpc_chip_11cxx_lib/inc/uart_11xx.h ****  * @param	pUART	: Pointer to selected UART peripheral
 387:../lpc11cx4-library/lpc_chip_11cxx_lib/inc/uart_11xx.h ****  * @return	Current pending interrupt status per the IIR register
 388:../lpc11cx4-library/lpc_chip_11cxx_lib/inc/uart_11xx.h ****  */
 389:../lpc11cx4-library/lpc_chip_11cxx_lib/inc/uart_11xx.h **** STATIC INLINE uint32_t Chip_UART_ReadIntIDReg(LPC_USART_T *pUART)
 390:../lpc11cx4-library/lpc_chip_11cxx_lib/inc/uart_11xx.h **** {
 391:../lpc11cx4-library/lpc_chip_11cxx_lib/inc/uart_11xx.h **** 	return pUART->IIR;
 392:../lpc11cx4-library/lpc_chip_11cxx_lib/inc/uart_11xx.h **** }
 393:../lpc11cx4-library/lpc_chip_11cxx_lib/inc/uart_11xx.h **** 
 394:../lpc11cx4-library/lpc_chip_11cxx_lib/inc/uart_11xx.h **** /**
 395:../lpc11cx4-library/lpc_chip_11cxx_lib/inc/uart_11xx.h ****  * @brief	Setup the UART FIFOs
 396:../lpc11cx4-library/lpc_chip_11cxx_lib/inc/uart_11xx.h ****  * @param	pUART	: Pointer to selected UART peripheral
 397:../lpc11cx4-library/lpc_chip_11cxx_lib/inc/uart_11xx.h ****  * @param	fcr		: FIFO control register setup OR'ed flags
 398:../lpc11cx4-library/lpc_chip_11cxx_lib/inc/uart_11xx.h ****  * @return	Nothing
 399:../lpc11cx4-library/lpc_chip_11cxx_lib/inc/uart_11xx.h ****  * @note	Use OR'ed value of UART_FCR_* definitions with this function
 400:../lpc11cx4-library/lpc_chip_11cxx_lib/inc/uart_11xx.h ****  *			to select specific options. For example, to enable the FIFOs
 401:../lpc11cx4-library/lpc_chip_11cxx_lib/inc/uart_11xx.h ****  *			with a RX trip level of 8 characters, use something like
 402:../lpc11cx4-library/lpc_chip_11cxx_lib/inc/uart_11xx.h ****  *			(UART_FCR_FIFO_EN | UART_FCR_TRG_LEV2)
 403:../lpc11cx4-library/lpc_chip_11cxx_lib/inc/uart_11xx.h ****  */
 404:../lpc11cx4-library/lpc_chip_11cxx_lib/inc/uart_11xx.h **** STATIC INLINE void Chip_UART_SetupFIFOS(LPC_USART_T *pUART, uint32_t fcr)
 405:../lpc11cx4-library/lpc_chip_11cxx_lib/inc/uart_11xx.h **** {
 406:../lpc11cx4-library/lpc_chip_11cxx_lib/inc/uart_11xx.h **** 	pUART->FCR = fcr;
 126              		.loc 3 406 0
 127 0016 0723     		mov	r3, #7	@ tmp121,
 128 0018 8360     		str	r3, [r0, #8]	@ tmp121, pUART_4(D)->D.5011.FCR
 129              	.LVL3:
 130              	.LBE77:
 131              	.LBE76:
 132              	.LBB78:
 133              	.LBB79:
 407:../lpc11cx4-library/lpc_chip_11cxx_lib/inc/uart_11xx.h **** }
 408:../lpc11cx4-library/lpc_chip_11cxx_lib/inc/uart_11xx.h **** 
 409:../lpc11cx4-library/lpc_chip_11cxx_lib/inc/uart_11xx.h **** /**
 410:../lpc11cx4-library/lpc_chip_11cxx_lib/inc/uart_11xx.h ****  * @brief	Configure data width, parity and stop bits
 411:../lpc11cx4-library/lpc_chip_11cxx_lib/inc/uart_11xx.h ****  * @param	pUART	: Pointer to selected pUART peripheral
 412:../lpc11cx4-library/lpc_chip_11cxx_lib/inc/uart_11xx.h ****  * @param	config	: UART configuration, OR'ed values of UART_LCR_* defines
 413:../lpc11cx4-library/lpc_chip_11cxx_lib/inc/uart_11xx.h ****  * @return	Nothing
 414:../lpc11cx4-library/lpc_chip_11cxx_lib/inc/uart_11xx.h ****  * @note	Select OR'ed config options for the UART from the UART_LCR_*
 415:../lpc11cx4-library/lpc_chip_11cxx_lib/inc/uart_11xx.h ****  *			definitions. For example, a configuration of 8 data bits, 1
 416:../lpc11cx4-library/lpc_chip_11cxx_lib/inc/uart_11xx.h ****  *			stop bit, and even (enabled) parity would be
 417:../lpc11cx4-library/lpc_chip_11cxx_lib/inc/uart_11xx.h ****  *			(UART_LCR_WLEN8 | UART_LCR_SBS_1BIT | UART_LCR_PARITY_EN | UART_LCR_PARITY_EVEN)
 418:../lpc11cx4-library/lpc_chip_11cxx_lib/inc/uart_11xx.h ****  */
 419:../lpc11cx4-library/lpc_chip_11cxx_lib/inc/uart_11xx.h **** STATIC INLINE void Chip_UART_ConfigData(LPC_USART_T *pUART, uint32_t config)
 420:../lpc11cx4-library/lpc_chip_11cxx_lib/inc/uart_11xx.h **** {
 421:../lpc11cx4-library/lpc_chip_11cxx_lib/inc/uart_11xx.h **** 	pUART->LCR = config;
 134              		.loc 3 421 0
 135 001a 043B     		sub	r3, r3, #4	@ tmp122,
 136 001c C360     		str	r3, [r0, #12]	@ tmp122, pUART_4(D)->LCR
 137              	.LBE79:
 138              	.LBE78:
  63:../lpc11cx4-library/lpc_chip_11cxx_lib/src/uart_11xx.c **** }
 139              		.loc 1 63 0
 140 001e 0D33     		add	r3, r3, #13	@ tmp123,
 141 0020 8362     		str	r3, [r0, #40]	@ tmp123, pUART_4(D)->FDR
 142              		.loc 1 64 0
ARM GAS  /var/folders/9j/_txx49hn253_s3mnzkyxlj8m0000gp/T//ccgYRR5b.s 			page 18


 143 0022 10BD     		pop	{r4, pc}
 144              	.L3:
 145              		.align	2
 146              	.L2:
 147 0024 00800440 		.word	1074036736
 148              		.cfi_endproc
 149              	.LFE198:
 150              		.size	Chip_UART_Init, .-Chip_UART_Init
 151              		.section	.text.Chip_UART_DeInit,"ax",%progbits
 152              		.align	2
 153              		.global	Chip_UART_DeInit
 154              		.code	16
 155              		.thumb_func
 156              		.type	Chip_UART_DeInit, %function
 157              	Chip_UART_DeInit:
 158              	.LFB199:
  65:../lpc11cx4-library/lpc_chip_11cxx_lib/src/uart_11xx.c **** 
  66:../lpc11cx4-library/lpc_chip_11cxx_lib/src/uart_11xx.c **** /* De-initializes the pUART peripheral */
  67:../lpc11cx4-library/lpc_chip_11cxx_lib/src/uart_11xx.c **** void Chip_UART_DeInit(LPC_USART_T *pUART)
  68:../lpc11cx4-library/lpc_chip_11cxx_lib/src/uart_11xx.c **** {
 159              		.loc 1 68 0
 160              		.cfi_startproc
 161              	.LVL4:
 162              	.LBB80:
 163              	.LBB81:
 307:../lpc11cx4-library/lpc_chip_11cxx_lib/inc/clock_11xx.h **** }
 164              		.loc 2 307 0
 165 0000 8022     		mov	r2, #128	@ tmp114,
 166 0002 0349     		ldr	r1, .L5	@ tmp113,
 167 0004 034B     		ldr	r3, .L5+4	@ tmp115,
 168 0006 8858     		ldr	r0, [r1, r2]	@ D.6402, MEM[(struct LPC_SYSCTL_T *)1074036736B].SYSAHBCLKCTRL
 169              	.LVL5:
 170              	.LBE81:
 171              	.LBE80:
  69:../lpc11cx4-library/lpc_chip_11cxx_lib/src/uart_11xx.c **** 	UNUSED(pUART);
  70:../lpc11cx4-library/lpc_chip_11cxx_lib/src/uart_11xx.c **** 	Chip_Clock_DisablePeriphClock(SYSCTL_CLOCK_UART0);
  71:../lpc11cx4-library/lpc_chip_11cxx_lib/src/uart_11xx.c **** }
 172              		.loc 1 71 0
 173              		@ sp needed	@
 174              	.LBB83:
 175              	.LBB82:
 307:../lpc11cx4-library/lpc_chip_11cxx_lib/inc/clock_11xx.h **** }
 176              		.loc 2 307 0
 177 0008 0340     		and	r3, r0	@ D.6402, D.6402
 178 000a 8B50     		str	r3, [r1, r2]	@ D.6402, MEM[(struct LPC_SYSCTL_T *)1074036736B].SYSAHBCLKCTRL
 179              	.LBE82:
 180              	.LBE83:
 181              		.loc 1 71 0
 182 000c 7047     		bx	lr
 183              	.L6:
 184 000e C046     		.align	2
 185              	.L5:
 186 0010 00800440 		.word	1074036736
 187 0014 FFEFFFFF 		.word	-4097
 188              		.cfi_endproc
 189              	.LFE199:
 190              		.size	Chip_UART_DeInit, .-Chip_UART_DeInit
ARM GAS  /var/folders/9j/_txx49hn253_s3mnzkyxlj8m0000gp/T//ccgYRR5b.s 			page 19


 191              		.section	.text.Chip_UART_Send,"ax",%progbits
 192              		.align	2
 193              		.global	Chip_UART_Send
 194              		.code	16
 195              		.thumb_func
 196              		.type	Chip_UART_Send, %function
 197              	Chip_UART_Send:
 198              	.LFB200:
  72:../lpc11cx4-library/lpc_chip_11cxx_lib/src/uart_11xx.c **** 
  73:../lpc11cx4-library/lpc_chip_11cxx_lib/src/uart_11xx.c **** /* Transmit a byte array through the UART peripheral (non-blocking) */
  74:../lpc11cx4-library/lpc_chip_11cxx_lib/src/uart_11xx.c **** int Chip_UART_Send(LPC_USART_T *pUART, const void *data, int numBytes)
  75:../lpc11cx4-library/lpc_chip_11cxx_lib/src/uart_11xx.c **** {
 199              		.loc 1 75 0
 200              		.cfi_startproc
 201              	.LVL6:
 202 0000 30B5     		push	{r4, r5, lr}	@
 203              		.cfi_def_cfa_offset 12
 204              		.cfi_offset 4, -12
 205              		.cfi_offset 5, -8
 206              		.cfi_offset 14, -4
  76:../lpc11cx4-library/lpc_chip_11cxx_lib/src/uart_11xx.c **** 	int sent = 0;
  77:../lpc11cx4-library/lpc_chip_11cxx_lib/src/uart_11xx.c **** 	uint8_t *p8 = (uint8_t *) data;
  78:../lpc11cx4-library/lpc_chip_11cxx_lib/src/uart_11xx.c **** 
  79:../lpc11cx4-library/lpc_chip_11cxx_lib/src/uart_11xx.c **** 	/* Send until the transmit FIFO is full or out of bytes */
  80:../lpc11cx4-library/lpc_chip_11cxx_lib/src/uart_11xx.c **** 	while ((sent < numBytes) &&
 207              		.loc 1 80 0
 208 0002 002A     		cmp	r2, #0	@ numBytes,
 209 0004 11DD     		ble	.L11	@,
 210              	.LVL7:
 211              	.LBB84:
 212              	.LBB85:
 422:../lpc11cx4-library/lpc_chip_11cxx_lib/inc/uart_11xx.h **** }
 423:../lpc11cx4-library/lpc_chip_11cxx_lib/inc/uart_11xx.h **** 
 424:../lpc11cx4-library/lpc_chip_11cxx_lib/inc/uart_11xx.h **** /**
 425:../lpc11cx4-library/lpc_chip_11cxx_lib/inc/uart_11xx.h ****  * @brief	Enable access to Divisor Latches
 426:../lpc11cx4-library/lpc_chip_11cxx_lib/inc/uart_11xx.h ****  * @param	pUART	: Pointer to selected UART peripheral
 427:../lpc11cx4-library/lpc_chip_11cxx_lib/inc/uart_11xx.h ****  * @return	Nothing
 428:../lpc11cx4-library/lpc_chip_11cxx_lib/inc/uart_11xx.h ****  */
 429:../lpc11cx4-library/lpc_chip_11cxx_lib/inc/uart_11xx.h **** STATIC INLINE void Chip_UART_EnableDivisorAccess(LPC_USART_T *pUART)
 430:../lpc11cx4-library/lpc_chip_11cxx_lib/inc/uart_11xx.h **** {
 431:../lpc11cx4-library/lpc_chip_11cxx_lib/inc/uart_11xx.h **** 	pUART->LCR |= UART_LCR_DLAB_EN;
 432:../lpc11cx4-library/lpc_chip_11cxx_lib/inc/uart_11xx.h **** }
 433:../lpc11cx4-library/lpc_chip_11cxx_lib/inc/uart_11xx.h **** 
 434:../lpc11cx4-library/lpc_chip_11cxx_lib/inc/uart_11xx.h **** /**
 435:../lpc11cx4-library/lpc_chip_11cxx_lib/inc/uart_11xx.h ****  * @brief	Disable access to Divisor Latches
 436:../lpc11cx4-library/lpc_chip_11cxx_lib/inc/uart_11xx.h ****  * @param	pUART	: Pointer to selected UART peripheral
 437:../lpc11cx4-library/lpc_chip_11cxx_lib/inc/uart_11xx.h ****  * @return	Nothing
 438:../lpc11cx4-library/lpc_chip_11cxx_lib/inc/uart_11xx.h ****  */
 439:../lpc11cx4-library/lpc_chip_11cxx_lib/inc/uart_11xx.h **** STATIC INLINE void Chip_UART_DisableDivisorAccess(LPC_USART_T *pUART)
 440:../lpc11cx4-library/lpc_chip_11cxx_lib/inc/uart_11xx.h **** {
 441:../lpc11cx4-library/lpc_chip_11cxx_lib/inc/uart_11xx.h **** 	pUART->LCR &= ~UART_LCR_DLAB_EN;
 442:../lpc11cx4-library/lpc_chip_11cxx_lib/inc/uart_11xx.h **** }
 443:../lpc11cx4-library/lpc_chip_11cxx_lib/inc/uart_11xx.h **** 
 444:../lpc11cx4-library/lpc_chip_11cxx_lib/inc/uart_11xx.h **** /**
 445:../lpc11cx4-library/lpc_chip_11cxx_lib/inc/uart_11xx.h ****  * @brief	Set LSB and MSB divisor latch registers
 446:../lpc11cx4-library/lpc_chip_11cxx_lib/inc/uart_11xx.h ****  * @param	pUART	: Pointer to selected UART peripheral
 447:../lpc11cx4-library/lpc_chip_11cxx_lib/inc/uart_11xx.h ****  * @param	dll		: Divisor Latch LSB value
ARM GAS  /var/folders/9j/_txx49hn253_s3mnzkyxlj8m0000gp/T//ccgYRR5b.s 			page 20


 448:../lpc11cx4-library/lpc_chip_11cxx_lib/inc/uart_11xx.h ****  * @param	dlm		: Divisor Latch MSB value
 449:../lpc11cx4-library/lpc_chip_11cxx_lib/inc/uart_11xx.h ****  * @return	Nothing
 450:../lpc11cx4-library/lpc_chip_11cxx_lib/inc/uart_11xx.h ****  * @note	The Divisor Latch Access Bit (DLAB) in LCR must be set in
 451:../lpc11cx4-library/lpc_chip_11cxx_lib/inc/uart_11xx.h ****  *			order to access the USART Divisor Latches. This function
 452:../lpc11cx4-library/lpc_chip_11cxx_lib/inc/uart_11xx.h ****  *			doesn't alter the DLAB state.
 453:../lpc11cx4-library/lpc_chip_11cxx_lib/inc/uart_11xx.h ****  */
 454:../lpc11cx4-library/lpc_chip_11cxx_lib/inc/uart_11xx.h **** STATIC INLINE void Chip_UART_SetDivisorLatches(LPC_USART_T *pUART, uint8_t dll, uint8_t dlm)
 455:../lpc11cx4-library/lpc_chip_11cxx_lib/inc/uart_11xx.h **** {
 456:../lpc11cx4-library/lpc_chip_11cxx_lib/inc/uart_11xx.h **** 	pUART->DLL = (uint32_t) dll;
 457:../lpc11cx4-library/lpc_chip_11cxx_lib/inc/uart_11xx.h **** 	pUART->DLM = (uint32_t) dlm;
 458:../lpc11cx4-library/lpc_chip_11cxx_lib/inc/uart_11xx.h **** }
 459:../lpc11cx4-library/lpc_chip_11cxx_lib/inc/uart_11xx.h **** 
 460:../lpc11cx4-library/lpc_chip_11cxx_lib/inc/uart_11xx.h **** /**
 461:../lpc11cx4-library/lpc_chip_11cxx_lib/inc/uart_11xx.h ****  * @brief	Return modem control register/status
 462:../lpc11cx4-library/lpc_chip_11cxx_lib/inc/uart_11xx.h ****  * @param	pUART	: Pointer to selected UART peripheral
 463:../lpc11cx4-library/lpc_chip_11cxx_lib/inc/uart_11xx.h ****  * @return	Modem control register (status)
 464:../lpc11cx4-library/lpc_chip_11cxx_lib/inc/uart_11xx.h ****  * @note	Mask bits of the returned status value with UART_MCR_*
 465:../lpc11cx4-library/lpc_chip_11cxx_lib/inc/uart_11xx.h ****  *			definitions for specific statuses.
 466:../lpc11cx4-library/lpc_chip_11cxx_lib/inc/uart_11xx.h ****  */
 467:../lpc11cx4-library/lpc_chip_11cxx_lib/inc/uart_11xx.h **** STATIC INLINE uint32_t Chip_UART_ReadModemControl(LPC_USART_T *pUART)
 468:../lpc11cx4-library/lpc_chip_11cxx_lib/inc/uart_11xx.h **** {
 469:../lpc11cx4-library/lpc_chip_11cxx_lib/inc/uart_11xx.h **** 	return pUART->MCR;
 470:../lpc11cx4-library/lpc_chip_11cxx_lib/inc/uart_11xx.h **** }
 471:../lpc11cx4-library/lpc_chip_11cxx_lib/inc/uart_11xx.h **** 
 472:../lpc11cx4-library/lpc_chip_11cxx_lib/inc/uart_11xx.h **** /**
 473:../lpc11cx4-library/lpc_chip_11cxx_lib/inc/uart_11xx.h ****  * @brief	Set modem control register/status
 474:../lpc11cx4-library/lpc_chip_11cxx_lib/inc/uart_11xx.h ****  * @param	pUART	: Pointer to selected UART peripheral
 475:../lpc11cx4-library/lpc_chip_11cxx_lib/inc/uart_11xx.h ****  * @param	mcr		: Modem control register flags to set
 476:../lpc11cx4-library/lpc_chip_11cxx_lib/inc/uart_11xx.h ****  * @return	Nothing
 477:../lpc11cx4-library/lpc_chip_11cxx_lib/inc/uart_11xx.h ****  * @note	Use an Or'ed value of UART_MCR_* definitions with this
 478:../lpc11cx4-library/lpc_chip_11cxx_lib/inc/uart_11xx.h ****  *			call to set specific options.
 479:../lpc11cx4-library/lpc_chip_11cxx_lib/inc/uart_11xx.h ****  */
 480:../lpc11cx4-library/lpc_chip_11cxx_lib/inc/uart_11xx.h **** STATIC INLINE void Chip_UART_SetModemControl(LPC_USART_T *pUART, uint32_t mcr)
 481:../lpc11cx4-library/lpc_chip_11cxx_lib/inc/uart_11xx.h **** {
 482:../lpc11cx4-library/lpc_chip_11cxx_lib/inc/uart_11xx.h **** 	pUART->MCR |= mcr;
 483:../lpc11cx4-library/lpc_chip_11cxx_lib/inc/uart_11xx.h **** }
 484:../lpc11cx4-library/lpc_chip_11cxx_lib/inc/uart_11xx.h **** 
 485:../lpc11cx4-library/lpc_chip_11cxx_lib/inc/uart_11xx.h **** /**
 486:../lpc11cx4-library/lpc_chip_11cxx_lib/inc/uart_11xx.h ****  * @brief	Clear modem control register/status
 487:../lpc11cx4-library/lpc_chip_11cxx_lib/inc/uart_11xx.h ****  * @param	pUART	: Pointer to selected UART peripheral
 488:../lpc11cx4-library/lpc_chip_11cxx_lib/inc/uart_11xx.h ****  * @param	mcr		: Modem control register flags to clear
 489:../lpc11cx4-library/lpc_chip_11cxx_lib/inc/uart_11xx.h ****  * @return	Nothing
 490:../lpc11cx4-library/lpc_chip_11cxx_lib/inc/uart_11xx.h ****  * @note	Use an Or'ed value of UART_MCR_* definitions with this
 491:../lpc11cx4-library/lpc_chip_11cxx_lib/inc/uart_11xx.h ****  *			call to clear specific options.
 492:../lpc11cx4-library/lpc_chip_11cxx_lib/inc/uart_11xx.h ****  */
 493:../lpc11cx4-library/lpc_chip_11cxx_lib/inc/uart_11xx.h **** STATIC INLINE void Chip_UART_ClearModemControl(LPC_USART_T *pUART, uint32_t mcr)
 494:../lpc11cx4-library/lpc_chip_11cxx_lib/inc/uart_11xx.h **** {
 495:../lpc11cx4-library/lpc_chip_11cxx_lib/inc/uart_11xx.h **** 	pUART->MCR &= ~mcr;
 496:../lpc11cx4-library/lpc_chip_11cxx_lib/inc/uart_11xx.h **** }
 497:../lpc11cx4-library/lpc_chip_11cxx_lib/inc/uart_11xx.h **** 
 498:../lpc11cx4-library/lpc_chip_11cxx_lib/inc/uart_11xx.h **** /**
 499:../lpc11cx4-library/lpc_chip_11cxx_lib/inc/uart_11xx.h ****  * @brief	Return Line Status register/status (LSR)
 500:../lpc11cx4-library/lpc_chip_11cxx_lib/inc/uart_11xx.h ****  * @param	pUART	: Pointer to selected UART peripheral
 501:../lpc11cx4-library/lpc_chip_11cxx_lib/inc/uart_11xx.h ****  * @return	Line Status register (status)
 502:../lpc11cx4-library/lpc_chip_11cxx_lib/inc/uart_11xx.h ****  * @note	Mask bits of the returned status value with UART_LSR_*
 503:../lpc11cx4-library/lpc_chip_11cxx_lib/inc/uart_11xx.h ****  *			definitions for specific statuses.
 504:../lpc11cx4-library/lpc_chip_11cxx_lib/inc/uart_11xx.h ****  */
ARM GAS  /var/folders/9j/_txx49hn253_s3mnzkyxlj8m0000gp/T//ccgYRR5b.s 			page 21


 505:../lpc11cx4-library/lpc_chip_11cxx_lib/inc/uart_11xx.h **** STATIC INLINE uint32_t Chip_UART_ReadLineStatus(LPC_USART_T *pUART)
 506:../lpc11cx4-library/lpc_chip_11cxx_lib/inc/uart_11xx.h **** {
 507:../lpc11cx4-library/lpc_chip_11cxx_lib/inc/uart_11xx.h **** 	return pUART->LSR;
 213              		.loc 3 507 0
 214 0006 4369     		ldr	r3, [r0, #20]	@ D.6415, pUART_7(D)->LSR
 215              	.LBE85:
 216              	.LBE84:
 217              		.loc 1 80 0
 218 0008 9B06     		lsl	r3, r3, #26	@ tmp152, D.6415,
 219 000a 0ED5     		bpl	.L11	@,
 220 000c 0023     		mov	r3, #0	@ numBytes,
  81:../lpc11cx4-library/lpc_chip_11cxx_lib/src/uart_11xx.c **** 		   ((Chip_UART_ReadLineStatus(pUART) & UART_LSR_THRE) != 0)) {
 221              		.loc 1 81 0
 222 000e 2025     		mov	r5, #32	@ tmp151,
 223 0010 02E0     		b	.L9	@
 224              	.LVL8:
 225              	.L15:
 226              	.LBB87:
 227              	.LBB86:
 228              		.loc 3 507 0
 229 0012 4469     		ldr	r4, [r0, #20]	@ D.6415, pUART_7(D)->LSR
 230              	.LVL9:
 231              	.LBE86:
 232              	.LBE87:
  80:../lpc11cx4-library/lpc_chip_11cxx_lib/src/uart_11xx.c **** 		   ((Chip_UART_ReadLineStatus(pUART) & UART_LSR_THRE) != 0)) {
 233              		.loc 1 80 0
 234 0014 2542     		tst	r5, r4	@ tmp151, D.6415
 235 0016 06D0     		beq	.L14	@,
 236              	.LVL10:
 237              	.L9:
 238              	.LBB88:
 239              	.LBB89:
 325:../lpc11cx4-library/lpc_chip_11cxx_lib/inc/uart_11xx.h **** }
 240              		.loc 3 325 0
 241 0018 CC5C     		ldrb	r4, [r1, r3]	@ D.6413, MEM[base: data_4(D), index: _2, offset: 0B]
 242              	.LBE89:
 243              	.LBE88:
  82:../lpc11cx4-library/lpc_chip_11cxx_lib/src/uart_11xx.c **** 		Chip_UART_SendByte(pUART, *p8);
  83:../lpc11cx4-library/lpc_chip_11cxx_lib/src/uart_11xx.c **** 		p8++;
  84:../lpc11cx4-library/lpc_chip_11cxx_lib/src/uart_11xx.c **** 		sent++;
 244              		.loc 1 84 0
 245 001a 0133     		add	r3, r3, #1	@ numBytes,
 246              	.LVL11:
 247              	.LBB91:
 248              	.LBB90:
 325:../lpc11cx4-library/lpc_chip_11cxx_lib/inc/uart_11xx.h **** }
 249              		.loc 3 325 0
 250 001c 0460     		str	r4, [r0]	@ D.6413, pUART_7(D)->D.5003.THR
 251              	.LVL12:
 252              	.LBE90:
 253              	.LBE91:
  80:../lpc11cx4-library/lpc_chip_11cxx_lib/src/uart_11xx.c **** 		   ((Chip_UART_ReadLineStatus(pUART) & UART_LSR_THRE) != 0)) {
 254              		.loc 1 80 0
 255 001e 9342     		cmp	r3, r2	@ numBytes, numBytes
 256 0020 F7D1     		bne	.L15	@,
 257              	.LVL13:
 258              	.L8:
ARM GAS  /var/folders/9j/_txx49hn253_s3mnzkyxlj8m0000gp/T//ccgYRR5b.s 			page 22


  85:../lpc11cx4-library/lpc_chip_11cxx_lib/src/uart_11xx.c **** 	}
  86:../lpc11cx4-library/lpc_chip_11cxx_lib/src/uart_11xx.c **** 
  87:../lpc11cx4-library/lpc_chip_11cxx_lib/src/uart_11xx.c **** 	return sent;
  88:../lpc11cx4-library/lpc_chip_11cxx_lib/src/uart_11xx.c **** }
 259              		.loc 1 88 0
 260 0022 101C     		mov	r0, r2	@, numBytes
 261              	.LVL14:
 262              		@ sp needed	@
 263 0024 30BD     		pop	{r4, r5, pc}
 264              	.LVL15:
 265              	.L14:
 266 0026 1A1C     		mov	r2, r3	@ numBytes, numBytes
 267              	.LVL16:
 268 0028 FBE7     		b	.L8	@
 269              	.LVL17:
 270              	.L11:
  76:../lpc11cx4-library/lpc_chip_11cxx_lib/src/uart_11xx.c **** 	uint8_t *p8 = (uint8_t *) data;
 271              		.loc 1 76 0
 272 002a 0022     		mov	r2, #0	@ numBytes,
 273              	.LVL18:
 274 002c F9E7     		b	.L8	@
 275              		.cfi_endproc
 276              	.LFE200:
 277              		.size	Chip_UART_Send, .-Chip_UART_Send
 278 002e C046     		.section	.text.Chip_UART_SendBlocking,"ax",%progbits
 279              		.align	2
 280              		.global	Chip_UART_SendBlocking
 281              		.code	16
 282              		.thumb_func
 283              		.type	Chip_UART_SendBlocking, %function
 284              	Chip_UART_SendBlocking:
 285              	.LFB201:
  89:../lpc11cx4-library/lpc_chip_11cxx_lib/src/uart_11xx.c **** 
  90:../lpc11cx4-library/lpc_chip_11cxx_lib/src/uart_11xx.c **** /* Transmit a byte array through the UART peripheral (blocking) */
  91:../lpc11cx4-library/lpc_chip_11cxx_lib/src/uart_11xx.c **** int Chip_UART_SendBlocking(LPC_USART_T *pUART, const void *data, int numBytes)
  92:../lpc11cx4-library/lpc_chip_11cxx_lib/src/uart_11xx.c **** {
 286              		.loc 1 92 0
 287              		.cfi_startproc
 288              	.LVL19:
 289 0000 70B5     		push	{r4, r5, r6, lr}	@
 290              		.cfi_def_cfa_offset 16
 291              		.cfi_offset 4, -16
 292              		.cfi_offset 5, -12
 293              		.cfi_offset 6, -8
 294              		.cfi_offset 14, -4
  93:../lpc11cx4-library/lpc_chip_11cxx_lib/src/uart_11xx.c **** 	int pass, sent = 0;
  94:../lpc11cx4-library/lpc_chip_11cxx_lib/src/uart_11xx.c **** 	uint8_t *p8 = (uint8_t *) data;
  95:../lpc11cx4-library/lpc_chip_11cxx_lib/src/uart_11xx.c **** 
  96:../lpc11cx4-library/lpc_chip_11cxx_lib/src/uart_11xx.c **** 	while (numBytes > 0) {
 295              		.loc 1 96 0
 296 0002 0026     		mov	r6, #0	@ sent,
 297              	.LBB92:
 298              	.LBB93:
  81:../lpc11cx4-library/lpc_chip_11cxx_lib/src/uart_11xx.c **** 		Chip_UART_SendByte(pUART, *p8);
 299              		.loc 1 81 0
 300 0004 2025     		mov	r5, #32	@ tmp127,
 301              	.LBE93:
ARM GAS  /var/folders/9j/_txx49hn253_s3mnzkyxlj8m0000gp/T//ccgYRR5b.s 			page 23


 302              	.LBE92:
 303              		.loc 1 96 0
 304 0006 002A     		cmp	r2, #0	@ numBytes,
 305 0008 0DDD     		ble	.L18	@,
 306              	.LVL20:
 307              	.L23:
  92:../lpc11cx4-library/lpc_chip_11cxx_lib/src/uart_11xx.c **** 	int pass, sent = 0;
 308              		.loc 1 92 0
 309 000a 0023     		mov	r3, #0	@ pass,
 310              	.LVL21:
 311              	.L22:
 312              	.LBB101:
 313              	.LBB100:
 314              	.LBB94:
 315              	.LBB95:
 316              		.loc 3 507 0
 317 000c 4469     		ldr	r4, [r0, #20]	@ D.6425, pUART_8(D)->LSR
 318              	.LBE95:
 319              	.LBE94:
  80:../lpc11cx4-library/lpc_chip_11cxx_lib/src/uart_11xx.c **** 		   ((Chip_UART_ReadLineStatus(pUART) & UART_LSR_THRE) != 0)) {
 320              		.loc 1 80 0
 321 000e 2542     		tst	r5, r4	@ tmp127, D.6425
 322 0010 04D0     		beq	.L19	@,
 323              	.LVL22:
 324              	.LBB96:
 325              	.LBB97:
 325:../lpc11cx4-library/lpc_chip_11cxx_lib/inc/uart_11xx.h **** }
 326              		.loc 3 325 0
 327 0012 CC5C     		ldrb	r4, [r1, r3]	@ D.6424, MEM[base: data_26, index: _32, offset: 0B]
 328              	.LBE97:
 329              	.LBE96:
  84:../lpc11cx4-library/lpc_chip_11cxx_lib/src/uart_11xx.c **** 	}
 330              		.loc 1 84 0
 331 0014 0133     		add	r3, r3, #1	@ pass,
 332              	.LVL23:
 333              	.LBB99:
 334              	.LBB98:
 325:../lpc11cx4-library/lpc_chip_11cxx_lib/inc/uart_11xx.h **** }
 335              		.loc 3 325 0
 336 0016 0460     		str	r4, [r0]	@ D.6424, pUART_8(D)->D.5003.THR
 337              	.LVL24:
 338              	.LBE98:
 339              	.LBE99:
  80:../lpc11cx4-library/lpc_chip_11cxx_lib/src/uart_11xx.c **** 		   ((Chip_UART_ReadLineStatus(pUART) & UART_LSR_THRE) != 0)) {
 340              		.loc 1 80 0
 341 0018 9A42     		cmp	r2, r3	@ numBytes, pass
 342 001a F7DC     		bgt	.L22	@,
 343              	.LVL25:
 344              	.L19:
 345              	.LBE100:
 346              	.LBE101:
  97:../lpc11cx4-library/lpc_chip_11cxx_lib/src/uart_11xx.c **** 		pass = Chip_UART_Send(pUART, p8, numBytes);
  98:../lpc11cx4-library/lpc_chip_11cxx_lib/src/uart_11xx.c **** 		numBytes -= pass;
 347              		.loc 1 98 0
 348 001c D21A     		sub	r2, r2, r3	@ numBytes, numBytes, pass
 349              	.LVL26:
  99:../lpc11cx4-library/lpc_chip_11cxx_lib/src/uart_11xx.c **** 		sent += pass;
ARM GAS  /var/folders/9j/_txx49hn253_s3mnzkyxlj8m0000gp/T//ccgYRR5b.s 			page 24


 350              		.loc 1 99 0
 351 001e F618     		add	r6, r6, r3	@ sent, sent, pass
 352              	.LVL27:
 100:../lpc11cx4-library/lpc_chip_11cxx_lib/src/uart_11xx.c **** 		p8 += pass;
 353              		.loc 1 100 0
 354 0020 C918     		add	r1, r1, r3	@ data, data, pass
 355              	.LVL28:
  96:../lpc11cx4-library/lpc_chip_11cxx_lib/src/uart_11xx.c **** 		pass = Chip_UART_Send(pUART, p8, numBytes);
 356              		.loc 1 96 0
 357 0022 002A     		cmp	r2, #0	@ numBytes,
 358 0024 F1DC     		bgt	.L23	@,
 359              	.LVL29:
 360              	.L18:
 101:../lpc11cx4-library/lpc_chip_11cxx_lib/src/uart_11xx.c **** 	}
 102:../lpc11cx4-library/lpc_chip_11cxx_lib/src/uart_11xx.c **** 
 103:../lpc11cx4-library/lpc_chip_11cxx_lib/src/uart_11xx.c **** 	return sent;
 104:../lpc11cx4-library/lpc_chip_11cxx_lib/src/uart_11xx.c **** }
 361              		.loc 1 104 0
 362 0026 301C     		mov	r0, r6	@, sent
 363              	.LVL30:
 364              		@ sp needed	@
 365 0028 70BD     		pop	{r4, r5, r6, pc}
 366              		.cfi_endproc
 367              	.LFE201:
 368              		.size	Chip_UART_SendBlocking, .-Chip_UART_SendBlocking
 369 002a C046     		.section	.text.Chip_UART_Read,"ax",%progbits
 370              		.align	2
 371              		.global	Chip_UART_Read
 372              		.code	16
 373              		.thumb_func
 374              		.type	Chip_UART_Read, %function
 375              	Chip_UART_Read:
 376              	.LFB202:
 105:../lpc11cx4-library/lpc_chip_11cxx_lib/src/uart_11xx.c **** 
 106:../lpc11cx4-library/lpc_chip_11cxx_lib/src/uart_11xx.c **** /* Read data through the UART peripheral (non-blocking) */
 107:../lpc11cx4-library/lpc_chip_11cxx_lib/src/uart_11xx.c **** int Chip_UART_Read(LPC_USART_T *pUART, void *data, int numBytes)
 108:../lpc11cx4-library/lpc_chip_11cxx_lib/src/uart_11xx.c **** {
 377              		.loc 1 108 0
 378              		.cfi_startproc
 379              	.LVL31:
 380 0000 30B5     		push	{r4, r5, lr}	@
 381              		.cfi_def_cfa_offset 12
 382              		.cfi_offset 4, -12
 383              		.cfi_offset 5, -8
 384              		.cfi_offset 14, -4
 109:../lpc11cx4-library/lpc_chip_11cxx_lib/src/uart_11xx.c **** 	int readBytes = 0;
 110:../lpc11cx4-library/lpc_chip_11cxx_lib/src/uart_11xx.c **** 	uint8_t *p8 = (uint8_t *) data;
 111:../lpc11cx4-library/lpc_chip_11cxx_lib/src/uart_11xx.c **** 
 112:../lpc11cx4-library/lpc_chip_11cxx_lib/src/uart_11xx.c **** 	/* Send until the transmit FIFO is full or out of bytes */
 113:../lpc11cx4-library/lpc_chip_11cxx_lib/src/uart_11xx.c **** 	while ((readBytes < numBytes) &&
 385              		.loc 1 113 0
 386 0002 002A     		cmp	r2, #0	@ numBytes,
 387 0004 11DD     		ble	.L29	@,
 388              	.LVL32:
 389              	.LBB102:
 390              	.LBB103:
 391              		.loc 3 507 0
ARM GAS  /var/folders/9j/_txx49hn253_s3mnzkyxlj8m0000gp/T//ccgYRR5b.s 			page 25


 392 0006 4369     		ldr	r3, [r0, #20]	@ D.6434, pUART_7(D)->LSR
 393              	.LBE103:
 394              	.LBE102:
 395              		.loc 1 113 0
 396 0008 DB07     		lsl	r3, r3, #31	@ tmp129, D.6434,
 397 000a 0ED5     		bpl	.L29	@,
 398 000c 0023     		mov	r3, #0	@ numBytes,
 114:../lpc11cx4-library/lpc_chip_11cxx_lib/src/uart_11xx.c **** 		   ((Chip_UART_ReadLineStatus(pUART) & UART_LSR_RDR) != 0)) {
 399              		.loc 1 114 0
 400 000e 0125     		mov	r5, #1	@ tmp128,
 401 0010 02E0     		b	.L27	@
 402              	.LVL33:
 403              	.L32:
 404              	.LBB105:
 405              	.LBB104:
 406              		.loc 3 507 0
 407 0012 4469     		ldr	r4, [r0, #20]	@ D.6434, pUART_7(D)->LSR
 408              	.LBE104:
 409              	.LBE105:
 113:../lpc11cx4-library/lpc_chip_11cxx_lib/src/uart_11xx.c **** 		   ((Chip_UART_ReadLineStatus(pUART) & UART_LSR_RDR) != 0)) {
 410              		.loc 1 113 0
 411 0014 2542     		tst	r5, r4	@ tmp128, D.6434
 412 0016 06D0     		beq	.L31	@,
 413              	.LVL34:
 414              	.L27:
 415              	.LBB106:
 416              	.LBB107:
 338:../lpc11cx4-library/lpc_chip_11cxx_lib/inc/uart_11xx.h **** }
 417              		.loc 3 338 0
 418 0018 0468     		ldr	r4, [r0]	@ D.6433, pUART_7(D)->D.5003.RBR
 419 001a CC54     		strb	r4, [r1, r3]	@ D.6433, MEM[base: data_4(D), index: _2, offset: 0B]
 420              	.LVL35:
 421              	.LBE107:
 422              	.LBE106:
 115:../lpc11cx4-library/lpc_chip_11cxx_lib/src/uart_11xx.c **** 		*p8 = Chip_UART_ReadByte(pUART);
 116:../lpc11cx4-library/lpc_chip_11cxx_lib/src/uart_11xx.c **** 		p8++;
 117:../lpc11cx4-library/lpc_chip_11cxx_lib/src/uart_11xx.c **** 		readBytes++;
 423              		.loc 1 117 0
 424 001c 0133     		add	r3, r3, #1	@ numBytes,
 425              	.LVL36:
 113:../lpc11cx4-library/lpc_chip_11cxx_lib/src/uart_11xx.c **** 		   ((Chip_UART_ReadLineStatus(pUART) & UART_LSR_RDR) != 0)) {
 426              		.loc 1 113 0
 427 001e 9342     		cmp	r3, r2	@ numBytes, numBytes
 428 0020 F7D1     		bne	.L32	@,
 429              	.LVL37:
 430              	.L26:
 118:../lpc11cx4-library/lpc_chip_11cxx_lib/src/uart_11xx.c **** 	}
 119:../lpc11cx4-library/lpc_chip_11cxx_lib/src/uart_11xx.c **** 
 120:../lpc11cx4-library/lpc_chip_11cxx_lib/src/uart_11xx.c **** 	return readBytes;
 121:../lpc11cx4-library/lpc_chip_11cxx_lib/src/uart_11xx.c **** }
 431              		.loc 1 121 0
 432 0022 101C     		mov	r0, r2	@, numBytes
 433              	.LVL38:
 434              		@ sp needed	@
 435 0024 30BD     		pop	{r4, r5, pc}
 436              	.LVL39:
 437              	.L31:
ARM GAS  /var/folders/9j/_txx49hn253_s3mnzkyxlj8m0000gp/T//ccgYRR5b.s 			page 26


 438 0026 1A1C     		mov	r2, r3	@ numBytes, numBytes
 439              	.LVL40:
 440 0028 FBE7     		b	.L26	@
 441              	.LVL41:
 442              	.L29:
 109:../lpc11cx4-library/lpc_chip_11cxx_lib/src/uart_11xx.c **** 	uint8_t *p8 = (uint8_t *) data;
 443              		.loc 1 109 0
 444 002a 0022     		mov	r2, #0	@ numBytes,
 445              	.LVL42:
 446 002c F9E7     		b	.L26	@
 447              		.cfi_endproc
 448              	.LFE202:
 449              		.size	Chip_UART_Read, .-Chip_UART_Read
 450 002e C046     		.section	.text.Chip_UART_ReadBlocking,"ax",%progbits
 451              		.align	2
 452              		.global	Chip_UART_ReadBlocking
 453              		.code	16
 454              		.thumb_func
 455              		.type	Chip_UART_ReadBlocking, %function
 456              	Chip_UART_ReadBlocking:
 457              	.LFB203:
 122:../lpc11cx4-library/lpc_chip_11cxx_lib/src/uart_11xx.c **** 
 123:../lpc11cx4-library/lpc_chip_11cxx_lib/src/uart_11xx.c **** /* Read data through the UART peripheral (blocking) */
 124:../lpc11cx4-library/lpc_chip_11cxx_lib/src/uart_11xx.c **** int Chip_UART_ReadBlocking(LPC_USART_T *pUART, void *data, int numBytes)
 125:../lpc11cx4-library/lpc_chip_11cxx_lib/src/uart_11xx.c **** {
 458              		.loc 1 125 0
 459              		.cfi_startproc
 460              	.LVL43:
 461 0000 70B5     		push	{r4, r5, r6, lr}	@
 462              		.cfi_def_cfa_offset 16
 463              		.cfi_offset 4, -16
 464              		.cfi_offset 5, -12
 465              		.cfi_offset 6, -8
 466              		.cfi_offset 14, -4
 126:../lpc11cx4-library/lpc_chip_11cxx_lib/src/uart_11xx.c **** 	int pass, readBytes = 0;
 127:../lpc11cx4-library/lpc_chip_11cxx_lib/src/uart_11xx.c **** 	uint8_t *p8 = (uint8_t *) data;
 128:../lpc11cx4-library/lpc_chip_11cxx_lib/src/uart_11xx.c **** 
 129:../lpc11cx4-library/lpc_chip_11cxx_lib/src/uart_11xx.c **** 	while (readBytes < numBytes) {
 467              		.loc 1 129 0
 468 0002 0026     		mov	r6, #0	@ readBytes,
 469              	.LBB108:
 470              	.LBB109:
 114:../lpc11cx4-library/lpc_chip_11cxx_lib/src/uart_11xx.c **** 		*p8 = Chip_UART_ReadByte(pUART);
 471              		.loc 1 114 0
 472 0004 0125     		mov	r5, #1	@ tmp128,
 473              	.LBE109:
 474              	.LBE108:
 475              		.loc 1 129 0
 476 0006 002A     		cmp	r2, #0	@ numBytes,
 477 0008 0DDD     		ble	.L35	@,
 478              	.LVL44:
 479              	.L40:
 125:../lpc11cx4-library/lpc_chip_11cxx_lib/src/uart_11xx.c **** 	int pass, readBytes = 0;
 480              		.loc 1 125 0
 481 000a 0023     		mov	r3, #0	@ pass,
 482              	.LVL45:
 483              	.L39:
ARM GAS  /var/folders/9j/_txx49hn253_s3mnzkyxlj8m0000gp/T//ccgYRR5b.s 			page 27


 484              	.LBB115:
 485              	.LBB114:
 486              	.LBB110:
 487              	.LBB111:
 488              		.loc 3 507 0
 489 000c 4469     		ldr	r4, [r0, #20]	@ D.6445, pUART_8(D)->LSR
 490              	.LBE111:
 491              	.LBE110:
 113:../lpc11cx4-library/lpc_chip_11cxx_lib/src/uart_11xx.c **** 		   ((Chip_UART_ReadLineStatus(pUART) & UART_LSR_RDR) != 0)) {
 492              		.loc 1 113 0
 493 000e 2542     		tst	r5, r4	@ tmp128, D.6445
 494 0010 04D0     		beq	.L36	@,
 495              	.LVL46:
 496              	.LBB112:
 497              	.LBB113:
 338:../lpc11cx4-library/lpc_chip_11cxx_lib/inc/uart_11xx.h **** }
 498              		.loc 3 338 0
 499 0012 0468     		ldr	r4, [r0]	@ D.6443, pUART_8(D)->D.5003.RBR
 500 0014 CC54     		strb	r4, [r1, r3]	@ D.6443, MEM[base: data_26, index: _34, offset: 0B]
 501              	.LVL47:
 502              	.LBE113:
 503              	.LBE112:
 117:../lpc11cx4-library/lpc_chip_11cxx_lib/src/uart_11xx.c **** 	}
 504              		.loc 1 117 0
 505 0016 0133     		add	r3, r3, #1	@ pass,
 506              	.LVL48:
 113:../lpc11cx4-library/lpc_chip_11cxx_lib/src/uart_11xx.c **** 		   ((Chip_UART_ReadLineStatus(pUART) & UART_LSR_RDR) != 0)) {
 507              		.loc 1 113 0
 508 0018 9A42     		cmp	r2, r3	@ numBytes, pass
 509 001a F7DC     		bgt	.L39	@,
 510              	.LVL49:
 511              	.L36:
 512              	.LBE114:
 513              	.LBE115:
 130:../lpc11cx4-library/lpc_chip_11cxx_lib/src/uart_11xx.c **** 		pass = Chip_UART_Read(pUART, p8, numBytes);
 131:../lpc11cx4-library/lpc_chip_11cxx_lib/src/uart_11xx.c **** 		numBytes -= pass;
 132:../lpc11cx4-library/lpc_chip_11cxx_lib/src/uart_11xx.c **** 		readBytes += pass;
 514              		.loc 1 132 0
 515 001c F618     		add	r6, r6, r3	@ readBytes, readBytes, pass
 516              	.LVL50:
 131:../lpc11cx4-library/lpc_chip_11cxx_lib/src/uart_11xx.c **** 		readBytes += pass;
 517              		.loc 1 131 0
 518 001e D21A     		sub	r2, r2, r3	@ numBytes, numBytes, pass
 519              	.LVL51:
 133:../lpc11cx4-library/lpc_chip_11cxx_lib/src/uart_11xx.c **** 		p8 += pass;
 520              		.loc 1 133 0
 521 0020 C918     		add	r1, r1, r3	@ data, data, pass
 522              	.LVL52:
 129:../lpc11cx4-library/lpc_chip_11cxx_lib/src/uart_11xx.c **** 		pass = Chip_UART_Read(pUART, p8, numBytes);
 523              		.loc 1 129 0
 524 0022 B242     		cmp	r2, r6	@ numBytes, readBytes
 525 0024 F1DC     		bgt	.L40	@,
 526              	.LVL53:
 527              	.L35:
 134:../lpc11cx4-library/lpc_chip_11cxx_lib/src/uart_11xx.c **** 	}
 135:../lpc11cx4-library/lpc_chip_11cxx_lib/src/uart_11xx.c **** 
 136:../lpc11cx4-library/lpc_chip_11cxx_lib/src/uart_11xx.c **** 	return readBytes;
ARM GAS  /var/folders/9j/_txx49hn253_s3mnzkyxlj8m0000gp/T//ccgYRR5b.s 			page 28


 137:../lpc11cx4-library/lpc_chip_11cxx_lib/src/uart_11xx.c **** }
 528              		.loc 1 137 0
 529 0026 301C     		mov	r0, r6	@, readBytes
 530              	.LVL54:
 531              		@ sp needed	@
 532 0028 70BD     		pop	{r4, r5, r6, pc}
 533              		.cfi_endproc
 534              	.LFE203:
 535              		.size	Chip_UART_ReadBlocking, .-Chip_UART_ReadBlocking
 536              		.global	__aeabi_uidiv
 537 002a C046     		.section	.text.Chip_UART_SetBaud,"ax",%progbits
 538              		.align	2
 539              		.global	Chip_UART_SetBaud
 540              		.code	16
 541              		.thumb_func
 542              		.type	Chip_UART_SetBaud, %function
 543              	Chip_UART_SetBaud:
 544              	.LFB204:
 138:../lpc11cx4-library/lpc_chip_11cxx_lib/src/uart_11xx.c **** 
 139:../lpc11cx4-library/lpc_chip_11cxx_lib/src/uart_11xx.c **** /* Determines and sets best dividers to get a target bit rate */
 140:../lpc11cx4-library/lpc_chip_11cxx_lib/src/uart_11xx.c **** uint32_t Chip_UART_SetBaud(LPC_USART_T *pUART, uint32_t baudrate)
 141:../lpc11cx4-library/lpc_chip_11cxx_lib/src/uart_11xx.c **** {
 545              		.loc 1 141 0
 546              		.cfi_startproc
 547              	.LVL55:
 548 0000 70B5     		push	{r4, r5, r6, lr}	@
 549              		.cfi_def_cfa_offset 16
 550              		.cfi_offset 4, -16
 551              		.cfi_offset 5, -12
 552              		.cfi_offset 6, -8
 553              		.cfi_offset 14, -4
 554              		.loc 1 141 0
 555 0002 0E1C     		mov	r6, r1	@ baudrate, baudrate
 556 0004 041C     		mov	r4, r0	@ pUART, pUART
 142:../lpc11cx4-library/lpc_chip_11cxx_lib/src/uart_11xx.c **** 	uint32_t div, divh, divl, clkin;
 143:../lpc11cx4-library/lpc_chip_11cxx_lib/src/uart_11xx.c **** 
 144:../lpc11cx4-library/lpc_chip_11cxx_lib/src/uart_11xx.c **** 	/* Determine UART clock in rate without FDR */
 145:../lpc11cx4-library/lpc_chip_11cxx_lib/src/uart_11xx.c **** 	clkin = Chip_Clock_GetMainClockRate();
 557              		.loc 1 145 0
 558 0006 FFF7FEFF 		bl	Chip_Clock_GetMainClockRate	@
 559              	.LVL56:
 146:../lpc11cx4-library/lpc_chip_11cxx_lib/src/uart_11xx.c **** 	div = clkin / (baudrate * 16);
 560              		.loc 1 146 0
 561 000a 3101     		lsl	r1, r6, #4	@ D.6448, baudrate,
 145:../lpc11cx4-library/lpc_chip_11cxx_lib/src/uart_11xx.c **** 	div = clkin / (baudrate * 16);
 562              		.loc 1 145 0
 563 000c 051C     		mov	r5, r0	@ clkin,
 564              	.LVL57:
 565              		.loc 1 146 0
 566 000e FFF7FEFF 		bl	__aeabi_uidiv	@
 567              	.LVL58:
 568              	.LBB116:
 569              	.LBB117:
 431:../lpc11cx4-library/lpc_chip_11cxx_lib/inc/uart_11xx.h **** }
 570              		.loc 3 431 0
 571 0012 8022     		mov	r2, #128	@ tmp130,
 572              	.LBE117:
ARM GAS  /var/folders/9j/_txx49hn253_s3mnzkyxlj8m0000gp/T//ccgYRR5b.s 			page 29


 573              	.LBE116:
 574              		.loc 1 146 0
 575 0014 011C     		mov	r1, r0	@ tmp129,
 576              	.LVL59:
 577              	.LBB120:
 578              	.LBB118:
 431:../lpc11cx4-library/lpc_chip_11cxx_lib/inc/uart_11xx.h **** }
 579              		.loc 3 431 0
 580 0016 E368     		ldr	r3, [r4, #12]	@ D.6448, pUART_10(D)->LCR
 581              	.LBE118:
 582              	.LBE120:
 583              	.LBB121:
 584              	.LBB122:
 456:../lpc11cx4-library/lpc_chip_11cxx_lib/inc/uart_11xx.h **** 	pUART->DLM = (uint32_t) dlm;
 585              		.loc 3 456 0
 586 0018 0E1C     		mov	r6, r1	@ D.6448, tmp129
 587              	.LVL60:
 588              	.LBE122:
 589              	.LBE121:
 590              	.LBB124:
 591              	.LBB119:
 431:../lpc11cx4-library/lpc_chip_11cxx_lib/inc/uart_11xx.h **** }
 592              		.loc 3 431 0
 593 001a 1343     		orr	r3, r2	@ D.6448, tmp130
 594 001c E360     		str	r3, [r4, #12]	@ D.6448, pUART_10(D)->LCR
 595              	.LVL61:
 596              	.LBE119:
 597              	.LBE124:
 147:../lpc11cx4-library/lpc_chip_11cxx_lib/src/uart_11xx.c **** 
 148:../lpc11cx4-library/lpc_chip_11cxx_lib/src/uart_11xx.c **** 	/* High and low halves of the divider */
 149:../lpc11cx4-library/lpc_chip_11cxx_lib/src/uart_11xx.c **** 	divh = div / 256;
 150:../lpc11cx4-library/lpc_chip_11cxx_lib/src/uart_11xx.c **** 	divl = div - (divh * 256);
 598              		.loc 1 150 0
 599 001e 030A     		lsr	r3, r0, #8	@ divh, tmp129,
 600              	.LVL62:
 601              	.LBB125:
 602              	.LBB123:
 456:../lpc11cx4-library/lpc_chip_11cxx_lib/inc/uart_11xx.h **** 	pUART->DLM = (uint32_t) dlm;
 603              		.loc 3 456 0
 604 0020 FF20     		mov	r0, #255	@ tmp133,
 605              	.LVL63:
 606 0022 0640     		and	r6, r0	@ D.6448, tmp133
 457:../lpc11cx4-library/lpc_chip_11cxx_lib/inc/uart_11xx.h **** }
 607              		.loc 3 457 0
 608 0024 0340     		and	r3, r0	@ D.6448, tmp133
 609              	.LVL64:
 456:../lpc11cx4-library/lpc_chip_11cxx_lib/inc/uart_11xx.h **** 	pUART->DLM = (uint32_t) dlm;
 610              		.loc 3 456 0
 611 0026 2660     		str	r6, [r4]	@ D.6448, pUART_10(D)->D.5003.DLL
 457:../lpc11cx4-library/lpc_chip_11cxx_lib/inc/uart_11xx.h **** }
 612              		.loc 3 457 0
 613 0028 6360     		str	r3, [r4, #4]	@ D.6448, pUART_10(D)->D.5007.DLM
 614              	.LVL65:
 615              	.LBE123:
 616              	.LBE125:
 617              	.LBB126:
 618              	.LBB127:
ARM GAS  /var/folders/9j/_txx49hn253_s3mnzkyxlj8m0000gp/T//ccgYRR5b.s 			page 30


 441:../lpc11cx4-library/lpc_chip_11cxx_lib/inc/uart_11xx.h **** }
 619              		.loc 3 441 0
 620 002a E368     		ldr	r3, [r4, #12]	@ D.6448, pUART_10(D)->LCR
 621              	.LBE127:
 622              	.LBE126:
 151:../lpc11cx4-library/lpc_chip_11cxx_lib/src/uart_11xx.c **** 
 152:../lpc11cx4-library/lpc_chip_11cxx_lib/src/uart_11xx.c **** 	Chip_UART_EnableDivisorAccess(pUART);
 153:../lpc11cx4-library/lpc_chip_11cxx_lib/src/uart_11xx.c **** 	Chip_UART_SetDivisorLatches(pUART, divl, divh);
 154:../lpc11cx4-library/lpc_chip_11cxx_lib/src/uart_11xx.c **** 	Chip_UART_DisableDivisorAccess(pUART);
 155:../lpc11cx4-library/lpc_chip_11cxx_lib/src/uart_11xx.c **** 
 156:../lpc11cx4-library/lpc_chip_11cxx_lib/src/uart_11xx.c **** 	/* Fractional FDR alreadt setup for 1 in UART init */
 157:../lpc11cx4-library/lpc_chip_11cxx_lib/src/uart_11xx.c **** 
 158:../lpc11cx4-library/lpc_chip_11cxx_lib/src/uart_11xx.c **** 	return clkin / div;
 623              		.loc 1 158 0
 624 002c 281C     		mov	r0, r5	@, clkin
 625              	.LBB129:
 626              	.LBB128:
 441:../lpc11cx4-library/lpc_chip_11cxx_lib/inc/uart_11xx.h **** }
 627              		.loc 3 441 0
 628 002e 9343     		bic	r3, r2	@ D.6448, tmp130
 629 0030 E360     		str	r3, [r4, #12]	@ D.6448, pUART_10(D)->LCR
 630              	.LBE128:
 631              	.LBE129:
 632              		.loc 1 158 0
 633 0032 FFF7FEFF 		bl	__aeabi_uidiv	@
 634              	.LVL66:
 159:../lpc11cx4-library/lpc_chip_11cxx_lib/src/uart_11xx.c **** }
 635              		.loc 1 159 0
 636              		@ sp needed	@
 637              	.LVL67:
 638              	.LVL68:
 639 0036 70BD     		pop	{r4, r5, r6, pc}
 640              		.cfi_endproc
 641              	.LFE204:
 642              		.size	Chip_UART_SetBaud, .-Chip_UART_SetBaud
 643              		.section	.text.Chip_UART_RXIntHandlerRB,"ax",%progbits
 644              		.align	2
 645              		.global	Chip_UART_RXIntHandlerRB
 646              		.code	16
 647              		.thumb_func
 648              		.type	Chip_UART_RXIntHandlerRB, %function
 649              	Chip_UART_RXIntHandlerRB:
 650              	.LFB205:
 160:../lpc11cx4-library/lpc_chip_11cxx_lib/src/uart_11xx.c **** 
 161:../lpc11cx4-library/lpc_chip_11cxx_lib/src/uart_11xx.c **** /* UART receive-only interrupt handler for ring buffers */
 162:../lpc11cx4-library/lpc_chip_11cxx_lib/src/uart_11xx.c **** void Chip_UART_RXIntHandlerRB(LPC_USART_T *pUART, RINGBUFF_T *pRB)
 163:../lpc11cx4-library/lpc_chip_11cxx_lib/src/uart_11xx.c **** {
 651              		.loc 1 163 0
 652              		.cfi_startproc
 653              	.LVL69:
 654 0000 F0B5     		push	{r4, r5, r6, r7, lr}	@
 655              		.cfi_def_cfa_offset 20
 656              		.cfi_offset 4, -20
 657              		.cfi_offset 5, -16
 658              		.cfi_offset 6, -12
 659              		.cfi_offset 7, -8
 660              		.cfi_offset 14, -4
ARM GAS  /var/folders/9j/_txx49hn253_s3mnzkyxlj8m0000gp/T//ccgYRR5b.s 			page 31


 661 0002 83B0     		sub	sp, sp, #12	@,,
 662              		.cfi_def_cfa_offset 32
 663 0004 6A46     		mov	r2, sp	@ tmp128,
 664              	.LBB130:
 665              	.LBB131:
 666              		.loc 3 507 0
 667 0006 4369     		ldr	r3, [r0, #20]	@ D.6453, pUART_3(D)->LSR
 668              	.LBE131:
 669              	.LBE130:
 670              		.loc 1 163 0
 671 0008 041C     		mov	r4, r0	@ pUART, pUART
 672 000a 0F1C     		mov	r7, r1	@ pRB, pRB
 673 000c D51D     		add	r5, r2, #7	@ tmp125, tmp128,
 164:../lpc11cx4-library/lpc_chip_11cxx_lib/src/uart_11xx.c **** 	/* New data will be ignored if data not popped in time */
 165:../lpc11cx4-library/lpc_chip_11cxx_lib/src/uart_11xx.c **** 	while (Chip_UART_ReadLineStatus(pUART) & UART_LSR_RDR) {
 674              		.loc 1 165 0
 675 000e 0126     		mov	r6, #1	@ tmp126,
 676 0010 DB07     		lsl	r3, r3, #31	@ tmp127, D.6453,
 677 0012 08D5     		bpl	.L43	@,
 678              	.LVL70:
 679              	.L47:
 680              	.LBB133:
 681              	.LBB134:
 682              	.LBB135:
 338:../lpc11cx4-library/lpc_chip_11cxx_lib/inc/uart_11xx.h **** }
 683              		.loc 3 338 0
 684 0014 2368     		ldr	r3, [r4]	@ D.6452, pUART_3(D)->D.5003.RBR
 685              	.LBE135:
 686              	.LBE134:
 166:../lpc11cx4-library/lpc_chip_11cxx_lib/src/uart_11xx.c **** 		uint8_t ch = Chip_UART_ReadByte(pUART);
 167:../lpc11cx4-library/lpc_chip_11cxx_lib/src/uart_11xx.c **** 		RingBuffer_Insert(pRB, &ch);
 687              		.loc 1 167 0
 688 0016 381C     		mov	r0, r7	@, pRB
 689 0018 291C     		mov	r1, r5	@, tmp125
 690              	.LBB137:
 691              	.LBB136:
 338:../lpc11cx4-library/lpc_chip_11cxx_lib/inc/uart_11xx.h **** }
 692              		.loc 3 338 0
 693 001a 2B70     		strb	r3, [r5]	@ D.6452, ch
 694              	.LBE136:
 695              	.LBE137:
 696              		.loc 1 167 0
 697 001c FFF7FEFF 		bl	RingBuffer_Insert	@
 698              	.LVL71:
 699              	.LBE133:
 700              	.LBB138:
 701              	.LBB132:
 702              		.loc 3 507 0
 703 0020 6369     		ldr	r3, [r4, #20]	@ D.6453, pUART_3(D)->LSR
 704              	.LBE132:
 705              	.LBE138:
 165:../lpc11cx4-library/lpc_chip_11cxx_lib/src/uart_11xx.c **** 		uint8_t ch = Chip_UART_ReadByte(pUART);
 706              		.loc 1 165 0
 707 0022 1E42     		tst	r6, r3	@ tmp126, D.6453
 708 0024 F6D1     		bne	.L47	@,
 709              	.LVL72:
 710              	.L43:
ARM GAS  /var/folders/9j/_txx49hn253_s3mnzkyxlj8m0000gp/T//ccgYRR5b.s 			page 32


 168:../lpc11cx4-library/lpc_chip_11cxx_lib/src/uart_11xx.c **** 	}
 169:../lpc11cx4-library/lpc_chip_11cxx_lib/src/uart_11xx.c **** }
 711              		.loc 1 169 0
 712 0026 03B0     		add	sp, sp, #12	@,,
 713              		@ sp needed	@
 714              	.LVL73:
 715              	.LVL74:
 716 0028 F0BD     		pop	{r4, r5, r6, r7, pc}
 717              		.cfi_endproc
 718              	.LFE205:
 719              		.size	Chip_UART_RXIntHandlerRB, .-Chip_UART_RXIntHandlerRB
 720 002a C046     		.section	.text.Chip_UART_TXIntHandlerRB,"ax",%progbits
 721              		.align	2
 722              		.global	Chip_UART_TXIntHandlerRB
 723              		.code	16
 724              		.thumb_func
 725              		.type	Chip_UART_TXIntHandlerRB, %function
 726              	Chip_UART_TXIntHandlerRB:
 727              	.LFB206:
 170:../lpc11cx4-library/lpc_chip_11cxx_lib/src/uart_11xx.c **** 
 171:../lpc11cx4-library/lpc_chip_11cxx_lib/src/uart_11xx.c **** /* UART transmit-only interrupt handler for ring buffers */
 172:../lpc11cx4-library/lpc_chip_11cxx_lib/src/uart_11xx.c **** void Chip_UART_TXIntHandlerRB(LPC_USART_T *pUART, RINGBUFF_T *pRB)
 173:../lpc11cx4-library/lpc_chip_11cxx_lib/src/uart_11xx.c **** {
 728              		.loc 1 173 0
 729              		.cfi_startproc
 730              	.LVL75:
 731 0000 F0B5     		push	{r4, r5, r6, r7, lr}	@
 732              		.cfi_def_cfa_offset 20
 733              		.cfi_offset 4, -20
 734              		.cfi_offset 5, -16
 735              		.cfi_offset 6, -12
 736              		.cfi_offset 7, -8
 737              		.cfi_offset 14, -4
 738 0002 83B0     		sub	sp, sp, #12	@,,
 739              		.cfi_def_cfa_offset 32
 740 0004 6A46     		mov	r2, sp	@ tmp128,
 741              	.LBB139:
 742              	.LBB140:
 743              		.loc 3 507 0
 744 0006 4369     		ldr	r3, [r0, #20]	@ D.6460, pUART_4(D)->LSR
 745              	.LBE140:
 746              	.LBE139:
 747              		.loc 1 173 0
 748 0008 041C     		mov	r4, r0	@ pUART, pUART
 749 000a 0E1C     		mov	r6, r1	@ pRB, pRB
 750 000c D51D     		add	r5, r2, #7	@ tmp125, tmp128,
 174:../lpc11cx4-library/lpc_chip_11cxx_lib/src/uart_11xx.c **** 	uint8_t ch;
 175:../lpc11cx4-library/lpc_chip_11cxx_lib/src/uart_11xx.c **** 
 176:../lpc11cx4-library/lpc_chip_11cxx_lib/src/uart_11xx.c **** 	/* Fill FIFO until full or until TX ring buffer is empty */
 177:../lpc11cx4-library/lpc_chip_11cxx_lib/src/uart_11xx.c **** 	while ((Chip_UART_ReadLineStatus(pUART) & UART_LSR_THRE) != 0 &&
 751              		.loc 1 177 0
 752 000e 2027     		mov	r7, #32	@ tmp126,
 753 0010 9B06     		lsl	r3, r3, #26	@ tmp127, D.6460,
 754 0012 05D4     		bmi	.L57	@,
 755 0014 0AE0     		b	.L49	@
 756              	.LVL76:
 757              	.L52:
ARM GAS  /var/folders/9j/_txx49hn253_s3mnzkyxlj8m0000gp/T//ccgYRR5b.s 			page 33


 758              	.LBB142:
 759              	.LBB143:
 325:../lpc11cx4-library/lpc_chip_11cxx_lib/inc/uart_11xx.h **** }
 760              		.loc 3 325 0
 761 0016 2B78     		ldrb	r3, [r5]	@ D.6457, ch
 762 0018 2360     		str	r3, [r4]	@ D.6457, pUART_4(D)->D.5003.THR
 763              	.LBE143:
 764              	.LBE142:
 765              	.LBB144:
 766              	.LBB141:
 767              		.loc 3 507 0
 768 001a 6369     		ldr	r3, [r4, #20]	@ D.6460, pUART_4(D)->LSR
 769              	.LBE141:
 770              	.LBE144:
 771              		.loc 1 177 0
 772 001c 1F42     		tst	r7, r3	@ tmp126, D.6460
 773 001e 05D0     		beq	.L49	@,
 774              	.LVL77:
 775              	.L57:
 178:../lpc11cx4-library/lpc_chip_11cxx_lib/src/uart_11xx.c **** 		   RingBuffer_Pop(pRB, &ch)) {
 776              		.loc 1 178 0 discriminator 1
 777 0020 301C     		mov	r0, r6	@, pRB
 778 0022 291C     		mov	r1, r5	@, tmp125
 779 0024 FFF7FEFF 		bl	RingBuffer_Pop	@
 780              	.LVL78:
 177:../lpc11cx4-library/lpc_chip_11cxx_lib/src/uart_11xx.c **** 		   RingBuffer_Pop(pRB, &ch)) {
 781              		.loc 1 177 0 discriminator 1
 782 0028 0028     		cmp	r0, #0	@ D.6458,
 783 002a F4D1     		bne	.L52	@,
 784              	.L49:
 179:../lpc11cx4-library/lpc_chip_11cxx_lib/src/uart_11xx.c **** 		Chip_UART_SendByte(pUART, ch);
 180:../lpc11cx4-library/lpc_chip_11cxx_lib/src/uart_11xx.c **** 	}
 181:../lpc11cx4-library/lpc_chip_11cxx_lib/src/uart_11xx.c **** }
 785              		.loc 1 181 0
 786 002c 03B0     		add	sp, sp, #12	@,,
 787              		@ sp needed	@
 788              	.LVL79:
 789              	.LVL80:
 790 002e F0BD     		pop	{r4, r5, r6, r7, pc}
 791              		.cfi_endproc
 792              	.LFE206:
 793              		.size	Chip_UART_TXIntHandlerRB, .-Chip_UART_TXIntHandlerRB
 794              		.section	.text.Chip_UART_SendRB,"ax",%progbits
 795              		.align	2
 796              		.global	Chip_UART_SendRB
 797              		.code	16
 798              		.thumb_func
 799              		.type	Chip_UART_SendRB, %function
 800              	Chip_UART_SendRB:
 801              	.LFB207:
 182:../lpc11cx4-library/lpc_chip_11cxx_lib/src/uart_11xx.c **** 
 183:../lpc11cx4-library/lpc_chip_11cxx_lib/src/uart_11xx.c **** /* Populate a transmit ring buffer and start UART transmit */
 184:../lpc11cx4-library/lpc_chip_11cxx_lib/src/uart_11xx.c **** uint32_t Chip_UART_SendRB(LPC_USART_T *pUART, RINGBUFF_T *pRB, const void *data, int bytes)
 185:../lpc11cx4-library/lpc_chip_11cxx_lib/src/uart_11xx.c **** {
 802              		.loc 1 185 0
 803              		.cfi_startproc
 804              	.LVL81:
ARM GAS  /var/folders/9j/_txx49hn253_s3mnzkyxlj8m0000gp/T//ccgYRR5b.s 			page 34


 805 0000 F8B5     		push	{r3, r4, r5, r6, r7, lr}	@
 806              		.cfi_def_cfa_offset 24
 807              		.cfi_offset 3, -24
 808              		.cfi_offset 4, -20
 809              		.cfi_offset 5, -16
 810              		.cfi_offset 6, -12
 811              		.cfi_offset 7, -8
 812              		.cfi_offset 14, -4
 813 0002 4F46     		mov	r7, r9	@,
 814 0004 4646     		mov	r6, r8	@,
 815 0006 C0B4     		push	{r6, r7}	@
 816              		.cfi_def_cfa_offset 32
 817              		.cfi_offset 8, -32
 818              		.cfi_offset 9, -28
 819              	.LBB145:
 820              	.LBB146:
 368:../lpc11cx4-library/lpc_chip_11cxx_lib/inc/uart_11xx.h **** }
 821              		.loc 3 368 0
 822 0008 0226     		mov	r6, #2	@ tmp126,
 823              	.LBE146:
 824              	.LBE145:
 825              		.loc 1 185 0
 826 000a 1F1C     		mov	r7, r3	@ bytes, bytes
 827              	.LBB150:
 828              	.LBB147:
 368:../lpc11cx4-library/lpc_chip_11cxx_lib/inc/uart_11xx.h **** }
 829              		.loc 3 368 0
 830 000c 4368     		ldr	r3, [r0, #4]	@ D.6463, pUART_3(D)->D.5007.IER
 831              	.LVL82:
 832              	.LBE147:
 833              	.LBE150:
 834              		.loc 1 185 0
 835 000e 051C     		mov	r5, r0	@ pUART, pUART
 836              	.LBB151:
 837              	.LBB148:
 368:../lpc11cx4-library/lpc_chip_11cxx_lib/inc/uart_11xx.h **** }
 838              		.loc 3 368 0
 839 0010 B343     		bic	r3, r6	@ D.6463, tmp126
 840              	.LBE148:
 841              	.LBE151:
 842              		.loc 1 185 0
 843 0012 8946     		mov	r9, r1	@ pRB, pRB
 844 0014 9046     		mov	r8, r2	@ data, data
 845              	.LBB152:
 846              	.LBB149:
 368:../lpc11cx4-library/lpc_chip_11cxx_lib/inc/uart_11xx.h **** }
 847              		.loc 3 368 0
 848 0016 4360     		str	r3, [r0, #4]	@ D.6463, pUART_3(D)->D.5007.IER
 849              	.LBE149:
 850              	.LBE152:
 186:../lpc11cx4-library/lpc_chip_11cxx_lib/src/uart_11xx.c **** 	uint32_t ret;
 187:../lpc11cx4-library/lpc_chip_11cxx_lib/src/uart_11xx.c **** 	uint8_t *p8 = (uint8_t *) data;
 188:../lpc11cx4-library/lpc_chip_11cxx_lib/src/uart_11xx.c **** 
 189:../lpc11cx4-library/lpc_chip_11cxx_lib/src/uart_11xx.c **** 	/* Don't let UART transmit ring buffer change in the UART IRQ handler */
 190:../lpc11cx4-library/lpc_chip_11cxx_lib/src/uart_11xx.c **** 	Chip_UART_IntDisable(pUART, UART_IER_THREINT);
 191:../lpc11cx4-library/lpc_chip_11cxx_lib/src/uart_11xx.c **** 
 192:../lpc11cx4-library/lpc_chip_11cxx_lib/src/uart_11xx.c **** 	/* Move as much data as possible into transmit ring buffer */
ARM GAS  /var/folders/9j/_txx49hn253_s3mnzkyxlj8m0000gp/T//ccgYRR5b.s 			page 35


 193:../lpc11cx4-library/lpc_chip_11cxx_lib/src/uart_11xx.c **** 	ret = RingBuffer_InsertMult(pRB, p8, bytes);
 851              		.loc 1 193 0
 852 0018 081C     		mov	r0, r1	@, pRB
 853              	.LVL83:
 854 001a 111C     		mov	r1, r2	@, data
 855              	.LVL84:
 856 001c 3A1C     		mov	r2, r7	@, bytes
 857              	.LVL85:
 858 001e FFF7FEFF 		bl	RingBuffer_InsertMult	@
 859              	.LVL86:
 194:../lpc11cx4-library/lpc_chip_11cxx_lib/src/uart_11xx.c **** 	Chip_UART_TXIntHandlerRB(pUART, pRB);
 860              		.loc 1 194 0
 861 0022 4946     		mov	r1, r9	@, pRB
 193:../lpc11cx4-library/lpc_chip_11cxx_lib/src/uart_11xx.c **** 	Chip_UART_TXIntHandlerRB(pUART, pRB);
 862              		.loc 1 193 0
 863 0024 041C     		mov	r4, r0	@ ret,
 864              	.LVL87:
 865              		.loc 1 194 0
 866 0026 281C     		mov	r0, r5	@, pUART
 867              	.LVL88:
 868 0028 FFF7FEFF 		bl	Chip_UART_TXIntHandlerRB	@
 869              	.LVL89:
 195:../lpc11cx4-library/lpc_chip_11cxx_lib/src/uart_11xx.c **** 
 196:../lpc11cx4-library/lpc_chip_11cxx_lib/src/uart_11xx.c **** 	/* Add additional data to transmit ring buffer if possible */
 197:../lpc11cx4-library/lpc_chip_11cxx_lib/src/uart_11xx.c **** 	ret += RingBuffer_InsertMult(pRB, (p8 + ret), (bytes - ret));
 870              		.loc 1 197 0
 871 002c 4346     		mov	r3, r8	@ data, data
 872 002e 3A1B     		sub	r2, r7, r4	@ D.6463, bytes, ret
 873 0030 1919     		add	r1, r3, r4	@ D.6464, data, ret
 874 0032 4846     		mov	r0, r9	@, pRB
 875 0034 FFF7FEFF 		bl	RingBuffer_InsertMult	@
 876              	.LVL90:
 877              	.LBB153:
 878              	.LBB154:
 353:../lpc11cx4-library/lpc_chip_11cxx_lib/inc/uart_11xx.h **** }
 879              		.loc 3 353 0
 880 0038 6B68     		ldr	r3, [r5, #4]	@ D.6463, pUART_3(D)->D.5007.IER
 881              	.LBE154:
 882              	.LBE153:
 883              		.loc 1 197 0
 884 003a 0019     		add	r0, r0, r4	@ ret, D.6463, ret
 885              	.LVL91:
 886              	.LBB156:
 887              	.LBB155:
 353:../lpc11cx4-library/lpc_chip_11cxx_lib/inc/uart_11xx.h **** }
 888              		.loc 3 353 0
 889 003c 1E43     		orr	r6, r3	@ D.6463, D.6463
 890 003e 6E60     		str	r6, [r5, #4]	@ D.6463, pUART_3(D)->D.5007.IER
 891              	.LBE155:
 892              	.LBE156:
 198:../lpc11cx4-library/lpc_chip_11cxx_lib/src/uart_11xx.c **** 
 199:../lpc11cx4-library/lpc_chip_11cxx_lib/src/uart_11xx.c **** 	/* Enable UART transmit interrupt */
 200:../lpc11cx4-library/lpc_chip_11cxx_lib/src/uart_11xx.c **** 	Chip_UART_IntEnable(pUART, UART_IER_THREINT);
 201:../lpc11cx4-library/lpc_chip_11cxx_lib/src/uart_11xx.c **** 
 202:../lpc11cx4-library/lpc_chip_11cxx_lib/src/uart_11xx.c **** 	return ret;
 203:../lpc11cx4-library/lpc_chip_11cxx_lib/src/uart_11xx.c **** }
 893              		.loc 1 203 0
ARM GAS  /var/folders/9j/_txx49hn253_s3mnzkyxlj8m0000gp/T//ccgYRR5b.s 			page 36


 894              		@ sp needed	@
 895              	.LVL92:
 896              	.LVL93:
 897              	.LVL94:
 898              	.LVL95:
 899 0040 0CBC     		pop	{r2, r3}
 900 0042 9046     		mov	r8, r2
 901 0044 9946     		mov	r9, r3
 902 0046 F8BD     		pop	{r3, r4, r5, r6, r7, pc}
 903              		.cfi_endproc
 904              	.LFE207:
 905              		.size	Chip_UART_SendRB, .-Chip_UART_SendRB
 906              		.section	.text.Chip_UART_ReadRB,"ax",%progbits
 907              		.align	2
 908              		.global	Chip_UART_ReadRB
 909              		.code	16
 910              		.thumb_func
 911              		.type	Chip_UART_ReadRB, %function
 912              	Chip_UART_ReadRB:
 913              	.LFB208:
 204:../lpc11cx4-library/lpc_chip_11cxx_lib/src/uart_11xx.c **** 
 205:../lpc11cx4-library/lpc_chip_11cxx_lib/src/uart_11xx.c **** /* Copy data from a receive ring buffer */
 206:../lpc11cx4-library/lpc_chip_11cxx_lib/src/uart_11xx.c **** int Chip_UART_ReadRB(LPC_USART_T *pUART, RINGBUFF_T *pRB, void *data, int bytes)
 207:../lpc11cx4-library/lpc_chip_11cxx_lib/src/uart_11xx.c **** {
 914              		.loc 1 207 0
 915              		.cfi_startproc
 916              	.LVL96:
 917 0000 08B5     		push	{r3, lr}	@
 918              		.cfi_def_cfa_offset 8
 919              		.cfi_offset 3, -8
 920              		.cfi_offset 14, -4
 208:../lpc11cx4-library/lpc_chip_11cxx_lib/src/uart_11xx.c **** 	(void) pUART;
 209:../lpc11cx4-library/lpc_chip_11cxx_lib/src/uart_11xx.c **** 
 210:../lpc11cx4-library/lpc_chip_11cxx_lib/src/uart_11xx.c **** 	return RingBuffer_PopMult(pRB, (uint8_t *) data, bytes);
 921              		.loc 1 210 0
 922 0002 081C     		mov	r0, r1	@, pRB
 923              	.LVL97:
 924 0004 111C     		mov	r1, r2	@, data
 925              	.LVL98:
 926 0006 1A1C     		mov	r2, r3	@, bytes
 927              	.LVL99:
 928 0008 FFF7FEFF 		bl	RingBuffer_PopMult	@
 929              	.LVL100:
 211:../lpc11cx4-library/lpc_chip_11cxx_lib/src/uart_11xx.c **** }
 930              		.loc 1 211 0
 931              		@ sp needed	@
 932 000c 08BD     		pop	{r3, pc}
 933              		.cfi_endproc
 934              	.LFE208:
 935              		.size	Chip_UART_ReadRB, .-Chip_UART_ReadRB
 936 000e C046     		.section	.text.Chip_UART_IRQRBHandler,"ax",%progbits
 937              		.align	2
 938              		.global	Chip_UART_IRQRBHandler
 939              		.code	16
 940              		.thumb_func
 941              		.type	Chip_UART_IRQRBHandler, %function
 942              	Chip_UART_IRQRBHandler:
ARM GAS  /var/folders/9j/_txx49hn253_s3mnzkyxlj8m0000gp/T//ccgYRR5b.s 			page 37


 943              	.LFB209:
 212:../lpc11cx4-library/lpc_chip_11cxx_lib/src/uart_11xx.c **** 
 213:../lpc11cx4-library/lpc_chip_11cxx_lib/src/uart_11xx.c **** /* UART receive/transmit interrupt handler for ring buffers */
 214:../lpc11cx4-library/lpc_chip_11cxx_lib/src/uart_11xx.c **** void Chip_UART_IRQRBHandler(LPC_USART_T *pUART, RINGBUFF_T *pRXRB, RINGBUFF_T *pTXRB)
 215:../lpc11cx4-library/lpc_chip_11cxx_lib/src/uart_11xx.c **** {
 944              		.loc 1 215 0
 945              		.cfi_startproc
 946              	.LVL101:
 947 0000 F0B5     		push	{r4, r5, r6, r7, lr}	@
 948              		.cfi_def_cfa_offset 20
 949              		.cfi_offset 4, -20
 950              		.cfi_offset 5, -16
 951              		.cfi_offset 6, -12
 952              		.cfi_offset 7, -8
 953              		.cfi_offset 14, -4
 216:../lpc11cx4-library/lpc_chip_11cxx_lib/src/uart_11xx.c **** 	/* Handle transmit interrupt if enabled */
 217:../lpc11cx4-library/lpc_chip_11cxx_lib/src/uart_11xx.c **** 	if (pUART->IER & UART_IER_THREINT) {
 954              		.loc 1 217 0
 955 0002 0225     		mov	r5, #2	@ tmp125,
 956 0004 4368     		ldr	r3, [r0, #4]	@ D.6472, pUART_3(D)->D.5007.IER
 215:../lpc11cx4-library/lpc_chip_11cxx_lib/src/uart_11xx.c **** 	/* Handle transmit interrupt if enabled */
 957              		.loc 1 215 0
 958 0006 83B0     		sub	sp, sp, #12	@,,
 959              		.cfi_def_cfa_offset 32
 215:../lpc11cx4-library/lpc_chip_11cxx_lib/src/uart_11xx.c **** 	/* Handle transmit interrupt if enabled */
 960              		.loc 1 215 0
 961 0008 041C     		mov	r4, r0	@ pUART, pUART
 962 000a 0F1C     		mov	r7, r1	@ pRXRB, pRXRB
 963 000c 161C     		mov	r6, r2	@ pTXRB, pTXRB
 964              		.loc 1 217 0
 965 000e 1D42     		tst	r5, r3	@ tmp125, D.6472
 966 0010 10D1     		bne	.L69	@,
 967              	.LVL102:
 968              	.L62:
 969 0012 6A46     		mov	r2, sp	@ tmp140,
 970              	.LBB157:
 971              	.LBB158:
 972              	.LBB159:
 973              	.LBB160:
 974              		.loc 3 507 0
 975 0014 6369     		ldr	r3, [r4, #20]	@ D.6473, pUART_3(D)->LSR
 976 0016 D51D     		add	r5, r2, #7	@ tmp137, tmp140,
 977              	.LBE160:
 978              	.LBE159:
 165:../lpc11cx4-library/lpc_chip_11cxx_lib/src/uart_11xx.c **** 		uint8_t ch = Chip_UART_ReadByte(pUART);
 979              		.loc 1 165 0
 980 0018 0126     		mov	r6, #1	@ tmp138,
 981              	.LVL103:
 982 001a DB07     		lsl	r3, r3, #31	@ tmp139, D.6473,
 983 001c 08D5     		bpl	.L60	@,
 984              	.L67:
 985              	.LVL104:
 986              	.LBB162:
 987              	.LBB163:
 988              	.LBB164:
 338:../lpc11cx4-library/lpc_chip_11cxx_lib/inc/uart_11xx.h **** }
 989              		.loc 3 338 0
ARM GAS  /var/folders/9j/_txx49hn253_s3mnzkyxlj8m0000gp/T//ccgYRR5b.s 			page 38


 990 001e 2368     		ldr	r3, [r4]	@ D.6472, pUART_3(D)->D.5003.RBR
 991              	.LBE164:
 992              	.LBE163:
 167:../lpc11cx4-library/lpc_chip_11cxx_lib/src/uart_11xx.c **** 	}
 993              		.loc 1 167 0
 994 0020 381C     		mov	r0, r7	@, pRXRB
 995 0022 291C     		mov	r1, r5	@, tmp137
 996              	.LBB166:
 997              	.LBB165:
 338:../lpc11cx4-library/lpc_chip_11cxx_lib/inc/uart_11xx.h **** }
 998              		.loc 3 338 0
 999 0024 2B70     		strb	r3, [r5]	@ D.6472, ch
 1000              	.LBE165:
 1001              	.LBE166:
 167:../lpc11cx4-library/lpc_chip_11cxx_lib/src/uart_11xx.c **** 	}
 1002              		.loc 1 167 0
 1003 0026 FFF7FEFF 		bl	RingBuffer_Insert	@
 1004              	.LVL105:
 1005              	.LBE162:
 1006              	.LBB167:
 1007              	.LBB161:
 1008              		.loc 3 507 0
 1009 002a 6369     		ldr	r3, [r4, #20]	@ D.6473, pUART_3(D)->LSR
 1010              	.LBE161:
 1011              	.LBE167:
 165:../lpc11cx4-library/lpc_chip_11cxx_lib/src/uart_11xx.c **** 		uint8_t ch = Chip_UART_ReadByte(pUART);
 1012              		.loc 1 165 0
 1013 002c 1E42     		tst	r6, r3	@ tmp138, D.6473
 1014 002e F6D1     		bne	.L67	@,
 1015              	.LVL106:
 1016              	.L60:
 1017              	.LBE158:
 1018              	.LBE157:
 218:../lpc11cx4-library/lpc_chip_11cxx_lib/src/uart_11xx.c **** 		Chip_UART_TXIntHandlerRB(pUART, pTXRB);
 219:../lpc11cx4-library/lpc_chip_11cxx_lib/src/uart_11xx.c **** 
 220:../lpc11cx4-library/lpc_chip_11cxx_lib/src/uart_11xx.c **** 		/* Disable transmit interrupt if the ring buffer is empty */
 221:../lpc11cx4-library/lpc_chip_11cxx_lib/src/uart_11xx.c **** 		if (RingBuffer_IsEmpty(pTXRB)) {
 222:../lpc11cx4-library/lpc_chip_11cxx_lib/src/uart_11xx.c **** 			Chip_UART_IntDisable(pUART, UART_IER_THREINT);
 223:../lpc11cx4-library/lpc_chip_11cxx_lib/src/uart_11xx.c **** 		}
 224:../lpc11cx4-library/lpc_chip_11cxx_lib/src/uart_11xx.c **** 	}
 225:../lpc11cx4-library/lpc_chip_11cxx_lib/src/uart_11xx.c **** 
 226:../lpc11cx4-library/lpc_chip_11cxx_lib/src/uart_11xx.c **** 	/* Handle receive interrupt */
 227:../lpc11cx4-library/lpc_chip_11cxx_lib/src/uart_11xx.c **** 	Chip_UART_RXIntHandlerRB(pUART, pRXRB);
 228:../lpc11cx4-library/lpc_chip_11cxx_lib/src/uart_11xx.c **** }
 1019              		.loc 1 228 0
 1020 0030 03B0     		add	sp, sp, #12	@,,
 1021              		@ sp needed	@
 1022              	.LVL107:
 1023              	.LVL108:
 1024 0032 F0BD     		pop	{r4, r5, r6, r7, pc}
 1025              	.LVL109:
 1026              	.L69:
 218:../lpc11cx4-library/lpc_chip_11cxx_lib/src/uart_11xx.c **** 		Chip_UART_TXIntHandlerRB(pUART, pTXRB);
 1027              		.loc 1 218 0
 1028 0034 111C     		mov	r1, r2	@, pTXRB
 1029              	.LVL110:
 1030 0036 FFF7FEFF 		bl	Chip_UART_TXIntHandlerRB	@
ARM GAS  /var/folders/9j/_txx49hn253_s3mnzkyxlj8m0000gp/T//ccgYRR5b.s 			page 39


 1031              	.LVL111:
 221:../lpc11cx4-library/lpc_chip_11cxx_lib/src/uart_11xx.c **** 			Chip_UART_IntDisable(pUART, UART_IER_THREINT);
 1032              		.loc 1 221 0
 1033 003a F268     		ldr	r2, [r6, #12]	@ MEM[(long unsigned int *)pTXRB_6(D) + 12B], MEM[(long unsigned int *)pTXRB_6(D
 1034 003c 3369     		ldr	r3, [r6, #16]	@ MEM[(long unsigned int *)pTXRB_6(D) + 16B], MEM[(long unsigned int *)pTXRB_6(D
 1035 003e 9A42     		cmp	r2, r3	@ MEM[(long unsigned int *)pTXRB_6(D) + 12B], MEM[(long unsigned int *)pTXRB_6(D) + 16B
 1036 0040 E7D1     		bne	.L62	@,
 1037              	.LVL112:
 1038              	.LBB168:
 1039              	.LBB169:
 368:../lpc11cx4-library/lpc_chip_11cxx_lib/inc/uart_11xx.h **** }
 1040              		.loc 3 368 0
 1041 0042 6368     		ldr	r3, [r4, #4]	@ D.6472, pUART_3(D)->D.5007.IER
 1042 0044 AB43     		bic	r3, r5	@ D.6472, tmp125
 1043 0046 6360     		str	r3, [r4, #4]	@ D.6472, pUART_3(D)->D.5007.IER
 1044 0048 E3E7     		b	.L62	@
 1045              	.LBE169:
 1046              	.LBE168:
 1047              		.cfi_endproc
 1048              	.LFE209:
 1049              		.size	Chip_UART_IRQRBHandler, .-Chip_UART_IRQRBHandler
 1050              		.global	__aeabi_uidivmod
 1051 004a C046     		.section	.text.Chip_UART_SetBaudFDR,"ax",%progbits
 1052              		.align	2
 1053              		.global	Chip_UART_SetBaudFDR
 1054              		.code	16
 1055              		.thumb_func
 1056              		.type	Chip_UART_SetBaudFDR, %function
 1057              	Chip_UART_SetBaudFDR:
 1058              	.LFB210:
 229:../lpc11cx4-library/lpc_chip_11cxx_lib/src/uart_11xx.c **** 
 230:../lpc11cx4-library/lpc_chip_11cxx_lib/src/uart_11xx.c **** /* Determines and sets best dividers to get a target baud rate */
 231:../lpc11cx4-library/lpc_chip_11cxx_lib/src/uart_11xx.c **** uint32_t Chip_UART_SetBaudFDR(LPC_USART_T *pUART, uint32_t baudrate)
 232:../lpc11cx4-library/lpc_chip_11cxx_lib/src/uart_11xx.c **** 
 233:../lpc11cx4-library/lpc_chip_11cxx_lib/src/uart_11xx.c **** {
 1059              		.loc 1 233 0
 1060              		.cfi_startproc
 1061              	.LVL113:
 1062 0000 F8B5     		push	{r3, r4, r5, r6, r7, lr}	@
 1063              		.cfi_def_cfa_offset 24
 1064              		.cfi_offset 3, -24
 1065              		.cfi_offset 4, -20
 1066              		.cfi_offset 5, -16
 1067              		.cfi_offset 6, -12
 1068              		.cfi_offset 7, -8
 1069              		.cfi_offset 14, -4
 1070 0002 4F46     		mov	r7, r9	@,
 1071 0004 4646     		mov	r6, r8	@,
 1072 0006 C0B4     		push	{r6, r7}	@
 1073              		.cfi_def_cfa_offset 32
 1074              		.cfi_offset 8, -32
 1075              		.cfi_offset 9, -28
 234:../lpc11cx4-library/lpc_chip_11cxx_lib/src/uart_11xx.c **** 	uint32_t uClk;
 235:../lpc11cx4-library/lpc_chip_11cxx_lib/src/uart_11xx.c ****     uint32_t dval;
 236:../lpc11cx4-library/lpc_chip_11cxx_lib/src/uart_11xx.c ****     uint32_t mval = 0;
 237:../lpc11cx4-library/lpc_chip_11cxx_lib/src/uart_11xx.c ****     uint32_t dl;
 238:../lpc11cx4-library/lpc_chip_11cxx_lib/src/uart_11xx.c ****     uint32_t rate16 = 16 * baudrate;
ARM GAS  /var/folders/9j/_txx49hn253_s3mnzkyxlj8m0000gp/T//ccgYRR5b.s 			page 40


 1076              		.loc 1 238 0
 1077 0008 0D01     		lsl	r5, r1, #4	@ rate16, baudrate,
 1078              	.LVL114:
 233:../lpc11cx4-library/lpc_chip_11cxx_lib/src/uart_11xx.c **** 	uint32_t uClk;
 1079              		.loc 1 233 0
 1080 000a 041C     		mov	r4, r0	@ pUART, pUART
 239:../lpc11cx4-library/lpc_chip_11cxx_lib/src/uart_11xx.c **** 	uint32_t actualRate = 0;
 240:../lpc11cx4-library/lpc_chip_11cxx_lib/src/uart_11xx.c **** 
 241:../lpc11cx4-library/lpc_chip_11cxx_lib/src/uart_11xx.c **** 	/* Get Clock rate */
 242:../lpc11cx4-library/lpc_chip_11cxx_lib/src/uart_11xx.c **** 	uClk = Chip_Clock_GetMainClockRate();
 1081              		.loc 1 242 0
 1082 000c FFF7FEFF 		bl	Chip_Clock_GetMainClockRate	@
 1083              	.LVL115:
 243:../lpc11cx4-library/lpc_chip_11cxx_lib/src/uart_11xx.c **** 
 244:../lpc11cx4-library/lpc_chip_11cxx_lib/src/uart_11xx.c ****     /* The fractional is calculated as (PCLK  % (16 * Baudrate)) / (16 * Baudrate)
 245:../lpc11cx4-library/lpc_chip_11cxx_lib/src/uart_11xx.c ****      * Let's make it to be the ratio DivVal / MulVal
 246:../lpc11cx4-library/lpc_chip_11cxx_lib/src/uart_11xx.c ****      */
 247:../lpc11cx4-library/lpc_chip_11cxx_lib/src/uart_11xx.c **** 	dval = uClk % rate16;
 1084              		.loc 1 247 0
 1085 0010 291C     		mov	r1, r5	@, rate16
 242:../lpc11cx4-library/lpc_chip_11cxx_lib/src/uart_11xx.c **** 
 1086              		.loc 1 242 0
 1087 0012 071C     		mov	r7, r0	@ uClk,
 1088              	.LVL116:
 1089              		.loc 1 247 0
 1090 0014 FFF7FEFF 		bl	__aeabi_uidivmod	@
 1091              	.LVL117:
 248:../lpc11cx4-library/lpc_chip_11cxx_lib/src/uart_11xx.c **** 
 249:../lpc11cx4-library/lpc_chip_11cxx_lib/src/uart_11xx.c ****    /* The PCLK / (16 * Baudrate) is fractional
 250:../lpc11cx4-library/lpc_chip_11cxx_lib/src/uart_11xx.c ****     * => dval = pclk % rate16
 251:../lpc11cx4-library/lpc_chip_11cxx_lib/src/uart_11xx.c ****     * mval = rate16;
 252:../lpc11cx4-library/lpc_chip_11cxx_lib/src/uart_11xx.c ****     * now mormalize the ratio
 253:../lpc11cx4-library/lpc_chip_11cxx_lib/src/uart_11xx.c ****     * dval / mval = 1 / new_mval
 254:../lpc11cx4-library/lpc_chip_11cxx_lib/src/uart_11xx.c ****     * new_mval = mval / dval
 255:../lpc11cx4-library/lpc_chip_11cxx_lib/src/uart_11xx.c ****     * new_dval = 1
 256:../lpc11cx4-library/lpc_chip_11cxx_lib/src/uart_11xx.c ****     */
 257:../lpc11cx4-library/lpc_chip_11cxx_lib/src/uart_11xx.c ****     if (dval > 0) {
 1092              		.loc 1 257 0
 1093 0018 0029     		cmp	r1, #0	@ tmp143,
 1094 001a 38D0     		beq	.L73	@,
 258:../lpc11cx4-library/lpc_chip_11cxx_lib/src/uart_11xx.c ****         mval = rate16 / dval;
 1095              		.loc 1 258 0
 1096 001c 281C     		mov	r0, r5	@, rate16
 1097 001e FFF7FEFF 		bl	__aeabi_uidiv	@
 1098              	.LVL118:
 1099 0022 031C     		mov	r3, r0	@ tmp149,
 1100              	.LVL119:
 259:../lpc11cx4-library/lpc_chip_11cxx_lib/src/uart_11xx.c ****         dval = 1;
 260:../lpc11cx4-library/lpc_chip_11cxx_lib/src/uart_11xx.c **** 
 261:../lpc11cx4-library/lpc_chip_11cxx_lib/src/uart_11xx.c ****         /* In case mval still bigger then 4 bits
 262:../lpc11cx4-library/lpc_chip_11cxx_lib/src/uart_11xx.c ****         * no adjustment require
 263:../lpc11cx4-library/lpc_chip_11cxx_lib/src/uart_11xx.c ****         */
 264:../lpc11cx4-library/lpc_chip_11cxx_lib/src/uart_11xx.c ****         if (mval > 12) {
 1101              		.loc 1 264 0
 1102 0024 0020     		mov	r0, #0	@ tmp153,
 1103              	.LVL120:
 1104 0026 0C22     		mov	r2, #12	@ tmp152,
ARM GAS  /var/folders/9j/_txx49hn253_s3mnzkyxlj8m0000gp/T//ccgYRR5b.s 			page 41


 1105 0028 011C     		mov	r1, r0	@ D.6478, tmp153
 1106 002a 9A42     		cmp	r2, r3	@ tmp152, tmp149
 1107 002c 4141     		adc	r1, r1, r0	@ D.6478, D.6478, tmp153
 1108 002e 0F26     		mov	r6, #15	@ tmp154,
 1109 0030 0A1C     		mov	r2, r1	@ D.6477, D.6478
 1110 0032 081C     		mov	r0, r1	@ D.6477, D.6478
 1111 0034 1E40     		and	r6, r3	@ D.6479, tmp149
 1112 0036 3301     		lsl	r3, r6, #4	@ D.6477, D.6479,
 1113              	.LVL121:
 1114 0038 1A43     		orr	r2, r3	@ D.6477, D.6477
 1115 003a 8946     		mov	r9, r1	@ D.6478, D.6478
 1116 003c 6843     		mul	r0, r5	@ D.6477, rate16
 1117 003e 311C     		mov	r1, r6	@, D.6479
 1118 0040 9046     		mov	r8, r2	@ D.6477, D.6477
 1119 0042 FFF7FEFF 		bl	__aeabi_uidiv	@
 1120              	.LVL122:
 1121 0046 4119     		add	r1, r0, r5	@ D.6477, D.6477, rate16
 1122 0048 381C     		mov	r0, r7	@, uClk
 1123 004a FFF7FEFF 		bl	__aeabi_uidiv	@
 1124              	.LVL123:
 1125 004e 4B46     		mov	r3, r9	@ D.6478, D.6478
 1126 0050 051C     		mov	r5, r0	@ D.6479,
 1127              	.LVL124:
 1128 0052 1801     		lsl	r0, r3, #4	@ D.6477, D.6478,
 1129 0054 6843     		mul	r0, r5	@ D.6477, D.6479
 1130 0056 311C     		mov	r1, r6	@, D.6479
 1131 0058 FFF7FEFF 		bl	__aeabi_uidiv	@
 1132              	.LVL125:
 1133              	.L72:
 1134              	.LBB170:
 1135              	.LBB171:
 431:../lpc11cx4-library/lpc_chip_11cxx_lib/inc/uart_11xx.h **** }
 1136              		.loc 3 431 0
 1137 005c 8022     		mov	r2, #128	@ tmp170,
 1138              	.LBE171:
 1139              	.LBE170:
 1140              	.LBB174:
 1141              	.LBB175:
 456:../lpc11cx4-library/lpc_chip_11cxx_lib/inc/uart_11xx.h **** 	pUART->DLM = (uint32_t) dlm;
 1142              		.loc 3 456 0
 1143 005e FF21     		mov	r1, #255	@ tmp171,
 1144              	.LBE175:
 1145              	.LBE174:
 1146              	.LBB178:
 1147              	.LBB172:
 431:../lpc11cx4-library/lpc_chip_11cxx_lib/inc/uart_11xx.h **** }
 1148              		.loc 3 431 0
 1149 0060 E368     		ldr	r3, [r4, #12]	@ D.6477, pUART_16(D)->LCR
 1150              	.LBE172:
 1151              	.LBE178:
 265:../lpc11cx4-library/lpc_chip_11cxx_lib/src/uart_11xx.c ****          dval = 0;
 266:../lpc11cx4-library/lpc_chip_11cxx_lib/src/uart_11xx.c ****       }
 267:../lpc11cx4-library/lpc_chip_11cxx_lib/src/uart_11xx.c ****     }
 268:../lpc11cx4-library/lpc_chip_11cxx_lib/src/uart_11xx.c ****     dval &= 0xf;
 269:../lpc11cx4-library/lpc_chip_11cxx_lib/src/uart_11xx.c ****     mval &= 0xf;
 270:../lpc11cx4-library/lpc_chip_11cxx_lib/src/uart_11xx.c ****     dl = uClk / (rate16 + rate16 *dval / mval);
 271:../lpc11cx4-library/lpc_chip_11cxx_lib/src/uart_11xx.c **** 
ARM GAS  /var/folders/9j/_txx49hn253_s3mnzkyxlj8m0000gp/T//ccgYRR5b.s 			page 42


 272:../lpc11cx4-library/lpc_chip_11cxx_lib/src/uart_11xx.c ****     /* Update UART registers */
 273:../lpc11cx4-library/lpc_chip_11cxx_lib/src/uart_11xx.c ****     Chip_UART_EnableDivisorAccess(pUART);
 274:../lpc11cx4-library/lpc_chip_11cxx_lib/src/uart_11xx.c **** 	Chip_UART_SetDivisorLatches(pUART, UART_LOAD_DLL(dl), UART_LOAD_DLM(dl));
 275:../lpc11cx4-library/lpc_chip_11cxx_lib/src/uart_11xx.c **** 	Chip_UART_DisableDivisorAccess(pUART);
 276:../lpc11cx4-library/lpc_chip_11cxx_lib/src/uart_11xx.c **** 
 277:../lpc11cx4-library/lpc_chip_11cxx_lib/src/uart_11xx.c **** 	/* Set best fractional divider */
 278:../lpc11cx4-library/lpc_chip_11cxx_lib/src/uart_11xx.c **** 	pUART->FDR = (UART_FDR_MULVAL(mval) | UART_FDR_DIVADDVAL(dval));
 279:../lpc11cx4-library/lpc_chip_11cxx_lib/src/uart_11xx.c **** 
 280:../lpc11cx4-library/lpc_chip_11cxx_lib/src/uart_11xx.c **** 	/* Return actual baud rate */
 281:../lpc11cx4-library/lpc_chip_11cxx_lib/src/uart_11xx.c **** 	actualRate = uClk / (16 * dl + 16 * dl * dval / mval);
 282:../lpc11cx4-library/lpc_chip_11cxx_lib/src/uart_11xx.c **** 	return actualRate;
 283:../lpc11cx4-library/lpc_chip_11cxx_lib/src/uart_11xx.c **** }
 1152              		.loc 1 283 0
 1153              		@ sp needed	@
 1154              	.LBB179:
 1155              	.LBB173:
 431:../lpc11cx4-library/lpc_chip_11cxx_lib/inc/uart_11xx.h **** }
 1156              		.loc 3 431 0
 1157 0062 1343     		orr	r3, r2	@ D.6477, tmp170
 1158 0064 E360     		str	r3, [r4, #12]	@ D.6477, pUART_16(D)->LCR
 1159              	.LVL126:
 1160              	.LBE173:
 1161              	.LBE179:
 1162              	.LBB180:
 1163              	.LBB176:
 456:../lpc11cx4-library/lpc_chip_11cxx_lib/inc/uart_11xx.h **** 	pUART->DLM = (uint32_t) dlm;
 1164              		.loc 3 456 0
 1165 0066 0B1C     		mov	r3, r1	@ D.6477, tmp171
 1166 0068 2B40     		and	r3, r5	@ D.6477, D.6479
 1167 006a 2360     		str	r3, [r4]	@ D.6477, pUART_16(D)->D.5003.DLL
 1168              	.LBE176:
 1169              	.LBE180:
 274:../lpc11cx4-library/lpc_chip_11cxx_lib/src/uart_11xx.c **** 	Chip_UART_DisableDivisorAccess(pUART);
 1170              		.loc 1 274 0
 1171 006c 2B0A     		lsr	r3, r5, #8	@ D.6477, D.6479,
 1172              	.LBB181:
 1173              	.LBB177:
 457:../lpc11cx4-library/lpc_chip_11cxx_lib/inc/uart_11xx.h **** }
 1174              		.loc 3 457 0
 1175 006e 0B40     		and	r3, r1	@ D.6477, tmp171
 1176 0070 6360     		str	r3, [r4, #4]	@ D.6477, pUART_16(D)->D.5007.DLM
 1177              	.LVL127:
 1178              	.LBE177:
 1179              	.LBE181:
 1180              	.LBB182:
 1181              	.LBB183:
 441:../lpc11cx4-library/lpc_chip_11cxx_lib/inc/uart_11xx.h **** }
 1182              		.loc 3 441 0
 1183 0072 E368     		ldr	r3, [r4, #12]	@ D.6477, pUART_16(D)->LCR
 1184              	.LBE183:
 1185              	.LBE182:
 281:../lpc11cx4-library/lpc_chip_11cxx_lib/src/uart_11xx.c **** 	return actualRate;
 1186              		.loc 1 281 0
 1187 0074 2901     		lsl	r1, r5, #4	@ D.6477, D.6479,
 1188              	.LBB185:
 1189              	.LBB184:
 441:../lpc11cx4-library/lpc_chip_11cxx_lib/inc/uart_11xx.h **** }
ARM GAS  /var/folders/9j/_txx49hn253_s3mnzkyxlj8m0000gp/T//ccgYRR5b.s 			page 43


 1190              		.loc 3 441 0
 1191 0076 9343     		bic	r3, r2	@ D.6477, tmp170
 1192 0078 E360     		str	r3, [r4, #12]	@ D.6477, pUART_16(D)->LCR
 1193              	.LBE184:
 1194              	.LBE185:
 278:../lpc11cx4-library/lpc_chip_11cxx_lib/src/uart_11xx.c **** 
 1195              		.loc 1 278 0
 1196 007a 4346     		mov	r3, r8	@ D.6477, D.6477
 281:../lpc11cx4-library/lpc_chip_11cxx_lib/src/uart_11xx.c **** 	return actualRate;
 1197              		.loc 1 281 0
 1198 007c 0918     		add	r1, r1, r0	@ D.6477, D.6477, D.6477
 278:../lpc11cx4-library/lpc_chip_11cxx_lib/src/uart_11xx.c **** 
 1199              		.loc 1 278 0
 1200 007e A362     		str	r3, [r4, #40]	@ D.6477, pUART_16(D)->FDR
 1201              	.LVL128:
 281:../lpc11cx4-library/lpc_chip_11cxx_lib/src/uart_11xx.c **** 	return actualRate;
 1202              		.loc 1 281 0
 1203 0080 381C     		mov	r0, r7	@, uClk
 1204              	.LVL129:
 1205 0082 FFF7FEFF 		bl	__aeabi_uidiv	@
 1206              	.LVL130:
 1207              	.LVL131:
 1208              	.LVL132:
 1209              	.LVL133:
 1210              		.loc 1 283 0
 1211 0086 0CBC     		pop	{r2, r3}
 1212 0088 9046     		mov	r8, r2
 1213 008a 9946     		mov	r9, r3
 1214 008c F8BD     		pop	{r3, r4, r5, r6, r7, pc}
 1215              	.LVL134:
 1216              	.L73:
 1217 008e 291C     		mov	r1, r5	@, rate16
 1218              	.LVL135:
 1219 0090 381C     		mov	r0, r7	@, uClk
 1220 0092 FFF7FEFF 		bl	__aeabi_uidiv	@
 1221              	.LVL136:
 257:../lpc11cx4-library/lpc_chip_11cxx_lib/src/uart_11xx.c ****         mval = rate16 / dval;
 1222              		.loc 1 257 0
 1223 0096 0023     		mov	r3, #0	@ D.6477,
 1224 0098 051C     		mov	r5, r0	@ D.6479,
 1225              	.LVL137:
 1226 009a 9846     		mov	r8, r3	@ D.6477, D.6477
 1227 009c 0020     		mov	r0, #0	@ D.6477,
 1228 009e DDE7     		b	.L72	@
 1229              		.cfi_endproc
 1230              	.LFE210:
 1231              		.size	Chip_UART_SetBaudFDR, .-Chip_UART_SetBaudFDR
 1232              		.text
 1233              	.Letext0:
 1234              		.file 4 "/usr/local/Cellar/gcc-arm-none-eabi/20150925/arm-none-eabi/include/machine/_default_types
 1235              		.file 5 "/usr/local/Cellar/gcc-arm-none-eabi/20150925/arm-none-eabi/include/sys/_stdint.h"
 1236              		.file 6 "../lpc11cx4-library/lpc_chip_11cxx_lib/inc/sysctl_11xx.h"
 1237              		.file 7 "../lpc11cx4-library/lpc_chip_11cxx_lib/inc/ring_buffer.h"
 1238              		.file 8 "../lpc11cx4-library/lpc_chip_11cxx_lib/inc/chip.h"
 1239              		.section	.debug_info,"",%progbits
 1240              	.Ldebug_info0:
 1241 0000 A0130000 		.4byte	0x13a0
ARM GAS  /var/folders/9j/_txx49hn253_s3mnzkyxlj8m0000gp/T//ccgYRR5b.s 			page 44


 1242 0004 0400     		.2byte	0x4
 1243 0006 00000000 		.4byte	.Ldebug_abbrev0
 1244 000a 04       		.byte	0x4
 1245 000b 01       		.uleb128 0x1
 1246 000c 826B0000 		.4byte	.LASF1190
 1247 0010 01       		.byte	0x1
 1248 0011 2A660000 		.4byte	.LASF1191
 1249 0015 7F190000 		.4byte	.LASF1192
 1250 0019 28020000 		.4byte	.Ldebug_ranges0+0x228
 1251 001d 00000000 		.4byte	0
 1252 0021 00000000 		.4byte	.Ldebug_line0
 1253 0025 00000000 		.4byte	.Ldebug_macro0
 1254 0029 02       		.uleb128 0x2
 1255 002a 04       		.byte	0x4
 1256 002b 07       		.byte	0x7
 1257 002c B4460000 		.4byte	.LASF1023
 1258 0030 02       		.uleb128 0x2
 1259 0031 01       		.byte	0x1
 1260 0032 06       		.byte	0x6
 1261 0033 8A1A0000 		.4byte	.LASF1024
 1262 0037 03       		.uleb128 0x3
 1263 0038 260F0000 		.4byte	.LASF1029
 1264 003c 04       		.byte	0x4
 1265 003d 1D       		.byte	0x1d
 1266 003e 42000000 		.4byte	0x42
 1267 0042 02       		.uleb128 0x2
 1268 0043 01       		.byte	0x1
 1269 0044 08       		.byte	0x8
 1270 0045 EC1D0000 		.4byte	.LASF1025
 1271 0049 02       		.uleb128 0x2
 1272 004a 02       		.byte	0x2
 1273 004b 05       		.byte	0x5
 1274 004c 6E640000 		.4byte	.LASF1026
 1275 0050 02       		.uleb128 0x2
 1276 0051 02       		.byte	0x2
 1277 0052 07       		.byte	0x7
 1278 0053 15720000 		.4byte	.LASF1027
 1279 0057 02       		.uleb128 0x2
 1280 0058 04       		.byte	0x4
 1281 0059 05       		.byte	0x5
 1282 005a 1C130000 		.4byte	.LASF1028
 1283 005e 03       		.uleb128 0x3
 1284 005f BF3E0000 		.4byte	.LASF1030
 1285 0063 04       		.byte	0x4
 1286 0064 41       		.byte	0x41
 1287 0065 69000000 		.4byte	0x69
 1288 0069 02       		.uleb128 0x2
 1289 006a 04       		.byte	0x4
 1290 006b 07       		.byte	0x7
 1291 006c B5360000 		.4byte	.LASF1031
 1292 0070 02       		.uleb128 0x2
 1293 0071 08       		.byte	0x8
 1294 0072 05       		.byte	0x5
 1295 0073 263F0000 		.4byte	.LASF1032
 1296 0077 02       		.uleb128 0x2
 1297 0078 08       		.byte	0x8
 1298 0079 07       		.byte	0x7
ARM GAS  /var/folders/9j/_txx49hn253_s3mnzkyxlj8m0000gp/T//ccgYRR5b.s 			page 45


 1299 007a 78550000 		.4byte	.LASF1033
 1300 007e 04       		.uleb128 0x4
 1301 007f 04       		.byte	0x4
 1302 0080 05       		.byte	0x5
 1303 0081 696E7400 		.ascii	"int\000"
 1304 0085 03       		.uleb128 0x3
 1305 0086 E01A0000 		.4byte	.LASF1034
 1306 008a 05       		.byte	0x5
 1307 008b 14       		.byte	0x14
 1308 008c 37000000 		.4byte	0x37
 1309 0090 03       		.uleb128 0x3
 1310 0091 046F0000 		.4byte	.LASF1035
 1311 0095 05       		.byte	0x5
 1312 0096 20       		.byte	0x20
 1313 0097 5E000000 		.4byte	0x5e
 1314 009b 02       		.uleb128 0x2
 1315 009c 01       		.byte	0x1
 1316 009d 08       		.byte	0x8
 1317 009e 1A230000 		.4byte	.LASF373
 1318 00a2 02       		.uleb128 0x2
 1319 00a3 01       		.byte	0x1
 1320 00a4 02       		.byte	0x2
 1321 00a5 AD210000 		.4byte	.LASF1036
 1322 00a9 05       		.uleb128 0x5
 1323 00aa 90000000 		.4byte	0x90
 1324 00ae B9000000 		.4byte	0xb9
 1325 00b2 06       		.uleb128 0x6
 1326 00b3 B9000000 		.4byte	0xb9
 1327 00b7 00       		.byte	0
 1328 00b8 00       		.byte	0
 1329 00b9 02       		.uleb128 0x2
 1330 00ba 04       		.byte	0x4
 1331 00bb 07       		.byte	0x7
 1332 00bc 95010000 		.4byte	.LASF1037
 1333 00c0 05       		.uleb128 0x5
 1334 00c1 90000000 		.4byte	0x90
 1335 00c5 D0000000 		.4byte	0xd0
 1336 00c9 06       		.uleb128 0x6
 1337 00ca B9000000 		.4byte	0xb9
 1338 00ce 07       		.byte	0x7
 1339 00cf 00       		.byte	0
 1340 00d0 07       		.uleb128 0x7
 1341 00d1 D5000000 		.4byte	0xd5
 1342 00d5 08       		.uleb128 0x8
 1343 00d6 90000000 		.4byte	0x90
 1344 00da 05       		.uleb128 0x5
 1345 00db 90000000 		.4byte	0x90
 1346 00df EA000000 		.4byte	0xea
 1347 00e3 06       		.uleb128 0x6
 1348 00e4 B9000000 		.4byte	0xb9
 1349 00e8 01       		.byte	0x1
 1350 00e9 00       		.byte	0
 1351 00ea 05       		.uleb128 0x5
 1352 00eb 90000000 		.4byte	0x90
 1353 00ef FA000000 		.4byte	0xfa
 1354 00f3 06       		.uleb128 0x6
 1355 00f4 B9000000 		.4byte	0xb9
ARM GAS  /var/folders/9j/_txx49hn253_s3mnzkyxlj8m0000gp/T//ccgYRR5b.s 			page 46


 1356 00f8 03       		.byte	0x3
 1357 00f9 00       		.byte	0
 1358 00fa 05       		.uleb128 0x5
 1359 00fb 90000000 		.4byte	0x90
 1360 00ff 0A010000 		.4byte	0x10a
 1361 0103 06       		.uleb128 0x6
 1362 0104 B9000000 		.4byte	0xb9
 1363 0108 02       		.byte	0x2
 1364 0109 00       		.byte	0
 1365 010a 09       		.uleb128 0x9
 1366 010b F803     		.2byte	0x3f8
 1367 010d 06       		.byte	0x6
 1368 010e 2F       		.byte	0x2f
 1369 010f 1F040000 		.4byte	0x41f
 1370 0113 0A       		.uleb128 0xa
 1371 0114 272E0000 		.4byte	.LASF1038
 1372 0118 06       		.byte	0x6
 1373 0119 30       		.byte	0x30
 1374 011a D5000000 		.4byte	0xd5
 1375 011e 00       		.byte	0
 1376 011f 0A       		.uleb128 0xa
 1377 0120 415A0000 		.4byte	.LASF1039
 1378 0124 06       		.byte	0x6
 1379 0125 31       		.byte	0x31
 1380 0126 D5000000 		.4byte	0xd5
 1381 012a 04       		.byte	0x4
 1382 012b 0A       		.uleb128 0xa
 1383 012c CA2D0000 		.4byte	.LASF1040
 1384 0130 06       		.byte	0x6
 1385 0131 32       		.byte	0x32
 1386 0132 D5000000 		.4byte	0xd5
 1387 0136 08       		.byte	0x8
 1388 0137 0A       		.uleb128 0xa
 1389 0138 266B0000 		.4byte	.LASF1041
 1390 013c 06       		.byte	0x6
 1391 013d 33       		.byte	0x33
 1392 013e D0000000 		.4byte	0xd0
 1393 0142 0C       		.byte	0xc
 1394 0143 0A       		.uleb128 0xa
 1395 0144 0D6B0000 		.4byte	.LASF1042
 1396 0148 06       		.byte	0x6
 1397 0149 34       		.byte	0x34
 1398 014a D5000000 		.4byte	0xd5
 1399 014e 10       		.byte	0x10
 1400 014f 0A       		.uleb128 0xa
 1401 0150 5B340000 		.4byte	.LASF1043
 1402 0154 06       		.byte	0x6
 1403 0155 35       		.byte	0x35
 1404 0156 D0000000 		.4byte	0xd0
 1405 015a 14       		.byte	0x14
 1406 015b 0A       		.uleb128 0xa
 1407 015c E21D0000 		.4byte	.LASF1044
 1408 0160 06       		.byte	0x6
 1409 0161 36       		.byte	0x36
 1410 0162 1F040000 		.4byte	0x41f
 1411 0166 18       		.byte	0x18
 1412 0167 0A       		.uleb128 0xa
ARM GAS  /var/folders/9j/_txx49hn253_s3mnzkyxlj8m0000gp/T//ccgYRR5b.s 			page 47


 1413 0168 7E510000 		.4byte	.LASF1045
 1414 016c 06       		.byte	0x6
 1415 016d 37       		.byte	0x37
 1416 016e D5000000 		.4byte	0xd5
 1417 0172 20       		.byte	0x20
 1418 0173 0A       		.uleb128 0xa
 1419 0174 CE700000 		.4byte	.LASF1046
 1420 0178 06       		.byte	0x6
 1421 0179 38       		.byte	0x38
 1422 017a D5000000 		.4byte	0xd5
 1423 017e 24       		.byte	0x24
 1424 017f 0A       		.uleb128 0xa
 1425 0180 51590000 		.4byte	.LASF1047
 1426 0184 06       		.byte	0x6
 1427 0185 39       		.byte	0x39
 1428 0186 D5000000 		.4byte	0xd5
 1429 018a 28       		.byte	0x28
 1430 018b 0A       		.uleb128 0xa
 1431 018c 4B620000 		.4byte	.LASF1048
 1432 0190 06       		.byte	0x6
 1433 0191 3A       		.byte	0x3a
 1434 0192 D5000000 		.4byte	0xd5
 1435 0196 2C       		.byte	0x2c
 1436 0197 0A       		.uleb128 0xa
 1437 0198 56410000 		.4byte	.LASF1049
 1438 019c 06       		.byte	0x6
 1439 019d 3B       		.byte	0x3b
 1440 019e D5000000 		.4byte	0xd5
 1441 01a2 30       		.byte	0x30
 1442 01a3 0A       		.uleb128 0xa
 1443 01a4 3D220000 		.4byte	.LASF1050
 1444 01a8 06       		.byte	0x6
 1445 01a9 3C       		.byte	0x3c
 1446 01aa 29040000 		.4byte	0x429
 1447 01ae 34       		.byte	0x34
 1448 01af 0A       		.uleb128 0xa
 1449 01b0 79140000 		.4byte	.LASF1051
 1450 01b4 06       		.byte	0x6
 1451 01b5 3D       		.byte	0x3d
 1452 01b6 D5000000 		.4byte	0xd5
 1453 01ba 40       		.byte	0x40
 1454 01bb 0A       		.uleb128 0xa
 1455 01bc DB460000 		.4byte	.LASF1052
 1456 01c0 06       		.byte	0x6
 1457 01c1 3E       		.byte	0x3e
 1458 01c2 D5000000 		.4byte	0xd5
 1459 01c6 44       		.byte	0x44
 1460 01c7 0A       		.uleb128 0xa
 1461 01c8 0B1B0000 		.4byte	.LASF1053
 1462 01cc 06       		.byte	0x6
 1463 01cd 3F       		.byte	0x3f
 1464 01ce D5000000 		.4byte	0xd5
 1465 01d2 48       		.byte	0x48
 1466 01d3 0A       		.uleb128 0xa
 1467 01d4 0F4D0000 		.4byte	.LASF1054
 1468 01d8 06       		.byte	0x6
 1469 01d9 40       		.byte	0x40
ARM GAS  /var/folders/9j/_txx49hn253_s3mnzkyxlj8m0000gp/T//ccgYRR5b.s 			page 48


 1470 01da D5000000 		.4byte	0xd5
 1471 01de 4C       		.byte	0x4c
 1472 01df 0A       		.uleb128 0xa
 1473 01e0 FA1D0000 		.4byte	.LASF1055
 1474 01e4 06       		.byte	0x6
 1475 01e5 41       		.byte	0x41
 1476 01e6 33040000 		.4byte	0x433
 1477 01ea 50       		.byte	0x50
 1478 01eb 0A       		.uleb128 0xa
 1479 01ec 681E0000 		.4byte	.LASF1056
 1480 01f0 06       		.byte	0x6
 1481 01f1 42       		.byte	0x42
 1482 01f2 D5000000 		.4byte	0xd5
 1483 01f6 70       		.byte	0x70
 1484 01f7 0A       		.uleb128 0xa
 1485 01f8 27500000 		.4byte	.LASF1057
 1486 01fc 06       		.byte	0x6
 1487 01fd 43       		.byte	0x43
 1488 01fe D5000000 		.4byte	0xd5
 1489 0202 74       		.byte	0x74
 1490 0203 0A       		.uleb128 0xa
 1491 0204 94490000 		.4byte	.LASF1058
 1492 0208 06       		.byte	0x6
 1493 0209 44       		.byte	0x44
 1494 020a D5000000 		.4byte	0xd5
 1495 020e 78       		.byte	0x78
 1496 020f 0A       		.uleb128 0xa
 1497 0210 041E0000 		.4byte	.LASF1059
 1498 0214 06       		.byte	0x6
 1499 0215 45       		.byte	0x45
 1500 0216 D0000000 		.4byte	0xd0
 1501 021a 7C       		.byte	0x7c
 1502 021b 0A       		.uleb128 0xa
 1503 021c 0B590000 		.4byte	.LASF1060
 1504 0220 06       		.byte	0x6
 1505 0221 46       		.byte	0x46
 1506 0222 D5000000 		.4byte	0xd5
 1507 0226 80       		.byte	0x80
 1508 0227 0A       		.uleb128 0xa
 1509 0228 0E1E0000 		.4byte	.LASF1061
 1510 022c 06       		.byte	0x6
 1511 022d 47       		.byte	0x47
 1512 022e 3D040000 		.4byte	0x43d
 1513 0232 84       		.byte	0x84
 1514 0233 0A       		.uleb128 0xa
 1515 0234 746C0000 		.4byte	.LASF1062
 1516 0238 06       		.byte	0x6
 1517 0239 48       		.byte	0x48
 1518 023a D5000000 		.4byte	0xd5
 1519 023e 94       		.byte	0x94
 1520 023f 0A       		.uleb128 0xa
 1521 0240 B0230000 		.4byte	.LASF1063
 1522 0244 06       		.byte	0x6
 1523 0245 49       		.byte	0x49
 1524 0246 D5000000 		.4byte	0xd5
 1525 024a 98       		.byte	0x98
 1526 024b 0A       		.uleb128 0xa
ARM GAS  /var/folders/9j/_txx49hn253_s3mnzkyxlj8m0000gp/T//ccgYRR5b.s 			page 49


 1527 024c BC710000 		.4byte	.LASF1064
 1528 0250 06       		.byte	0x6
 1529 0251 4A       		.byte	0x4a
 1530 0252 D5000000 		.4byte	0xd5
 1531 0256 9C       		.byte	0x9c
 1532 0257 0A       		.uleb128 0xa
 1533 0258 181E0000 		.4byte	.LASF1065
 1534 025c 06       		.byte	0x6
 1535 025d 4B       		.byte	0x4b
 1536 025e 47040000 		.4byte	0x447
 1537 0262 A0       		.byte	0xa0
 1538 0263 0A       		.uleb128 0xa
 1539 0264 03760000 		.4byte	.LASF1066
 1540 0268 06       		.byte	0x6
 1541 0269 4C       		.byte	0x4c
 1542 026a D5000000 		.4byte	0xd5
 1543 026e C0       		.byte	0xc0
 1544 026f 0A       		.uleb128 0xa
 1545 0270 DB2F0000 		.4byte	.LASF1067
 1546 0274 06       		.byte	0x6
 1547 0275 4D       		.byte	0x4d
 1548 0276 D5000000 		.4byte	0xd5
 1549 027a C4       		.byte	0xc4
 1550 027b 0A       		.uleb128 0xa
 1551 027c 170A0000 		.4byte	.LASF1068
 1552 0280 06       		.byte	0x6
 1553 0281 4E       		.byte	0x4e
 1554 0282 D5000000 		.4byte	0xd5
 1555 0286 C8       		.byte	0xc8
 1556 0287 0A       		.uleb128 0xa
 1557 0288 221E0000 		.4byte	.LASF1069
 1558 028c 06       		.byte	0x6
 1559 028d 4F       		.byte	0x4f
 1560 028e D0000000 		.4byte	0xd0
 1561 0292 CC       		.byte	0xcc
 1562 0293 0A       		.uleb128 0xa
 1563 0294 A65C0000 		.4byte	.LASF1070
 1564 0298 06       		.byte	0x6
 1565 0299 50       		.byte	0x50
 1566 029a D5000000 		.4byte	0xd5
 1567 029e D0       		.byte	0xd0
 1568 029f 0A       		.uleb128 0xa
 1569 02a0 96140000 		.4byte	.LASF1071
 1570 02a4 06       		.byte	0x6
 1571 02a5 51       		.byte	0x51
 1572 02a6 D5000000 		.4byte	0xd5
 1573 02aa D4       		.byte	0xd4
 1574 02ab 0A       		.uleb128 0xa
 1575 02ac 556A0000 		.4byte	.LASF1072
 1576 02b0 06       		.byte	0x6
 1577 02b1 52       		.byte	0x52
 1578 02b2 D5000000 		.4byte	0xd5
 1579 02b6 D8       		.byte	0xd8
 1580 02b7 0A       		.uleb128 0xa
 1581 02b8 2C1E0000 		.4byte	.LASF1073
 1582 02bc 06       		.byte	0x6
 1583 02bd 53       		.byte	0x53
ARM GAS  /var/folders/9j/_txx49hn253_s3mnzkyxlj8m0000gp/T//ccgYRR5b.s 			page 50


 1584 02be D0000000 		.4byte	0xd0
 1585 02c2 DC       		.byte	0xdc
 1586 02c3 0A       		.uleb128 0xa
 1587 02c4 D1630000 		.4byte	.LASF1074
 1588 02c8 06       		.byte	0x6
 1589 02c9 54       		.byte	0x54
 1590 02ca D5000000 		.4byte	0xd5
 1591 02ce E0       		.byte	0xe0
 1592 02cf 0A       		.uleb128 0xa
 1593 02d0 C01B0000 		.4byte	.LASF1075
 1594 02d4 06       		.byte	0x6
 1595 02d5 55       		.byte	0x55
 1596 02d6 D5000000 		.4byte	0xd5
 1597 02da E4       		.byte	0xe4
 1598 02db 0A       		.uleb128 0xa
 1599 02dc 0E710000 		.4byte	.LASF1076
 1600 02e0 06       		.byte	0x6
 1601 02e1 56       		.byte	0x56
 1602 02e2 D5000000 		.4byte	0xd5
 1603 02e6 E8       		.byte	0xe8
 1604 02e7 0A       		.uleb128 0xa
 1605 02e8 361E0000 		.4byte	.LASF1077
 1606 02ec 06       		.byte	0x6
 1607 02ed 57       		.byte	0x57
 1608 02ee 61040000 		.4byte	0x461
 1609 02f2 EC       		.byte	0xec
 1610 02f3 0B       		.uleb128 0xb
 1611 02f4 04140000 		.4byte	.LASF1078
 1612 02f8 06       		.byte	0x6
 1613 02f9 58       		.byte	0x58
 1614 02fa 6B040000 		.4byte	0x46b
 1615 02fe 0001     		.2byte	0x100
 1616 0300 0B       		.uleb128 0xb
 1617 0301 C2570000 		.4byte	.LASF1079
 1618 0305 06       		.byte	0x6
 1619 0306 59       		.byte	0x59
 1620 0307 85040000 		.4byte	0x485
 1621 030b 0801     		.2byte	0x108
 1622 030d 0B       		.uleb128 0xb
 1623 030e 77060000 		.4byte	.LASF1080
 1624 0312 06       		.byte	0x6
 1625 0313 5A       		.byte	0x5a
 1626 0314 D5000000 		.4byte	0xd5
 1627 0318 5001     		.2byte	0x150
 1628 031a 0B       		.uleb128 0xb
 1629 031b 4E750000 		.4byte	.LASF1081
 1630 031f 06       		.byte	0x6
 1631 0320 5B       		.byte	0x5b
 1632 0321 D5000000 		.4byte	0xd5
 1633 0325 5401     		.2byte	0x154
 1634 0327 0B       		.uleb128 0xb
 1635 0328 CD570000 		.4byte	.LASF1082
 1636 032c 06       		.byte	0x6
 1637 032d 5C       		.byte	0x5c
 1638 032e 9F040000 		.4byte	0x49f
 1639 0332 5801     		.2byte	0x158
 1640 0334 0B       		.uleb128 0xb
ARM GAS  /var/folders/9j/_txx49hn253_s3mnzkyxlj8m0000gp/T//ccgYRR5b.s 			page 51


 1641 0335 E33A0000 		.4byte	.LASF1083
 1642 0339 06       		.byte	0x6
 1643 033a 5D       		.byte	0x5d
 1644 033b D5000000 		.4byte	0xd5
 1645 033f 7001     		.2byte	0x170
 1646 0341 0B       		.uleb128 0xb
 1647 0342 00690000 		.4byte	.LASF1084
 1648 0346 06       		.byte	0x6
 1649 0347 5E       		.byte	0x5e
 1650 0348 D5000000 		.4byte	0xd5
 1651 034c 7401     		.2byte	0x174
 1652 034e 0B       		.uleb128 0xb
 1653 034f DA100000 		.4byte	.LASF1085
 1654 0353 06       		.byte	0x6
 1655 0354 5F       		.byte	0x5f
 1656 0355 A9040000 		.4byte	0x4a9
 1657 0359 7801     		.2byte	0x178
 1658 035b 0B       		.uleb128 0xb
 1659 035c FB300000 		.4byte	.LASF1086
 1660 0360 06       		.byte	0x6
 1661 0361 60       		.byte	0x60
 1662 0362 D5000000 		.4byte	0xd5
 1663 0366 9801     		.2byte	0x198
 1664 0368 0B       		.uleb128 0xb
 1665 0369 385A0000 		.4byte	.LASF1087
 1666 036d 06       		.byte	0x6
 1667 036e 61       		.byte	0x61
 1668 036f D0000000 		.4byte	0xd0
 1669 0373 9C01     		.2byte	0x19c
 1670 0375 0B       		.uleb128 0xb
 1671 0376 D8570000 		.4byte	.LASF1088
 1672 037a 06       		.byte	0x6
 1673 037b 62       		.byte	0x62
 1674 037c BE040000 		.4byte	0x4be
 1675 0380 A001     		.2byte	0x1a0
 1676 0382 0B       		.uleb128 0xb
 1677 0383 D04B0000 		.4byte	.LASF1089
 1678 0387 06       		.byte	0x6
 1679 0388 63       		.byte	0x63
 1680 0389 D5000000 		.4byte	0xd5
 1681 038d 0002     		.2byte	0x200
 1682 038f 0B       		.uleb128 0xb
 1683 0390 D0660000 		.4byte	.LASF1090
 1684 0394 06       		.byte	0x6
 1685 0395 64       		.byte	0x64
 1686 0396 D5000000 		.4byte	0xd5
 1687 039a 0402     		.2byte	0x204
 1688 039c 0B       		.uleb128 0xb
 1689 039d 186B0000 		.4byte	.LASF1091
 1690 03a1 06       		.byte	0x6
 1691 03a2 65       		.byte	0x65
 1692 03a3 D5000000 		.4byte	0xd5
 1693 03a7 0802     		.2byte	0x208
 1694 03a9 0B       		.uleb128 0xb
 1695 03aa 3B6F0000 		.4byte	.LASF1092
 1696 03ae 06       		.byte	0x6
 1697 03af 66       		.byte	0x66
ARM GAS  /var/folders/9j/_txx49hn253_s3mnzkyxlj8m0000gp/T//ccgYRR5b.s 			page 52


 1698 03b0 D5000000 		.4byte	0xd5
 1699 03b4 0C02     		.2byte	0x20c
 1700 03b6 0B       		.uleb128 0xb
 1701 03b7 E3570000 		.4byte	.LASF1093
 1702 03bb 06       		.byte	0x6
 1703 03bc 67       		.byte	0x67
 1704 03bd D0000000 		.4byte	0xd0
 1705 03c1 1002     		.2byte	0x210
 1706 03c3 0B       		.uleb128 0xb
 1707 03c4 DA660000 		.4byte	.LASF1094
 1708 03c8 06       		.byte	0x6
 1709 03c9 68       		.byte	0x68
 1710 03ca D5000000 		.4byte	0xd5
 1711 03ce 1402     		.2byte	0x214
 1712 03d0 0B       		.uleb128 0xb
 1713 03d1 EE570000 		.4byte	.LASF1095
 1714 03d5 06       		.byte	0x6
 1715 03d6 69       		.byte	0x69
 1716 03d7 C8040000 		.4byte	0x4c8
 1717 03db 1802     		.2byte	0x218
 1718 03dd 0B       		.uleb128 0xb
 1719 03de 5D4A0000 		.4byte	.LASF1096
 1720 03e2 06       		.byte	0x6
 1721 03e3 6A       		.byte	0x6a
 1722 03e4 D5000000 		.4byte	0xd5
 1723 03e8 3002     		.2byte	0x230
 1724 03ea 0B       		.uleb128 0xb
 1725 03eb 205A0000 		.4byte	.LASF1097
 1726 03ef 06       		.byte	0x6
 1727 03f0 6B       		.byte	0x6b
 1728 03f1 D5000000 		.4byte	0xd5
 1729 03f5 3402     		.2byte	0x234
 1730 03f7 0B       		.uleb128 0xb
 1731 03f8 68190000 		.4byte	.LASF1098
 1732 03fc 06       		.byte	0x6
 1733 03fd 6C       		.byte	0x6c
 1734 03fe D5000000 		.4byte	0xd5
 1735 0402 3802     		.2byte	0x238
 1736 0404 0B       		.uleb128 0xb
 1737 0405 F9570000 		.4byte	.LASF1099
 1738 0409 06       		.byte	0x6
 1739 040a 6D       		.byte	0x6d
 1740 040b E2040000 		.4byte	0x4e2
 1741 040f 3C02     		.2byte	0x23c
 1742 0411 0B       		.uleb128 0xb
 1743 0412 56630000 		.4byte	.LASF1100
 1744 0416 06       		.byte	0x6
 1745 0417 6E       		.byte	0x6e
 1746 0418 D0000000 		.4byte	0xd0
 1747 041c F403     		.2byte	0x3f4
 1748 041e 00       		.byte	0
 1749 041f 07       		.uleb128 0x7
 1750 0420 24040000 		.4byte	0x424
 1751 0424 08       		.uleb128 0x8
 1752 0425 DA000000 		.4byte	0xda
 1753 0429 07       		.uleb128 0x7
 1754 042a 2E040000 		.4byte	0x42e
ARM GAS  /var/folders/9j/_txx49hn253_s3mnzkyxlj8m0000gp/T//ccgYRR5b.s 			page 53


 1755 042e 08       		.uleb128 0x8
 1756 042f FA000000 		.4byte	0xfa
 1757 0433 07       		.uleb128 0x7
 1758 0434 38040000 		.4byte	0x438
 1759 0438 08       		.uleb128 0x8
 1760 0439 C0000000 		.4byte	0xc0
 1761 043d 07       		.uleb128 0x7
 1762 043e 42040000 		.4byte	0x442
 1763 0442 08       		.uleb128 0x8
 1764 0443 EA000000 		.4byte	0xea
 1765 0447 07       		.uleb128 0x7
 1766 0448 4C040000 		.4byte	0x44c
 1767 044c 08       		.uleb128 0x8
 1768 044d C0000000 		.4byte	0xc0
 1769 0451 05       		.uleb128 0x5
 1770 0452 90000000 		.4byte	0x90
 1771 0456 61040000 		.4byte	0x461
 1772 045a 06       		.uleb128 0x6
 1773 045b B9000000 		.4byte	0xb9
 1774 045f 04       		.byte	0x4
 1775 0460 00       		.byte	0
 1776 0461 07       		.uleb128 0x7
 1777 0462 66040000 		.4byte	0x466
 1778 0466 08       		.uleb128 0x8
 1779 0467 51040000 		.4byte	0x451
 1780 046b 07       		.uleb128 0x7
 1781 046c 70040000 		.4byte	0x470
 1782 0470 08       		.uleb128 0x8
 1783 0471 DA000000 		.4byte	0xda
 1784 0475 05       		.uleb128 0x5
 1785 0476 90000000 		.4byte	0x90
 1786 047a 85040000 		.4byte	0x485
 1787 047e 06       		.uleb128 0x6
 1788 047f B9000000 		.4byte	0xb9
 1789 0483 11       		.byte	0x11
 1790 0484 00       		.byte	0
 1791 0485 07       		.uleb128 0x7
 1792 0486 8A040000 		.4byte	0x48a
 1793 048a 08       		.uleb128 0x8
 1794 048b 75040000 		.4byte	0x475
 1795 048f 05       		.uleb128 0x5
 1796 0490 90000000 		.4byte	0x90
 1797 0494 9F040000 		.4byte	0x49f
 1798 0498 06       		.uleb128 0x6
 1799 0499 B9000000 		.4byte	0xb9
 1800 049d 05       		.byte	0x5
 1801 049e 00       		.byte	0
 1802 049f 07       		.uleb128 0x7
 1803 04a0 A4040000 		.4byte	0x4a4
 1804 04a4 08       		.uleb128 0x8
 1805 04a5 8F040000 		.4byte	0x48f
 1806 04a9 08       		.uleb128 0x8
 1807 04aa C0000000 		.4byte	0xc0
 1808 04ae 05       		.uleb128 0x5
 1809 04af 90000000 		.4byte	0x90
 1810 04b3 BE040000 		.4byte	0x4be
 1811 04b7 06       		.uleb128 0x6
ARM GAS  /var/folders/9j/_txx49hn253_s3mnzkyxlj8m0000gp/T//ccgYRR5b.s 			page 54


 1812 04b8 B9000000 		.4byte	0xb9
 1813 04bc 17       		.byte	0x17
 1814 04bd 00       		.byte	0
 1815 04be 07       		.uleb128 0x7
 1816 04bf C3040000 		.4byte	0x4c3
 1817 04c3 08       		.uleb128 0x8
 1818 04c4 AE040000 		.4byte	0x4ae
 1819 04c8 07       		.uleb128 0x7
 1820 04c9 CD040000 		.4byte	0x4cd
 1821 04cd 08       		.uleb128 0x8
 1822 04ce 8F040000 		.4byte	0x48f
 1823 04d2 05       		.uleb128 0x5
 1824 04d3 90000000 		.4byte	0x90
 1825 04d7 E2040000 		.4byte	0x4e2
 1826 04db 06       		.uleb128 0x6
 1827 04dc B9000000 		.4byte	0xb9
 1828 04e0 6D       		.byte	0x6d
 1829 04e1 00       		.byte	0
 1830 04e2 07       		.uleb128 0x7
 1831 04e3 E7040000 		.4byte	0x4e7
 1832 04e7 08       		.uleb128 0x8
 1833 04e8 D2040000 		.4byte	0x4d2
 1834 04ec 03       		.uleb128 0x3
 1835 04ed 7B0F0000 		.4byte	.LASF1101
 1836 04f1 06       		.byte	0x6
 1837 04f2 6F       		.byte	0x6f
 1838 04f3 0A010000 		.4byte	0x10a
 1839 04f7 0C       		.uleb128 0xc
 1840 04f8 D13A0000 		.4byte	.LASF1193
 1841 04fc 01       		.byte	0x1
 1842 04fd 02       		.byte	0x2
 1843 04fe E4       		.byte	0xe4
 1844 04ff 76050000 		.4byte	0x576
 1845 0503 0D       		.uleb128 0xd
 1846 0504 A5000000 		.4byte	.LASF1102
 1847 0508 00       		.sleb128 0
 1848 0509 0D       		.uleb128 0xd
 1849 050a A33C0000 		.4byte	.LASF1103
 1850 050e 01       		.sleb128 1
 1851 050f 0D       		.uleb128 0xd
 1852 0510 72010000 		.4byte	.LASF1104
 1853 0514 02       		.sleb128 2
 1854 0515 0D       		.uleb128 0xd
 1855 0516 F9520000 		.4byte	.LASF1105
 1856 051a 03       		.sleb128 3
 1857 051b 0D       		.uleb128 0xd
 1858 051c CD320000 		.4byte	.LASF1106
 1859 0520 04       		.sleb128 4
 1860 0521 0D       		.uleb128 0xd
 1861 0522 87560000 		.4byte	.LASF1107
 1862 0526 05       		.sleb128 5
 1863 0527 0D       		.uleb128 0xd
 1864 0528 9B330000 		.4byte	.LASF1108
 1865 052c 06       		.sleb128 6
 1866 052d 0D       		.uleb128 0xd
 1867 052e F06E0000 		.4byte	.LASF1109
 1868 0532 07       		.sleb128 7
ARM GAS  /var/folders/9j/_txx49hn253_s3mnzkyxlj8m0000gp/T//ccgYRR5b.s 			page 55


 1869 0533 0D       		.uleb128 0xd
 1870 0534 4C070000 		.4byte	.LASF1110
 1871 0538 08       		.sleb128 8
 1872 0539 0D       		.uleb128 0xd
 1873 053a 600D0000 		.4byte	.LASF1111
 1874 053e 09       		.sleb128 9
 1875 053f 0D       		.uleb128 0xd
 1876 0540 740D0000 		.4byte	.LASF1112
 1877 0544 0A       		.sleb128 10
 1878 0545 0D       		.uleb128 0xd
 1879 0546 FF230000 		.4byte	.LASF1113
 1880 054a 0B       		.sleb128 11
 1881 054b 0D       		.uleb128 0xd
 1882 054c 74560000 		.4byte	.LASF1114
 1883 0550 0C       		.sleb128 12
 1884 0551 0D       		.uleb128 0xd
 1885 0552 81540000 		.4byte	.LASF1115
 1886 0556 0D       		.sleb128 13
 1887 0557 0D       		.uleb128 0xd
 1888 0558 E3550000 		.4byte	.LASF1116
 1889 055c 0E       		.sleb128 14
 1890 055d 0D       		.uleb128 0xd
 1891 055e E50E0000 		.4byte	.LASF1117
 1892 0562 0F       		.sleb128 15
 1893 0563 0D       		.uleb128 0xd
 1894 0564 063B0000 		.4byte	.LASF1118
 1895 0568 10       		.sleb128 16
 1896 0569 0D       		.uleb128 0xd
 1897 056a EE780000 		.4byte	.LASF1119
 1898 056e 11       		.sleb128 17
 1899 056f 0D       		.uleb128 0xd
 1900 0570 11240000 		.4byte	.LASF1120
 1901 0574 12       		.sleb128 18
 1902 0575 00       		.byte	0
 1903 0576 0E       		.uleb128 0xe
 1904 0577 4D060000 		.4byte	.LASF1121
 1905 057b 02       		.byte	0x2
 1906 057c 2001     		.2byte	0x120
 1907 057e F7040000 		.4byte	0x4f7
 1908 0582 0F       		.uleb128 0xf
 1909 0583 14       		.byte	0x14
 1910 0584 07       		.byte	0x7
 1911 0585 2D       		.byte	0x2d
 1912 0586 C7050000 		.4byte	0x5c7
 1913 058a 0A       		.uleb128 0xa
 1914 058b D0770000 		.4byte	.LASF1122
 1915 058f 07       		.byte	0x7
 1916 0590 2E       		.byte	0x2e
 1917 0591 C7050000 		.4byte	0x5c7
 1918 0595 00       		.byte	0
 1919 0596 0A       		.uleb128 0xa
 1920 0597 1F450000 		.4byte	.LASF1123
 1921 059b 07       		.byte	0x7
 1922 059c 2F       		.byte	0x2f
 1923 059d 90000000 		.4byte	0x90
 1924 05a1 04       		.byte	0x4
 1925 05a2 0A       		.uleb128 0xa
ARM GAS  /var/folders/9j/_txx49hn253_s3mnzkyxlj8m0000gp/T//ccgYRR5b.s 			page 56


 1926 05a3 D4600000 		.4byte	.LASF1124
 1927 05a7 07       		.byte	0x7
 1928 05a8 30       		.byte	0x30
 1929 05a9 90000000 		.4byte	0x90
 1930 05ad 08       		.byte	0x8
 1931 05ae 0A       		.uleb128 0xa
 1932 05af 9E170000 		.4byte	.LASF1125
 1933 05b3 07       		.byte	0x7
 1934 05b4 31       		.byte	0x31
 1935 05b5 90000000 		.4byte	0x90
 1936 05b9 0C       		.byte	0xc
 1937 05ba 0A       		.uleb128 0xa
 1938 05bb 7F030000 		.4byte	.LASF1126
 1939 05bf 07       		.byte	0x7
 1940 05c0 32       		.byte	0x32
 1941 05c1 90000000 		.4byte	0x90
 1942 05c5 10       		.byte	0x10
 1943 05c6 00       		.byte	0
 1944 05c7 10       		.uleb128 0x10
 1945 05c8 04       		.byte	0x4
 1946 05c9 03       		.uleb128 0x3
 1947 05ca FC4F0000 		.4byte	.LASF1127
 1948 05ce 07       		.byte	0x7
 1949 05cf 33       		.byte	0x33
 1950 05d0 82050000 		.4byte	0x582
 1951 05d4 11       		.uleb128 0x11
 1952 05d5 04       		.byte	0x4
 1953 05d6 03       		.byte	0x3
 1954 05d7 33       		.byte	0x33
 1955 05d8 FE050000 		.4byte	0x5fe
 1956 05dc 12       		.uleb128 0x12
 1957 05dd 444C4C00 		.ascii	"DLL\000"
 1958 05e1 03       		.byte	0x3
 1959 05e2 34       		.byte	0x34
 1960 05e3 D5000000 		.4byte	0xd5
 1961 05e7 12       		.uleb128 0x12
 1962 05e8 54485200 		.ascii	"THR\000"
 1963 05ec 03       		.byte	0x3
 1964 05ed 35       		.byte	0x35
 1965 05ee D5000000 		.4byte	0xd5
 1966 05f2 12       		.uleb128 0x12
 1967 05f3 52425200 		.ascii	"RBR\000"
 1968 05f7 03       		.byte	0x3
 1969 05f8 36       		.byte	0x36
 1970 05f9 D0000000 		.4byte	0xd0
 1971 05fd 00       		.byte	0
 1972 05fe 11       		.uleb128 0x11
 1973 05ff 04       		.byte	0x4
 1974 0600 03       		.byte	0x3
 1975 0601 39       		.byte	0x39
 1976 0602 1D060000 		.4byte	0x61d
 1977 0606 12       		.uleb128 0x12
 1978 0607 49455200 		.ascii	"IER\000"
 1979 060b 03       		.byte	0x3
 1980 060c 3A       		.byte	0x3a
 1981 060d D5000000 		.4byte	0xd5
 1982 0611 12       		.uleb128 0x12
ARM GAS  /var/folders/9j/_txx49hn253_s3mnzkyxlj8m0000gp/T//ccgYRR5b.s 			page 57


 1983 0612 444C4D00 		.ascii	"DLM\000"
 1984 0616 03       		.byte	0x3
 1985 0617 3B       		.byte	0x3b
 1986 0618 D5000000 		.4byte	0xd5
 1987 061c 00       		.byte	0
 1988 061d 11       		.uleb128 0x11
 1989 061e 04       		.byte	0x4
 1990 061f 03       		.byte	0x3
 1991 0620 3E       		.byte	0x3e
 1992 0621 3C060000 		.4byte	0x63c
 1993 0625 12       		.uleb128 0x12
 1994 0626 46435200 		.ascii	"FCR\000"
 1995 062a 03       		.byte	0x3
 1996 062b 3F       		.byte	0x3f
 1997 062c D5000000 		.4byte	0xd5
 1998 0630 12       		.uleb128 0x12
 1999 0631 49495200 		.ascii	"IIR\000"
 2000 0635 03       		.byte	0x3
 2001 0636 40       		.byte	0x40
 2002 0637 D0000000 		.4byte	0xd0
 2003 063b 00       		.byte	0
 2004 063c 11       		.uleb128 0x11
 2005 063d 04       		.byte	0x4
 2006 063e 03       		.byte	0x3
 2007 063f 56       		.byte	0x56
 2008 0640 5B060000 		.4byte	0x65b
 2009 0644 13       		.uleb128 0x13
 2010 0645 2C540000 		.4byte	.LASF1128
 2011 0649 03       		.byte	0x3
 2012 064a 57       		.byte	0x57
 2013 064b D5000000 		.4byte	0xd5
 2014 064f 13       		.uleb128 0x13
 2015 0650 C7160000 		.4byte	.LASF1129
 2016 0654 03       		.byte	0x3
 2017 0655 58       		.byte	0x58
 2018 0656 D0000000 		.4byte	0xd0
 2019 065a 00       		.byte	0
 2020 065b 0F       		.uleb128 0xf
 2021 065c 60       		.byte	0x60
 2022 065d 03       		.byte	0x3
 2023 065e 31       		.byte	0x31
 2024 065f 54070000 		.4byte	0x754
 2025 0663 14       		.uleb128 0x14
 2026 0664 D4050000 		.4byte	0x5d4
 2027 0668 00       		.byte	0
 2028 0669 14       		.uleb128 0x14
 2029 066a FE050000 		.4byte	0x5fe
 2030 066e 04       		.byte	0x4
 2031 066f 14       		.uleb128 0x14
 2032 0670 1D060000 		.4byte	0x61d
 2033 0674 08       		.byte	0x8
 2034 0675 15       		.uleb128 0x15
 2035 0676 4C435200 		.ascii	"LCR\000"
 2036 067a 03       		.byte	0x3
 2037 067b 43       		.byte	0x43
 2038 067c D5000000 		.4byte	0xd5
 2039 0680 0C       		.byte	0xc
ARM GAS  /var/folders/9j/_txx49hn253_s3mnzkyxlj8m0000gp/T//ccgYRR5b.s 			page 58


 2040 0681 15       		.uleb128 0x15
 2041 0682 4D435200 		.ascii	"MCR\000"
 2042 0686 03       		.byte	0x3
 2043 0687 44       		.byte	0x44
 2044 0688 D5000000 		.4byte	0xd5
 2045 068c 10       		.byte	0x10
 2046 068d 15       		.uleb128 0x15
 2047 068e 4C535200 		.ascii	"LSR\000"
 2048 0692 03       		.byte	0x3
 2049 0693 45       		.byte	0x45
 2050 0694 D0000000 		.4byte	0xd0
 2051 0698 14       		.byte	0x14
 2052 0699 15       		.uleb128 0x15
 2053 069a 4D535200 		.ascii	"MSR\000"
 2054 069e 03       		.byte	0x3
 2055 069f 46       		.byte	0x46
 2056 06a0 D0000000 		.4byte	0xd0
 2057 06a4 18       		.byte	0x18
 2058 06a5 15       		.uleb128 0x15
 2059 06a6 53435200 		.ascii	"SCR\000"
 2060 06aa 03       		.byte	0x3
 2061 06ab 47       		.byte	0x47
 2062 06ac D5000000 		.4byte	0xd5
 2063 06b0 1C       		.byte	0x1c
 2064 06b1 15       		.uleb128 0x15
 2065 06b2 41435200 		.ascii	"ACR\000"
 2066 06b6 03       		.byte	0x3
 2067 06b7 48       		.byte	0x48
 2068 06b8 D5000000 		.4byte	0xd5
 2069 06bc 20       		.byte	0x20
 2070 06bd 15       		.uleb128 0x15
 2071 06be 49435200 		.ascii	"ICR\000"
 2072 06c2 03       		.byte	0x3
 2073 06c3 49       		.byte	0x49
 2074 06c4 D5000000 		.4byte	0xd5
 2075 06c8 24       		.byte	0x24
 2076 06c9 15       		.uleb128 0x15
 2077 06ca 46445200 		.ascii	"FDR\000"
 2078 06ce 03       		.byte	0x3
 2079 06cf 4A       		.byte	0x4a
 2080 06d0 D5000000 		.4byte	0xd5
 2081 06d4 28       		.byte	0x28
 2082 06d5 15       		.uleb128 0x15
 2083 06d6 4F535200 		.ascii	"OSR\000"
 2084 06da 03       		.byte	0x3
 2085 06db 4B       		.byte	0x4b
 2086 06dc D5000000 		.4byte	0xd5
 2087 06e0 2C       		.byte	0x2c
 2088 06e1 0A       		.uleb128 0xa
 2089 06e2 D20D0000 		.4byte	.LASF1130
 2090 06e6 03       		.byte	0x3
 2091 06e7 4C       		.byte	0x4c
 2092 06e8 D5000000 		.4byte	0xd5
 2093 06ec 30       		.byte	0x30
 2094 06ed 0A       		.uleb128 0xa
 2095 06ee D81D0000 		.4byte	.LASF1131
 2096 06f2 03       		.byte	0x3
ARM GAS  /var/folders/9j/_txx49hn253_s3mnzkyxlj8m0000gp/T//ccgYRR5b.s 			page 59


 2097 06f3 4D       		.byte	0x4d
 2098 06f4 FA000000 		.4byte	0xfa
 2099 06f8 34       		.byte	0x34
 2100 06f9 0A       		.uleb128 0xa
 2101 06fa 56390000 		.4byte	.LASF1132
 2102 06fe 03       		.byte	0x3
 2103 06ff 4E       		.byte	0x4e
 2104 0700 D5000000 		.4byte	0xd5
 2105 0704 40       		.byte	0x40
 2106 0705 0A       		.uleb128 0xa
 2107 0706 E21D0000 		.4byte	.LASF1044
 2108 070a 03       		.byte	0x3
 2109 070b 4F       		.byte	0x4f
 2110 070c 54070000 		.4byte	0x754
 2111 0710 44       		.byte	0x44
 2112 0711 0A       		.uleb128 0xa
 2113 0712 355D0000 		.4byte	.LASF1133
 2114 0716 03       		.byte	0x3
 2115 0717 50       		.byte	0x50
 2116 0718 D5000000 		.4byte	0xd5
 2117 071c 48       		.byte	0x48
 2118 071d 0A       		.uleb128 0xa
 2119 071e C7540000 		.4byte	.LASF1134
 2120 0722 03       		.byte	0x3
 2121 0723 52       		.byte	0x52
 2122 0724 D5000000 		.4byte	0xd5
 2123 0728 4C       		.byte	0x4c
 2124 0729 0A       		.uleb128 0xa
 2125 072a DC0D0000 		.4byte	.LASF1135
 2126 072e 03       		.byte	0x3
 2127 072f 53       		.byte	0x53
 2128 0730 D5000000 		.4byte	0xd5
 2129 0734 50       		.byte	0x50
 2130 0735 0A       		.uleb128 0xa
 2131 0736 E42E0000 		.4byte	.LASF1136
 2132 073a 03       		.byte	0x3
 2133 073b 54       		.byte	0x54
 2134 073c D5000000 		.4byte	0xd5
 2135 0740 54       		.byte	0x54
 2136 0741 14       		.uleb128 0x14
 2137 0742 3C060000 		.4byte	0x63c
 2138 0746 58       		.byte	0x58
 2139 0747 0A       		.uleb128 0xa
 2140 0748 D70D0000 		.4byte	.LASF1137
 2141 074c 03       		.byte	0x3
 2142 074d 5B       		.byte	0x5b
 2143 074e D5000000 		.4byte	0xd5
 2144 0752 5C       		.byte	0x5c
 2145 0753 00       		.byte	0
 2146 0754 07       		.uleb128 0x7
 2147 0755 59070000 		.4byte	0x759
 2148 0759 08       		.uleb128 0x8
 2149 075a A9000000 		.4byte	0xa9
 2150 075e 03       		.uleb128 0x3
 2151 075f 580C0000 		.4byte	.LASF1138
 2152 0763 03       		.byte	0x3
 2153 0764 5C       		.byte	0x5c
ARM GAS  /var/folders/9j/_txx49hn253_s3mnzkyxlj8m0000gp/T//ccgYRR5b.s 			page 60


 2154 0765 5B060000 		.4byte	0x65b
 2155 0769 07       		.uleb128 0x7
 2156 076a 90000000 		.4byte	0x90
 2157 076e 16       		.uleb128 0x16
 2158 076f 04       		.byte	0x4
 2159 0770 85000000 		.4byte	0x85
 2160 0774 17       		.uleb128 0x17
 2161 0775 D74D0000 		.4byte	.LASF1148
 2162 0779 07       		.byte	0x7
 2163 077a 87       		.byte	0x87
 2164 077b 7E000000 		.4byte	0x7e
 2165 077f 03       		.byte	0x3
 2166 0780 90070000 		.4byte	0x790
 2167 0784 18       		.uleb128 0x18
 2168 0785 982C0000 		.4byte	.LASF1139
 2169 0789 07       		.byte	0x7
 2170 078a 87       		.byte	0x87
 2171 078b 90070000 		.4byte	0x790
 2172 078f 00       		.byte	0
 2173 0790 16       		.uleb128 0x16
 2174 0791 04       		.byte	0x4
 2175 0792 C9050000 		.4byte	0x5c9
 2176 0796 19       		.uleb128 0x19
 2177 0797 1E560000 		.4byte	.LASF1140
 2178 079b 02       		.byte	0x2
 2179 079c 2701     		.2byte	0x127
 2180 079e 03       		.byte	0x3
 2181 079f B0070000 		.4byte	0x7b0
 2182 07a3 1A       		.uleb128 0x1a
 2183 07a4 636C6B00 		.ascii	"clk\000"
 2184 07a8 02       		.byte	0x2
 2185 07a9 2701     		.2byte	0x127
 2186 07ab 76050000 		.4byte	0x576
 2187 07af 00       		.byte	0
 2188 07b0 19       		.uleb128 0x19
 2189 07b1 B4180000 		.4byte	.LASF1141
 2190 07b5 02       		.byte	0x2
 2191 07b6 5301     		.2byte	0x153
 2192 07b8 03       		.byte	0x3
 2193 07b9 CA070000 		.4byte	0x7ca
 2194 07bd 1A       		.uleb128 0x1a
 2195 07be 64697600 		.ascii	"div\000"
 2196 07c2 02       		.byte	0x2
 2197 07c3 5301     		.2byte	0x153
 2198 07c5 90000000 		.4byte	0x90
 2199 07c9 00       		.byte	0
 2200 07ca 19       		.uleb128 0x19
 2201 07cb 5F220000 		.4byte	.LASF1142
 2202 07cf 03       		.byte	0x3
 2203 07d0 9401     		.2byte	0x194
 2204 07d2 03       		.byte	0x3
 2205 07d3 F0070000 		.4byte	0x7f0
 2206 07d7 1B       		.uleb128 0x1b
 2207 07d8 53780000 		.4byte	.LASF1143
 2208 07dc 03       		.byte	0x3
 2209 07dd 9401     		.2byte	0x194
 2210 07df F0070000 		.4byte	0x7f0
ARM GAS  /var/folders/9j/_txx49hn253_s3mnzkyxlj8m0000gp/T//ccgYRR5b.s 			page 61


 2211 07e3 1A       		.uleb128 0x1a
 2212 07e4 66637200 		.ascii	"fcr\000"
 2213 07e8 03       		.byte	0x3
 2214 07e9 9401     		.2byte	0x194
 2215 07eb 90000000 		.4byte	0x90
 2216 07ef 00       		.byte	0
 2217 07f0 16       		.uleb128 0x16
 2218 07f1 04       		.byte	0x4
 2219 07f2 5E070000 		.4byte	0x75e
 2220 07f6 19       		.uleb128 0x19
 2221 07f7 9B690000 		.4byte	.LASF1144
 2222 07fb 03       		.byte	0x3
 2223 07fc A301     		.2byte	0x1a3
 2224 07fe 03       		.byte	0x3
 2225 07ff 1C080000 		.4byte	0x81c
 2226 0803 1B       		.uleb128 0x1b
 2227 0804 53780000 		.4byte	.LASF1143
 2228 0808 03       		.byte	0x3
 2229 0809 A301     		.2byte	0x1a3
 2230 080b F0070000 		.4byte	0x7f0
 2231 080f 1B       		.uleb128 0x1b
 2232 0810 100A0000 		.4byte	.LASF1145
 2233 0814 03       		.byte	0x3
 2234 0815 A301     		.2byte	0x1a3
 2235 0817 90000000 		.4byte	0x90
 2236 081b 00       		.byte	0
 2237 081c 19       		.uleb128 0x19
 2238 081d FA330000 		.4byte	.LASF1146
 2239 0821 02       		.byte	0x2
 2240 0822 3101     		.2byte	0x131
 2241 0824 03       		.byte	0x3
 2242 0825 36080000 		.4byte	0x836
 2243 0829 1A       		.uleb128 0x1a
 2244 082a 636C6B00 		.ascii	"clk\000"
 2245 082e 02       		.byte	0x2
 2246 082f 3101     		.2byte	0x131
 2247 0831 76050000 		.4byte	0x576
 2248 0835 00       		.byte	0
 2249 0836 19       		.uleb128 0x19
 2250 0837 DB760000 		.4byte	.LASF1147
 2251 083b 03       		.byte	0x3
 2252 083c 4301     		.2byte	0x143
 2253 083e 03       		.byte	0x3
 2254 083f 5C080000 		.4byte	0x85c
 2255 0843 1B       		.uleb128 0x1b
 2256 0844 53780000 		.4byte	.LASF1143
 2257 0848 03       		.byte	0x3
 2258 0849 4301     		.2byte	0x143
 2259 084b F0070000 		.4byte	0x7f0
 2260 084f 1B       		.uleb128 0x1b
 2261 0850 D0770000 		.4byte	.LASF1122
 2262 0854 03       		.byte	0x3
 2263 0855 4301     		.2byte	0x143
 2264 0857 85000000 		.4byte	0x85
 2265 085b 00       		.byte	0
 2266 085c 1C       		.uleb128 0x1c
 2267 085d E1410000 		.4byte	.LASF1149
ARM GAS  /var/folders/9j/_txx49hn253_s3mnzkyxlj8m0000gp/T//ccgYRR5b.s 			page 62


 2268 0861 03       		.byte	0x3
 2269 0862 F901     		.2byte	0x1f9
 2270 0864 90000000 		.4byte	0x90
 2271 0868 03       		.byte	0x3
 2272 0869 7A080000 		.4byte	0x87a
 2273 086d 1B       		.uleb128 0x1b
 2274 086e 53780000 		.4byte	.LASF1143
 2275 0872 03       		.byte	0x3
 2276 0873 F901     		.2byte	0x1f9
 2277 0875 F0070000 		.4byte	0x7f0
 2278 0879 00       		.byte	0
 2279 087a 1D       		.uleb128 0x1d
 2280 087b 47710000 		.4byte	.LASF1153
 2281 087f 01       		.byte	0x1
 2282 0880 4A       		.byte	0x4a
 2283 0881 7E000000 		.4byte	0x7e
 2284 0885 01       		.byte	0x1
 2285 0886 C1080000 		.4byte	0x8c1
 2286 088a 18       		.uleb128 0x18
 2287 088b 53780000 		.4byte	.LASF1143
 2288 088f 01       		.byte	0x1
 2289 0890 4A       		.byte	0x4a
 2290 0891 F0070000 		.4byte	0x7f0
 2291 0895 18       		.uleb128 0x18
 2292 0896 D0770000 		.4byte	.LASF1122
 2293 089a 01       		.byte	0x1
 2294 089b 4A       		.byte	0x4a
 2295 089c C1080000 		.4byte	0x8c1
 2296 08a0 18       		.uleb128 0x18
 2297 08a1 02590000 		.4byte	.LASF1150
 2298 08a5 01       		.byte	0x1
 2299 08a6 4A       		.byte	0x4a
 2300 08a7 7E000000 		.4byte	0x7e
 2301 08ab 1E       		.uleb128 0x1e
 2302 08ac F03E0000 		.4byte	.LASF1151
 2303 08b0 01       		.byte	0x1
 2304 08b1 4C       		.byte	0x4c
 2305 08b2 7E000000 		.4byte	0x7e
 2306 08b6 1F       		.uleb128 0x1f
 2307 08b7 703800   		.ascii	"p8\000"
 2308 08ba 01       		.byte	0x1
 2309 08bb 4D       		.byte	0x4d
 2310 08bc 6E070000 		.4byte	0x76e
 2311 08c0 00       		.byte	0
 2312 08c1 16       		.uleb128 0x16
 2313 08c2 04       		.byte	0x4
 2314 08c3 C7080000 		.4byte	0x8c7
 2315 08c7 20       		.uleb128 0x20
 2316 08c8 1C       		.uleb128 0x1c
 2317 08c9 8E040000 		.4byte	.LASF1152
 2318 08cd 03       		.byte	0x3
 2319 08ce 5001     		.2byte	0x150
 2320 08d0 85000000 		.4byte	0x85
 2321 08d4 03       		.byte	0x3
 2322 08d5 E6080000 		.4byte	0x8e6
 2323 08d9 1B       		.uleb128 0x1b
 2324 08da 53780000 		.4byte	.LASF1143
ARM GAS  /var/folders/9j/_txx49hn253_s3mnzkyxlj8m0000gp/T//ccgYRR5b.s 			page 63


 2325 08de 03       		.byte	0x3
 2326 08df 5001     		.2byte	0x150
 2327 08e1 F0070000 		.4byte	0x7f0
 2328 08e5 00       		.byte	0
 2329 08e6 1D       		.uleb128 0x1d
 2330 08e7 13790000 		.4byte	.LASF1154
 2331 08eb 01       		.byte	0x1
 2332 08ec 6B       		.byte	0x6b
 2333 08ed 7E000000 		.4byte	0x7e
 2334 08f1 01       		.byte	0x1
 2335 08f2 2D090000 		.4byte	0x92d
 2336 08f6 18       		.uleb128 0x18
 2337 08f7 53780000 		.4byte	.LASF1143
 2338 08fb 01       		.byte	0x1
 2339 08fc 6B       		.byte	0x6b
 2340 08fd F0070000 		.4byte	0x7f0
 2341 0901 18       		.uleb128 0x18
 2342 0902 D0770000 		.4byte	.LASF1122
 2343 0906 01       		.byte	0x1
 2344 0907 6B       		.byte	0x6b
 2345 0908 C7050000 		.4byte	0x5c7
 2346 090c 18       		.uleb128 0x18
 2347 090d 02590000 		.4byte	.LASF1150
 2348 0911 01       		.byte	0x1
 2349 0912 6B       		.byte	0x6b
 2350 0913 7E000000 		.4byte	0x7e
 2351 0917 1E       		.uleb128 0x1e
 2352 0918 EF070000 		.4byte	.LASF1155
 2353 091c 01       		.byte	0x1
 2354 091d 6D       		.byte	0x6d
 2355 091e 7E000000 		.4byte	0x7e
 2356 0922 1F       		.uleb128 0x1f
 2357 0923 703800   		.ascii	"p8\000"
 2358 0926 01       		.byte	0x1
 2359 0927 6E       		.byte	0x6e
 2360 0928 6E070000 		.4byte	0x76e
 2361 092c 00       		.byte	0
 2362 092d 19       		.uleb128 0x19
 2363 092e 566C0000 		.4byte	.LASF1156
 2364 0932 03       		.byte	0x3
 2365 0933 AD01     		.2byte	0x1ad
 2366 0935 03       		.byte	0x3
 2367 0936 47090000 		.4byte	0x947
 2368 093a 1B       		.uleb128 0x1b
 2369 093b 53780000 		.4byte	.LASF1143
 2370 093f 03       		.byte	0x3
 2371 0940 AD01     		.2byte	0x1ad
 2372 0942 F0070000 		.4byte	0x7f0
 2373 0946 00       		.byte	0
 2374 0947 19       		.uleb128 0x19
 2375 0948 C41A0000 		.4byte	.LASF1157
 2376 094c 03       		.byte	0x3
 2377 094d C601     		.2byte	0x1c6
 2378 094f 03       		.byte	0x3
 2379 0950 79090000 		.4byte	0x979
 2380 0954 1B       		.uleb128 0x1b
 2381 0955 53780000 		.4byte	.LASF1143
ARM GAS  /var/folders/9j/_txx49hn253_s3mnzkyxlj8m0000gp/T//ccgYRR5b.s 			page 64


 2382 0959 03       		.byte	0x3
 2383 095a C601     		.2byte	0x1c6
 2384 095c F0070000 		.4byte	0x7f0
 2385 0960 1A       		.uleb128 0x1a
 2386 0961 646C6C00 		.ascii	"dll\000"
 2387 0965 03       		.byte	0x3
 2388 0966 C601     		.2byte	0x1c6
 2389 0968 85000000 		.4byte	0x85
 2390 096c 1A       		.uleb128 0x1a
 2391 096d 646C6D00 		.ascii	"dlm\000"
 2392 0971 03       		.byte	0x3
 2393 0972 C601     		.2byte	0x1c6
 2394 0974 85000000 		.4byte	0x85
 2395 0978 00       		.byte	0
 2396 0979 19       		.uleb128 0x19
 2397 097a 6E440000 		.4byte	.LASF1158
 2398 097e 03       		.byte	0x3
 2399 097f B701     		.2byte	0x1b7
 2400 0981 03       		.byte	0x3
 2401 0982 93090000 		.4byte	0x993
 2402 0986 1B       		.uleb128 0x1b
 2403 0987 53780000 		.4byte	.LASF1143
 2404 098b 03       		.byte	0x3
 2405 098c B701     		.2byte	0x1b7
 2406 098e F0070000 		.4byte	0x7f0
 2407 0992 00       		.byte	0
 2408 0993 19       		.uleb128 0x19
 2409 0994 3D5D0000 		.4byte	.LASF1159
 2410 0998 03       		.byte	0x3
 2411 0999 6E01     		.2byte	0x16e
 2412 099b 03       		.byte	0x3
 2413 099c B9090000 		.4byte	0x9b9
 2414 09a0 1B       		.uleb128 0x1b
 2415 09a1 53780000 		.4byte	.LASF1143
 2416 09a5 03       		.byte	0x3
 2417 09a6 6E01     		.2byte	0x16e
 2418 09a8 F0070000 		.4byte	0x7f0
 2419 09ac 1B       		.uleb128 0x1b
 2420 09ad 90260000 		.4byte	.LASF1160
 2421 09b1 03       		.byte	0x3
 2422 09b2 6E01     		.2byte	0x16e
 2423 09b4 90000000 		.4byte	0x90
 2424 09b8 00       		.byte	0
 2425 09b9 19       		.uleb128 0x19
 2426 09ba 45050000 		.4byte	.LASF1161
 2427 09be 03       		.byte	0x3
 2428 09bf 5F01     		.2byte	0x15f
 2429 09c1 03       		.byte	0x3
 2430 09c2 DF090000 		.4byte	0x9df
 2431 09c6 1B       		.uleb128 0x1b
 2432 09c7 53780000 		.4byte	.LASF1143
 2433 09cb 03       		.byte	0x3
 2434 09cc 5F01     		.2byte	0x15f
 2435 09ce F0070000 		.4byte	0x7f0
 2436 09d2 1B       		.uleb128 0x1b
 2437 09d3 90260000 		.4byte	.LASF1160
 2438 09d7 03       		.byte	0x3
ARM GAS  /var/folders/9j/_txx49hn253_s3mnzkyxlj8m0000gp/T//ccgYRR5b.s 			page 65


 2439 09d8 5F01     		.2byte	0x15f
 2440 09da 90000000 		.4byte	0x90
 2441 09de 00       		.byte	0
 2442 09df 21       		.uleb128 0x21
 2443 09e0 CF4E0000 		.4byte	.LASF1188
 2444 09e4 01       		.byte	0x1
 2445 09e5 A2       		.byte	0xa2
 2446 09e6 01       		.byte	0x1
 2447 09e7 0E0A0000 		.4byte	0xa0e
 2448 09eb 18       		.uleb128 0x18
 2449 09ec 53780000 		.4byte	.LASF1143
 2450 09f0 01       		.byte	0x1
 2451 09f1 A2       		.byte	0xa2
 2452 09f2 F0070000 		.4byte	0x7f0
 2453 09f6 22       		.uleb128 0x22
 2454 09f7 70524200 		.ascii	"pRB\000"
 2455 09fb 01       		.byte	0x1
 2456 09fc A2       		.byte	0xa2
 2457 09fd 90070000 		.4byte	0x790
 2458 0a01 23       		.uleb128 0x23
 2459 0a02 1F       		.uleb128 0x1f
 2460 0a03 636800   		.ascii	"ch\000"
 2461 0a06 01       		.byte	0x1
 2462 0a07 A6       		.byte	0xa6
 2463 0a08 85000000 		.4byte	0x85
 2464 0a0c 00       		.byte	0
 2465 0a0d 00       		.byte	0
 2466 0a0e 24       		.uleb128 0x24
 2467 0a0f 02430000 		.4byte	.LASF1162
 2468 0a13 01       		.byte	0x1
 2469 0a14 33       		.byte	0x33
 2470 0a15 00000000 		.4byte	.LFB198
 2471 0a19 28000000 		.4byte	.LFE198-.LFB198
 2472 0a1d 01       		.uleb128 0x1
 2473 0a1e 9C       		.byte	0x9c
 2474 0a1f A30A0000 		.4byte	0xaa3
 2475 0a23 25       		.uleb128 0x25
 2476 0a24 53780000 		.4byte	.LASF1143
 2477 0a28 01       		.byte	0x1
 2478 0a29 33       		.byte	0x33
 2479 0a2a F0070000 		.4byte	0x7f0
 2480 0a2e 01       		.uleb128 0x1
 2481 0a2f 50       		.byte	0x50
 2482 0a30 26       		.uleb128 0x26
 2483 0a31 96070000 		.4byte	0x796
 2484 0a35 00000000 		.4byte	.LBB68
 2485 0a39 00000000 		.4byte	.Ldebug_ranges0+0
 2486 0a3d 01       		.byte	0x1
 2487 0a3e 35       		.byte	0x35
 2488 0a3f 4A0A0000 		.4byte	0xa4a
 2489 0a43 27       		.uleb128 0x27
 2490 0a44 A3070000 		.4byte	0x7a3
 2491 0a48 0C       		.byte	0xc
 2492 0a49 00       		.byte	0
 2493 0a4a 28       		.uleb128 0x28
 2494 0a4b B0070000 		.4byte	0x7b0
 2495 0a4f 10000000 		.4byte	.LBB74
ARM GAS  /var/folders/9j/_txx49hn253_s3mnzkyxlj8m0000gp/T//ccgYRR5b.s 			page 66


 2496 0a53 06000000 		.4byte	.LBE74-.LBB74
 2497 0a57 01       		.byte	0x1
 2498 0a58 36       		.byte	0x36
 2499 0a59 640A0000 		.4byte	0xa64
 2500 0a5d 27       		.uleb128 0x27
 2501 0a5e BD070000 		.4byte	0x7bd
 2502 0a62 01       		.byte	0x1
 2503 0a63 00       		.byte	0
 2504 0a64 28       		.uleb128 0x28
 2505 0a65 CA070000 		.4byte	0x7ca
 2506 0a69 16000000 		.4byte	.LBB76
 2507 0a6d 04000000 		.4byte	.LBE76-.LBB76
 2508 0a71 01       		.byte	0x1
 2509 0a72 39       		.byte	0x39
 2510 0a73 850A0000 		.4byte	0xa85
 2511 0a77 27       		.uleb128 0x27
 2512 0a78 E3070000 		.4byte	0x7e3
 2513 0a7c 07       		.byte	0x7
 2514 0a7d 29       		.uleb128 0x29
 2515 0a7e D7070000 		.4byte	0x7d7
 2516 0a82 01       		.uleb128 0x1
 2517 0a83 50       		.byte	0x50
 2518 0a84 00       		.byte	0
 2519 0a85 2A       		.uleb128 0x2a
 2520 0a86 F6070000 		.4byte	0x7f6
 2521 0a8a 1A000000 		.4byte	.LBB78
 2522 0a8e 04000000 		.4byte	.LBE78-.LBB78
 2523 0a92 01       		.byte	0x1
 2524 0a93 3C       		.byte	0x3c
 2525 0a94 27       		.uleb128 0x27
 2526 0a95 0F080000 		.4byte	0x80f
 2527 0a99 03       		.byte	0x3
 2528 0a9a 29       		.uleb128 0x29
 2529 0a9b 03080000 		.4byte	0x803
 2530 0a9f 01       		.uleb128 0x1
 2531 0aa0 50       		.byte	0x50
 2532 0aa1 00       		.byte	0
 2533 0aa2 00       		.byte	0
 2534 0aa3 24       		.uleb128 0x24
 2535 0aa4 BC320000 		.4byte	.LASF1163
 2536 0aa8 01       		.byte	0x1
 2537 0aa9 43       		.byte	0x43
 2538 0aaa 00000000 		.4byte	.LFB199
 2539 0aae 18000000 		.4byte	.LFE199-.LFB199
 2540 0ab2 01       		.uleb128 0x1
 2541 0ab3 9C       		.byte	0x9c
 2542 0ab4 DE0A0000 		.4byte	0xade
 2543 0ab8 2B       		.uleb128 0x2b
 2544 0ab9 53780000 		.4byte	.LASF1143
 2545 0abd 01       		.byte	0x1
 2546 0abe 43       		.byte	0x43
 2547 0abf F0070000 		.4byte	0x7f0
 2548 0ac3 00000000 		.4byte	.LLST0
 2549 0ac7 2C       		.uleb128 0x2c
 2550 0ac8 1C080000 		.4byte	0x81c
 2551 0acc 00000000 		.4byte	.LBB80
 2552 0ad0 20000000 		.4byte	.Ldebug_ranges0+0x20
ARM GAS  /var/folders/9j/_txx49hn253_s3mnzkyxlj8m0000gp/T//ccgYRR5b.s 			page 67


 2553 0ad4 01       		.byte	0x1
 2554 0ad5 46       		.byte	0x46
 2555 0ad6 27       		.uleb128 0x27
 2556 0ad7 29080000 		.4byte	0x829
 2557 0adb 0C       		.byte	0xc
 2558 0adc 00       		.byte	0
 2559 0add 00       		.byte	0
 2560 0ade 2D       		.uleb128 0x2d
 2561 0adf 7A080000 		.4byte	0x87a
 2562 0ae3 00000000 		.4byte	.LFB200
 2563 0ae7 2E000000 		.4byte	.LFE200-.LFB200
 2564 0aeb 01       		.uleb128 0x1
 2565 0aec 9C       		.byte	0x9c
 2566 0aed 5C0B0000 		.4byte	0xb5c
 2567 0af1 2E       		.uleb128 0x2e
 2568 0af2 8A080000 		.4byte	0x88a
 2569 0af6 21000000 		.4byte	.LLST1
 2570 0afa 29       		.uleb128 0x29
 2571 0afb 95080000 		.4byte	0x895
 2572 0aff 01       		.uleb128 0x1
 2573 0b00 51       		.byte	0x51
 2574 0b01 2E       		.uleb128 0x2e
 2575 0b02 A0080000 		.4byte	0x8a0
 2576 0b06 4D000000 		.4byte	.LLST2
 2577 0b0a 2F       		.uleb128 0x2f
 2578 0b0b AB080000 		.4byte	0x8ab
 2579 0b0f A0000000 		.4byte	.LLST3
 2580 0b13 2F       		.uleb128 0x2f
 2581 0b14 B6080000 		.4byte	0x8b6
 2582 0b18 EE000000 		.4byte	.LLST4
 2583 0b1c 26       		.uleb128 0x26
 2584 0b1d 5C080000 		.4byte	0x85c
 2585 0b21 06000000 		.4byte	.LBB84
 2586 0b25 38000000 		.4byte	.Ldebug_ranges0+0x38
 2587 0b29 01       		.byte	0x1
 2588 0b2a 51       		.byte	0x51
 2589 0b2b 390B0000 		.4byte	0xb39
 2590 0b2f 2E       		.uleb128 0x2e
 2591 0b30 6D080000 		.4byte	0x86d
 2592 0b34 2E010000 		.4byte	.LLST5
 2593 0b38 00       		.byte	0
 2594 0b39 2C       		.uleb128 0x2c
 2595 0b3a 36080000 		.4byte	0x836
 2596 0b3e 18000000 		.4byte	.LBB88
 2597 0b42 50000000 		.4byte	.Ldebug_ranges0+0x50
 2598 0b46 01       		.byte	0x1
 2599 0b47 52       		.byte	0x52
 2600 0b48 2E       		.uleb128 0x2e
 2601 0b49 4F080000 		.4byte	0x84f
 2602 0b4d 4C010000 		.4byte	.LLST6
 2603 0b51 2E       		.uleb128 0x2e
 2604 0b52 43080000 		.4byte	0x843
 2605 0b56 A6010000 		.4byte	.LLST7
 2606 0b5a 00       		.byte	0
 2607 0b5b 00       		.byte	0
 2608 0b5c 30       		.uleb128 0x30
 2609 0b5d 25510000 		.4byte	.LASF1165
ARM GAS  /var/folders/9j/_txx49hn253_s3mnzkyxlj8m0000gp/T//ccgYRR5b.s 			page 68


 2610 0b61 01       		.byte	0x1
 2611 0b62 5B       		.byte	0x5b
 2612 0b63 7E000000 		.4byte	0x7e
 2613 0b67 00000000 		.4byte	.LFB201
 2614 0b6b 2A000000 		.4byte	.LFE201-.LFB201
 2615 0b6f 01       		.uleb128 0x1
 2616 0b70 9C       		.byte	0x9c
 2617 0b71 410C0000 		.4byte	0xc41
 2618 0b75 2B       		.uleb128 0x2b
 2619 0b76 53780000 		.4byte	.LASF1143
 2620 0b7a 01       		.byte	0x1
 2621 0b7b 5B       		.byte	0x5b
 2622 0b7c F0070000 		.4byte	0x7f0
 2623 0b80 C4010000 		.4byte	.LLST8
 2624 0b84 2B       		.uleb128 0x2b
 2625 0b85 D0770000 		.4byte	.LASF1122
 2626 0b89 01       		.byte	0x1
 2627 0b8a 5B       		.byte	0x5b
 2628 0b8b C1080000 		.4byte	0x8c1
 2629 0b8f E5010000 		.4byte	.LLST9
 2630 0b93 2B       		.uleb128 0x2b
 2631 0b94 02590000 		.4byte	.LASF1150
 2632 0b98 01       		.byte	0x1
 2633 0b99 5B       		.byte	0x5b
 2634 0b9a 7E000000 		.4byte	0x7e
 2635 0b9e 06020000 		.4byte	.LLST10
 2636 0ba2 31       		.uleb128 0x31
 2637 0ba3 00020000 		.4byte	.LASF1164
 2638 0ba7 01       		.byte	0x1
 2639 0ba8 5D       		.byte	0x5d
 2640 0ba9 7E000000 		.4byte	0x7e
 2641 0bad 01       		.uleb128 0x1
 2642 0bae 53       		.byte	0x53
 2643 0baf 32       		.uleb128 0x32
 2644 0bb0 F03E0000 		.4byte	.LASF1151
 2645 0bb4 01       		.byte	0x1
 2646 0bb5 5D       		.byte	0x5d
 2647 0bb6 7E000000 		.4byte	0x7e
 2648 0bba 24020000 		.4byte	.LLST11
 2649 0bbe 33       		.uleb128 0x33
 2650 0bbf 703800   		.ascii	"p8\000"
 2651 0bc2 01       		.byte	0x1
 2652 0bc3 5E       		.byte	0x5e
 2653 0bc4 6E070000 		.4byte	0x76e
 2654 0bc8 01       		.uleb128 0x1
 2655 0bc9 51       		.byte	0x51
 2656 0bca 2C       		.uleb128 0x2c
 2657 0bcb 7A080000 		.4byte	0x87a
 2658 0bcf 04000000 		.4byte	.LBB92
 2659 0bd3 68000000 		.4byte	.Ldebug_ranges0+0x68
 2660 0bd7 01       		.byte	0x1
 2661 0bd8 61       		.byte	0x61
 2662 0bd9 34       		.uleb128 0x34
 2663 0bda A0080000 		.4byte	0x8a0
 2664 0bde 34       		.uleb128 0x34
 2665 0bdf 95080000 		.4byte	0x895
 2666 0be3 34       		.uleb128 0x34
ARM GAS  /var/folders/9j/_txx49hn253_s3mnzkyxlj8m0000gp/T//ccgYRR5b.s 			page 69


 2667 0be4 8A080000 		.4byte	0x88a
 2668 0be8 35       		.uleb128 0x35
 2669 0be9 68000000 		.4byte	.Ldebug_ranges0+0x68
 2670 0bed 2F       		.uleb128 0x2f
 2671 0bee AB080000 		.4byte	0x8ab
 2672 0bf2 43020000 		.4byte	.LLST12
 2673 0bf6 2F       		.uleb128 0x2f
 2674 0bf7 B6080000 		.4byte	0x8b6
 2675 0bfb 7A020000 		.4byte	.LLST13
 2676 0bff 28       		.uleb128 0x28
 2677 0c00 5C080000 		.4byte	0x85c
 2678 0c04 0C000000 		.4byte	.LBB94
 2679 0c08 02000000 		.4byte	.LBE94-.LBB94
 2680 0c0c 01       		.byte	0x1
 2681 0c0d 51       		.byte	0x51
 2682 0c0e 1C0C0000 		.4byte	0xc1c
 2683 0c12 2E       		.uleb128 0x2e
 2684 0c13 6D080000 		.4byte	0x86d
 2685 0c17 AF020000 		.4byte	.LLST14
 2686 0c1b 00       		.byte	0
 2687 0c1c 2C       		.uleb128 0x2c
 2688 0c1d 36080000 		.4byte	0x836
 2689 0c21 12000000 		.4byte	.LBB96
 2690 0c25 80000000 		.4byte	.Ldebug_ranges0+0x80
 2691 0c29 01       		.byte	0x1
 2692 0c2a 52       		.byte	0x52
 2693 0c2b 2E       		.uleb128 0x2e
 2694 0c2c 4F080000 		.4byte	0x84f
 2695 0c30 C2020000 		.4byte	.LLST15
 2696 0c34 2E       		.uleb128 0x2e
 2697 0c35 43080000 		.4byte	0x843
 2698 0c39 F5020000 		.4byte	.LLST16
 2699 0c3d 00       		.byte	0
 2700 0c3e 00       		.byte	0
 2701 0c3f 00       		.byte	0
 2702 0c40 00       		.byte	0
 2703 0c41 2D       		.uleb128 0x2d
 2704 0c42 E6080000 		.4byte	0x8e6
 2705 0c46 00000000 		.4byte	.LFB202
 2706 0c4a 2E000000 		.4byte	.LFE202-.LFB202
 2707 0c4e 01       		.uleb128 0x1
 2708 0c4f 9C       		.byte	0x9c
 2709 0c50 B60C0000 		.4byte	0xcb6
 2710 0c54 2E       		.uleb128 0x2e
 2711 0c55 F6080000 		.4byte	0x8f6
 2712 0c59 08030000 		.4byte	.LLST17
 2713 0c5d 29       		.uleb128 0x29
 2714 0c5e 01090000 		.4byte	0x901
 2715 0c62 01       		.uleb128 0x1
 2716 0c63 51       		.byte	0x51
 2717 0c64 2E       		.uleb128 0x2e
 2718 0c65 0C090000 		.4byte	0x90c
 2719 0c69 34030000 		.4byte	.LLST18
 2720 0c6d 2F       		.uleb128 0x2f
 2721 0c6e 17090000 		.4byte	0x917
 2722 0c72 87030000 		.4byte	.LLST19
 2723 0c76 2F       		.uleb128 0x2f
ARM GAS  /var/folders/9j/_txx49hn253_s3mnzkyxlj8m0000gp/T//ccgYRR5b.s 			page 70


 2724 0c77 22090000 		.4byte	0x922
 2725 0c7b BD030000 		.4byte	.LLST20
 2726 0c7f 26       		.uleb128 0x26
 2727 0c80 5C080000 		.4byte	0x85c
 2728 0c84 06000000 		.4byte	.LBB102
 2729 0c88 98000000 		.4byte	.Ldebug_ranges0+0x98
 2730 0c8c 01       		.byte	0x1
 2731 0c8d 72       		.byte	0x72
 2732 0c8e 9C0C0000 		.4byte	0xc9c
 2733 0c92 2E       		.uleb128 0x2e
 2734 0c93 6D080000 		.4byte	0x86d
 2735 0c97 1D040000 		.4byte	.LLST21
 2736 0c9b 00       		.byte	0
 2737 0c9c 2A       		.uleb128 0x2a
 2738 0c9d C8080000 		.4byte	0x8c8
 2739 0ca1 18000000 		.4byte	.LBB106
 2740 0ca5 04000000 		.4byte	.LBE106-.LBB106
 2741 0ca9 01       		.byte	0x1
 2742 0caa 73       		.byte	0x73
 2743 0cab 2E       		.uleb128 0x2e
 2744 0cac D9080000 		.4byte	0x8d9
 2745 0cb0 3B040000 		.4byte	.LLST22
 2746 0cb4 00       		.byte	0
 2747 0cb5 00       		.byte	0
 2748 0cb6 30       		.uleb128 0x30
 2749 0cb7 9B6C0000 		.4byte	.LASF1166
 2750 0cbb 01       		.byte	0x1
 2751 0cbc 7C       		.byte	0x7c
 2752 0cbd 7E000000 		.4byte	0x7e
 2753 0cc1 00000000 		.4byte	.LFB203
 2754 0cc5 2A000000 		.4byte	.LFE203-.LFB203
 2755 0cc9 01       		.uleb128 0x1
 2756 0cca 9C       		.byte	0x9c
 2757 0ccb 920D0000 		.4byte	0xd92
 2758 0ccf 2B       		.uleb128 0x2b
 2759 0cd0 53780000 		.4byte	.LASF1143
 2760 0cd4 01       		.byte	0x1
 2761 0cd5 7C       		.byte	0x7c
 2762 0cd6 F0070000 		.4byte	0x7f0
 2763 0cda 59040000 		.4byte	.LLST23
 2764 0cde 2B       		.uleb128 0x2b
 2765 0cdf D0770000 		.4byte	.LASF1122
 2766 0ce3 01       		.byte	0x1
 2767 0ce4 7C       		.byte	0x7c
 2768 0ce5 C7050000 		.4byte	0x5c7
 2769 0ce9 7A040000 		.4byte	.LLST24
 2770 0ced 2B       		.uleb128 0x2b
 2771 0cee 02590000 		.4byte	.LASF1150
 2772 0cf2 01       		.byte	0x1
 2773 0cf3 7C       		.byte	0x7c
 2774 0cf4 7E000000 		.4byte	0x7e
 2775 0cf8 9B040000 		.4byte	.LLST25
 2776 0cfc 31       		.uleb128 0x31
 2777 0cfd 00020000 		.4byte	.LASF1164
 2778 0d01 01       		.byte	0x1
 2779 0d02 7E       		.byte	0x7e
 2780 0d03 7E000000 		.4byte	0x7e
ARM GAS  /var/folders/9j/_txx49hn253_s3mnzkyxlj8m0000gp/T//ccgYRR5b.s 			page 71


 2781 0d07 01       		.uleb128 0x1
 2782 0d08 53       		.byte	0x53
 2783 0d09 32       		.uleb128 0x32
 2784 0d0a EF070000 		.4byte	.LASF1155
 2785 0d0e 01       		.byte	0x1
 2786 0d0f 7E       		.byte	0x7e
 2787 0d10 7E000000 		.4byte	0x7e
 2788 0d14 B9040000 		.4byte	.LLST26
 2789 0d18 33       		.uleb128 0x33
 2790 0d19 703800   		.ascii	"p8\000"
 2791 0d1c 01       		.byte	0x1
 2792 0d1d 7F       		.byte	0x7f
 2793 0d1e 6E070000 		.4byte	0x76e
 2794 0d22 01       		.uleb128 0x1
 2795 0d23 51       		.byte	0x51
 2796 0d24 2C       		.uleb128 0x2c
 2797 0d25 E6080000 		.4byte	0x8e6
 2798 0d29 04000000 		.4byte	.LBB108
 2799 0d2d B0000000 		.4byte	.Ldebug_ranges0+0xb0
 2800 0d31 01       		.byte	0x1
 2801 0d32 82       		.byte	0x82
 2802 0d33 34       		.uleb128 0x34
 2803 0d34 0C090000 		.4byte	0x90c
 2804 0d38 34       		.uleb128 0x34
 2805 0d39 01090000 		.4byte	0x901
 2806 0d3d 34       		.uleb128 0x34
 2807 0d3e F6080000 		.4byte	0x8f6
 2808 0d42 35       		.uleb128 0x35
 2809 0d43 B0000000 		.4byte	.Ldebug_ranges0+0xb0
 2810 0d47 2F       		.uleb128 0x2f
 2811 0d48 17090000 		.4byte	0x917
 2812 0d4c E3040000 		.4byte	.LLST27
 2813 0d50 2F       		.uleb128 0x2f
 2814 0d51 22090000 		.4byte	0x922
 2815 0d55 02050000 		.4byte	.LLST28
 2816 0d59 28       		.uleb128 0x28
 2817 0d5a 5C080000 		.4byte	0x85c
 2818 0d5e 0C000000 		.4byte	.LBB110
 2819 0d62 02000000 		.4byte	.LBE110-.LBB110
 2820 0d66 01       		.byte	0x1
 2821 0d67 72       		.byte	0x72
 2822 0d68 760D0000 		.4byte	0xd76
 2823 0d6c 2E       		.uleb128 0x2e
 2824 0d6d 6D080000 		.4byte	0x86d
 2825 0d71 47050000 		.4byte	.LLST29
 2826 0d75 00       		.byte	0
 2827 0d76 2A       		.uleb128 0x2a
 2828 0d77 C8080000 		.4byte	0x8c8
 2829 0d7b 12000000 		.4byte	.LBB112
 2830 0d7f 04000000 		.4byte	.LBE112-.LBB112
 2831 0d83 01       		.byte	0x1
 2832 0d84 73       		.byte	0x73
 2833 0d85 2E       		.uleb128 0x2e
 2834 0d86 D9080000 		.4byte	0x8d9
 2835 0d8a 5A050000 		.4byte	.LLST30
 2836 0d8e 00       		.byte	0
 2837 0d8f 00       		.byte	0
ARM GAS  /var/folders/9j/_txx49hn253_s3mnzkyxlj8m0000gp/T//ccgYRR5b.s 			page 72


 2838 0d90 00       		.byte	0
 2839 0d91 00       		.byte	0
 2840 0d92 36       		.uleb128 0x36
 2841 0d93 BC170000 		.4byte	.LASF1167
 2842 0d97 01       		.byte	0x1
 2843 0d98 8C       		.byte	0x8c
 2844 0d99 90000000 		.4byte	0x90
 2845 0d9d 00000000 		.4byte	.LFB204
 2846 0da1 38000000 		.4byte	.LFE204-.LFB204
 2847 0da5 01       		.uleb128 0x1
 2848 0da6 9C       		.byte	0x9c
 2849 0da7 780E0000 		.4byte	0xe78
 2850 0dab 2B       		.uleb128 0x2b
 2851 0dac 53780000 		.4byte	.LASF1143
 2852 0db0 01       		.byte	0x1
 2853 0db1 8C       		.byte	0x8c
 2854 0db2 F0070000 		.4byte	0x7f0
 2855 0db6 6D050000 		.4byte	.LLST31
 2856 0dba 2B       		.uleb128 0x2b
 2857 0dbb DD690000 		.4byte	.LASF1168
 2858 0dbf 01       		.byte	0x1
 2859 0dc0 8C       		.byte	0x8c
 2860 0dc1 90000000 		.4byte	0x90
 2861 0dc5 99050000 		.4byte	.LLST32
 2862 0dc9 37       		.uleb128 0x37
 2863 0dca 64697600 		.ascii	"div\000"
 2864 0dce 01       		.byte	0x1
 2865 0dcf 8E       		.byte	0x8e
 2866 0dd0 90000000 		.4byte	0x90
 2867 0dd4 C5050000 		.4byte	.LLST33
 2868 0dd8 32       		.uleb128 0x32
 2869 0dd9 BF520000 		.4byte	.LASF1169
 2870 0ddd 01       		.byte	0x1
 2871 0dde 8E       		.byte	0x8e
 2872 0ddf 90000000 		.4byte	0x90
 2873 0de3 E3050000 		.4byte	.LLST34
 2874 0de7 32       		.uleb128 0x32
 2875 0de8 F4520000 		.4byte	.LASF1170
 2876 0dec 01       		.byte	0x1
 2877 0ded 8E       		.byte	0x8e
 2878 0dee 90000000 		.4byte	0x90
 2879 0df2 14060000 		.4byte	.LLST35
 2880 0df6 32       		.uleb128 0x32
 2881 0df7 C0680000 		.4byte	.LASF1171
 2882 0dfb 01       		.byte	0x1
 2883 0dfc 8E       		.byte	0x8e
 2884 0dfd 90000000 		.4byte	0x90
 2885 0e01 44060000 		.4byte	.LLST36
 2886 0e05 26       		.uleb128 0x26
 2887 0e06 2D090000 		.4byte	0x92d
 2888 0e0a 12000000 		.4byte	.LBB116
 2889 0e0e C8000000 		.4byte	.Ldebug_ranges0+0xc8
 2890 0e12 01       		.byte	0x1
 2891 0e13 98       		.byte	0x98
 2892 0e14 220E0000 		.4byte	0xe22
 2893 0e18 2E       		.uleb128 0x2e
 2894 0e19 3A090000 		.4byte	0x93a
ARM GAS  /var/folders/9j/_txx49hn253_s3mnzkyxlj8m0000gp/T//ccgYRR5b.s 			page 73


 2895 0e1d 62060000 		.4byte	.LLST37
 2896 0e21 00       		.byte	0
 2897 0e22 26       		.uleb128 0x26
 2898 0e23 47090000 		.4byte	0x947
 2899 0e27 18000000 		.4byte	.LBB121
 2900 0e2b E8000000 		.4byte	.Ldebug_ranges0+0xe8
 2901 0e2f 01       		.byte	0x1
 2902 0e30 99       		.byte	0x99
 2903 0e31 510E0000 		.4byte	0xe51
 2904 0e35 2E       		.uleb128 0x2e
 2905 0e36 6C090000 		.4byte	0x96c
 2906 0e3a 83060000 		.4byte	.LLST38
 2907 0e3e 2E       		.uleb128 0x2e
 2908 0e3f 60090000 		.4byte	0x960
 2909 0e43 A9060000 		.4byte	.LLST39
 2910 0e47 2E       		.uleb128 0x2e
 2911 0e48 54090000 		.4byte	0x954
 2912 0e4c D9060000 		.4byte	.LLST40
 2913 0e50 00       		.byte	0
 2914 0e51 26       		.uleb128 0x26
 2915 0e52 79090000 		.4byte	0x979
 2916 0e56 2A000000 		.4byte	.LBB126
 2917 0e5a 00010000 		.4byte	.Ldebug_ranges0+0x100
 2918 0e5e 01       		.byte	0x1
 2919 0e5f 9A       		.byte	0x9a
 2920 0e60 6E0E0000 		.4byte	0xe6e
 2921 0e64 2E       		.uleb128 0x2e
 2922 0e65 86090000 		.4byte	0x986
 2923 0e69 FA060000 		.4byte	.LLST41
 2924 0e6d 00       		.byte	0
 2925 0e6e 38       		.uleb128 0x38
 2926 0e6f 0A000000 		.4byte	.LVL56
 2927 0e73 29130000 		.4byte	0x1329
 2928 0e77 00       		.byte	0
 2929 0e78 2D       		.uleb128 0x2d
 2930 0e79 DF090000 		.4byte	0x9df
 2931 0e7d 00000000 		.4byte	.LFB205
 2932 0e81 2A000000 		.4byte	.LFE205-.LFB205
 2933 0e85 01       		.uleb128 0x1
 2934 0e86 9C       		.byte	0x9c
 2935 0e87 000F0000 		.4byte	0xf00
 2936 0e8b 2E       		.uleb128 0x2e
 2937 0e8c EB090000 		.4byte	0x9eb
 2938 0e90 1B070000 		.4byte	.LLST42
 2939 0e94 2E       		.uleb128 0x2e
 2940 0e95 F6090000 		.4byte	0x9f6
 2941 0e99 47070000 		.4byte	.LLST43
 2942 0e9d 26       		.uleb128 0x26
 2943 0e9e 5C080000 		.4byte	0x85c
 2944 0ea2 06000000 		.4byte	.LBB130
 2945 0ea6 18010000 		.4byte	.Ldebug_ranges0+0x118
 2946 0eaa 01       		.byte	0x1
 2947 0eab A5       		.byte	0xa5
 2948 0eac BA0E0000 		.4byte	0xeba
 2949 0eb0 2E       		.uleb128 0x2e
 2950 0eb1 6D080000 		.4byte	0x86d
 2951 0eb5 1B070000 		.4byte	.LLST42
ARM GAS  /var/folders/9j/_txx49hn253_s3mnzkyxlj8m0000gp/T//ccgYRR5b.s 			page 74


 2952 0eb9 00       		.byte	0
 2953 0eba 39       		.uleb128 0x39
 2954 0ebb 14000000 		.4byte	.LBB133
 2955 0ebf 0C000000 		.4byte	.LBE133-.LBB133
 2956 0ec3 3A       		.uleb128 0x3a
 2957 0ec4 020A0000 		.4byte	0xa02
 2958 0ec8 02       		.uleb128 0x2
 2959 0ec9 91       		.byte	0x91
 2960 0eca 67       		.sleb128 -25
 2961 0ecb 26       		.uleb128 0x26
 2962 0ecc C8080000 		.4byte	0x8c8
 2963 0ed0 14000000 		.4byte	.LBB134
 2964 0ed4 30010000 		.4byte	.Ldebug_ranges0+0x130
 2965 0ed8 01       		.byte	0x1
 2966 0ed9 A6       		.byte	0xa6
 2967 0eda E80E0000 		.4byte	0xee8
 2968 0ede 2E       		.uleb128 0x2e
 2969 0edf D9080000 		.4byte	0x8d9
 2970 0ee3 73070000 		.4byte	.LLST45
 2971 0ee7 00       		.byte	0
 2972 0ee8 3B       		.uleb128 0x3b
 2973 0ee9 20000000 		.4byte	.LVL71
 2974 0eed 35130000 		.4byte	0x1335
 2975 0ef1 3C       		.uleb128 0x3c
 2976 0ef2 01       		.uleb128 0x1
 2977 0ef3 51       		.byte	0x51
 2978 0ef4 02       		.uleb128 0x2
 2979 0ef5 75       		.byte	0x75
 2980 0ef6 00       		.sleb128 0
 2981 0ef7 3C       		.uleb128 0x3c
 2982 0ef8 01       		.uleb128 0x1
 2983 0ef9 50       		.byte	0x50
 2984 0efa 02       		.uleb128 0x2
 2985 0efb 77       		.byte	0x77
 2986 0efc 00       		.sleb128 0
 2987 0efd 00       		.byte	0
 2988 0efe 00       		.byte	0
 2989 0eff 00       		.byte	0
 2990 0f00 24       		.uleb128 0x24
 2991 0f01 97150000 		.4byte	.LASF1172
 2992 0f05 01       		.byte	0x1
 2993 0f06 AC       		.byte	0xac
 2994 0f07 00000000 		.4byte	.LFB206
 2995 0f0b 30000000 		.4byte	.LFE206-.LFB206
 2996 0f0f 01       		.uleb128 0x1
 2997 0f10 9C       		.byte	0x9c
 2998 0f11 9A0F0000 		.4byte	0xf9a
 2999 0f15 2B       		.uleb128 0x2b
 3000 0f16 53780000 		.4byte	.LASF1143
 3001 0f1a 01       		.byte	0x1
 3002 0f1b AC       		.byte	0xac
 3003 0f1c F0070000 		.4byte	0x7f0
 3004 0f20 86070000 		.4byte	.LLST46
 3005 0f24 3D       		.uleb128 0x3d
 3006 0f25 70524200 		.ascii	"pRB\000"
 3007 0f29 01       		.byte	0x1
 3008 0f2a AC       		.byte	0xac
ARM GAS  /var/folders/9j/_txx49hn253_s3mnzkyxlj8m0000gp/T//ccgYRR5b.s 			page 75


 3009 0f2b 90070000 		.4byte	0x790
 3010 0f2f B2070000 		.4byte	.LLST47
 3011 0f33 33       		.uleb128 0x33
 3012 0f34 636800   		.ascii	"ch\000"
 3013 0f37 01       		.byte	0x1
 3014 0f38 AE       		.byte	0xae
 3015 0f39 85000000 		.4byte	0x85
 3016 0f3d 02       		.uleb128 0x2
 3017 0f3e 91       		.byte	0x91
 3018 0f3f 67       		.sleb128 -25
 3019 0f40 26       		.uleb128 0x26
 3020 0f41 5C080000 		.4byte	0x85c
 3021 0f45 06000000 		.4byte	.LBB139
 3022 0f49 48010000 		.4byte	.Ldebug_ranges0+0x148
 3023 0f4d 01       		.byte	0x1
 3024 0f4e B1       		.byte	0xb1
 3025 0f4f 5D0F0000 		.4byte	0xf5d
 3026 0f53 2E       		.uleb128 0x2e
 3027 0f54 6D080000 		.4byte	0x86d
 3028 0f58 86070000 		.4byte	.LLST46
 3029 0f5c 00       		.byte	0
 3030 0f5d 28       		.uleb128 0x28
 3031 0f5e 36080000 		.4byte	0x836
 3032 0f62 16000000 		.4byte	.LBB142
 3033 0f66 04000000 		.4byte	.LBE142-.LBB142
 3034 0f6a 01       		.byte	0x1
 3035 0f6b B3       		.byte	0xb3
 3036 0f6c 830F0000 		.4byte	0xf83
 3037 0f70 2E       		.uleb128 0x2e
 3038 0f71 4F080000 		.4byte	0x84f
 3039 0f75 DE070000 		.4byte	.LLST49
 3040 0f79 2E       		.uleb128 0x2e
 3041 0f7a 43080000 		.4byte	0x843
 3042 0f7e F2070000 		.4byte	.LLST50
 3043 0f82 00       		.byte	0
 3044 0f83 3B       		.uleb128 0x3b
 3045 0f84 28000000 		.4byte	.LVL78
 3046 0f88 4F130000 		.4byte	0x134f
 3047 0f8c 3C       		.uleb128 0x3c
 3048 0f8d 01       		.uleb128 0x1
 3049 0f8e 51       		.byte	0x51
 3050 0f8f 02       		.uleb128 0x2
 3051 0f90 75       		.byte	0x75
 3052 0f91 00       		.sleb128 0
 3053 0f92 3C       		.uleb128 0x3c
 3054 0f93 01       		.uleb128 0x1
 3055 0f94 50       		.byte	0x50
 3056 0f95 02       		.uleb128 0x2
 3057 0f96 76       		.byte	0x76
 3058 0f97 00       		.sleb128 0
 3059 0f98 00       		.byte	0
 3060 0f99 00       		.byte	0
 3061 0f9a 30       		.uleb128 0x30
 3062 0f9b F8590000 		.4byte	.LASF1173
 3063 0f9f 01       		.byte	0x1
 3064 0fa0 B8       		.byte	0xb8
 3065 0fa1 90000000 		.4byte	0x90
ARM GAS  /var/folders/9j/_txx49hn253_s3mnzkyxlj8m0000gp/T//ccgYRR5b.s 			page 76


 3066 0fa5 00000000 		.4byte	.LFB207
 3067 0fa9 48000000 		.4byte	.LFE207-.LFB207
 3068 0fad 01       		.uleb128 0x1
 3069 0fae 9C       		.byte	0x9c
 3070 0faf AF100000 		.4byte	0x10af
 3071 0fb3 2B       		.uleb128 0x2b
 3072 0fb4 53780000 		.4byte	.LASF1143
 3073 0fb8 01       		.byte	0x1
 3074 0fb9 B8       		.byte	0xb8
 3075 0fba F0070000 		.4byte	0x7f0
 3076 0fbe 05080000 		.4byte	.LLST51
 3077 0fc2 3D       		.uleb128 0x3d
 3078 0fc3 70524200 		.ascii	"pRB\000"
 3079 0fc7 01       		.byte	0x1
 3080 0fc8 B8       		.byte	0xb8
 3081 0fc9 90070000 		.4byte	0x790
 3082 0fcd 31080000 		.4byte	.LLST52
 3083 0fd1 2B       		.uleb128 0x2b
 3084 0fd2 D0770000 		.4byte	.LASF1122
 3085 0fd6 01       		.byte	0x1
 3086 0fd7 B8       		.byte	0xb8
 3087 0fd8 C1080000 		.4byte	0x8c1
 3088 0fdc 68080000 		.4byte	.LLST53
 3089 0fe0 2B       		.uleb128 0x2b
 3090 0fe1 CB210000 		.4byte	.LASF1174
 3091 0fe5 01       		.byte	0x1
 3092 0fe6 B8       		.byte	0xb8
 3093 0fe7 7E000000 		.4byte	0x7e
 3094 0feb 9F080000 		.4byte	.LLST54
 3095 0fef 37       		.uleb128 0x37
 3096 0ff0 72657400 		.ascii	"ret\000"
 3097 0ff4 01       		.byte	0x1
 3098 0ff5 BA       		.byte	0xba
 3099 0ff6 90000000 		.4byte	0x90
 3100 0ffa CB080000 		.4byte	.LLST55
 3101 0ffe 37       		.uleb128 0x37
 3102 0fff 703800   		.ascii	"p8\000"
 3103 1002 01       		.byte	0x1
 3104 1003 BB       		.byte	0xbb
 3105 1004 6E070000 		.4byte	0x76e
 3106 1008 68080000 		.4byte	.LLST53
 3107 100c 26       		.uleb128 0x26
 3108 100d 93090000 		.4byte	0x993
 3109 1011 08000000 		.4byte	.LBB145
 3110 1015 60010000 		.4byte	.Ldebug_ranges0+0x160
 3111 1019 01       		.byte	0x1
 3112 101a BE       		.byte	0xbe
 3113 101b 2F100000 		.4byte	0x102f
 3114 101f 27       		.uleb128 0x27
 3115 1020 AC090000 		.4byte	0x9ac
 3116 1024 02       		.byte	0x2
 3117 1025 2E       		.uleb128 0x2e
 3118 1026 A0090000 		.4byte	0x9a0
 3119 102a 05080000 		.4byte	.LLST51
 3120 102e 00       		.byte	0
 3121 102f 26       		.uleb128 0x26
 3122 1030 B9090000 		.4byte	0x9b9
ARM GAS  /var/folders/9j/_txx49hn253_s3mnzkyxlj8m0000gp/T//ccgYRR5b.s 			page 77


 3123 1034 38000000 		.4byte	.LBB153
 3124 1038 88010000 		.4byte	.Ldebug_ranges0+0x188
 3125 103c 01       		.byte	0x1
 3126 103d C8       		.byte	0xc8
 3127 103e 52100000 		.4byte	0x1052
 3128 1042 27       		.uleb128 0x27
 3129 1043 D2090000 		.4byte	0x9d2
 3130 1047 02       		.byte	0x2
 3131 1048 2E       		.uleb128 0x2e
 3132 1049 C6090000 		.4byte	0x9c6
 3133 104d 04090000 		.4byte	.LLST58
 3134 1051 00       		.byte	0
 3135 1052 3E       		.uleb128 0x3e
 3136 1053 22000000 		.4byte	.LVL86
 3137 1057 69130000 		.4byte	0x1369
 3138 105b 72100000 		.4byte	0x1072
 3139 105f 3C       		.uleb128 0x3c
 3140 1060 01       		.uleb128 0x1
 3141 1061 52       		.byte	0x52
 3142 1062 02       		.uleb128 0x2
 3143 1063 77       		.byte	0x77
 3144 1064 00       		.sleb128 0
 3145 1065 3C       		.uleb128 0x3c
 3146 1066 01       		.uleb128 0x1
 3147 1067 51       		.byte	0x51
 3148 1068 02       		.uleb128 0x2
 3149 1069 78       		.byte	0x78
 3150 106a 00       		.sleb128 0
 3151 106b 3C       		.uleb128 0x3c
 3152 106c 01       		.uleb128 0x1
 3153 106d 50       		.byte	0x50
 3154 106e 02       		.uleb128 0x2
 3155 106f 79       		.byte	0x79
 3156 1070 00       		.sleb128 0
 3157 1071 00       		.byte	0
 3158 1072 3E       		.uleb128 0x3e
 3159 1073 2C000000 		.4byte	.LVL89
 3160 1077 000F0000 		.4byte	0xf00
 3161 107b 8C100000 		.4byte	0x108c
 3162 107f 3C       		.uleb128 0x3c
 3163 1080 01       		.uleb128 0x1
 3164 1081 51       		.byte	0x51
 3165 1082 02       		.uleb128 0x2
 3166 1083 79       		.byte	0x79
 3167 1084 00       		.sleb128 0
 3168 1085 3C       		.uleb128 0x3c
 3169 1086 01       		.uleb128 0x1
 3170 1087 50       		.byte	0x50
 3171 1088 02       		.uleb128 0x2
 3172 1089 75       		.byte	0x75
 3173 108a 00       		.sleb128 0
 3174 108b 00       		.byte	0
 3175 108c 3B       		.uleb128 0x3b
 3176 108d 38000000 		.4byte	.LVL90
 3177 1091 69130000 		.4byte	0x1369
 3178 1095 3C       		.uleb128 0x3c
 3179 1096 01       		.uleb128 0x1
ARM GAS  /var/folders/9j/_txx49hn253_s3mnzkyxlj8m0000gp/T//ccgYRR5b.s 			page 78


 3180 1097 52       		.byte	0x52
 3181 1098 05       		.uleb128 0x5
 3182 1099 77       		.byte	0x77
 3183 109a 00       		.sleb128 0
 3184 109b 74       		.byte	0x74
 3185 109c 00       		.sleb128 0
 3186 109d 1C       		.byte	0x1c
 3187 109e 3C       		.uleb128 0x3c
 3188 109f 01       		.uleb128 0x1
 3189 10a0 51       		.byte	0x51
 3190 10a1 05       		.uleb128 0x5
 3191 10a2 78       		.byte	0x78
 3192 10a3 00       		.sleb128 0
 3193 10a4 74       		.byte	0x74
 3194 10a5 00       		.sleb128 0
 3195 10a6 22       		.byte	0x22
 3196 10a7 3C       		.uleb128 0x3c
 3197 10a8 01       		.uleb128 0x1
 3198 10a9 50       		.byte	0x50
 3199 10aa 02       		.uleb128 0x2
 3200 10ab 79       		.byte	0x79
 3201 10ac 00       		.sleb128 0
 3202 10ad 00       		.byte	0
 3203 10ae 00       		.byte	0
 3204 10af 30       		.uleb128 0x30
 3205 10b0 FD740000 		.4byte	.LASF1175
 3206 10b4 01       		.byte	0x1
 3207 10b5 CE       		.byte	0xce
 3208 10b6 7E000000 		.4byte	0x7e
 3209 10ba 00000000 		.4byte	.LFB208
 3210 10be 0E000000 		.4byte	.LFE208-.LFB208
 3211 10c2 01       		.uleb128 0x1
 3212 10c3 9C       		.byte	0x9c
 3213 10c4 24110000 		.4byte	0x1124
 3214 10c8 2B       		.uleb128 0x2b
 3215 10c9 53780000 		.4byte	.LASF1143
 3216 10cd 01       		.byte	0x1
 3217 10ce CE       		.byte	0xce
 3218 10cf F0070000 		.4byte	0x7f0
 3219 10d3 25090000 		.4byte	.LLST59
 3220 10d7 3D       		.uleb128 0x3d
 3221 10d8 70524200 		.ascii	"pRB\000"
 3222 10dc 01       		.byte	0x1
 3223 10dd CE       		.byte	0xce
 3224 10de 90070000 		.4byte	0x790
 3225 10e2 46090000 		.4byte	.LLST60
 3226 10e6 2B       		.uleb128 0x2b
 3227 10e7 D0770000 		.4byte	.LASF1122
 3228 10eb 01       		.byte	0x1
 3229 10ec CE       		.byte	0xce
 3230 10ed C7050000 		.4byte	0x5c7
 3231 10f1 72090000 		.4byte	.LLST61
 3232 10f5 2B       		.uleb128 0x2b
 3233 10f6 CB210000 		.4byte	.LASF1174
 3234 10fa 01       		.byte	0x1
 3235 10fb CE       		.byte	0xce
 3236 10fc 7E000000 		.4byte	0x7e
ARM GAS  /var/folders/9j/_txx49hn253_s3mnzkyxlj8m0000gp/T//ccgYRR5b.s 			page 79


 3237 1100 9E090000 		.4byte	.LLST62
 3238 1104 3B       		.uleb128 0x3b
 3239 1105 0C000000 		.4byte	.LVL100
 3240 1109 88130000 		.4byte	0x1388
 3241 110d 3C       		.uleb128 0x3c
 3242 110e 01       		.uleb128 0x1
 3243 110f 52       		.byte	0x52
 3244 1110 03       		.uleb128 0x3
 3245 1111 F3       		.byte	0xf3
 3246 1112 01       		.uleb128 0x1
 3247 1113 53       		.byte	0x53
 3248 1114 3C       		.uleb128 0x3c
 3249 1115 01       		.uleb128 0x1
 3250 1116 51       		.byte	0x51
 3251 1117 03       		.uleb128 0x3
 3252 1118 F3       		.byte	0xf3
 3253 1119 01       		.uleb128 0x1
 3254 111a 52       		.byte	0x52
 3255 111b 3C       		.uleb128 0x3c
 3256 111c 01       		.uleb128 0x1
 3257 111d 50       		.byte	0x50
 3258 111e 03       		.uleb128 0x3
 3259 111f F3       		.byte	0xf3
 3260 1120 01       		.uleb128 0x1
 3261 1121 51       		.byte	0x51
 3262 1122 00       		.byte	0
 3263 1123 00       		.byte	0
 3264 1124 24       		.uleb128 0x24
 3265 1125 68030000 		.4byte	.LASF1176
 3266 1129 01       		.byte	0x1
 3267 112a D6       		.byte	0xd6
 3268 112b 00000000 		.4byte	.LFB209
 3269 112f 4A000000 		.4byte	.LFE209-.LFB209
 3270 1133 01       		.uleb128 0x1
 3271 1134 9C       		.byte	0x9c
 3272 1135 18120000 		.4byte	0x1218
 3273 1139 2B       		.uleb128 0x2b
 3274 113a 53780000 		.4byte	.LASF1143
 3275 113e 01       		.byte	0x1
 3276 113f D6       		.byte	0xd6
 3277 1140 F0070000 		.4byte	0x7f0
 3278 1144 BF090000 		.4byte	.LLST63
 3279 1148 2B       		.uleb128 0x2b
 3280 1149 770B0000 		.4byte	.LASF1177
 3281 114d 01       		.byte	0x1
 3282 114e D6       		.byte	0xd6
 3283 114f 90070000 		.4byte	0x790
 3284 1153 010A0000 		.4byte	.LLST64
 3285 1157 2B       		.uleb128 0x2b
 3286 1158 360D0000 		.4byte	.LASF1178
 3287 115c 01       		.byte	0x1
 3288 115d D6       		.byte	0xd6
 3289 115e 90070000 		.4byte	0x790
 3290 1162 430A0000 		.4byte	.LLST65
 3291 1166 28       		.uleb128 0x28
 3292 1167 DF090000 		.4byte	0x9df
 3293 116b 14000000 		.4byte	.LBB157
ARM GAS  /var/folders/9j/_txx49hn253_s3mnzkyxlj8m0000gp/T//ccgYRR5b.s 			page 80


 3294 116f 1C000000 		.4byte	.LBE157-.LBB157
 3295 1173 01       		.byte	0x1
 3296 1174 E3       		.byte	0xe3
 3297 1175 E6110000 		.4byte	0x11e6
 3298 1179 34       		.uleb128 0x34
 3299 117a F6090000 		.4byte	0x9f6
 3300 117e 34       		.uleb128 0x34
 3301 117f EB090000 		.4byte	0x9eb
 3302 1183 26       		.uleb128 0x26
 3303 1184 5C080000 		.4byte	0x85c
 3304 1188 14000000 		.4byte	.LBB159
 3305 118c A0010000 		.4byte	.Ldebug_ranges0+0x1a0
 3306 1190 01       		.byte	0x1
 3307 1191 A5       		.byte	0xa5
 3308 1192 A0110000 		.4byte	0x11a0
 3309 1196 2E       		.uleb128 0x2e
 3310 1197 6D080000 		.4byte	0x86d
 3311 119b 850A0000 		.4byte	.LLST66
 3312 119f 00       		.byte	0
 3313 11a0 39       		.uleb128 0x39
 3314 11a1 1E000000 		.4byte	.LBB162
 3315 11a5 0C000000 		.4byte	.LBE162-.LBB162
 3316 11a9 3A       		.uleb128 0x3a
 3317 11aa 020A0000 		.4byte	0xa02
 3318 11ae 02       		.uleb128 0x2
 3319 11af 91       		.byte	0x91
 3320 11b0 67       		.sleb128 -25
 3321 11b1 26       		.uleb128 0x26
 3322 11b2 C8080000 		.4byte	0x8c8
 3323 11b6 1E000000 		.4byte	.LBB163
 3324 11ba B8010000 		.4byte	.Ldebug_ranges0+0x1b8
 3325 11be 01       		.byte	0x1
 3326 11bf A6       		.byte	0xa6
 3327 11c0 CE110000 		.4byte	0x11ce
 3328 11c4 2E       		.uleb128 0x2e
 3329 11c5 D9080000 		.4byte	0x8d9
 3330 11c9 A60A0000 		.4byte	.LLST67
 3331 11cd 00       		.byte	0
 3332 11ce 3B       		.uleb128 0x3b
 3333 11cf 2A000000 		.4byte	.LVL105
 3334 11d3 35130000 		.4byte	0x1335
 3335 11d7 3C       		.uleb128 0x3c
 3336 11d8 01       		.uleb128 0x1
 3337 11d9 51       		.byte	0x51
 3338 11da 02       		.uleb128 0x2
 3339 11db 75       		.byte	0x75
 3340 11dc 00       		.sleb128 0
 3341 11dd 3C       		.uleb128 0x3c
 3342 11de 01       		.uleb128 0x1
 3343 11df 50       		.byte	0x50
 3344 11e0 02       		.uleb128 0x2
 3345 11e1 77       		.byte	0x77
 3346 11e2 00       		.sleb128 0
 3347 11e3 00       		.byte	0
 3348 11e4 00       		.byte	0
 3349 11e5 00       		.byte	0
 3350 11e6 28       		.uleb128 0x28
ARM GAS  /var/folders/9j/_txx49hn253_s3mnzkyxlj8m0000gp/T//ccgYRR5b.s 			page 81


 3351 11e7 93090000 		.4byte	0x993
 3352 11eb 42000000 		.4byte	.LBB168
 3353 11ef 08000000 		.4byte	.LBE168-.LBB168
 3354 11f3 01       		.byte	0x1
 3355 11f4 DE       		.byte	0xde
 3356 11f5 07120000 		.4byte	0x1207
 3357 11f9 27       		.uleb128 0x27
 3358 11fa AC090000 		.4byte	0x9ac
 3359 11fe 02       		.byte	0x2
 3360 11ff 29       		.uleb128 0x29
 3361 1200 A0090000 		.4byte	0x9a0
 3362 1204 01       		.uleb128 0x1
 3363 1205 54       		.byte	0x54
 3364 1206 00       		.byte	0
 3365 1207 3B       		.uleb128 0x3b
 3366 1208 3A000000 		.4byte	.LVL111
 3367 120c 000F0000 		.4byte	0xf00
 3368 1210 3C       		.uleb128 0x3c
 3369 1211 01       		.uleb128 0x1
 3370 1212 51       		.byte	0x51
 3371 1213 02       		.uleb128 0x2
 3372 1214 76       		.byte	0x76
 3373 1215 00       		.sleb128 0
 3374 1216 00       		.byte	0
 3375 1217 00       		.byte	0
 3376 1218 36       		.uleb128 0x36
 3377 1219 4C1B0000 		.4byte	.LASF1179
 3378 121d 01       		.byte	0x1
 3379 121e E7       		.byte	0xe7
 3380 121f 90000000 		.4byte	0x90
 3381 1223 00000000 		.4byte	.LFB210
 3382 1227 A0000000 		.4byte	.LFE210-.LFB210
 3383 122b 01       		.uleb128 0x1
 3384 122c 9C       		.byte	0x9c
 3385 122d 1E130000 		.4byte	0x131e
 3386 1231 2B       		.uleb128 0x2b
 3387 1232 53780000 		.4byte	.LASF1143
 3388 1236 01       		.byte	0x1
 3389 1237 E7       		.byte	0xe7
 3390 1238 F0070000 		.4byte	0x7f0
 3391 123c B90A0000 		.4byte	.LLST68
 3392 1240 2B       		.uleb128 0x2b
 3393 1241 DD690000 		.4byte	.LASF1168
 3394 1245 01       		.byte	0x1
 3395 1246 E7       		.byte	0xe7
 3396 1247 90000000 		.4byte	0x90
 3397 124b F00A0000 		.4byte	.LLST69
 3398 124f 32       		.uleb128 0x32
 3399 1250 27490000 		.4byte	.LASF1180
 3400 1254 01       		.byte	0x1
 3401 1255 EA       		.byte	0xea
 3402 1256 90000000 		.4byte	0x90
 3403 125a 110B0000 		.4byte	.LLST70
 3404 125e 32       		.uleb128 0x32
 3405 125f 824A0000 		.4byte	.LASF1181
 3406 1263 01       		.byte	0x1
 3407 1264 EB       		.byte	0xeb
ARM GAS  /var/folders/9j/_txx49hn253_s3mnzkyxlj8m0000gp/T//ccgYRR5b.s 			page 82


 3408 1265 90000000 		.4byte	0x90
 3409 1269 3A0B0000 		.4byte	.LLST71
 3410 126d 32       		.uleb128 0x32
 3411 126e 35110000 		.4byte	.LASF1182
 3412 1272 01       		.byte	0x1
 3413 1273 EC       		.byte	0xec
 3414 1274 90000000 		.4byte	0x90
 3415 1278 640B0000 		.4byte	.LLST72
 3416 127c 37       		.uleb128 0x37
 3417 127d 646C00   		.ascii	"dl\000"
 3418 1280 01       		.byte	0x1
 3419 1281 ED       		.byte	0xed
 3420 1282 90000000 		.4byte	0x90
 3421 1286 9A0B0000 		.4byte	.LLST73
 3422 128a 32       		.uleb128 0x32
 3423 128b 7D080000 		.4byte	.LASF1183
 3424 128f 01       		.byte	0x1
 3425 1290 EE       		.byte	0xee
 3426 1291 90000000 		.4byte	0x90
 3427 1295 AD0B0000 		.4byte	.LLST74
 3428 1299 32       		.uleb128 0x32
 3429 129a 2B0D0000 		.4byte	.LASF1184
 3430 129e 01       		.byte	0x1
 3431 129f EF       		.byte	0xef
 3432 12a0 90000000 		.4byte	0x90
 3433 12a4 EB0B0000 		.4byte	.LLST75
 3434 12a8 3F       		.uleb128 0x3f
 3435 12a9 2D090000 		.4byte	0x92d
 3436 12ad 5C000000 		.4byte	.LBB170
 3437 12b1 D0010000 		.4byte	.Ldebug_ranges0+0x1d0
 3438 12b5 01       		.byte	0x1
 3439 12b6 1101     		.2byte	0x111
 3440 12b8 C6120000 		.4byte	0x12c6
 3441 12bc 2E       		.uleb128 0x2e
 3442 12bd 3A090000 		.4byte	0x93a
 3443 12c1 260C0000 		.4byte	.LLST76
 3444 12c5 00       		.byte	0
 3445 12c6 3F       		.uleb128 0x3f
 3446 12c7 47090000 		.4byte	0x947
 3447 12cb 5E000000 		.4byte	.LBB174
 3448 12cf F0010000 		.4byte	.Ldebug_ranges0+0x1f0
 3449 12d3 01       		.byte	0x1
 3450 12d4 1201     		.2byte	0x112
 3451 12d6 F6120000 		.4byte	0x12f6
 3452 12da 2E       		.uleb128 0x2e
 3453 12db 6C090000 		.4byte	0x96c
 3454 12df 470C0000 		.4byte	.LLST77
 3455 12e3 2E       		.uleb128 0x2e
 3456 12e4 60090000 		.4byte	0x960
 3457 12e8 5E0C0000 		.4byte	.LLST78
 3458 12ec 2E       		.uleb128 0x2e
 3459 12ed 54090000 		.4byte	0x954
 3460 12f1 710C0000 		.4byte	.LLST79
 3461 12f5 00       		.byte	0
 3462 12f6 3F       		.uleb128 0x3f
 3463 12f7 79090000 		.4byte	0x979
 3464 12fb 72000000 		.4byte	.LBB182
ARM GAS  /var/folders/9j/_txx49hn253_s3mnzkyxlj8m0000gp/T//ccgYRR5b.s 			page 83


 3465 12ff 10020000 		.4byte	.Ldebug_ranges0+0x210
 3466 1303 01       		.byte	0x1
 3467 1304 1301     		.2byte	0x113
 3468 1306 14130000 		.4byte	0x1314
 3469 130a 2E       		.uleb128 0x2e
 3470 130b 86090000 		.4byte	0x986
 3471 130f 920C0000 		.4byte	.LLST80
 3472 1313 00       		.byte	0
 3473 1314 38       		.uleb128 0x38
 3474 1315 10000000 		.4byte	.LVL115
 3475 1319 29130000 		.4byte	0x1329
 3476 131d 00       		.byte	0
 3477 131e 40       		.uleb128 0x40
 3478 131f 7A530000 		.4byte	.LASF1194
 3479 1323 08       		.byte	0x8
 3480 1324 D4       		.byte	0xd4
 3481 1325 69070000 		.4byte	0x769
 3482 1329 41       		.uleb128 0x41
 3483 132a DB400000 		.4byte	.LASF1195
 3484 132e 02       		.byte	0x2
 3485 132f 1302     		.2byte	0x213
 3486 1331 90000000 		.4byte	0x90
 3487 1335 42       		.uleb128 0x42
 3488 1336 8A250000 		.4byte	.LASF1185
 3489 133a 07       		.byte	0x7
 3490 133b 95       		.byte	0x95
 3491 133c 7E000000 		.4byte	0x7e
 3492 1340 4F130000 		.4byte	0x134f
 3493 1344 43       		.uleb128 0x43
 3494 1345 90070000 		.4byte	0x790
 3495 1349 43       		.uleb128 0x43
 3496 134a C1080000 		.4byte	0x8c1
 3497 134e 00       		.byte	0
 3498 134f 42       		.uleb128 0x42
 3499 1350 9C5D0000 		.4byte	.LASF1186
 3500 1354 07       		.byte	0x7
 3501 1355 AC       		.byte	0xac
 3502 1356 7E000000 		.4byte	0x7e
 3503 135a 69130000 		.4byte	0x1369
 3504 135e 43       		.uleb128 0x43
 3505 135f 90070000 		.4byte	0x790
 3506 1363 43       		.uleb128 0x43
 3507 1364 C7050000 		.4byte	0x5c7
 3508 1368 00       		.byte	0
 3509 1369 42       		.uleb128 0x42
 3510 136a C1340000 		.4byte	.LASF1187
 3511 136e 07       		.byte	0x7
 3512 136f A1       		.byte	0xa1
 3513 1370 90000000 		.4byte	0x90
 3514 1374 88130000 		.4byte	0x1388
 3515 1378 43       		.uleb128 0x43
 3516 1379 90070000 		.4byte	0x790
 3517 137d 43       		.uleb128 0x43
 3518 137e C1080000 		.4byte	0x8c1
 3519 1382 43       		.uleb128 0x43
 3520 1383 7E000000 		.4byte	0x7e
 3521 1387 00       		.byte	0
ARM GAS  /var/folders/9j/_txx49hn253_s3mnzkyxlj8m0000gp/T//ccgYRR5b.s 			page 84


 3522 1388 44       		.uleb128 0x44
 3523 1389 780C0000 		.4byte	.LASF1189
 3524 138d 07       		.byte	0x7
 3525 138e B7       		.byte	0xb7
 3526 138f 90000000 		.4byte	0x90
 3527 1393 43       		.uleb128 0x43
 3528 1394 90070000 		.4byte	0x790
 3529 1398 43       		.uleb128 0x43
 3530 1399 C7050000 		.4byte	0x5c7
 3531 139d 43       		.uleb128 0x43
 3532 139e 7E000000 		.4byte	0x7e
 3533 13a2 00       		.byte	0
 3534 13a3 00       		.byte	0
 3535              		.section	.debug_abbrev,"",%progbits
 3536              	.Ldebug_abbrev0:
 3537 0000 01       		.uleb128 0x1
 3538 0001 11       		.uleb128 0x11
 3539 0002 01       		.byte	0x1
 3540 0003 25       		.uleb128 0x25
 3541 0004 0E       		.uleb128 0xe
 3542 0005 13       		.uleb128 0x13
 3543 0006 0B       		.uleb128 0xb
 3544 0007 03       		.uleb128 0x3
 3545 0008 0E       		.uleb128 0xe
 3546 0009 1B       		.uleb128 0x1b
 3547 000a 0E       		.uleb128 0xe
 3548 000b 55       		.uleb128 0x55
 3549 000c 17       		.uleb128 0x17
 3550 000d 11       		.uleb128 0x11
 3551 000e 01       		.uleb128 0x1
 3552 000f 10       		.uleb128 0x10
 3553 0010 17       		.uleb128 0x17
 3554 0011 9942     		.uleb128 0x2119
 3555 0013 17       		.uleb128 0x17
 3556 0014 00       		.byte	0
 3557 0015 00       		.byte	0
 3558 0016 02       		.uleb128 0x2
 3559 0017 24       		.uleb128 0x24
 3560 0018 00       		.byte	0
 3561 0019 0B       		.uleb128 0xb
 3562 001a 0B       		.uleb128 0xb
 3563 001b 3E       		.uleb128 0x3e
 3564 001c 0B       		.uleb128 0xb
 3565 001d 03       		.uleb128 0x3
 3566 001e 0E       		.uleb128 0xe
 3567 001f 00       		.byte	0
 3568 0020 00       		.byte	0
 3569 0021 03       		.uleb128 0x3
 3570 0022 16       		.uleb128 0x16
 3571 0023 00       		.byte	0
 3572 0024 03       		.uleb128 0x3
 3573 0025 0E       		.uleb128 0xe
 3574 0026 3A       		.uleb128 0x3a
 3575 0027 0B       		.uleb128 0xb
 3576 0028 3B       		.uleb128 0x3b
 3577 0029 0B       		.uleb128 0xb
 3578 002a 49       		.uleb128 0x49
ARM GAS  /var/folders/9j/_txx49hn253_s3mnzkyxlj8m0000gp/T//ccgYRR5b.s 			page 85


 3579 002b 13       		.uleb128 0x13
 3580 002c 00       		.byte	0
 3581 002d 00       		.byte	0
 3582 002e 04       		.uleb128 0x4
 3583 002f 24       		.uleb128 0x24
 3584 0030 00       		.byte	0
 3585 0031 0B       		.uleb128 0xb
 3586 0032 0B       		.uleb128 0xb
 3587 0033 3E       		.uleb128 0x3e
 3588 0034 0B       		.uleb128 0xb
 3589 0035 03       		.uleb128 0x3
 3590 0036 08       		.uleb128 0x8
 3591 0037 00       		.byte	0
 3592 0038 00       		.byte	0
 3593 0039 05       		.uleb128 0x5
 3594 003a 01       		.uleb128 0x1
 3595 003b 01       		.byte	0x1
 3596 003c 49       		.uleb128 0x49
 3597 003d 13       		.uleb128 0x13
 3598 003e 01       		.uleb128 0x1
 3599 003f 13       		.uleb128 0x13
 3600 0040 00       		.byte	0
 3601 0041 00       		.byte	0
 3602 0042 06       		.uleb128 0x6
 3603 0043 21       		.uleb128 0x21
 3604 0044 00       		.byte	0
 3605 0045 49       		.uleb128 0x49
 3606 0046 13       		.uleb128 0x13
 3607 0047 2F       		.uleb128 0x2f
 3608 0048 0B       		.uleb128 0xb
 3609 0049 00       		.byte	0
 3610 004a 00       		.byte	0
 3611 004b 07       		.uleb128 0x7
 3612 004c 26       		.uleb128 0x26
 3613 004d 00       		.byte	0
 3614 004e 49       		.uleb128 0x49
 3615 004f 13       		.uleb128 0x13
 3616 0050 00       		.byte	0
 3617 0051 00       		.byte	0
 3618 0052 08       		.uleb128 0x8
 3619 0053 35       		.uleb128 0x35
 3620 0054 00       		.byte	0
 3621 0055 49       		.uleb128 0x49
 3622 0056 13       		.uleb128 0x13
 3623 0057 00       		.byte	0
 3624 0058 00       		.byte	0
 3625 0059 09       		.uleb128 0x9
 3626 005a 13       		.uleb128 0x13
 3627 005b 01       		.byte	0x1
 3628 005c 0B       		.uleb128 0xb
 3629 005d 05       		.uleb128 0x5
 3630 005e 3A       		.uleb128 0x3a
 3631 005f 0B       		.uleb128 0xb
 3632 0060 3B       		.uleb128 0x3b
 3633 0061 0B       		.uleb128 0xb
 3634 0062 01       		.uleb128 0x1
 3635 0063 13       		.uleb128 0x13
ARM GAS  /var/folders/9j/_txx49hn253_s3mnzkyxlj8m0000gp/T//ccgYRR5b.s 			page 86


 3636 0064 00       		.byte	0
 3637 0065 00       		.byte	0
 3638 0066 0A       		.uleb128 0xa
 3639 0067 0D       		.uleb128 0xd
 3640 0068 00       		.byte	0
 3641 0069 03       		.uleb128 0x3
 3642 006a 0E       		.uleb128 0xe
 3643 006b 3A       		.uleb128 0x3a
 3644 006c 0B       		.uleb128 0xb
 3645 006d 3B       		.uleb128 0x3b
 3646 006e 0B       		.uleb128 0xb
 3647 006f 49       		.uleb128 0x49
 3648 0070 13       		.uleb128 0x13
 3649 0071 38       		.uleb128 0x38
 3650 0072 0B       		.uleb128 0xb
 3651 0073 00       		.byte	0
 3652 0074 00       		.byte	0
 3653 0075 0B       		.uleb128 0xb
 3654 0076 0D       		.uleb128 0xd
 3655 0077 00       		.byte	0
 3656 0078 03       		.uleb128 0x3
 3657 0079 0E       		.uleb128 0xe
 3658 007a 3A       		.uleb128 0x3a
 3659 007b 0B       		.uleb128 0xb
 3660 007c 3B       		.uleb128 0x3b
 3661 007d 0B       		.uleb128 0xb
 3662 007e 49       		.uleb128 0x49
 3663 007f 13       		.uleb128 0x13
 3664 0080 38       		.uleb128 0x38
 3665 0081 05       		.uleb128 0x5
 3666 0082 00       		.byte	0
 3667 0083 00       		.byte	0
 3668 0084 0C       		.uleb128 0xc
 3669 0085 04       		.uleb128 0x4
 3670 0086 01       		.byte	0x1
 3671 0087 03       		.uleb128 0x3
 3672 0088 0E       		.uleb128 0xe
 3673 0089 0B       		.uleb128 0xb
 3674 008a 0B       		.uleb128 0xb
 3675 008b 3A       		.uleb128 0x3a
 3676 008c 0B       		.uleb128 0xb
 3677 008d 3B       		.uleb128 0x3b
 3678 008e 0B       		.uleb128 0xb
 3679 008f 01       		.uleb128 0x1
 3680 0090 13       		.uleb128 0x13
 3681 0091 00       		.byte	0
 3682 0092 00       		.byte	0
 3683 0093 0D       		.uleb128 0xd
 3684 0094 28       		.uleb128 0x28
 3685 0095 00       		.byte	0
 3686 0096 03       		.uleb128 0x3
 3687 0097 0E       		.uleb128 0xe
 3688 0098 1C       		.uleb128 0x1c
 3689 0099 0D       		.uleb128 0xd
 3690 009a 00       		.byte	0
 3691 009b 00       		.byte	0
 3692 009c 0E       		.uleb128 0xe
ARM GAS  /var/folders/9j/_txx49hn253_s3mnzkyxlj8m0000gp/T//ccgYRR5b.s 			page 87


 3693 009d 16       		.uleb128 0x16
 3694 009e 00       		.byte	0
 3695 009f 03       		.uleb128 0x3
 3696 00a0 0E       		.uleb128 0xe
 3697 00a1 3A       		.uleb128 0x3a
 3698 00a2 0B       		.uleb128 0xb
 3699 00a3 3B       		.uleb128 0x3b
 3700 00a4 05       		.uleb128 0x5
 3701 00a5 49       		.uleb128 0x49
 3702 00a6 13       		.uleb128 0x13
 3703 00a7 00       		.byte	0
 3704 00a8 00       		.byte	0
 3705 00a9 0F       		.uleb128 0xf
 3706 00aa 13       		.uleb128 0x13
 3707 00ab 01       		.byte	0x1
 3708 00ac 0B       		.uleb128 0xb
 3709 00ad 0B       		.uleb128 0xb
 3710 00ae 3A       		.uleb128 0x3a
 3711 00af 0B       		.uleb128 0xb
 3712 00b0 3B       		.uleb128 0x3b
 3713 00b1 0B       		.uleb128 0xb
 3714 00b2 01       		.uleb128 0x1
 3715 00b3 13       		.uleb128 0x13
 3716 00b4 00       		.byte	0
 3717 00b5 00       		.byte	0
 3718 00b6 10       		.uleb128 0x10
 3719 00b7 0F       		.uleb128 0xf
 3720 00b8 00       		.byte	0
 3721 00b9 0B       		.uleb128 0xb
 3722 00ba 0B       		.uleb128 0xb
 3723 00bb 00       		.byte	0
 3724 00bc 00       		.byte	0
 3725 00bd 11       		.uleb128 0x11
 3726 00be 17       		.uleb128 0x17
 3727 00bf 01       		.byte	0x1
 3728 00c0 0B       		.uleb128 0xb
 3729 00c1 0B       		.uleb128 0xb
 3730 00c2 3A       		.uleb128 0x3a
 3731 00c3 0B       		.uleb128 0xb
 3732 00c4 3B       		.uleb128 0x3b
 3733 00c5 0B       		.uleb128 0xb
 3734 00c6 01       		.uleb128 0x1
 3735 00c7 13       		.uleb128 0x13
 3736 00c8 00       		.byte	0
 3737 00c9 00       		.byte	0
 3738 00ca 12       		.uleb128 0x12
 3739 00cb 0D       		.uleb128 0xd
 3740 00cc 00       		.byte	0
 3741 00cd 03       		.uleb128 0x3
 3742 00ce 08       		.uleb128 0x8
 3743 00cf 3A       		.uleb128 0x3a
 3744 00d0 0B       		.uleb128 0xb
 3745 00d1 3B       		.uleb128 0x3b
 3746 00d2 0B       		.uleb128 0xb
 3747 00d3 49       		.uleb128 0x49
 3748 00d4 13       		.uleb128 0x13
 3749 00d5 00       		.byte	0
ARM GAS  /var/folders/9j/_txx49hn253_s3mnzkyxlj8m0000gp/T//ccgYRR5b.s 			page 88


 3750 00d6 00       		.byte	0
 3751 00d7 13       		.uleb128 0x13
 3752 00d8 0D       		.uleb128 0xd
 3753 00d9 00       		.byte	0
 3754 00da 03       		.uleb128 0x3
 3755 00db 0E       		.uleb128 0xe
 3756 00dc 3A       		.uleb128 0x3a
 3757 00dd 0B       		.uleb128 0xb
 3758 00de 3B       		.uleb128 0x3b
 3759 00df 0B       		.uleb128 0xb
 3760 00e0 49       		.uleb128 0x49
 3761 00e1 13       		.uleb128 0x13
 3762 00e2 00       		.byte	0
 3763 00e3 00       		.byte	0
 3764 00e4 14       		.uleb128 0x14
 3765 00e5 0D       		.uleb128 0xd
 3766 00e6 00       		.byte	0
 3767 00e7 49       		.uleb128 0x49
 3768 00e8 13       		.uleb128 0x13
 3769 00e9 38       		.uleb128 0x38
 3770 00ea 0B       		.uleb128 0xb
 3771 00eb 00       		.byte	0
 3772 00ec 00       		.byte	0
 3773 00ed 15       		.uleb128 0x15
 3774 00ee 0D       		.uleb128 0xd
 3775 00ef 00       		.byte	0
 3776 00f0 03       		.uleb128 0x3
 3777 00f1 08       		.uleb128 0x8
 3778 00f2 3A       		.uleb128 0x3a
 3779 00f3 0B       		.uleb128 0xb
 3780 00f4 3B       		.uleb128 0x3b
 3781 00f5 0B       		.uleb128 0xb
 3782 00f6 49       		.uleb128 0x49
 3783 00f7 13       		.uleb128 0x13
 3784 00f8 38       		.uleb128 0x38
 3785 00f9 0B       		.uleb128 0xb
 3786 00fa 00       		.byte	0
 3787 00fb 00       		.byte	0
 3788 00fc 16       		.uleb128 0x16
 3789 00fd 0F       		.uleb128 0xf
 3790 00fe 00       		.byte	0
 3791 00ff 0B       		.uleb128 0xb
 3792 0100 0B       		.uleb128 0xb
 3793 0101 49       		.uleb128 0x49
 3794 0102 13       		.uleb128 0x13
 3795 0103 00       		.byte	0
 3796 0104 00       		.byte	0
 3797 0105 17       		.uleb128 0x17
 3798 0106 2E       		.uleb128 0x2e
 3799 0107 01       		.byte	0x1
 3800 0108 03       		.uleb128 0x3
 3801 0109 0E       		.uleb128 0xe
 3802 010a 3A       		.uleb128 0x3a
 3803 010b 0B       		.uleb128 0xb
 3804 010c 3B       		.uleb128 0x3b
 3805 010d 0B       		.uleb128 0xb
 3806 010e 27       		.uleb128 0x27
ARM GAS  /var/folders/9j/_txx49hn253_s3mnzkyxlj8m0000gp/T//ccgYRR5b.s 			page 89


 3807 010f 19       		.uleb128 0x19
 3808 0110 49       		.uleb128 0x49
 3809 0111 13       		.uleb128 0x13
 3810 0112 20       		.uleb128 0x20
 3811 0113 0B       		.uleb128 0xb
 3812 0114 01       		.uleb128 0x1
 3813 0115 13       		.uleb128 0x13
 3814 0116 00       		.byte	0
 3815 0117 00       		.byte	0
 3816 0118 18       		.uleb128 0x18
 3817 0119 05       		.uleb128 0x5
 3818 011a 00       		.byte	0
 3819 011b 03       		.uleb128 0x3
 3820 011c 0E       		.uleb128 0xe
 3821 011d 3A       		.uleb128 0x3a
 3822 011e 0B       		.uleb128 0xb
 3823 011f 3B       		.uleb128 0x3b
 3824 0120 0B       		.uleb128 0xb
 3825 0121 49       		.uleb128 0x49
 3826 0122 13       		.uleb128 0x13
 3827 0123 00       		.byte	0
 3828 0124 00       		.byte	0
 3829 0125 19       		.uleb128 0x19
 3830 0126 2E       		.uleb128 0x2e
 3831 0127 01       		.byte	0x1
 3832 0128 03       		.uleb128 0x3
 3833 0129 0E       		.uleb128 0xe
 3834 012a 3A       		.uleb128 0x3a
 3835 012b 0B       		.uleb128 0xb
 3836 012c 3B       		.uleb128 0x3b
 3837 012d 05       		.uleb128 0x5
 3838 012e 27       		.uleb128 0x27
 3839 012f 19       		.uleb128 0x19
 3840 0130 20       		.uleb128 0x20
 3841 0131 0B       		.uleb128 0xb
 3842 0132 01       		.uleb128 0x1
 3843 0133 13       		.uleb128 0x13
 3844 0134 00       		.byte	0
 3845 0135 00       		.byte	0
 3846 0136 1A       		.uleb128 0x1a
 3847 0137 05       		.uleb128 0x5
 3848 0138 00       		.byte	0
 3849 0139 03       		.uleb128 0x3
 3850 013a 08       		.uleb128 0x8
 3851 013b 3A       		.uleb128 0x3a
 3852 013c 0B       		.uleb128 0xb
 3853 013d 3B       		.uleb128 0x3b
 3854 013e 05       		.uleb128 0x5
 3855 013f 49       		.uleb128 0x49
 3856 0140 13       		.uleb128 0x13
 3857 0141 00       		.byte	0
 3858 0142 00       		.byte	0
 3859 0143 1B       		.uleb128 0x1b
 3860 0144 05       		.uleb128 0x5
 3861 0145 00       		.byte	0
 3862 0146 03       		.uleb128 0x3
 3863 0147 0E       		.uleb128 0xe
ARM GAS  /var/folders/9j/_txx49hn253_s3mnzkyxlj8m0000gp/T//ccgYRR5b.s 			page 90


 3864 0148 3A       		.uleb128 0x3a
 3865 0149 0B       		.uleb128 0xb
 3866 014a 3B       		.uleb128 0x3b
 3867 014b 05       		.uleb128 0x5
 3868 014c 49       		.uleb128 0x49
 3869 014d 13       		.uleb128 0x13
 3870 014e 00       		.byte	0
 3871 014f 00       		.byte	0
 3872 0150 1C       		.uleb128 0x1c
 3873 0151 2E       		.uleb128 0x2e
 3874 0152 01       		.byte	0x1
 3875 0153 03       		.uleb128 0x3
 3876 0154 0E       		.uleb128 0xe
 3877 0155 3A       		.uleb128 0x3a
 3878 0156 0B       		.uleb128 0xb
 3879 0157 3B       		.uleb128 0x3b
 3880 0158 05       		.uleb128 0x5
 3881 0159 27       		.uleb128 0x27
 3882 015a 19       		.uleb128 0x19
 3883 015b 49       		.uleb128 0x49
 3884 015c 13       		.uleb128 0x13
 3885 015d 20       		.uleb128 0x20
 3886 015e 0B       		.uleb128 0xb
 3887 015f 01       		.uleb128 0x1
 3888 0160 13       		.uleb128 0x13
 3889 0161 00       		.byte	0
 3890 0162 00       		.byte	0
 3891 0163 1D       		.uleb128 0x1d
 3892 0164 2E       		.uleb128 0x2e
 3893 0165 01       		.byte	0x1
 3894 0166 3F       		.uleb128 0x3f
 3895 0167 19       		.uleb128 0x19
 3896 0168 03       		.uleb128 0x3
 3897 0169 0E       		.uleb128 0xe
 3898 016a 3A       		.uleb128 0x3a
 3899 016b 0B       		.uleb128 0xb
 3900 016c 3B       		.uleb128 0x3b
 3901 016d 0B       		.uleb128 0xb
 3902 016e 27       		.uleb128 0x27
 3903 016f 19       		.uleb128 0x19
 3904 0170 49       		.uleb128 0x49
 3905 0171 13       		.uleb128 0x13
 3906 0172 20       		.uleb128 0x20
 3907 0173 0B       		.uleb128 0xb
 3908 0174 01       		.uleb128 0x1
 3909 0175 13       		.uleb128 0x13
 3910 0176 00       		.byte	0
 3911 0177 00       		.byte	0
 3912 0178 1E       		.uleb128 0x1e
 3913 0179 34       		.uleb128 0x34
 3914 017a 00       		.byte	0
 3915 017b 03       		.uleb128 0x3
 3916 017c 0E       		.uleb128 0xe
 3917 017d 3A       		.uleb128 0x3a
 3918 017e 0B       		.uleb128 0xb
 3919 017f 3B       		.uleb128 0x3b
 3920 0180 0B       		.uleb128 0xb
ARM GAS  /var/folders/9j/_txx49hn253_s3mnzkyxlj8m0000gp/T//ccgYRR5b.s 			page 91


 3921 0181 49       		.uleb128 0x49
 3922 0182 13       		.uleb128 0x13
 3923 0183 00       		.byte	0
 3924 0184 00       		.byte	0
 3925 0185 1F       		.uleb128 0x1f
 3926 0186 34       		.uleb128 0x34
 3927 0187 00       		.byte	0
 3928 0188 03       		.uleb128 0x3
 3929 0189 08       		.uleb128 0x8
 3930 018a 3A       		.uleb128 0x3a
 3931 018b 0B       		.uleb128 0xb
 3932 018c 3B       		.uleb128 0x3b
 3933 018d 0B       		.uleb128 0xb
 3934 018e 49       		.uleb128 0x49
 3935 018f 13       		.uleb128 0x13
 3936 0190 00       		.byte	0
 3937 0191 00       		.byte	0
 3938 0192 20       		.uleb128 0x20
 3939 0193 26       		.uleb128 0x26
 3940 0194 00       		.byte	0
 3941 0195 00       		.byte	0
 3942 0196 00       		.byte	0
 3943 0197 21       		.uleb128 0x21
 3944 0198 2E       		.uleb128 0x2e
 3945 0199 01       		.byte	0x1
 3946 019a 3F       		.uleb128 0x3f
 3947 019b 19       		.uleb128 0x19
 3948 019c 03       		.uleb128 0x3
 3949 019d 0E       		.uleb128 0xe
 3950 019e 3A       		.uleb128 0x3a
 3951 019f 0B       		.uleb128 0xb
 3952 01a0 3B       		.uleb128 0x3b
 3953 01a1 0B       		.uleb128 0xb
 3954 01a2 27       		.uleb128 0x27
 3955 01a3 19       		.uleb128 0x19
 3956 01a4 20       		.uleb128 0x20
 3957 01a5 0B       		.uleb128 0xb
 3958 01a6 01       		.uleb128 0x1
 3959 01a7 13       		.uleb128 0x13
 3960 01a8 00       		.byte	0
 3961 01a9 00       		.byte	0
 3962 01aa 22       		.uleb128 0x22
 3963 01ab 05       		.uleb128 0x5
 3964 01ac 00       		.byte	0
 3965 01ad 03       		.uleb128 0x3
 3966 01ae 08       		.uleb128 0x8
 3967 01af 3A       		.uleb128 0x3a
 3968 01b0 0B       		.uleb128 0xb
 3969 01b1 3B       		.uleb128 0x3b
 3970 01b2 0B       		.uleb128 0xb
 3971 01b3 49       		.uleb128 0x49
 3972 01b4 13       		.uleb128 0x13
 3973 01b5 00       		.byte	0
 3974 01b6 00       		.byte	0
 3975 01b7 23       		.uleb128 0x23
 3976 01b8 0B       		.uleb128 0xb
 3977 01b9 01       		.byte	0x1
ARM GAS  /var/folders/9j/_txx49hn253_s3mnzkyxlj8m0000gp/T//ccgYRR5b.s 			page 92


 3978 01ba 00       		.byte	0
 3979 01bb 00       		.byte	0
 3980 01bc 24       		.uleb128 0x24
 3981 01bd 2E       		.uleb128 0x2e
 3982 01be 01       		.byte	0x1
 3983 01bf 3F       		.uleb128 0x3f
 3984 01c0 19       		.uleb128 0x19
 3985 01c1 03       		.uleb128 0x3
 3986 01c2 0E       		.uleb128 0xe
 3987 01c3 3A       		.uleb128 0x3a
 3988 01c4 0B       		.uleb128 0xb
 3989 01c5 3B       		.uleb128 0x3b
 3990 01c6 0B       		.uleb128 0xb
 3991 01c7 27       		.uleb128 0x27
 3992 01c8 19       		.uleb128 0x19
 3993 01c9 11       		.uleb128 0x11
 3994 01ca 01       		.uleb128 0x1
 3995 01cb 12       		.uleb128 0x12
 3996 01cc 06       		.uleb128 0x6
 3997 01cd 40       		.uleb128 0x40
 3998 01ce 18       		.uleb128 0x18
 3999 01cf 9742     		.uleb128 0x2117
 4000 01d1 19       		.uleb128 0x19
 4001 01d2 01       		.uleb128 0x1
 4002 01d3 13       		.uleb128 0x13
 4003 01d4 00       		.byte	0
 4004 01d5 00       		.byte	0
 4005 01d6 25       		.uleb128 0x25
 4006 01d7 05       		.uleb128 0x5
 4007 01d8 00       		.byte	0
 4008 01d9 03       		.uleb128 0x3
 4009 01da 0E       		.uleb128 0xe
 4010 01db 3A       		.uleb128 0x3a
 4011 01dc 0B       		.uleb128 0xb
 4012 01dd 3B       		.uleb128 0x3b
 4013 01de 0B       		.uleb128 0xb
 4014 01df 49       		.uleb128 0x49
 4015 01e0 13       		.uleb128 0x13
 4016 01e1 02       		.uleb128 0x2
 4017 01e2 18       		.uleb128 0x18
 4018 01e3 00       		.byte	0
 4019 01e4 00       		.byte	0
 4020 01e5 26       		.uleb128 0x26
 4021 01e6 1D       		.uleb128 0x1d
 4022 01e7 01       		.byte	0x1
 4023 01e8 31       		.uleb128 0x31
 4024 01e9 13       		.uleb128 0x13
 4025 01ea 52       		.uleb128 0x52
 4026 01eb 01       		.uleb128 0x1
 4027 01ec 55       		.uleb128 0x55
 4028 01ed 17       		.uleb128 0x17
 4029 01ee 58       		.uleb128 0x58
 4030 01ef 0B       		.uleb128 0xb
 4031 01f0 59       		.uleb128 0x59
 4032 01f1 0B       		.uleb128 0xb
 4033 01f2 01       		.uleb128 0x1
 4034 01f3 13       		.uleb128 0x13
ARM GAS  /var/folders/9j/_txx49hn253_s3mnzkyxlj8m0000gp/T//ccgYRR5b.s 			page 93


 4035 01f4 00       		.byte	0
 4036 01f5 00       		.byte	0
 4037 01f6 27       		.uleb128 0x27
 4038 01f7 05       		.uleb128 0x5
 4039 01f8 00       		.byte	0
 4040 01f9 31       		.uleb128 0x31
 4041 01fa 13       		.uleb128 0x13
 4042 01fb 1C       		.uleb128 0x1c
 4043 01fc 0B       		.uleb128 0xb
 4044 01fd 00       		.byte	0
 4045 01fe 00       		.byte	0
 4046 01ff 28       		.uleb128 0x28
 4047 0200 1D       		.uleb128 0x1d
 4048 0201 01       		.byte	0x1
 4049 0202 31       		.uleb128 0x31
 4050 0203 13       		.uleb128 0x13
 4051 0204 11       		.uleb128 0x11
 4052 0205 01       		.uleb128 0x1
 4053 0206 12       		.uleb128 0x12
 4054 0207 06       		.uleb128 0x6
 4055 0208 58       		.uleb128 0x58
 4056 0209 0B       		.uleb128 0xb
 4057 020a 59       		.uleb128 0x59
 4058 020b 0B       		.uleb128 0xb
 4059 020c 01       		.uleb128 0x1
 4060 020d 13       		.uleb128 0x13
 4061 020e 00       		.byte	0
 4062 020f 00       		.byte	0
 4063 0210 29       		.uleb128 0x29
 4064 0211 05       		.uleb128 0x5
 4065 0212 00       		.byte	0
 4066 0213 31       		.uleb128 0x31
 4067 0214 13       		.uleb128 0x13
 4068 0215 02       		.uleb128 0x2
 4069 0216 18       		.uleb128 0x18
 4070 0217 00       		.byte	0
 4071 0218 00       		.byte	0
 4072 0219 2A       		.uleb128 0x2a
 4073 021a 1D       		.uleb128 0x1d
 4074 021b 01       		.byte	0x1
 4075 021c 31       		.uleb128 0x31
 4076 021d 13       		.uleb128 0x13
 4077 021e 11       		.uleb128 0x11
 4078 021f 01       		.uleb128 0x1
 4079 0220 12       		.uleb128 0x12
 4080 0221 06       		.uleb128 0x6
 4081 0222 58       		.uleb128 0x58
 4082 0223 0B       		.uleb128 0xb
 4083 0224 59       		.uleb128 0x59
 4084 0225 0B       		.uleb128 0xb
 4085 0226 00       		.byte	0
 4086 0227 00       		.byte	0
 4087 0228 2B       		.uleb128 0x2b
 4088 0229 05       		.uleb128 0x5
 4089 022a 00       		.byte	0
 4090 022b 03       		.uleb128 0x3
 4091 022c 0E       		.uleb128 0xe
ARM GAS  /var/folders/9j/_txx49hn253_s3mnzkyxlj8m0000gp/T//ccgYRR5b.s 			page 94


 4092 022d 3A       		.uleb128 0x3a
 4093 022e 0B       		.uleb128 0xb
 4094 022f 3B       		.uleb128 0x3b
 4095 0230 0B       		.uleb128 0xb
 4096 0231 49       		.uleb128 0x49
 4097 0232 13       		.uleb128 0x13
 4098 0233 02       		.uleb128 0x2
 4099 0234 17       		.uleb128 0x17
 4100 0235 00       		.byte	0
 4101 0236 00       		.byte	0
 4102 0237 2C       		.uleb128 0x2c
 4103 0238 1D       		.uleb128 0x1d
 4104 0239 01       		.byte	0x1
 4105 023a 31       		.uleb128 0x31
 4106 023b 13       		.uleb128 0x13
 4107 023c 52       		.uleb128 0x52
 4108 023d 01       		.uleb128 0x1
 4109 023e 55       		.uleb128 0x55
 4110 023f 17       		.uleb128 0x17
 4111 0240 58       		.uleb128 0x58
 4112 0241 0B       		.uleb128 0xb
 4113 0242 59       		.uleb128 0x59
 4114 0243 0B       		.uleb128 0xb
 4115 0244 00       		.byte	0
 4116 0245 00       		.byte	0
 4117 0246 2D       		.uleb128 0x2d
 4118 0247 2E       		.uleb128 0x2e
 4119 0248 01       		.byte	0x1
 4120 0249 31       		.uleb128 0x31
 4121 024a 13       		.uleb128 0x13
 4122 024b 11       		.uleb128 0x11
 4123 024c 01       		.uleb128 0x1
 4124 024d 12       		.uleb128 0x12
 4125 024e 06       		.uleb128 0x6
 4126 024f 40       		.uleb128 0x40
 4127 0250 18       		.uleb128 0x18
 4128 0251 9742     		.uleb128 0x2117
 4129 0253 19       		.uleb128 0x19
 4130 0254 01       		.uleb128 0x1
 4131 0255 13       		.uleb128 0x13
 4132 0256 00       		.byte	0
 4133 0257 00       		.byte	0
 4134 0258 2E       		.uleb128 0x2e
 4135 0259 05       		.uleb128 0x5
 4136 025a 00       		.byte	0
 4137 025b 31       		.uleb128 0x31
 4138 025c 13       		.uleb128 0x13
 4139 025d 02       		.uleb128 0x2
 4140 025e 17       		.uleb128 0x17
 4141 025f 00       		.byte	0
 4142 0260 00       		.byte	0
 4143 0261 2F       		.uleb128 0x2f
 4144 0262 34       		.uleb128 0x34
 4145 0263 00       		.byte	0
 4146 0264 31       		.uleb128 0x31
 4147 0265 13       		.uleb128 0x13
 4148 0266 02       		.uleb128 0x2
ARM GAS  /var/folders/9j/_txx49hn253_s3mnzkyxlj8m0000gp/T//ccgYRR5b.s 			page 95


 4149 0267 17       		.uleb128 0x17
 4150 0268 00       		.byte	0
 4151 0269 00       		.byte	0
 4152 026a 30       		.uleb128 0x30
 4153 026b 2E       		.uleb128 0x2e
 4154 026c 01       		.byte	0x1
 4155 026d 3F       		.uleb128 0x3f
 4156 026e 19       		.uleb128 0x19
 4157 026f 03       		.uleb128 0x3
 4158 0270 0E       		.uleb128 0xe
 4159 0271 3A       		.uleb128 0x3a
 4160 0272 0B       		.uleb128 0xb
 4161 0273 3B       		.uleb128 0x3b
 4162 0274 0B       		.uleb128 0xb
 4163 0275 27       		.uleb128 0x27
 4164 0276 19       		.uleb128 0x19
 4165 0277 49       		.uleb128 0x49
 4166 0278 13       		.uleb128 0x13
 4167 0279 11       		.uleb128 0x11
 4168 027a 01       		.uleb128 0x1
 4169 027b 12       		.uleb128 0x12
 4170 027c 06       		.uleb128 0x6
 4171 027d 40       		.uleb128 0x40
 4172 027e 18       		.uleb128 0x18
 4173 027f 9742     		.uleb128 0x2117
 4174 0281 19       		.uleb128 0x19
 4175 0282 01       		.uleb128 0x1
 4176 0283 13       		.uleb128 0x13
 4177 0284 00       		.byte	0
 4178 0285 00       		.byte	0
 4179 0286 31       		.uleb128 0x31
 4180 0287 34       		.uleb128 0x34
 4181 0288 00       		.byte	0
 4182 0289 03       		.uleb128 0x3
 4183 028a 0E       		.uleb128 0xe
 4184 028b 3A       		.uleb128 0x3a
 4185 028c 0B       		.uleb128 0xb
 4186 028d 3B       		.uleb128 0x3b
 4187 028e 0B       		.uleb128 0xb
 4188 028f 49       		.uleb128 0x49
 4189 0290 13       		.uleb128 0x13
 4190 0291 02       		.uleb128 0x2
 4191 0292 18       		.uleb128 0x18
 4192 0293 00       		.byte	0
 4193 0294 00       		.byte	0
 4194 0295 32       		.uleb128 0x32
 4195 0296 34       		.uleb128 0x34
 4196 0297 00       		.byte	0
 4197 0298 03       		.uleb128 0x3
 4198 0299 0E       		.uleb128 0xe
 4199 029a 3A       		.uleb128 0x3a
 4200 029b 0B       		.uleb128 0xb
 4201 029c 3B       		.uleb128 0x3b
 4202 029d 0B       		.uleb128 0xb
 4203 029e 49       		.uleb128 0x49
 4204 029f 13       		.uleb128 0x13
 4205 02a0 02       		.uleb128 0x2
ARM GAS  /var/folders/9j/_txx49hn253_s3mnzkyxlj8m0000gp/T//ccgYRR5b.s 			page 96


 4206 02a1 17       		.uleb128 0x17
 4207 02a2 00       		.byte	0
 4208 02a3 00       		.byte	0
 4209 02a4 33       		.uleb128 0x33
 4210 02a5 34       		.uleb128 0x34
 4211 02a6 00       		.byte	0
 4212 02a7 03       		.uleb128 0x3
 4213 02a8 08       		.uleb128 0x8
 4214 02a9 3A       		.uleb128 0x3a
 4215 02aa 0B       		.uleb128 0xb
 4216 02ab 3B       		.uleb128 0x3b
 4217 02ac 0B       		.uleb128 0xb
 4218 02ad 49       		.uleb128 0x49
 4219 02ae 13       		.uleb128 0x13
 4220 02af 02       		.uleb128 0x2
 4221 02b0 18       		.uleb128 0x18
 4222 02b1 00       		.byte	0
 4223 02b2 00       		.byte	0
 4224 02b3 34       		.uleb128 0x34
 4225 02b4 05       		.uleb128 0x5
 4226 02b5 00       		.byte	0
 4227 02b6 31       		.uleb128 0x31
 4228 02b7 13       		.uleb128 0x13
 4229 02b8 00       		.byte	0
 4230 02b9 00       		.byte	0
 4231 02ba 35       		.uleb128 0x35
 4232 02bb 0B       		.uleb128 0xb
 4233 02bc 01       		.byte	0x1
 4234 02bd 55       		.uleb128 0x55
 4235 02be 17       		.uleb128 0x17
 4236 02bf 00       		.byte	0
 4237 02c0 00       		.byte	0
 4238 02c1 36       		.uleb128 0x36
 4239 02c2 2E       		.uleb128 0x2e
 4240 02c3 01       		.byte	0x1
 4241 02c4 3F       		.uleb128 0x3f
 4242 02c5 19       		.uleb128 0x19
 4243 02c6 03       		.uleb128 0x3
 4244 02c7 0E       		.uleb128 0xe
 4245 02c8 3A       		.uleb128 0x3a
 4246 02c9 0B       		.uleb128 0xb
 4247 02ca 3B       		.uleb128 0x3b
 4248 02cb 0B       		.uleb128 0xb
 4249 02cc 27       		.uleb128 0x27
 4250 02cd 19       		.uleb128 0x19
 4251 02ce 49       		.uleb128 0x49
 4252 02cf 13       		.uleb128 0x13
 4253 02d0 11       		.uleb128 0x11
 4254 02d1 01       		.uleb128 0x1
 4255 02d2 12       		.uleb128 0x12
 4256 02d3 06       		.uleb128 0x6
 4257 02d4 40       		.uleb128 0x40
 4258 02d5 18       		.uleb128 0x18
 4259 02d6 9642     		.uleb128 0x2116
 4260 02d8 19       		.uleb128 0x19
 4261 02d9 01       		.uleb128 0x1
 4262 02da 13       		.uleb128 0x13
ARM GAS  /var/folders/9j/_txx49hn253_s3mnzkyxlj8m0000gp/T//ccgYRR5b.s 			page 97


 4263 02db 00       		.byte	0
 4264 02dc 00       		.byte	0
 4265 02dd 37       		.uleb128 0x37
 4266 02de 34       		.uleb128 0x34
 4267 02df 00       		.byte	0
 4268 02e0 03       		.uleb128 0x3
 4269 02e1 08       		.uleb128 0x8
 4270 02e2 3A       		.uleb128 0x3a
 4271 02e3 0B       		.uleb128 0xb
 4272 02e4 3B       		.uleb128 0x3b
 4273 02e5 0B       		.uleb128 0xb
 4274 02e6 49       		.uleb128 0x49
 4275 02e7 13       		.uleb128 0x13
 4276 02e8 02       		.uleb128 0x2
 4277 02e9 17       		.uleb128 0x17
 4278 02ea 00       		.byte	0
 4279 02eb 00       		.byte	0
 4280 02ec 38       		.uleb128 0x38
 4281 02ed 898201   		.uleb128 0x4109
 4282 02f0 00       		.byte	0
 4283 02f1 11       		.uleb128 0x11
 4284 02f2 01       		.uleb128 0x1
 4285 02f3 31       		.uleb128 0x31
 4286 02f4 13       		.uleb128 0x13
 4287 02f5 00       		.byte	0
 4288 02f6 00       		.byte	0
 4289 02f7 39       		.uleb128 0x39
 4290 02f8 0B       		.uleb128 0xb
 4291 02f9 01       		.byte	0x1
 4292 02fa 11       		.uleb128 0x11
 4293 02fb 01       		.uleb128 0x1
 4294 02fc 12       		.uleb128 0x12
 4295 02fd 06       		.uleb128 0x6
 4296 02fe 00       		.byte	0
 4297 02ff 00       		.byte	0
 4298 0300 3A       		.uleb128 0x3a
 4299 0301 34       		.uleb128 0x34
 4300 0302 00       		.byte	0
 4301 0303 31       		.uleb128 0x31
 4302 0304 13       		.uleb128 0x13
 4303 0305 02       		.uleb128 0x2
 4304 0306 18       		.uleb128 0x18
 4305 0307 00       		.byte	0
 4306 0308 00       		.byte	0
 4307 0309 3B       		.uleb128 0x3b
 4308 030a 898201   		.uleb128 0x4109
 4309 030d 01       		.byte	0x1
 4310 030e 11       		.uleb128 0x11
 4311 030f 01       		.uleb128 0x1
 4312 0310 31       		.uleb128 0x31
 4313 0311 13       		.uleb128 0x13
 4314 0312 00       		.byte	0
 4315 0313 00       		.byte	0
 4316 0314 3C       		.uleb128 0x3c
 4317 0315 8A8201   		.uleb128 0x410a
 4318 0318 00       		.byte	0
 4319 0319 02       		.uleb128 0x2
ARM GAS  /var/folders/9j/_txx49hn253_s3mnzkyxlj8m0000gp/T//ccgYRR5b.s 			page 98


 4320 031a 18       		.uleb128 0x18
 4321 031b 9142     		.uleb128 0x2111
 4322 031d 18       		.uleb128 0x18
 4323 031e 00       		.byte	0
 4324 031f 00       		.byte	0
 4325 0320 3D       		.uleb128 0x3d
 4326 0321 05       		.uleb128 0x5
 4327 0322 00       		.byte	0
 4328 0323 03       		.uleb128 0x3
 4329 0324 08       		.uleb128 0x8
 4330 0325 3A       		.uleb128 0x3a
 4331 0326 0B       		.uleb128 0xb
 4332 0327 3B       		.uleb128 0x3b
 4333 0328 0B       		.uleb128 0xb
 4334 0329 49       		.uleb128 0x49
 4335 032a 13       		.uleb128 0x13
 4336 032b 02       		.uleb128 0x2
 4337 032c 17       		.uleb128 0x17
 4338 032d 00       		.byte	0
 4339 032e 00       		.byte	0
 4340 032f 3E       		.uleb128 0x3e
 4341 0330 898201   		.uleb128 0x4109
 4342 0333 01       		.byte	0x1
 4343 0334 11       		.uleb128 0x11
 4344 0335 01       		.uleb128 0x1
 4345 0336 31       		.uleb128 0x31
 4346 0337 13       		.uleb128 0x13
 4347 0338 01       		.uleb128 0x1
 4348 0339 13       		.uleb128 0x13
 4349 033a 00       		.byte	0
 4350 033b 00       		.byte	0
 4351 033c 3F       		.uleb128 0x3f
 4352 033d 1D       		.uleb128 0x1d
 4353 033e 01       		.byte	0x1
 4354 033f 31       		.uleb128 0x31
 4355 0340 13       		.uleb128 0x13
 4356 0341 52       		.uleb128 0x52
 4357 0342 01       		.uleb128 0x1
 4358 0343 55       		.uleb128 0x55
 4359 0344 17       		.uleb128 0x17
 4360 0345 58       		.uleb128 0x58
 4361 0346 0B       		.uleb128 0xb
 4362 0347 59       		.uleb128 0x59
 4363 0348 05       		.uleb128 0x5
 4364 0349 01       		.uleb128 0x1
 4365 034a 13       		.uleb128 0x13
 4366 034b 00       		.byte	0
 4367 034c 00       		.byte	0
 4368 034d 40       		.uleb128 0x40
 4369 034e 34       		.uleb128 0x34
 4370 034f 00       		.byte	0
 4371 0350 03       		.uleb128 0x3
 4372 0351 0E       		.uleb128 0xe
 4373 0352 3A       		.uleb128 0x3a
 4374 0353 0B       		.uleb128 0xb
 4375 0354 3B       		.uleb128 0x3b
 4376 0355 0B       		.uleb128 0xb
ARM GAS  /var/folders/9j/_txx49hn253_s3mnzkyxlj8m0000gp/T//ccgYRR5b.s 			page 99


 4377 0356 49       		.uleb128 0x49
 4378 0357 13       		.uleb128 0x13
 4379 0358 3F       		.uleb128 0x3f
 4380 0359 19       		.uleb128 0x19
 4381 035a 3C       		.uleb128 0x3c
 4382 035b 19       		.uleb128 0x19
 4383 035c 00       		.byte	0
 4384 035d 00       		.byte	0
 4385 035e 41       		.uleb128 0x41
 4386 035f 2E       		.uleb128 0x2e
 4387 0360 00       		.byte	0
 4388 0361 3F       		.uleb128 0x3f
 4389 0362 19       		.uleb128 0x19
 4390 0363 03       		.uleb128 0x3
 4391 0364 0E       		.uleb128 0xe
 4392 0365 3A       		.uleb128 0x3a
 4393 0366 0B       		.uleb128 0xb
 4394 0367 3B       		.uleb128 0x3b
 4395 0368 05       		.uleb128 0x5
 4396 0369 27       		.uleb128 0x27
 4397 036a 19       		.uleb128 0x19
 4398 036b 49       		.uleb128 0x49
 4399 036c 13       		.uleb128 0x13
 4400 036d 3C       		.uleb128 0x3c
 4401 036e 19       		.uleb128 0x19
 4402 036f 00       		.byte	0
 4403 0370 00       		.byte	0
 4404 0371 42       		.uleb128 0x42
 4405 0372 2E       		.uleb128 0x2e
 4406 0373 01       		.byte	0x1
 4407 0374 3F       		.uleb128 0x3f
 4408 0375 19       		.uleb128 0x19
 4409 0376 03       		.uleb128 0x3
 4410 0377 0E       		.uleb128 0xe
 4411 0378 3A       		.uleb128 0x3a
 4412 0379 0B       		.uleb128 0xb
 4413 037a 3B       		.uleb128 0x3b
 4414 037b 0B       		.uleb128 0xb
 4415 037c 27       		.uleb128 0x27
 4416 037d 19       		.uleb128 0x19
 4417 037e 49       		.uleb128 0x49
 4418 037f 13       		.uleb128 0x13
 4419 0380 3C       		.uleb128 0x3c
 4420 0381 19       		.uleb128 0x19
 4421 0382 01       		.uleb128 0x1
 4422 0383 13       		.uleb128 0x13
 4423 0384 00       		.byte	0
 4424 0385 00       		.byte	0
 4425 0386 43       		.uleb128 0x43
 4426 0387 05       		.uleb128 0x5
 4427 0388 00       		.byte	0
 4428 0389 49       		.uleb128 0x49
 4429 038a 13       		.uleb128 0x13
 4430 038b 00       		.byte	0
 4431 038c 00       		.byte	0
 4432 038d 44       		.uleb128 0x44
 4433 038e 2E       		.uleb128 0x2e
ARM GAS  /var/folders/9j/_txx49hn253_s3mnzkyxlj8m0000gp/T//ccgYRR5b.s 			page 100


 4434 038f 01       		.byte	0x1
 4435 0390 3F       		.uleb128 0x3f
 4436 0391 19       		.uleb128 0x19
 4437 0392 03       		.uleb128 0x3
 4438 0393 0E       		.uleb128 0xe
 4439 0394 3A       		.uleb128 0x3a
 4440 0395 0B       		.uleb128 0xb
 4441 0396 3B       		.uleb128 0x3b
 4442 0397 0B       		.uleb128 0xb
 4443 0398 27       		.uleb128 0x27
 4444 0399 19       		.uleb128 0x19
 4445 039a 49       		.uleb128 0x49
 4446 039b 13       		.uleb128 0x13
 4447 039c 3C       		.uleb128 0x3c
 4448 039d 19       		.uleb128 0x19
 4449 039e 00       		.byte	0
 4450 039f 00       		.byte	0
 4451 03a0 00       		.byte	0
 4452              		.section	.debug_loc,"",%progbits
 4453              	.Ldebug_loc0:
 4454              	.LLST0:
 4455 0000 00000000 		.4byte	.LVL4
 4456 0004 08000000 		.4byte	.LVL5
 4457 0008 0100     		.2byte	0x1
 4458 000a 50       		.byte	0x50
 4459 000b 08000000 		.4byte	.LVL5
 4460 000f 18000000 		.4byte	.LFE199
 4461 0013 0400     		.2byte	0x4
 4462 0015 F3       		.byte	0xf3
 4463 0016 01       		.uleb128 0x1
 4464 0017 50       		.byte	0x50
 4465 0018 9F       		.byte	0x9f
 4466 0019 00000000 		.4byte	0
 4467 001d 00000000 		.4byte	0
 4468              	.LLST1:
 4469 0021 00000000 		.4byte	.LVL6
 4470 0025 24000000 		.4byte	.LVL14
 4471 0029 0100     		.2byte	0x1
 4472 002b 50       		.byte	0x50
 4473 002c 24000000 		.4byte	.LVL14
 4474 0030 26000000 		.4byte	.LVL15
 4475 0034 0400     		.2byte	0x4
 4476 0036 F3       		.byte	0xf3
 4477 0037 01       		.uleb128 0x1
 4478 0038 50       		.byte	0x50
 4479 0039 9F       		.byte	0x9f
 4480 003a 26000000 		.4byte	.LVL15
 4481 003e 2E000000 		.4byte	.LFE200
 4482 0042 0100     		.2byte	0x1
 4483 0044 50       		.byte	0x50
 4484 0045 00000000 		.4byte	0
 4485 0049 00000000 		.4byte	0
 4486              	.LLST2:
 4487 004d 00000000 		.4byte	.LVL6
 4488 0051 22000000 		.4byte	.LVL13
 4489 0055 0100     		.2byte	0x1
 4490 0057 52       		.byte	0x52
ARM GAS  /var/folders/9j/_txx49hn253_s3mnzkyxlj8m0000gp/T//ccgYRR5b.s 			page 101


 4491 0058 22000000 		.4byte	.LVL13
 4492 005c 26000000 		.4byte	.LVL15
 4493 0060 0400     		.2byte	0x4
 4494 0062 F3       		.byte	0xf3
 4495 0063 01       		.uleb128 0x1
 4496 0064 52       		.byte	0x52
 4497 0065 9F       		.byte	0x9f
 4498 0066 26000000 		.4byte	.LVL15
 4499 006a 28000000 		.4byte	.LVL16
 4500 006e 0100     		.2byte	0x1
 4501 0070 52       		.byte	0x52
 4502 0071 28000000 		.4byte	.LVL16
 4503 0075 2A000000 		.4byte	.LVL17
 4504 0079 0400     		.2byte	0x4
 4505 007b F3       		.byte	0xf3
 4506 007c 01       		.uleb128 0x1
 4507 007d 52       		.byte	0x52
 4508 007e 9F       		.byte	0x9f
 4509 007f 2A000000 		.4byte	.LVL17
 4510 0083 2C000000 		.4byte	.LVL18
 4511 0087 0100     		.2byte	0x1
 4512 0089 52       		.byte	0x52
 4513 008a 2C000000 		.4byte	.LVL18
 4514 008e 2E000000 		.4byte	.LFE200
 4515 0092 0400     		.2byte	0x4
 4516 0094 F3       		.byte	0xf3
 4517 0095 01       		.uleb128 0x1
 4518 0096 52       		.byte	0x52
 4519 0097 9F       		.byte	0x9f
 4520 0098 00000000 		.4byte	0
 4521 009c 00000000 		.4byte	0
 4522              	.LLST3:
 4523 00a0 00000000 		.4byte	.LVL6
 4524 00a4 12000000 		.4byte	.LVL8
 4525 00a8 0200     		.2byte	0x2
 4526 00aa 30       		.byte	0x30
 4527 00ab 9F       		.byte	0x9f
 4528 00ac 12000000 		.4byte	.LVL8
 4529 00b0 1C000000 		.4byte	.LVL11
 4530 00b4 0100     		.2byte	0x1
 4531 00b6 53       		.byte	0x53
 4532 00b7 1C000000 		.4byte	.LVL11
 4533 00bb 1E000000 		.4byte	.LVL12
 4534 00bf 0300     		.2byte	0x3
 4535 00c1 73       		.byte	0x73
 4536 00c2 7F       		.sleb128 -1
 4537 00c3 9F       		.byte	0x9f
 4538 00c4 1E000000 		.4byte	.LVL12
 4539 00c8 22000000 		.4byte	.LVL13
 4540 00cc 0100     		.2byte	0x1
 4541 00ce 53       		.byte	0x53
 4542 00cf 26000000 		.4byte	.LVL15
 4543 00d3 2A000000 		.4byte	.LVL17
 4544 00d7 0100     		.2byte	0x1
 4545 00d9 53       		.byte	0x53
 4546 00da 2A000000 		.4byte	.LVL17
 4547 00de 2E000000 		.4byte	.LFE200
ARM GAS  /var/folders/9j/_txx49hn253_s3mnzkyxlj8m0000gp/T//ccgYRR5b.s 			page 102


 4548 00e2 0200     		.2byte	0x2
 4549 00e4 30       		.byte	0x30
 4550 00e5 9F       		.byte	0x9f
 4551 00e6 00000000 		.4byte	0
 4552 00ea 00000000 		.4byte	0
 4553              	.LLST4:
 4554 00ee 00000000 		.4byte	.LVL6
 4555 00f2 12000000 		.4byte	.LVL8
 4556 00f6 0100     		.2byte	0x1
 4557 00f8 51       		.byte	0x51
 4558 00f9 18000000 		.4byte	.LVL10
 4559 00fd 1C000000 		.4byte	.LVL11
 4560 0101 0600     		.2byte	0x6
 4561 0103 71       		.byte	0x71
 4562 0104 00       		.sleb128 0
 4563 0105 73       		.byte	0x73
 4564 0106 00       		.sleb128 0
 4565 0107 22       		.byte	0x22
 4566 0108 9F       		.byte	0x9f
 4567 0109 1C000000 		.4byte	.LVL11
 4568 010d 1E000000 		.4byte	.LVL12
 4569 0111 0800     		.2byte	0x8
 4570 0113 71       		.byte	0x71
 4571 0114 00       		.sleb128 0
 4572 0115 73       		.byte	0x73
 4573 0116 00       		.sleb128 0
 4574 0117 22       		.byte	0x22
 4575 0118 31       		.byte	0x31
 4576 0119 1C       		.byte	0x1c
 4577 011a 9F       		.byte	0x9f
 4578 011b 2A000000 		.4byte	.LVL17
 4579 011f 2E000000 		.4byte	.LFE200
 4580 0123 0100     		.2byte	0x1
 4581 0125 51       		.byte	0x51
 4582 0126 00000000 		.4byte	0
 4583 012a 00000000 		.4byte	0
 4584              	.LLST5:
 4585 012e 06000000 		.4byte	.LVL7
 4586 0132 22000000 		.4byte	.LVL13
 4587 0136 0100     		.2byte	0x1
 4588 0138 50       		.byte	0x50
 4589 0139 26000000 		.4byte	.LVL15
 4590 013d 2A000000 		.4byte	.LVL17
 4591 0141 0100     		.2byte	0x1
 4592 0143 50       		.byte	0x50
 4593 0144 00000000 		.4byte	0
 4594 0148 00000000 		.4byte	0
 4595              	.LLST6:
 4596 014c 12000000 		.4byte	.LVL8
 4597 0150 14000000 		.4byte	.LVL9
 4598 0154 0100     		.2byte	0x1
 4599 0156 54       		.byte	0x54
 4600 0157 14000000 		.4byte	.LVL9
 4601 015b 18000000 		.4byte	.LVL10
 4602 015f 0400     		.2byte	0x4
 4603 0161 70       		.byte	0x70
 4604 0162 00       		.sleb128 0
ARM GAS  /var/folders/9j/_txx49hn253_s3mnzkyxlj8m0000gp/T//ccgYRR5b.s 			page 103


 4605 0163 06       		.byte	0x6
 4606 0164 9F       		.byte	0x9f
 4607 0165 18000000 		.4byte	.LVL10
 4608 0169 1C000000 		.4byte	.LVL11
 4609 016d 0500     		.2byte	0x5
 4610 016f 71       		.byte	0x71
 4611 0170 00       		.sleb128 0
 4612 0171 73       		.byte	0x73
 4613 0172 00       		.sleb128 0
 4614 0173 22       		.byte	0x22
 4615 0174 1C000000 		.4byte	.LVL11
 4616 0178 1E000000 		.4byte	.LVL12
 4617 017c 0700     		.2byte	0x7
 4618 017e 71       		.byte	0x71
 4619 017f 00       		.sleb128 0
 4620 0180 73       		.byte	0x73
 4621 0181 00       		.sleb128 0
 4622 0182 22       		.byte	0x22
 4623 0183 31       		.byte	0x31
 4624 0184 1C       		.byte	0x1c
 4625 0185 1E000000 		.4byte	.LVL12
 4626 0189 22000000 		.4byte	.LVL13
 4627 018d 0100     		.2byte	0x1
 4628 018f 54       		.byte	0x54
 4629 0190 26000000 		.4byte	.LVL15
 4630 0194 2A000000 		.4byte	.LVL17
 4631 0198 0400     		.2byte	0x4
 4632 019a 70       		.byte	0x70
 4633 019b 00       		.sleb128 0
 4634 019c 06       		.byte	0x6
 4635 019d 9F       		.byte	0x9f
 4636 019e 00000000 		.4byte	0
 4637 01a2 00000000 		.4byte	0
 4638              	.LLST7:
 4639 01a6 12000000 		.4byte	.LVL8
 4640 01aa 22000000 		.4byte	.LVL13
 4641 01ae 0100     		.2byte	0x1
 4642 01b0 50       		.byte	0x50
 4643 01b1 26000000 		.4byte	.LVL15
 4644 01b5 2A000000 		.4byte	.LVL17
 4645 01b9 0100     		.2byte	0x1
 4646 01bb 50       		.byte	0x50
 4647 01bc 00000000 		.4byte	0
 4648 01c0 00000000 		.4byte	0
 4649              	.LLST8:
 4650 01c4 00000000 		.4byte	.LVL19
 4651 01c8 28000000 		.4byte	.LVL30
 4652 01cc 0100     		.2byte	0x1
 4653 01ce 50       		.byte	0x50
 4654 01cf 28000000 		.4byte	.LVL30
 4655 01d3 2A000000 		.4byte	.LFE201
 4656 01d7 0400     		.2byte	0x4
 4657 01d9 F3       		.byte	0xf3
 4658 01da 01       		.uleb128 0x1
 4659 01db 50       		.byte	0x50
 4660 01dc 9F       		.byte	0x9f
 4661 01dd 00000000 		.4byte	0
ARM GAS  /var/folders/9j/_txx49hn253_s3mnzkyxlj8m0000gp/T//ccgYRR5b.s 			page 104


 4662 01e1 00000000 		.4byte	0
 4663              	.LLST9:
 4664 01e5 00000000 		.4byte	.LVL19
 4665 01e9 0A000000 		.4byte	.LVL20
 4666 01ed 0100     		.2byte	0x1
 4667 01ef 51       		.byte	0x51
 4668 01f0 0A000000 		.4byte	.LVL20
 4669 01f4 2A000000 		.4byte	.LFE201
 4670 01f8 0400     		.2byte	0x4
 4671 01fa F3       		.byte	0xf3
 4672 01fb 01       		.uleb128 0x1
 4673 01fc 51       		.byte	0x51
 4674 01fd 9F       		.byte	0x9f
 4675 01fe 00000000 		.4byte	0
 4676 0202 00000000 		.4byte	0
 4677              	.LLST10:
 4678 0206 00000000 		.4byte	.LVL19
 4679 020a 1E000000 		.4byte	.LVL26
 4680 020e 0100     		.2byte	0x1
 4681 0210 52       		.byte	0x52
 4682 0211 1E000000 		.4byte	.LVL26
 4683 0215 2A000000 		.4byte	.LFE201
 4684 0219 0100     		.2byte	0x1
 4685 021b 52       		.byte	0x52
 4686 021c 00000000 		.4byte	0
 4687 0220 00000000 		.4byte	0
 4688              	.LLST11:
 4689 0224 00000000 		.4byte	.LVL19
 4690 0228 0A000000 		.4byte	.LVL20
 4691 022c 0200     		.2byte	0x2
 4692 022e 30       		.byte	0x30
 4693 022f 9F       		.byte	0x9f
 4694 0230 0A000000 		.4byte	.LVL20
 4695 0234 26000000 		.4byte	.LVL29
 4696 0238 0100     		.2byte	0x1
 4697 023a 56       		.byte	0x56
 4698 023b 00000000 		.4byte	0
 4699 023f 00000000 		.4byte	0
 4700              	.LLST12:
 4701 0243 0A000000 		.4byte	.LVL20
 4702 0247 0C000000 		.4byte	.LVL21
 4703 024b 0200     		.2byte	0x2
 4704 024d 30       		.byte	0x30
 4705 024e 9F       		.byte	0x9f
 4706 024f 0C000000 		.4byte	.LVL21
 4707 0253 16000000 		.4byte	.LVL23
 4708 0257 0100     		.2byte	0x1
 4709 0259 53       		.byte	0x53
 4710 025a 16000000 		.4byte	.LVL23
 4711 025e 18000000 		.4byte	.LVL24
 4712 0262 0300     		.2byte	0x3
 4713 0264 73       		.byte	0x73
 4714 0265 7F       		.sleb128 -1
 4715 0266 9F       		.byte	0x9f
 4716 0267 18000000 		.4byte	.LVL24
 4717 026b 26000000 		.4byte	.LVL29
 4718 026f 0100     		.2byte	0x1
ARM GAS  /var/folders/9j/_txx49hn253_s3mnzkyxlj8m0000gp/T//ccgYRR5b.s 			page 105


 4719 0271 53       		.byte	0x53
 4720 0272 00000000 		.4byte	0
 4721 0276 00000000 		.4byte	0
 4722              	.LLST13:
 4723 027a 0A000000 		.4byte	.LVL20
 4724 027e 0C000000 		.4byte	.LVL21
 4725 0282 0100     		.2byte	0x1
 4726 0284 51       		.byte	0x51
 4727 0285 0C000000 		.4byte	.LVL21
 4728 0289 16000000 		.4byte	.LVL23
 4729 028d 0600     		.2byte	0x6
 4730 028f 71       		.byte	0x71
 4731 0290 00       		.sleb128 0
 4732 0291 73       		.byte	0x73
 4733 0292 00       		.sleb128 0
 4734 0293 22       		.byte	0x22
 4735 0294 9F       		.byte	0x9f
 4736 0295 16000000 		.4byte	.LVL23
 4737 0299 18000000 		.4byte	.LVL24
 4738 029d 0800     		.2byte	0x8
 4739 029f 71       		.byte	0x71
 4740 02a0 00       		.sleb128 0
 4741 02a1 73       		.byte	0x73
 4742 02a2 00       		.sleb128 0
 4743 02a3 22       		.byte	0x22
 4744 02a4 31       		.byte	0x31
 4745 02a5 1C       		.byte	0x1c
 4746 02a6 9F       		.byte	0x9f
 4747 02a7 00000000 		.4byte	0
 4748 02ab 00000000 		.4byte	0
 4749              	.LLST14:
 4750 02af 0C000000 		.4byte	.LVL21
 4751 02b3 26000000 		.4byte	.LVL29
 4752 02b7 0100     		.2byte	0x1
 4753 02b9 50       		.byte	0x50
 4754 02ba 00000000 		.4byte	0
 4755 02be 00000000 		.4byte	0
 4756              	.LLST15:
 4757 02c2 12000000 		.4byte	.LVL22
 4758 02c6 16000000 		.4byte	.LVL23
 4759 02ca 0500     		.2byte	0x5
 4760 02cc 71       		.byte	0x71
 4761 02cd 00       		.sleb128 0
 4762 02ce 73       		.byte	0x73
 4763 02cf 00       		.sleb128 0
 4764 02d0 22       		.byte	0x22
 4765 02d1 16000000 		.4byte	.LVL23
 4766 02d5 18000000 		.4byte	.LVL24
 4767 02d9 0700     		.2byte	0x7
 4768 02db 71       		.byte	0x71
 4769 02dc 00       		.sleb128 0
 4770 02dd 73       		.byte	0x73
 4771 02de 00       		.sleb128 0
 4772 02df 22       		.byte	0x22
 4773 02e0 31       		.byte	0x31
 4774 02e1 1C       		.byte	0x1c
 4775 02e2 18000000 		.4byte	.LVL24
ARM GAS  /var/folders/9j/_txx49hn253_s3mnzkyxlj8m0000gp/T//ccgYRR5b.s 			page 106


 4776 02e6 1C000000 		.4byte	.LVL25
 4777 02ea 0100     		.2byte	0x1
 4778 02ec 54       		.byte	0x54
 4779 02ed 00000000 		.4byte	0
 4780 02f1 00000000 		.4byte	0
 4781              	.LLST16:
 4782 02f5 12000000 		.4byte	.LVL22
 4783 02f9 1C000000 		.4byte	.LVL25
 4784 02fd 0100     		.2byte	0x1
 4785 02ff 50       		.byte	0x50
 4786 0300 00000000 		.4byte	0
 4787 0304 00000000 		.4byte	0
 4788              	.LLST17:
 4789 0308 00000000 		.4byte	.LVL31
 4790 030c 24000000 		.4byte	.LVL38
 4791 0310 0100     		.2byte	0x1
 4792 0312 50       		.byte	0x50
 4793 0313 24000000 		.4byte	.LVL38
 4794 0317 26000000 		.4byte	.LVL39
 4795 031b 0400     		.2byte	0x4
 4796 031d F3       		.byte	0xf3
 4797 031e 01       		.uleb128 0x1
 4798 031f 50       		.byte	0x50
 4799 0320 9F       		.byte	0x9f
 4800 0321 26000000 		.4byte	.LVL39
 4801 0325 2E000000 		.4byte	.LFE202
 4802 0329 0100     		.2byte	0x1
 4803 032b 50       		.byte	0x50
 4804 032c 00000000 		.4byte	0
 4805 0330 00000000 		.4byte	0
 4806              	.LLST18:
 4807 0334 00000000 		.4byte	.LVL31
 4808 0338 22000000 		.4byte	.LVL37
 4809 033c 0100     		.2byte	0x1
 4810 033e 52       		.byte	0x52
 4811 033f 22000000 		.4byte	.LVL37
 4812 0343 26000000 		.4byte	.LVL39
 4813 0347 0400     		.2byte	0x4
 4814 0349 F3       		.byte	0xf3
 4815 034a 01       		.uleb128 0x1
 4816 034b 52       		.byte	0x52
 4817 034c 9F       		.byte	0x9f
 4818 034d 26000000 		.4byte	.LVL39
 4819 0351 28000000 		.4byte	.LVL40
 4820 0355 0100     		.2byte	0x1
 4821 0357 52       		.byte	0x52
 4822 0358 28000000 		.4byte	.LVL40
 4823 035c 2A000000 		.4byte	.LVL41
 4824 0360 0400     		.2byte	0x4
 4825 0362 F3       		.byte	0xf3
 4826 0363 01       		.uleb128 0x1
 4827 0364 52       		.byte	0x52
 4828 0365 9F       		.byte	0x9f
 4829 0366 2A000000 		.4byte	.LVL41
 4830 036a 2C000000 		.4byte	.LVL42
 4831 036e 0100     		.2byte	0x1
 4832 0370 52       		.byte	0x52
ARM GAS  /var/folders/9j/_txx49hn253_s3mnzkyxlj8m0000gp/T//ccgYRR5b.s 			page 107


 4833 0371 2C000000 		.4byte	.LVL42
 4834 0375 2E000000 		.4byte	.LFE202
 4835 0379 0400     		.2byte	0x4
 4836 037b F3       		.byte	0xf3
 4837 037c 01       		.uleb128 0x1
 4838 037d 52       		.byte	0x52
 4839 037e 9F       		.byte	0x9f
 4840 037f 00000000 		.4byte	0
 4841 0383 00000000 		.4byte	0
 4842              	.LLST19:
 4843 0387 00000000 		.4byte	.LVL31
 4844 038b 12000000 		.4byte	.LVL33
 4845 038f 0200     		.2byte	0x2
 4846 0391 30       		.byte	0x30
 4847 0392 9F       		.byte	0x9f
 4848 0393 12000000 		.4byte	.LVL33
 4849 0397 22000000 		.4byte	.LVL37
 4850 039b 0100     		.2byte	0x1
 4851 039d 53       		.byte	0x53
 4852 039e 26000000 		.4byte	.LVL39
 4853 03a2 2A000000 		.4byte	.LVL41
 4854 03a6 0100     		.2byte	0x1
 4855 03a8 53       		.byte	0x53
 4856 03a9 2A000000 		.4byte	.LVL41
 4857 03ad 2E000000 		.4byte	.LFE202
 4858 03b1 0200     		.2byte	0x2
 4859 03b3 30       		.byte	0x30
 4860 03b4 9F       		.byte	0x9f
 4861 03b5 00000000 		.4byte	0
 4862 03b9 00000000 		.4byte	0
 4863              	.LLST20:
 4864 03bd 00000000 		.4byte	.LVL31
 4865 03c1 12000000 		.4byte	.LVL33
 4866 03c5 0100     		.2byte	0x1
 4867 03c7 51       		.byte	0x51
 4868 03c8 12000000 		.4byte	.LVL33
 4869 03cc 1C000000 		.4byte	.LVL35
 4870 03d0 0600     		.2byte	0x6
 4871 03d2 71       		.byte	0x71
 4872 03d3 00       		.sleb128 0
 4873 03d4 73       		.byte	0x73
 4874 03d5 00       		.sleb128 0
 4875 03d6 22       		.byte	0x22
 4876 03d7 9F       		.byte	0x9f
 4877 03d8 1C000000 		.4byte	.LVL35
 4878 03dc 1E000000 		.4byte	.LVL36
 4879 03e0 0800     		.2byte	0x8
 4880 03e2 71       		.byte	0x71
 4881 03e3 00       		.sleb128 0
 4882 03e4 73       		.byte	0x73
 4883 03e5 00       		.sleb128 0
 4884 03e6 22       		.byte	0x22
 4885 03e7 23       		.byte	0x23
 4886 03e8 01       		.uleb128 0x1
 4887 03e9 9F       		.byte	0x9f
 4888 03ea 1E000000 		.4byte	.LVL36
 4889 03ee 22000000 		.4byte	.LVL37
ARM GAS  /var/folders/9j/_txx49hn253_s3mnzkyxlj8m0000gp/T//ccgYRR5b.s 			page 108


 4890 03f2 0600     		.2byte	0x6
 4891 03f4 71       		.byte	0x71
 4892 03f5 00       		.sleb128 0
 4893 03f6 73       		.byte	0x73
 4894 03f7 00       		.sleb128 0
 4895 03f8 22       		.byte	0x22
 4896 03f9 9F       		.byte	0x9f
 4897 03fa 26000000 		.4byte	.LVL39
 4898 03fe 2A000000 		.4byte	.LVL41
 4899 0402 0600     		.2byte	0x6
 4900 0404 71       		.byte	0x71
 4901 0405 00       		.sleb128 0
 4902 0406 73       		.byte	0x73
 4903 0407 00       		.sleb128 0
 4904 0408 22       		.byte	0x22
 4905 0409 9F       		.byte	0x9f
 4906 040a 2A000000 		.4byte	.LVL41
 4907 040e 2E000000 		.4byte	.LFE202
 4908 0412 0100     		.2byte	0x1
 4909 0414 51       		.byte	0x51
 4910 0415 00000000 		.4byte	0
 4911 0419 00000000 		.4byte	0
 4912              	.LLST21:
 4913 041d 06000000 		.4byte	.LVL32
 4914 0421 22000000 		.4byte	.LVL37
 4915 0425 0100     		.2byte	0x1
 4916 0427 50       		.byte	0x50
 4917 0428 26000000 		.4byte	.LVL39
 4918 042c 2A000000 		.4byte	.LVL41
 4919 0430 0100     		.2byte	0x1
 4920 0432 50       		.byte	0x50
 4921 0433 00000000 		.4byte	0
 4922 0437 00000000 		.4byte	0
 4923              	.LLST22:
 4924 043b 12000000 		.4byte	.LVL33
 4925 043f 22000000 		.4byte	.LVL37
 4926 0443 0100     		.2byte	0x1
 4927 0445 50       		.byte	0x50
 4928 0446 26000000 		.4byte	.LVL39
 4929 044a 2A000000 		.4byte	.LVL41
 4930 044e 0100     		.2byte	0x1
 4931 0450 50       		.byte	0x50
 4932 0451 00000000 		.4byte	0
 4933 0455 00000000 		.4byte	0
 4934              	.LLST23:
 4935 0459 00000000 		.4byte	.LVL43
 4936 045d 28000000 		.4byte	.LVL54
 4937 0461 0100     		.2byte	0x1
 4938 0463 50       		.byte	0x50
 4939 0464 28000000 		.4byte	.LVL54
 4940 0468 2A000000 		.4byte	.LFE203
 4941 046c 0400     		.2byte	0x4
 4942 046e F3       		.byte	0xf3
 4943 046f 01       		.uleb128 0x1
 4944 0470 50       		.byte	0x50
 4945 0471 9F       		.byte	0x9f
 4946 0472 00000000 		.4byte	0
ARM GAS  /var/folders/9j/_txx49hn253_s3mnzkyxlj8m0000gp/T//ccgYRR5b.s 			page 109


 4947 0476 00000000 		.4byte	0
 4948              	.LLST24:
 4949 047a 00000000 		.4byte	.LVL43
 4950 047e 0A000000 		.4byte	.LVL44
 4951 0482 0100     		.2byte	0x1
 4952 0484 51       		.byte	0x51
 4953 0485 0A000000 		.4byte	.LVL44
 4954 0489 2A000000 		.4byte	.LFE203
 4955 048d 0400     		.2byte	0x4
 4956 048f F3       		.byte	0xf3
 4957 0490 01       		.uleb128 0x1
 4958 0491 51       		.byte	0x51
 4959 0492 9F       		.byte	0x9f
 4960 0493 00000000 		.4byte	0
 4961 0497 00000000 		.4byte	0
 4962              	.LLST25:
 4963 049b 00000000 		.4byte	.LVL43
 4964 049f 20000000 		.4byte	.LVL51
 4965 04a3 0100     		.2byte	0x1
 4966 04a5 52       		.byte	0x52
 4967 04a6 20000000 		.4byte	.LVL51
 4968 04aa 2A000000 		.4byte	.LFE203
 4969 04ae 0100     		.2byte	0x1
 4970 04b0 52       		.byte	0x52
 4971 04b1 00000000 		.4byte	0
 4972 04b5 00000000 		.4byte	0
 4973              	.LLST26:
 4974 04b9 00000000 		.4byte	.LVL43
 4975 04bd 0A000000 		.4byte	.LVL44
 4976 04c1 0200     		.2byte	0x2
 4977 04c3 30       		.byte	0x30
 4978 04c4 9F       		.byte	0x9f
 4979 04c5 0A000000 		.4byte	.LVL44
 4980 04c9 1E000000 		.4byte	.LVL50
 4981 04cd 0100     		.2byte	0x1
 4982 04cf 56       		.byte	0x56
 4983 04d0 20000000 		.4byte	.LVL51
 4984 04d4 26000000 		.4byte	.LVL53
 4985 04d8 0100     		.2byte	0x1
 4986 04da 56       		.byte	0x56
 4987 04db 00000000 		.4byte	0
 4988 04df 00000000 		.4byte	0
 4989              	.LLST27:
 4990 04e3 0A000000 		.4byte	.LVL44
 4991 04e7 0C000000 		.4byte	.LVL45
 4992 04eb 0200     		.2byte	0x2
 4993 04ed 30       		.byte	0x30
 4994 04ee 9F       		.byte	0x9f
 4995 04ef 0C000000 		.4byte	.LVL45
 4996 04f3 26000000 		.4byte	.LVL53
 4997 04f7 0100     		.2byte	0x1
 4998 04f9 53       		.byte	0x53
 4999 04fa 00000000 		.4byte	0
 5000 04fe 00000000 		.4byte	0
 5001              	.LLST28:
 5002 0502 0A000000 		.4byte	.LVL44
 5003 0506 0C000000 		.4byte	.LVL45
ARM GAS  /var/folders/9j/_txx49hn253_s3mnzkyxlj8m0000gp/T//ccgYRR5b.s 			page 110


 5004 050a 0100     		.2byte	0x1
 5005 050c 51       		.byte	0x51
 5006 050d 0C000000 		.4byte	.LVL45
 5007 0511 16000000 		.4byte	.LVL47
 5008 0515 0600     		.2byte	0x6
 5009 0517 71       		.byte	0x71
 5010 0518 00       		.sleb128 0
 5011 0519 73       		.byte	0x73
 5012 051a 00       		.sleb128 0
 5013 051b 22       		.byte	0x22
 5014 051c 9F       		.byte	0x9f
 5015 051d 16000000 		.4byte	.LVL47
 5016 0521 18000000 		.4byte	.LVL48
 5017 0525 0800     		.2byte	0x8
 5018 0527 71       		.byte	0x71
 5019 0528 00       		.sleb128 0
 5020 0529 73       		.byte	0x73
 5021 052a 00       		.sleb128 0
 5022 052b 22       		.byte	0x22
 5023 052c 23       		.byte	0x23
 5024 052d 01       		.uleb128 0x1
 5025 052e 9F       		.byte	0x9f
 5026 052f 18000000 		.4byte	.LVL48
 5027 0533 1C000000 		.4byte	.LVL49
 5028 0537 0600     		.2byte	0x6
 5029 0539 71       		.byte	0x71
 5030 053a 00       		.sleb128 0
 5031 053b 73       		.byte	0x73
 5032 053c 00       		.sleb128 0
 5033 053d 22       		.byte	0x22
 5034 053e 9F       		.byte	0x9f
 5035 053f 00000000 		.4byte	0
 5036 0543 00000000 		.4byte	0
 5037              	.LLST29:
 5038 0547 0C000000 		.4byte	.LVL45
 5039 054b 26000000 		.4byte	.LVL53
 5040 054f 0100     		.2byte	0x1
 5041 0551 50       		.byte	0x50
 5042 0552 00000000 		.4byte	0
 5043 0556 00000000 		.4byte	0
 5044              	.LLST30:
 5045 055a 12000000 		.4byte	.LVL46
 5046 055e 1C000000 		.4byte	.LVL49
 5047 0562 0100     		.2byte	0x1
 5048 0564 50       		.byte	0x50
 5049 0565 00000000 		.4byte	0
 5050 0569 00000000 		.4byte	0
 5051              	.LLST31:
 5052 056d 00000000 		.4byte	.LVL55
 5053 0571 09000000 		.4byte	.LVL56-1
 5054 0575 0100     		.2byte	0x1
 5055 0577 50       		.byte	0x50
 5056 0578 09000000 		.4byte	.LVL56-1
 5057 057c 36000000 		.4byte	.LVL67
 5058 0580 0100     		.2byte	0x1
 5059 0582 54       		.byte	0x54
 5060 0583 36000000 		.4byte	.LVL67
ARM GAS  /var/folders/9j/_txx49hn253_s3mnzkyxlj8m0000gp/T//ccgYRR5b.s 			page 111


 5061 0587 38000000 		.4byte	.LFE204
 5062 058b 0400     		.2byte	0x4
 5063 058d F3       		.byte	0xf3
 5064 058e 01       		.uleb128 0x1
 5065 058f 50       		.byte	0x50
 5066 0590 9F       		.byte	0x9f
 5067 0591 00000000 		.4byte	0
 5068 0595 00000000 		.4byte	0
 5069              	.LLST32:
 5070 0599 00000000 		.4byte	.LVL55
 5071 059d 09000000 		.4byte	.LVL56-1
 5072 05a1 0100     		.2byte	0x1
 5073 05a3 51       		.byte	0x51
 5074 05a4 09000000 		.4byte	.LVL56-1
 5075 05a8 1A000000 		.4byte	.LVL60
 5076 05ac 0100     		.2byte	0x1
 5077 05ae 56       		.byte	0x56
 5078 05af 1A000000 		.4byte	.LVL60
 5079 05b3 38000000 		.4byte	.LFE204
 5080 05b7 0400     		.2byte	0x4
 5081 05b9 F3       		.byte	0xf3
 5082 05ba 01       		.uleb128 0x1
 5083 05bb 51       		.byte	0x51
 5084 05bc 9F       		.byte	0x9f
 5085 05bd 00000000 		.4byte	0
 5086 05c1 00000000 		.4byte	0
 5087              	.LLST33:
 5088 05c5 16000000 		.4byte	.LVL59
 5089 05c9 22000000 		.4byte	.LVL63
 5090 05cd 0100     		.2byte	0x1
 5091 05cf 50       		.byte	0x50
 5092 05d0 22000000 		.4byte	.LVL63
 5093 05d4 35000000 		.4byte	.LVL66-1
 5094 05d8 0100     		.2byte	0x1
 5095 05da 51       		.byte	0x51
 5096 05db 00000000 		.4byte	0
 5097 05df 00000000 		.4byte	0
 5098              	.LLST34:
 5099 05e3 16000000 		.4byte	.LVL59
 5100 05e7 20000000 		.4byte	.LVL62
 5101 05eb 0500     		.2byte	0x5
 5102 05ed 70       		.byte	0x70
 5103 05ee 00       		.sleb128 0
 5104 05ef 38       		.byte	0x38
 5105 05f0 25       		.byte	0x25
 5106 05f1 9F       		.byte	0x9f
 5107 05f2 20000000 		.4byte	.LVL62
 5108 05f6 26000000 		.4byte	.LVL64
 5109 05fa 0100     		.2byte	0x1
 5110 05fc 53       		.byte	0x53
 5111 05fd 26000000 		.4byte	.LVL64
 5112 0601 35000000 		.4byte	.LVL66-1
 5113 0605 0500     		.2byte	0x5
 5114 0607 71       		.byte	0x71
 5115 0608 00       		.sleb128 0
 5116 0609 38       		.byte	0x38
 5117 060a 25       		.byte	0x25
ARM GAS  /var/folders/9j/_txx49hn253_s3mnzkyxlj8m0000gp/T//ccgYRR5b.s 			page 112


 5118 060b 9F       		.byte	0x9f
 5119 060c 00000000 		.4byte	0
 5120 0610 00000000 		.4byte	0
 5121              	.LLST35:
 5122 0614 16000000 		.4byte	.LVL59
 5123 0618 22000000 		.4byte	.LVL63
 5124 061c 0A00     		.2byte	0xa
 5125 061e 70       		.byte	0x70
 5126 061f 00       		.sleb128 0
 5127 0620 70       		.byte	0x70
 5128 0621 00       		.sleb128 0
 5129 0622 38       		.byte	0x38
 5130 0623 25       		.byte	0x25
 5131 0624 38       		.byte	0x38
 5132 0625 24       		.byte	0x24
 5133 0626 1C       		.byte	0x1c
 5134 0627 9F       		.byte	0x9f
 5135 0628 22000000 		.4byte	.LVL63
 5136 062c 35000000 		.4byte	.LVL66-1
 5137 0630 0A00     		.2byte	0xa
 5138 0632 71       		.byte	0x71
 5139 0633 00       		.sleb128 0
 5140 0634 71       		.byte	0x71
 5141 0635 00       		.sleb128 0
 5142 0636 38       		.byte	0x38
 5143 0637 25       		.byte	0x25
 5144 0638 38       		.byte	0x38
 5145 0639 24       		.byte	0x24
 5146 063a 1C       		.byte	0x1c
 5147 063b 9F       		.byte	0x9f
 5148 063c 00000000 		.4byte	0
 5149 0640 00000000 		.4byte	0
 5150              	.LLST36:
 5151 0644 0E000000 		.4byte	.LVL57
 5152 0648 11000000 		.4byte	.LVL58-1
 5153 064c 0100     		.2byte	0x1
 5154 064e 50       		.byte	0x50
 5155 064f 11000000 		.4byte	.LVL58-1
 5156 0653 36000000 		.4byte	.LVL68
 5157 0657 0100     		.2byte	0x1
 5158 0659 55       		.byte	0x55
 5159 065a 00000000 		.4byte	0
 5160 065e 00000000 		.4byte	0
 5161              	.LLST37:
 5162 0662 16000000 		.4byte	.LVL59
 5163 0666 36000000 		.4byte	.LVL67
 5164 066a 0100     		.2byte	0x1
 5165 066c 54       		.byte	0x54
 5166 066d 36000000 		.4byte	.LVL67
 5167 0671 38000000 		.4byte	.LFE204
 5168 0675 0400     		.2byte	0x4
 5169 0677 F3       		.byte	0xf3
 5170 0678 01       		.uleb128 0x1
 5171 0679 50       		.byte	0x50
 5172 067a 9F       		.byte	0x9f
 5173 067b 00000000 		.4byte	0
 5174 067f 00000000 		.4byte	0
ARM GAS  /var/folders/9j/_txx49hn253_s3mnzkyxlj8m0000gp/T//ccgYRR5b.s 			page 113


 5175              	.LLST38:
 5176 0683 1E000000 		.4byte	.LVL61
 5177 0687 22000000 		.4byte	.LVL63
 5178 068b 0500     		.2byte	0x5
 5179 068d 70       		.byte	0x70
 5180 068e 00       		.sleb128 0
 5181 068f 38       		.byte	0x38
 5182 0690 25       		.byte	0x25
 5183 0691 9F       		.byte	0x9f
 5184 0692 22000000 		.4byte	.LVL63
 5185 0696 35000000 		.4byte	.LVL66-1
 5186 069a 0500     		.2byte	0x5
 5187 069c 71       		.byte	0x71
 5188 069d 00       		.sleb128 0
 5189 069e 38       		.byte	0x38
 5190 069f 25       		.byte	0x25
 5191 06a0 9F       		.byte	0x9f
 5192 06a1 00000000 		.4byte	0
 5193 06a5 00000000 		.4byte	0
 5194              	.LLST39:
 5195 06a9 1E000000 		.4byte	.LVL61
 5196 06ad 22000000 		.4byte	.LVL63
 5197 06b1 0A00     		.2byte	0xa
 5198 06b3 70       		.byte	0x70
 5199 06b4 00       		.sleb128 0
 5200 06b5 70       		.byte	0x70
 5201 06b6 00       		.sleb128 0
 5202 06b7 38       		.byte	0x38
 5203 06b8 25       		.byte	0x25
 5204 06b9 38       		.byte	0x38
 5205 06ba 24       		.byte	0x24
 5206 06bb 1C       		.byte	0x1c
 5207 06bc 9F       		.byte	0x9f
 5208 06bd 22000000 		.4byte	.LVL63
 5209 06c1 35000000 		.4byte	.LVL66-1
 5210 06c5 0A00     		.2byte	0xa
 5211 06c7 71       		.byte	0x71
 5212 06c8 00       		.sleb128 0
 5213 06c9 71       		.byte	0x71
 5214 06ca 00       		.sleb128 0
 5215 06cb 38       		.byte	0x38
 5216 06cc 25       		.byte	0x25
 5217 06cd 38       		.byte	0x38
 5218 06ce 24       		.byte	0x24
 5219 06cf 1C       		.byte	0x1c
 5220 06d0 9F       		.byte	0x9f
 5221 06d1 00000000 		.4byte	0
 5222 06d5 00000000 		.4byte	0
 5223              	.LLST40:
 5224 06d9 1E000000 		.4byte	.LVL61
 5225 06dd 36000000 		.4byte	.LVL67
 5226 06e1 0100     		.2byte	0x1
 5227 06e3 54       		.byte	0x54
 5228 06e4 36000000 		.4byte	.LVL67
 5229 06e8 38000000 		.4byte	.LFE204
 5230 06ec 0400     		.2byte	0x4
 5231 06ee F3       		.byte	0xf3
ARM GAS  /var/folders/9j/_txx49hn253_s3mnzkyxlj8m0000gp/T//ccgYRR5b.s 			page 114


 5232 06ef 01       		.uleb128 0x1
 5233 06f0 50       		.byte	0x50
 5234 06f1 9F       		.byte	0x9f
 5235 06f2 00000000 		.4byte	0
 5236 06f6 00000000 		.4byte	0
 5237              	.LLST41:
 5238 06fa 2A000000 		.4byte	.LVL65
 5239 06fe 36000000 		.4byte	.LVL67
 5240 0702 0100     		.2byte	0x1
 5241 0704 54       		.byte	0x54
 5242 0705 36000000 		.4byte	.LVL67
 5243 0709 38000000 		.4byte	.LFE204
 5244 070d 0400     		.2byte	0x4
 5245 070f F3       		.byte	0xf3
 5246 0710 01       		.uleb128 0x1
 5247 0711 50       		.byte	0x50
 5248 0712 9F       		.byte	0x9f
 5249 0713 00000000 		.4byte	0
 5250 0717 00000000 		.4byte	0
 5251              	.LLST42:
 5252 071b 00000000 		.4byte	.LVL69
 5253 071f 14000000 		.4byte	.LVL70
 5254 0723 0100     		.2byte	0x1
 5255 0725 50       		.byte	0x50
 5256 0726 14000000 		.4byte	.LVL70
 5257 072a 28000000 		.4byte	.LVL73
 5258 072e 0100     		.2byte	0x1
 5259 0730 54       		.byte	0x54
 5260 0731 28000000 		.4byte	.LVL73
 5261 0735 2A000000 		.4byte	.LFE205
 5262 0739 0400     		.2byte	0x4
 5263 073b F3       		.byte	0xf3
 5264 073c 01       		.uleb128 0x1
 5265 073d 50       		.byte	0x50
 5266 073e 9F       		.byte	0x9f
 5267 073f 00000000 		.4byte	0
 5268 0743 00000000 		.4byte	0
 5269              	.LLST43:
 5270 0747 00000000 		.4byte	.LVL69
 5271 074b 14000000 		.4byte	.LVL70
 5272 074f 0100     		.2byte	0x1
 5273 0751 51       		.byte	0x51
 5274 0752 14000000 		.4byte	.LVL70
 5275 0756 28000000 		.4byte	.LVL74
 5276 075a 0100     		.2byte	0x1
 5277 075c 57       		.byte	0x57
 5278 075d 28000000 		.4byte	.LVL74
 5279 0761 2A000000 		.4byte	.LFE205
 5280 0765 0400     		.2byte	0x4
 5281 0767 F3       		.byte	0xf3
 5282 0768 01       		.uleb128 0x1
 5283 0769 51       		.byte	0x51
 5284 076a 9F       		.byte	0x9f
 5285 076b 00000000 		.4byte	0
 5286 076f 00000000 		.4byte	0
 5287              	.LLST45:
 5288 0773 14000000 		.4byte	.LVL70
ARM GAS  /var/folders/9j/_txx49hn253_s3mnzkyxlj8m0000gp/T//ccgYRR5b.s 			page 115


 5289 0777 26000000 		.4byte	.LVL72
 5290 077b 0100     		.2byte	0x1
 5291 077d 54       		.byte	0x54
 5292 077e 00000000 		.4byte	0
 5293 0782 00000000 		.4byte	0
 5294              	.LLST46:
 5295 0786 00000000 		.4byte	.LVL75
 5296 078a 16000000 		.4byte	.LVL76
 5297 078e 0100     		.2byte	0x1
 5298 0790 50       		.byte	0x50
 5299 0791 16000000 		.4byte	.LVL76
 5300 0795 2E000000 		.4byte	.LVL79
 5301 0799 0100     		.2byte	0x1
 5302 079b 54       		.byte	0x54
 5303 079c 2E000000 		.4byte	.LVL79
 5304 07a0 30000000 		.4byte	.LFE206
 5305 07a4 0400     		.2byte	0x4
 5306 07a6 F3       		.byte	0xf3
 5307 07a7 01       		.uleb128 0x1
 5308 07a8 50       		.byte	0x50
 5309 07a9 9F       		.byte	0x9f
 5310 07aa 00000000 		.4byte	0
 5311 07ae 00000000 		.4byte	0
 5312              	.LLST47:
 5313 07b2 00000000 		.4byte	.LVL75
 5314 07b6 16000000 		.4byte	.LVL76
 5315 07ba 0100     		.2byte	0x1
 5316 07bc 51       		.byte	0x51
 5317 07bd 16000000 		.4byte	.LVL76
 5318 07c1 2E000000 		.4byte	.LVL80
 5319 07c5 0100     		.2byte	0x1
 5320 07c7 56       		.byte	0x56
 5321 07c8 2E000000 		.4byte	.LVL80
 5322 07cc 30000000 		.4byte	.LFE206
 5323 07d0 0400     		.2byte	0x4
 5324 07d2 F3       		.byte	0xf3
 5325 07d3 01       		.uleb128 0x1
 5326 07d4 51       		.byte	0x51
 5327 07d5 9F       		.byte	0x9f
 5328 07d6 00000000 		.4byte	0
 5329 07da 00000000 		.4byte	0
 5330              	.LLST49:
 5331 07de 16000000 		.4byte	.LVL76
 5332 07e2 20000000 		.4byte	.LVL77
 5333 07e6 0200     		.2byte	0x2
 5334 07e8 91       		.byte	0x91
 5335 07e9 67       		.sleb128 -25
 5336 07ea 00000000 		.4byte	0
 5337 07ee 00000000 		.4byte	0
 5338              	.LLST50:
 5339 07f2 16000000 		.4byte	.LVL76
 5340 07f6 20000000 		.4byte	.LVL77
 5341 07fa 0100     		.2byte	0x1
 5342 07fc 54       		.byte	0x54
 5343 07fd 00000000 		.4byte	0
 5344 0801 00000000 		.4byte	0
 5345              	.LLST51:
ARM GAS  /var/folders/9j/_txx49hn253_s3mnzkyxlj8m0000gp/T//ccgYRR5b.s 			page 116


 5346 0805 00000000 		.4byte	.LVL81
 5347 0809 1A000000 		.4byte	.LVL83
 5348 080d 0100     		.2byte	0x1
 5349 080f 50       		.byte	0x50
 5350 0810 1A000000 		.4byte	.LVL83
 5351 0814 40000000 		.4byte	.LVL92
 5352 0818 0100     		.2byte	0x1
 5353 081a 55       		.byte	0x55
 5354 081b 40000000 		.4byte	.LVL92
 5355 081f 48000000 		.4byte	.LFE207
 5356 0823 0400     		.2byte	0x4
 5357 0825 F3       		.byte	0xf3
 5358 0826 01       		.uleb128 0x1
 5359 0827 50       		.byte	0x50
 5360 0828 9F       		.byte	0x9f
 5361 0829 00000000 		.4byte	0
 5362 082d 00000000 		.4byte	0
 5363              	.LLST52:
 5364 0831 00000000 		.4byte	.LVL81
 5365 0835 1C000000 		.4byte	.LVL84
 5366 0839 0100     		.2byte	0x1
 5367 083b 51       		.byte	0x51
 5368 083c 1C000000 		.4byte	.LVL84
 5369 0840 21000000 		.4byte	.LVL86-1
 5370 0844 0100     		.2byte	0x1
 5371 0846 50       		.byte	0x50
 5372 0847 21000000 		.4byte	.LVL86-1
 5373 084b 40000000 		.4byte	.LVL95
 5374 084f 0100     		.2byte	0x1
 5375 0851 59       		.byte	0x59
 5376 0852 40000000 		.4byte	.LVL95
 5377 0856 48000000 		.4byte	.LFE207
 5378 085a 0400     		.2byte	0x4
 5379 085c F3       		.byte	0xf3
 5380 085d 01       		.uleb128 0x1
 5381 085e 51       		.byte	0x51
 5382 085f 9F       		.byte	0x9f
 5383 0860 00000000 		.4byte	0
 5384 0864 00000000 		.4byte	0
 5385              	.LLST53:
 5386 0868 00000000 		.4byte	.LVL81
 5387 086c 1E000000 		.4byte	.LVL85
 5388 0870 0100     		.2byte	0x1
 5389 0872 52       		.byte	0x52
 5390 0873 1E000000 		.4byte	.LVL85
 5391 0877 21000000 		.4byte	.LVL86-1
 5392 087b 0100     		.2byte	0x1
 5393 087d 51       		.byte	0x51
 5394 087e 21000000 		.4byte	.LVL86-1
 5395 0882 40000000 		.4byte	.LVL94
 5396 0886 0100     		.2byte	0x1
 5397 0888 58       		.byte	0x58
 5398 0889 40000000 		.4byte	.LVL94
 5399 088d 48000000 		.4byte	.LFE207
 5400 0891 0400     		.2byte	0x4
 5401 0893 F3       		.byte	0xf3
 5402 0894 01       		.uleb128 0x1
ARM GAS  /var/folders/9j/_txx49hn253_s3mnzkyxlj8m0000gp/T//ccgYRR5b.s 			page 117


 5403 0895 52       		.byte	0x52
 5404 0896 9F       		.byte	0x9f
 5405 0897 00000000 		.4byte	0
 5406 089b 00000000 		.4byte	0
 5407              	.LLST54:
 5408 089f 00000000 		.4byte	.LVL81
 5409 08a3 0E000000 		.4byte	.LVL82
 5410 08a7 0100     		.2byte	0x1
 5411 08a9 53       		.byte	0x53
 5412 08aa 0E000000 		.4byte	.LVL82
 5413 08ae 40000000 		.4byte	.LVL93
 5414 08b2 0100     		.2byte	0x1
 5415 08b4 57       		.byte	0x57
 5416 08b5 40000000 		.4byte	.LVL93
 5417 08b9 48000000 		.4byte	.LFE207
 5418 08bd 0400     		.2byte	0x4
 5419 08bf F3       		.byte	0xf3
 5420 08c0 01       		.uleb128 0x1
 5421 08c1 53       		.byte	0x53
 5422 08c2 9F       		.byte	0x9f
 5423 08c3 00000000 		.4byte	0
 5424 08c7 00000000 		.4byte	0
 5425              	.LLST55:
 5426 08cb 26000000 		.4byte	.LVL87
 5427 08cf 28000000 		.4byte	.LVL88
 5428 08d3 0100     		.2byte	0x1
 5429 08d5 50       		.byte	0x50
 5430 08d6 28000000 		.4byte	.LVL88
 5431 08da 38000000 		.4byte	.LVL90
 5432 08de 0100     		.2byte	0x1
 5433 08e0 54       		.byte	0x54
 5434 08e1 38000000 		.4byte	.LVL90
 5435 08e5 3C000000 		.4byte	.LVL91
 5436 08e9 0600     		.2byte	0x6
 5437 08eb 70       		.byte	0x70
 5438 08ec 00       		.sleb128 0
 5439 08ed 74       		.byte	0x74
 5440 08ee 00       		.sleb128 0
 5441 08ef 22       		.byte	0x22
 5442 08f0 9F       		.byte	0x9f
 5443 08f1 3C000000 		.4byte	.LVL91
 5444 08f5 48000000 		.4byte	.LFE207
 5445 08f9 0100     		.2byte	0x1
 5446 08fb 50       		.byte	0x50
 5447 08fc 00000000 		.4byte	0
 5448 0900 00000000 		.4byte	0
 5449              	.LLST58:
 5450 0904 38000000 		.4byte	.LVL90
 5451 0908 40000000 		.4byte	.LVL92
 5452 090c 0100     		.2byte	0x1
 5453 090e 55       		.byte	0x55
 5454 090f 40000000 		.4byte	.LVL92
 5455 0913 48000000 		.4byte	.LFE207
 5456 0917 0400     		.2byte	0x4
 5457 0919 F3       		.byte	0xf3
 5458 091a 01       		.uleb128 0x1
 5459 091b 50       		.byte	0x50
ARM GAS  /var/folders/9j/_txx49hn253_s3mnzkyxlj8m0000gp/T//ccgYRR5b.s 			page 118


 5460 091c 9F       		.byte	0x9f
 5461 091d 00000000 		.4byte	0
 5462 0921 00000000 		.4byte	0
 5463              	.LLST59:
 5464 0925 00000000 		.4byte	.LVL96
 5465 0929 04000000 		.4byte	.LVL97
 5466 092d 0100     		.2byte	0x1
 5467 092f 50       		.byte	0x50
 5468 0930 04000000 		.4byte	.LVL97
 5469 0934 0E000000 		.4byte	.LFE208
 5470 0938 0400     		.2byte	0x4
 5471 093a F3       		.byte	0xf3
 5472 093b 01       		.uleb128 0x1
 5473 093c 50       		.byte	0x50
 5474 093d 9F       		.byte	0x9f
 5475 093e 00000000 		.4byte	0
 5476 0942 00000000 		.4byte	0
 5477              	.LLST60:
 5478 0946 00000000 		.4byte	.LVL96
 5479 094a 06000000 		.4byte	.LVL98
 5480 094e 0100     		.2byte	0x1
 5481 0950 51       		.byte	0x51
 5482 0951 06000000 		.4byte	.LVL98
 5483 0955 0B000000 		.4byte	.LVL100-1
 5484 0959 0100     		.2byte	0x1
 5485 095b 50       		.byte	0x50
 5486 095c 0B000000 		.4byte	.LVL100-1
 5487 0960 0E000000 		.4byte	.LFE208
 5488 0964 0400     		.2byte	0x4
 5489 0966 F3       		.byte	0xf3
 5490 0967 01       		.uleb128 0x1
 5491 0968 51       		.byte	0x51
 5492 0969 9F       		.byte	0x9f
 5493 096a 00000000 		.4byte	0
 5494 096e 00000000 		.4byte	0
 5495              	.LLST61:
 5496 0972 00000000 		.4byte	.LVL96
 5497 0976 08000000 		.4byte	.LVL99
 5498 097a 0100     		.2byte	0x1
 5499 097c 52       		.byte	0x52
 5500 097d 08000000 		.4byte	.LVL99
 5501 0981 0B000000 		.4byte	.LVL100-1
 5502 0985 0100     		.2byte	0x1
 5503 0987 51       		.byte	0x51
 5504 0988 0B000000 		.4byte	.LVL100-1
 5505 098c 0E000000 		.4byte	.LFE208
 5506 0990 0400     		.2byte	0x4
 5507 0992 F3       		.byte	0xf3
 5508 0993 01       		.uleb128 0x1
 5509 0994 52       		.byte	0x52
 5510 0995 9F       		.byte	0x9f
 5511 0996 00000000 		.4byte	0
 5512 099a 00000000 		.4byte	0
 5513              	.LLST62:
 5514 099e 00000000 		.4byte	.LVL96
 5515 09a2 0B000000 		.4byte	.LVL100-1
 5516 09a6 0100     		.2byte	0x1
ARM GAS  /var/folders/9j/_txx49hn253_s3mnzkyxlj8m0000gp/T//ccgYRR5b.s 			page 119


 5517 09a8 53       		.byte	0x53
 5518 09a9 0B000000 		.4byte	.LVL100-1
 5519 09ad 0E000000 		.4byte	.LFE208
 5520 09b1 0400     		.2byte	0x4
 5521 09b3 F3       		.byte	0xf3
 5522 09b4 01       		.uleb128 0x1
 5523 09b5 53       		.byte	0x53
 5524 09b6 9F       		.byte	0x9f
 5525 09b7 00000000 		.4byte	0
 5526 09bb 00000000 		.4byte	0
 5527              	.LLST63:
 5528 09bf 00000000 		.4byte	.LVL101
 5529 09c3 12000000 		.4byte	.LVL102
 5530 09c7 0100     		.2byte	0x1
 5531 09c9 50       		.byte	0x50
 5532 09ca 12000000 		.4byte	.LVL102
 5533 09ce 32000000 		.4byte	.LVL107
 5534 09d2 0100     		.2byte	0x1
 5535 09d4 54       		.byte	0x54
 5536 09d5 32000000 		.4byte	.LVL107
 5537 09d9 34000000 		.4byte	.LVL109
 5538 09dd 0400     		.2byte	0x4
 5539 09df F3       		.byte	0xf3
 5540 09e0 01       		.uleb128 0x1
 5541 09e1 50       		.byte	0x50
 5542 09e2 9F       		.byte	0x9f
 5543 09e3 34000000 		.4byte	.LVL109
 5544 09e7 39000000 		.4byte	.LVL111-1
 5545 09eb 0100     		.2byte	0x1
 5546 09ed 50       		.byte	0x50
 5547 09ee 39000000 		.4byte	.LVL111-1
 5548 09f2 4A000000 		.4byte	.LFE209
 5549 09f6 0100     		.2byte	0x1
 5550 09f8 54       		.byte	0x54
 5551 09f9 00000000 		.4byte	0
 5552 09fd 00000000 		.4byte	0
 5553              	.LLST64:
 5554 0a01 00000000 		.4byte	.LVL101
 5555 0a05 12000000 		.4byte	.LVL102
 5556 0a09 0100     		.2byte	0x1
 5557 0a0b 51       		.byte	0x51
 5558 0a0c 12000000 		.4byte	.LVL102
 5559 0a10 32000000 		.4byte	.LVL108
 5560 0a14 0100     		.2byte	0x1
 5561 0a16 57       		.byte	0x57
 5562 0a17 32000000 		.4byte	.LVL108
 5563 0a1b 34000000 		.4byte	.LVL109
 5564 0a1f 0400     		.2byte	0x4
 5565 0a21 F3       		.byte	0xf3
 5566 0a22 01       		.uleb128 0x1
 5567 0a23 51       		.byte	0x51
 5568 0a24 9F       		.byte	0x9f
 5569 0a25 34000000 		.4byte	.LVL109
 5570 0a29 36000000 		.4byte	.LVL110
 5571 0a2d 0100     		.2byte	0x1
 5572 0a2f 51       		.byte	0x51
 5573 0a30 36000000 		.4byte	.LVL110
ARM GAS  /var/folders/9j/_txx49hn253_s3mnzkyxlj8m0000gp/T//ccgYRR5b.s 			page 120


 5574 0a34 4A000000 		.4byte	.LFE209
 5575 0a38 0100     		.2byte	0x1
 5576 0a3a 57       		.byte	0x57
 5577 0a3b 00000000 		.4byte	0
 5578 0a3f 00000000 		.4byte	0
 5579              	.LLST65:
 5580 0a43 00000000 		.4byte	.LVL101
 5581 0a47 12000000 		.4byte	.LVL102
 5582 0a4b 0100     		.2byte	0x1
 5583 0a4d 52       		.byte	0x52
 5584 0a4e 12000000 		.4byte	.LVL102
 5585 0a52 1A000000 		.4byte	.LVL103
 5586 0a56 0100     		.2byte	0x1
 5587 0a58 56       		.byte	0x56
 5588 0a59 1A000000 		.4byte	.LVL103
 5589 0a5d 34000000 		.4byte	.LVL109
 5590 0a61 0400     		.2byte	0x4
 5591 0a63 F3       		.byte	0xf3
 5592 0a64 01       		.uleb128 0x1
 5593 0a65 52       		.byte	0x52
 5594 0a66 9F       		.byte	0x9f
 5595 0a67 34000000 		.4byte	.LVL109
 5596 0a6b 39000000 		.4byte	.LVL111-1
 5597 0a6f 0100     		.2byte	0x1
 5598 0a71 52       		.byte	0x52
 5599 0a72 39000000 		.4byte	.LVL111-1
 5600 0a76 4A000000 		.4byte	.LFE209
 5601 0a7a 0100     		.2byte	0x1
 5602 0a7c 56       		.byte	0x56
 5603 0a7d 00000000 		.4byte	0
 5604 0a81 00000000 		.4byte	0
 5605              	.LLST66:
 5606 0a85 12000000 		.4byte	.LVL102
 5607 0a89 32000000 		.4byte	.LVL107
 5608 0a8d 0100     		.2byte	0x1
 5609 0a8f 54       		.byte	0x54
 5610 0a90 32000000 		.4byte	.LVL107
 5611 0a94 34000000 		.4byte	.LVL109
 5612 0a98 0400     		.2byte	0x4
 5613 0a9a F3       		.byte	0xf3
 5614 0a9b 01       		.uleb128 0x1
 5615 0a9c 50       		.byte	0x50
 5616 0a9d 9F       		.byte	0x9f
 5617 0a9e 00000000 		.4byte	0
 5618 0aa2 00000000 		.4byte	0
 5619              	.LLST67:
 5620 0aa6 1E000000 		.4byte	.LVL104
 5621 0aaa 30000000 		.4byte	.LVL106
 5622 0aae 0100     		.2byte	0x1
 5623 0ab0 54       		.byte	0x54
 5624 0ab1 00000000 		.4byte	0
 5625 0ab5 00000000 		.4byte	0
 5626              	.LLST68:
 5627 0ab9 00000000 		.4byte	.LVL113
 5628 0abd 0F000000 		.4byte	.LVL115-1
 5629 0ac1 0100     		.2byte	0x1
 5630 0ac3 50       		.byte	0x50
ARM GAS  /var/folders/9j/_txx49hn253_s3mnzkyxlj8m0000gp/T//ccgYRR5b.s 			page 121


 5631 0ac4 0F000000 		.4byte	.LVL115-1
 5632 0ac8 86000000 		.4byte	.LVL131
 5633 0acc 0100     		.2byte	0x1
 5634 0ace 54       		.byte	0x54
 5635 0acf 86000000 		.4byte	.LVL131
 5636 0ad3 8E000000 		.4byte	.LVL134
 5637 0ad7 0400     		.2byte	0x4
 5638 0ad9 F3       		.byte	0xf3
 5639 0ada 01       		.uleb128 0x1
 5640 0adb 50       		.byte	0x50
 5641 0adc 9F       		.byte	0x9f
 5642 0add 8E000000 		.4byte	.LVL134
 5643 0ae1 A0000000 		.4byte	.LFE210
 5644 0ae5 0100     		.2byte	0x1
 5645 0ae7 54       		.byte	0x54
 5646 0ae8 00000000 		.4byte	0
 5647 0aec 00000000 		.4byte	0
 5648              	.LLST69:
 5649 0af0 00000000 		.4byte	.LVL113
 5650 0af4 0F000000 		.4byte	.LVL115-1
 5651 0af8 0100     		.2byte	0x1
 5652 0afa 51       		.byte	0x51
 5653 0afb 0F000000 		.4byte	.LVL115-1
 5654 0aff A0000000 		.4byte	.LFE210
 5655 0b03 0400     		.2byte	0x4
 5656 0b05 F3       		.byte	0xf3
 5657 0b06 01       		.uleb128 0x1
 5658 0b07 51       		.byte	0x51
 5659 0b08 9F       		.byte	0x9f
 5660 0b09 00000000 		.4byte	0
 5661 0b0d 00000000 		.4byte	0
 5662              	.LLST70:
 5663 0b11 14000000 		.4byte	.LVL116
 5664 0b15 17000000 		.4byte	.LVL117-1
 5665 0b19 0100     		.2byte	0x1
 5666 0b1b 50       		.byte	0x50
 5667 0b1c 17000000 		.4byte	.LVL117-1
 5668 0b20 86000000 		.4byte	.LVL133
 5669 0b24 0100     		.2byte	0x1
 5670 0b26 57       		.byte	0x57
 5671 0b27 8E000000 		.4byte	.LVL134
 5672 0b2b A0000000 		.4byte	.LFE210
 5673 0b2f 0100     		.2byte	0x1
 5674 0b31 57       		.byte	0x57
 5675 0b32 00000000 		.4byte	0
 5676 0b36 00000000 		.4byte	0
 5677              	.LLST71:
 5678 0b3a 18000000 		.4byte	.LVL117
 5679 0b3e 21000000 		.4byte	.LVL118-1
 5680 0b42 0100     		.2byte	0x1
 5681 0b44 51       		.byte	0x51
 5682 0b45 24000000 		.4byte	.LVL119
 5683 0b49 5C000000 		.4byte	.LVL125
 5684 0b4d 0200     		.2byte	0x2
 5685 0b4f 31       		.byte	0x31
 5686 0b50 9F       		.byte	0x9f
 5687 0b51 8E000000 		.4byte	.LVL134
ARM GAS  /var/folders/9j/_txx49hn253_s3mnzkyxlj8m0000gp/T//ccgYRR5b.s 			page 122


 5688 0b55 90000000 		.4byte	.LVL135
 5689 0b59 0100     		.2byte	0x1
 5690 0b5b 51       		.byte	0x51
 5691 0b5c 00000000 		.4byte	0
 5692 0b60 00000000 		.4byte	0
 5693              	.LLST72:
 5694 0b64 00000000 		.4byte	.LVL113
 5695 0b68 24000000 		.4byte	.LVL119
 5696 0b6c 0200     		.2byte	0x2
 5697 0b6e 30       		.byte	0x30
 5698 0b6f 9F       		.byte	0x9f
 5699 0b70 24000000 		.4byte	.LVL119
 5700 0b74 26000000 		.4byte	.LVL120
 5701 0b78 0100     		.2byte	0x1
 5702 0b7a 50       		.byte	0x50
 5703 0b7b 26000000 		.4byte	.LVL120
 5704 0b7f 38000000 		.4byte	.LVL121
 5705 0b83 0100     		.2byte	0x1
 5706 0b85 53       		.byte	0x53
 5707 0b86 8E000000 		.4byte	.LVL134
 5708 0b8a A0000000 		.4byte	.LFE210
 5709 0b8e 0200     		.2byte	0x2
 5710 0b90 30       		.byte	0x30
 5711 0b91 9F       		.byte	0x9f
 5712 0b92 00000000 		.4byte	0
 5713 0b96 00000000 		.4byte	0
 5714              	.LLST73:
 5715 0b9a 5C000000 		.4byte	.LVL125
 5716 0b9e 86000000 		.4byte	.LVL132
 5717 0ba2 0100     		.2byte	0x1
 5718 0ba4 55       		.byte	0x55
 5719 0ba5 00000000 		.4byte	0
 5720 0ba9 00000000 		.4byte	0
 5721              	.LLST74:
 5722 0bad 0A000000 		.4byte	.LVL114
 5723 0bb1 52000000 		.4byte	.LVL124
 5724 0bb5 0100     		.2byte	0x1
 5725 0bb7 55       		.byte	0x55
 5726 0bb8 52000000 		.4byte	.LVL124
 5727 0bbc 8E000000 		.4byte	.LVL134
 5728 0bc0 0600     		.2byte	0x6
 5729 0bc2 F3       		.byte	0xf3
 5730 0bc3 01       		.uleb128 0x1
 5731 0bc4 51       		.byte	0x51
 5732 0bc5 34       		.byte	0x34
 5733 0bc6 24       		.byte	0x24
 5734 0bc7 9F       		.byte	0x9f
 5735 0bc8 8E000000 		.4byte	.LVL134
 5736 0bcc 9A000000 		.4byte	.LVL137
 5737 0bd0 0100     		.2byte	0x1
 5738 0bd2 55       		.byte	0x55
 5739 0bd3 9A000000 		.4byte	.LVL137
 5740 0bd7 A0000000 		.4byte	.LFE210
 5741 0bdb 0600     		.2byte	0x6
 5742 0bdd F3       		.byte	0xf3
 5743 0bde 01       		.uleb128 0x1
 5744 0bdf 51       		.byte	0x51
ARM GAS  /var/folders/9j/_txx49hn253_s3mnzkyxlj8m0000gp/T//ccgYRR5b.s 			page 123


 5745 0be0 34       		.byte	0x34
 5746 0be1 24       		.byte	0x24
 5747 0be2 9F       		.byte	0x9f
 5748 0be3 00000000 		.4byte	0
 5749 0be7 00000000 		.4byte	0
 5750              	.LLST75:
 5751 0beb 0A000000 		.4byte	.LVL114
 5752 0bef 80000000 		.4byte	.LVL128
 5753 0bf3 0200     		.2byte	0x2
 5754 0bf5 30       		.byte	0x30
 5755 0bf6 9F       		.byte	0x9f
 5756 0bf7 80000000 		.4byte	.LVL128
 5757 0bfb 82000000 		.4byte	.LVL129
 5758 0bff 1100     		.2byte	0x11
 5759 0c01 77       		.byte	0x77
 5760 0c02 00       		.sleb128 0
 5761 0c03 F7       		.byte	0xf7
 5762 0c04 29       		.uleb128 0x29
 5763 0c05 75       		.byte	0x75
 5764 0c06 00       		.sleb128 0
 5765 0c07 34       		.byte	0x34
 5766 0c08 24       		.byte	0x24
 5767 0c09 70       		.byte	0x70
 5768 0c0a 00       		.sleb128 0
 5769 0c0b 22       		.byte	0x22
 5770 0c0c F7       		.byte	0xf7
 5771 0c0d 29       		.uleb128 0x29
 5772 0c0e 1B       		.byte	0x1b
 5773 0c0f F7       		.byte	0xf7
 5774 0c10 00       		.uleb128 0
 5775 0c11 9F       		.byte	0x9f
 5776 0c12 8E000000 		.4byte	.LVL134
 5777 0c16 A0000000 		.4byte	.LFE210
 5778 0c1a 0200     		.2byte	0x2
 5779 0c1c 30       		.byte	0x30
 5780 0c1d 9F       		.byte	0x9f
 5781 0c1e 00000000 		.4byte	0
 5782 0c22 00000000 		.4byte	0
 5783              	.LLST76:
 5784 0c26 5C000000 		.4byte	.LVL125
 5785 0c2a 86000000 		.4byte	.LVL131
 5786 0c2e 0100     		.2byte	0x1
 5787 0c30 54       		.byte	0x54
 5788 0c31 86000000 		.4byte	.LVL131
 5789 0c35 8E000000 		.4byte	.LVL134
 5790 0c39 0400     		.2byte	0x4
 5791 0c3b F3       		.byte	0xf3
 5792 0c3c 01       		.uleb128 0x1
 5793 0c3d 50       		.byte	0x50
 5794 0c3e 9F       		.byte	0x9f
 5795 0c3f 00000000 		.4byte	0
 5796 0c43 00000000 		.4byte	0
 5797              	.LLST77:
 5798 0c47 66000000 		.4byte	.LVL126
 5799 0c4b 86000000 		.4byte	.LVL132
 5800 0c4f 0500     		.2byte	0x5
 5801 0c51 75       		.byte	0x75
ARM GAS  /var/folders/9j/_txx49hn253_s3mnzkyxlj8m0000gp/T//ccgYRR5b.s 			page 124


 5802 0c52 00       		.sleb128 0
 5803 0c53 38       		.byte	0x38
 5804 0c54 25       		.byte	0x25
 5805 0c55 9F       		.byte	0x9f
 5806 0c56 00000000 		.4byte	0
 5807 0c5a 00000000 		.4byte	0
 5808              	.LLST78:
 5809 0c5e 66000000 		.4byte	.LVL126
 5810 0c62 86000000 		.4byte	.LVL132
 5811 0c66 0100     		.2byte	0x1
 5812 0c68 55       		.byte	0x55
 5813 0c69 00000000 		.4byte	0
 5814 0c6d 00000000 		.4byte	0
 5815              	.LLST79:
 5816 0c71 66000000 		.4byte	.LVL126
 5817 0c75 86000000 		.4byte	.LVL131
 5818 0c79 0100     		.2byte	0x1
 5819 0c7b 54       		.byte	0x54
 5820 0c7c 86000000 		.4byte	.LVL131
 5821 0c80 8E000000 		.4byte	.LVL134
 5822 0c84 0400     		.2byte	0x4
 5823 0c86 F3       		.byte	0xf3
 5824 0c87 01       		.uleb128 0x1
 5825 0c88 50       		.byte	0x50
 5826 0c89 9F       		.byte	0x9f
 5827 0c8a 00000000 		.4byte	0
 5828 0c8e 00000000 		.4byte	0
 5829              	.LLST80:
 5830 0c92 72000000 		.4byte	.LVL127
 5831 0c96 86000000 		.4byte	.LVL131
 5832 0c9a 0100     		.2byte	0x1
 5833 0c9c 54       		.byte	0x54
 5834 0c9d 86000000 		.4byte	.LVL131
 5835 0ca1 8E000000 		.4byte	.LVL134
 5836 0ca5 0400     		.2byte	0x4
 5837 0ca7 F3       		.byte	0xf3
 5838 0ca8 01       		.uleb128 0x1
 5839 0ca9 50       		.byte	0x50
 5840 0caa 9F       		.byte	0x9f
 5841 0cab 00000000 		.4byte	0
 5842 0caf 00000000 		.4byte	0
 5843              		.section	.debug_aranges,"",%progbits
 5844 0000 7C000000 		.4byte	0x7c
 5845 0004 0200     		.2byte	0x2
 5846 0006 00000000 		.4byte	.Ldebug_info0
 5847 000a 04       		.byte	0x4
 5848 000b 00       		.byte	0
 5849 000c 0000     		.2byte	0
 5850 000e 0000     		.2byte	0
 5851 0010 00000000 		.4byte	.LFB198
 5852 0014 28000000 		.4byte	.LFE198-.LFB198
 5853 0018 00000000 		.4byte	.LFB199
 5854 001c 18000000 		.4byte	.LFE199-.LFB199
 5855 0020 00000000 		.4byte	.LFB200
 5856 0024 2E000000 		.4byte	.LFE200-.LFB200
 5857 0028 00000000 		.4byte	.LFB201
 5858 002c 2A000000 		.4byte	.LFE201-.LFB201
ARM GAS  /var/folders/9j/_txx49hn253_s3mnzkyxlj8m0000gp/T//ccgYRR5b.s 			page 125


 5859 0030 00000000 		.4byte	.LFB202
 5860 0034 2E000000 		.4byte	.LFE202-.LFB202
 5861 0038 00000000 		.4byte	.LFB203
 5862 003c 2A000000 		.4byte	.LFE203-.LFB203
 5863 0040 00000000 		.4byte	.LFB204
 5864 0044 38000000 		.4byte	.LFE204-.LFB204
 5865 0048 00000000 		.4byte	.LFB205
 5866 004c 2A000000 		.4byte	.LFE205-.LFB205
 5867 0050 00000000 		.4byte	.LFB206
 5868 0054 30000000 		.4byte	.LFE206-.LFB206
 5869 0058 00000000 		.4byte	.LFB207
 5870 005c 48000000 		.4byte	.LFE207-.LFB207
 5871 0060 00000000 		.4byte	.LFB208
 5872 0064 0E000000 		.4byte	.LFE208-.LFB208
 5873 0068 00000000 		.4byte	.LFB209
 5874 006c 4A000000 		.4byte	.LFE209-.LFB209
 5875 0070 00000000 		.4byte	.LFB210
 5876 0074 A0000000 		.4byte	.LFE210-.LFB210
 5877 0078 00000000 		.4byte	0
 5878 007c 00000000 		.4byte	0
 5879              		.section	.debug_ranges,"",%progbits
 5880              	.Ldebug_ranges0:
 5881 0000 00000000 		.4byte	.LBB68
 5882 0004 02000000 		.4byte	.LBE68
 5883 0008 04000000 		.4byte	.LBB72
 5884 000c 0C000000 		.4byte	.LBE72
 5885 0010 0C000000 		.4byte	.LBB73
 5886 0014 10000000 		.4byte	.LBE73
 5887 0018 00000000 		.4byte	0
 5888 001c 00000000 		.4byte	0
 5889 0020 00000000 		.4byte	.LBB80
 5890 0024 08000000 		.4byte	.LBE80
 5891 0028 08000000 		.4byte	.LBB83
 5892 002c 0C000000 		.4byte	.LBE83
 5893 0030 00000000 		.4byte	0
 5894 0034 00000000 		.4byte	0
 5895 0038 06000000 		.4byte	.LBB84
 5896 003c 08000000 		.4byte	.LBE84
 5897 0040 12000000 		.4byte	.LBB87
 5898 0044 14000000 		.4byte	.LBE87
 5899 0048 00000000 		.4byte	0
 5900 004c 00000000 		.4byte	0
 5901 0050 18000000 		.4byte	.LBB88
 5902 0054 1A000000 		.4byte	.LBE88
 5903 0058 1C000000 		.4byte	.LBB91
 5904 005c 1E000000 		.4byte	.LBE91
 5905 0060 00000000 		.4byte	0
 5906 0064 00000000 		.4byte	0
 5907 0068 04000000 		.4byte	.LBB92
 5908 006c 06000000 		.4byte	.LBE92
 5909 0070 0C000000 		.4byte	.LBB101
 5910 0074 1C000000 		.4byte	.LBE101
 5911 0078 00000000 		.4byte	0
 5912 007c 00000000 		.4byte	0
 5913 0080 12000000 		.4byte	.LBB96
 5914 0084 14000000 		.4byte	.LBE96
 5915 0088 16000000 		.4byte	.LBB99
ARM GAS  /var/folders/9j/_txx49hn253_s3mnzkyxlj8m0000gp/T//ccgYRR5b.s 			page 126


 5916 008c 18000000 		.4byte	.LBE99
 5917 0090 00000000 		.4byte	0
 5918 0094 00000000 		.4byte	0
 5919 0098 06000000 		.4byte	.LBB102
 5920 009c 08000000 		.4byte	.LBE102
 5921 00a0 12000000 		.4byte	.LBB105
 5922 00a4 14000000 		.4byte	.LBE105
 5923 00a8 00000000 		.4byte	0
 5924 00ac 00000000 		.4byte	0
 5925 00b0 04000000 		.4byte	.LBB108
 5926 00b4 06000000 		.4byte	.LBE108
 5927 00b8 0C000000 		.4byte	.LBB115
 5928 00bc 1C000000 		.4byte	.LBE115
 5929 00c0 00000000 		.4byte	0
 5930 00c4 00000000 		.4byte	0
 5931 00c8 12000000 		.4byte	.LBB116
 5932 00cc 14000000 		.4byte	.LBE116
 5933 00d0 16000000 		.4byte	.LBB120
 5934 00d4 18000000 		.4byte	.LBE120
 5935 00d8 1A000000 		.4byte	.LBB124
 5936 00dc 1E000000 		.4byte	.LBE124
 5937 00e0 00000000 		.4byte	0
 5938 00e4 00000000 		.4byte	0
 5939 00e8 18000000 		.4byte	.LBB121
 5940 00ec 1A000000 		.4byte	.LBE121
 5941 00f0 20000000 		.4byte	.LBB125
 5942 00f4 2A000000 		.4byte	.LBE125
 5943 00f8 00000000 		.4byte	0
 5944 00fc 00000000 		.4byte	0
 5945 0100 2A000000 		.4byte	.LBB126
 5946 0104 2C000000 		.4byte	.LBE126
 5947 0108 2E000000 		.4byte	.LBB129
 5948 010c 32000000 		.4byte	.LBE129
 5949 0110 00000000 		.4byte	0
 5950 0114 00000000 		.4byte	0
 5951 0118 06000000 		.4byte	.LBB130
 5952 011c 08000000 		.4byte	.LBE130
 5953 0120 20000000 		.4byte	.LBB138
 5954 0124 22000000 		.4byte	.LBE138
 5955 0128 00000000 		.4byte	0
 5956 012c 00000000 		.4byte	0
 5957 0130 14000000 		.4byte	.LBB134
 5958 0134 16000000 		.4byte	.LBE134
 5959 0138 1A000000 		.4byte	.LBB137
 5960 013c 1C000000 		.4byte	.LBE137
 5961 0140 00000000 		.4byte	0
 5962 0144 00000000 		.4byte	0
 5963 0148 06000000 		.4byte	.LBB139
 5964 014c 08000000 		.4byte	.LBE139
 5965 0150 1A000000 		.4byte	.LBB144
 5966 0154 1C000000 		.4byte	.LBE144
 5967 0158 00000000 		.4byte	0
 5968 015c 00000000 		.4byte	0
 5969 0160 08000000 		.4byte	.LBB145
 5970 0164 0A000000 		.4byte	.LBE145
 5971 0168 0C000000 		.4byte	.LBB150
 5972 016c 0E000000 		.4byte	.LBE150
ARM GAS  /var/folders/9j/_txx49hn253_s3mnzkyxlj8m0000gp/T//ccgYRR5b.s 			page 127


 5973 0170 10000000 		.4byte	.LBB151
 5974 0174 12000000 		.4byte	.LBE151
 5975 0178 16000000 		.4byte	.LBB152
 5976 017c 18000000 		.4byte	.LBE152
 5977 0180 00000000 		.4byte	0
 5978 0184 00000000 		.4byte	0
 5979 0188 38000000 		.4byte	.LBB153
 5980 018c 3A000000 		.4byte	.LBE153
 5981 0190 3C000000 		.4byte	.LBB156
 5982 0194 40000000 		.4byte	.LBE156
 5983 0198 00000000 		.4byte	0
 5984 019c 00000000 		.4byte	0
 5985 01a0 14000000 		.4byte	.LBB159
 5986 01a4 18000000 		.4byte	.LBE159
 5987 01a8 2A000000 		.4byte	.LBB167
 5988 01ac 2C000000 		.4byte	.LBE167
 5989 01b0 00000000 		.4byte	0
 5990 01b4 00000000 		.4byte	0
 5991 01b8 1E000000 		.4byte	.LBB163
 5992 01bc 20000000 		.4byte	.LBE163
 5993 01c0 24000000 		.4byte	.LBB166
 5994 01c4 26000000 		.4byte	.LBE166
 5995 01c8 00000000 		.4byte	0
 5996 01cc 00000000 		.4byte	0
 5997 01d0 5C000000 		.4byte	.LBB170
 5998 01d4 5E000000 		.4byte	.LBE170
 5999 01d8 60000000 		.4byte	.LBB178
 6000 01dc 62000000 		.4byte	.LBE178
 6001 01e0 62000000 		.4byte	.LBB179
 6002 01e4 66000000 		.4byte	.LBE179
 6003 01e8 00000000 		.4byte	0
 6004 01ec 00000000 		.4byte	0
 6005 01f0 5E000000 		.4byte	.LBB174
 6006 01f4 60000000 		.4byte	.LBE174
 6007 01f8 66000000 		.4byte	.LBB180
 6008 01fc 6C000000 		.4byte	.LBE180
 6009 0200 6E000000 		.4byte	.LBB181
 6010 0204 72000000 		.4byte	.LBE181
 6011 0208 00000000 		.4byte	0
 6012 020c 00000000 		.4byte	0
 6013 0210 72000000 		.4byte	.LBB182
 6014 0214 74000000 		.4byte	.LBE182
 6015 0218 76000000 		.4byte	.LBB185
 6016 021c 7A000000 		.4byte	.LBE185
 6017 0220 00000000 		.4byte	0
 6018 0224 00000000 		.4byte	0
 6019 0228 00000000 		.4byte	.LFB198
 6020 022c 28000000 		.4byte	.LFE198
 6021 0230 00000000 		.4byte	.LFB199
 6022 0234 18000000 		.4byte	.LFE199
 6023 0238 00000000 		.4byte	.LFB200
 6024 023c 2E000000 		.4byte	.LFE200
 6025 0240 00000000 		.4byte	.LFB201
 6026 0244 2A000000 		.4byte	.LFE201
 6027 0248 00000000 		.4byte	.LFB202
 6028 024c 2E000000 		.4byte	.LFE202
 6029 0250 00000000 		.4byte	.LFB203
ARM GAS  /var/folders/9j/_txx49hn253_s3mnzkyxlj8m0000gp/T//ccgYRR5b.s 			page 128


 6030 0254 2A000000 		.4byte	.LFE203
 6031 0258 00000000 		.4byte	.LFB204
 6032 025c 38000000 		.4byte	.LFE204
 6033 0260 00000000 		.4byte	.LFB205
 6034 0264 2A000000 		.4byte	.LFE205
 6035 0268 00000000 		.4byte	.LFB206
 6036 026c 30000000 		.4byte	.LFE206
 6037 0270 00000000 		.4byte	.LFB207
 6038 0274 48000000 		.4byte	.LFE207
 6039 0278 00000000 		.4byte	.LFB208
 6040 027c 0E000000 		.4byte	.LFE208
 6041 0280 00000000 		.4byte	.LFB209
 6042 0284 4A000000 		.4byte	.LFE209
 6043 0288 00000000 		.4byte	.LFB210
 6044 028c A0000000 		.4byte	.LFE210
 6045 0290 00000000 		.4byte	0
 6046 0294 00000000 		.4byte	0
 6047              		.section	.debug_macro,"",%progbits
 6048              	.Ldebug_macro0:
 6049 0000 0400     		.2byte	0x4
 6050 0002 02       		.byte	0x2
 6051 0003 00000000 		.4byte	.Ldebug_line0
 6052 0007 07       		.byte	0x7
 6053 0008 00000000 		.4byte	.Ldebug_macro1
 6054 000c 03       		.byte	0x3
 6055 000d 00       		.uleb128 0
 6056 000e 01       		.uleb128 0x1
 6057 000f 03       		.byte	0x3
 6058 0010 20       		.uleb128 0x20
 6059 0011 08       		.uleb128 0x8
 6060 0012 05       		.byte	0x5
 6061 0013 1E       		.uleb128 0x1e
 6062 0014 AB770000 		.4byte	.LASF348
 6063              		.file 9 "../lpc11cx4-library/lpc_chip_11cxx_lib/inc/lpc_types.h"
 6064 0018 03       		.byte	0x3
 6065 0019 20       		.uleb128 0x20
 6066 001a 09       		.uleb128 0x9
 6067 001b 05       		.byte	0x5
 6068 001c 21       		.uleb128 0x21
 6069 001d FF210000 		.4byte	.LASF349
 6070              		.file 10 "/usr/local/Cellar/gcc-arm-none-eabi/20150925/lib/gcc/arm-none-eabi/4.9.3/include/stdint.
 6071 0021 03       		.byte	0x3
 6072 0022 23       		.uleb128 0x23
 6073 0023 0A       		.uleb128 0xa
 6074              		.file 11 "/usr/local/Cellar/gcc-arm-none-eabi/20150925/arm-none-eabi/include/stdint.h"
 6075 0024 03       		.byte	0x3
 6076 0025 09       		.uleb128 0x9
 6077 0026 0B       		.uleb128 0xb
 6078 0027 05       		.byte	0x5
 6079 0028 0A       		.uleb128 0xa
 6080 0029 D11C0000 		.4byte	.LASF350
 6081 002d 03       		.byte	0x3
 6082 002e 0C       		.uleb128 0xc
 6083 002f 04       		.uleb128 0x4
 6084 0030 05       		.byte	0x5
 6085 0031 06       		.uleb128 0x6
 6086 0032 604F0000 		.4byte	.LASF351
ARM GAS  /var/folders/9j/_txx49hn253_s3mnzkyxlj8m0000gp/T//ccgYRR5b.s 			page 129


 6087              		.file 12 "/usr/local/Cellar/gcc-arm-none-eabi/20150925/arm-none-eabi/include/sys/features.h"
 6088 0036 03       		.byte	0x3
 6089 0037 08       		.uleb128 0x8
 6090 0038 0C       		.uleb128 0xc
 6091 0039 07       		.byte	0x7
 6092 003a 00000000 		.4byte	.Ldebug_macro2
 6093 003e 04       		.byte	0x4
 6094 003f 07       		.byte	0x7
 6095 0040 00000000 		.4byte	.Ldebug_macro3
 6096 0044 04       		.byte	0x4
 6097              		.file 13 "/usr/local/Cellar/gcc-arm-none-eabi/20150925/arm-none-eabi/include/sys/_intsup.h"
 6098 0045 03       		.byte	0x3
 6099 0046 0D       		.uleb128 0xd
 6100 0047 0D       		.uleb128 0xd
 6101 0048 07       		.byte	0x7
 6102 0049 00000000 		.4byte	.Ldebug_macro4
 6103 004d 04       		.byte	0x4
 6104 004e 03       		.byte	0x3
 6105 004f 0E       		.uleb128 0xe
 6106 0050 05       		.uleb128 0x5
 6107 0051 07       		.byte	0x7
 6108 0052 00000000 		.4byte	.Ldebug_macro5
 6109 0056 04       		.byte	0x4
 6110 0057 07       		.byte	0x7
 6111 0058 00000000 		.4byte	.Ldebug_macro6
 6112 005c 04       		.byte	0x4
 6113 005d 05       		.byte	0x5
 6114 005e 0D       		.uleb128 0xd
 6115 005f A5630000 		.4byte	.LASF469
 6116 0063 04       		.byte	0x4
 6117              		.file 14 "/usr/local/Cellar/gcc-arm-none-eabi/20150925/lib/gcc/arm-none-eabi/4.9.3/include/stdbool
 6118 0064 03       		.byte	0x3
 6119 0065 24       		.uleb128 0x24
 6120 0066 0E       		.uleb128 0xe
 6121 0067 07       		.byte	0x7
 6122 0068 00000000 		.4byte	.Ldebug_macro7
 6123 006c 04       		.byte	0x4
 6124 006d 07       		.byte	0x7
 6125 006e 00000000 		.4byte	.Ldebug_macro8
 6126 0072 04       		.byte	0x4
 6127              		.file 15 "../lpc11cx4-library/lpc_chip_11cxx_lib/inc/sys_config.h"
 6128 0073 03       		.byte	0x3
 6129 0074 21       		.uleb128 0x21
 6130 0075 0F       		.uleb128 0xf
 6131 0076 07       		.byte	0x7
 6132 0077 00000000 		.4byte	.Ldebug_macro9
 6133 007b 04       		.byte	0x4
 6134              		.file 16 "../lpc11cx4-library/lpc_chip_11cxx_lib/inc/cmsis.h"
 6135 007c 03       		.byte	0x3
 6136 007d 22       		.uleb128 0x22
 6137 007e 10       		.uleb128 0x10
 6138 007f 05       		.byte	0x5
 6139 0080 1E       		.uleb128 0x1e
 6140 0081 974E0000 		.4byte	.LASF493
 6141              		.file 17 "../lpc11cx4-library/lpc_chip_11cxx_lib/inc/cmsis_11cxx.h"
 6142 0085 03       		.byte	0x3
 6143 0086 2E       		.uleb128 0x2e
ARM GAS  /var/folders/9j/_txx49hn253_s3mnzkyxlj8m0000gp/T//ccgYRR5b.s 			page 130


 6144 0087 11       		.uleb128 0x11
 6145 0088 07       		.byte	0x7
 6146 0089 00000000 		.4byte	.Ldebug_macro10
 6147 008d 04       		.byte	0x4
 6148              		.file 18 "../lpc11cx4-library/lpc_chip_11cxx_lib/inc/core_cm0.h"
 6149 008e 03       		.byte	0x3
 6150 008f 3E       		.uleb128 0x3e
 6151 0090 12       		.uleb128 0x12
 6152 0091 07       		.byte	0x7
 6153 0092 00000000 		.4byte	.Ldebug_macro11
 6154              		.file 19 "../lpc11cx4-library/lpc_chip_11cxx_lib/inc/core_cmInstr.h"
 6155 0096 03       		.byte	0x3
 6156 0097 70       		.uleb128 0x70
 6157 0098 13       		.uleb128 0x13
 6158 0099 05       		.byte	0x5
 6159 009a 19       		.uleb128 0x19
 6160 009b 3F1D0000 		.4byte	.LASF507
 6161 009f 04       		.byte	0x4
 6162              		.file 20 "../lpc11cx4-library/lpc_chip_11cxx_lib/inc/core_cmFunc.h"
 6163 00a0 03       		.byte	0x3
 6164 00a1 71       		.uleb128 0x71
 6165 00a2 14       		.uleb128 0x14
 6166 00a3 05       		.byte	0x5
 6167 00a4 19       		.uleb128 0x19
 6168 00a5 9B0B0000 		.4byte	.LASF508
 6169 00a9 04       		.byte	0x4
 6170 00aa 07       		.byte	0x7
 6171 00ab 00000000 		.4byte	.Ldebug_macro12
 6172 00af 04       		.byte	0x4
 6173 00b0 04       		.byte	0x4
 6174 00b1 07       		.byte	0x7
 6175 00b2 00000000 		.4byte	.Ldebug_macro13
 6176              		.file 21 "../lpc11cx4-library/lpc_chip_11cxx_lib/inc/pmu_11xx.h"
 6177 00b6 03       		.byte	0x3
 6178 00b7 E901     		.uleb128 0xe9
 6179 00b9 15       		.uleb128 0x15
 6180 00ba 07       		.byte	0x7
 6181 00bb 00000000 		.4byte	.Ldebug_macro14
 6182 00bf 04       		.byte	0x4
 6183              		.file 22 "../lpc11cx4-library/lpc_chip_11cxx_lib/inc/fmc_11xx.h"
 6184 00c0 03       		.byte	0x3
 6185 00c1 EA01     		.uleb128 0xea
 6186 00c3 16       		.uleb128 0x16
 6187 00c4 05       		.byte	0x5
 6188 00c5 21       		.uleb128 0x21
 6189 00c6 AD650000 		.4byte	.LASF638
 6190 00ca 04       		.byte	0x4
 6191 00cb 03       		.byte	0x3
 6192 00cc EB01     		.uleb128 0xeb
 6193 00ce 06       		.uleb128 0x6
 6194 00cf 07       		.byte	0x7
 6195 00d0 00000000 		.4byte	.Ldebug_macro15
 6196 00d4 04       		.byte	0x4
 6197 00d5 03       		.byte	0x3
 6198 00d6 EC01     		.uleb128 0xec
 6199 00d8 02       		.uleb128 0x2
 6200 00d9 07       		.byte	0x7
ARM GAS  /var/folders/9j/_txx49hn253_s3mnzkyxlj8m0000gp/T//ccgYRR5b.s 			page 131


 6201 00da 00000000 		.4byte	.Ldebug_macro16
 6202 00de 04       		.byte	0x4
 6203              		.file 23 "../lpc11cx4-library/lpc_chip_11cxx_lib/inc/iocon_11xx.h"
 6204 00df 03       		.byte	0x3
 6205 00e0 ED01     		.uleb128 0xed
 6206 00e2 17       		.uleb128 0x17
 6207 00e3 07       		.byte	0x7
 6208 00e4 00000000 		.4byte	.Ldebug_macro17
 6209 00e8 04       		.byte	0x4
 6210              		.file 24 "../lpc11cx4-library/lpc_chip_11cxx_lib/inc/timer_11xx.h"
 6211 00e9 03       		.byte	0x3
 6212 00ea EE01     		.uleb128 0xee
 6213 00ec 18       		.uleb128 0x18
 6214 00ed 07       		.byte	0x7
 6215 00ee 00000000 		.4byte	.Ldebug_macro18
 6216 00f2 04       		.byte	0x4
 6217 00f3 03       		.byte	0x3
 6218 00f4 EF01     		.uleb128 0xef
 6219 00f6 03       		.uleb128 0x3
 6220 00f7 05       		.byte	0x5
 6221 00f8 21       		.uleb128 0x21
 6222 00f9 0B250000 		.4byte	.LASF722
 6223 00fd 03       		.byte	0x3
 6224 00fe 23       		.uleb128 0x23
 6225 00ff 07       		.uleb128 0x7
 6226 0100 07       		.byte	0x7
 6227 0101 00000000 		.4byte	.Ldebug_macro19
 6228 0105 04       		.byte	0x4
 6229 0106 07       		.byte	0x7
 6230 0107 00000000 		.4byte	.Ldebug_macro20
 6231 010b 04       		.byte	0x4
 6232              		.file 25 "../lpc11cx4-library/lpc_chip_11cxx_lib/inc/wwdt_11xx.h"
 6233 010c 03       		.byte	0x3
 6234 010d F001     		.uleb128 0xf0
 6235 010f 19       		.uleb128 0x19
 6236 0110 07       		.byte	0x7
 6237 0111 00000000 		.4byte	.Ldebug_macro21
 6238 0115 04       		.byte	0x4
 6239              		.file 26 "../lpc11cx4-library/lpc_chip_11cxx_lib/inc/ssp_11xx.h"
 6240 0116 03       		.byte	0x3
 6241 0117 F101     		.uleb128 0xf1
 6242 0119 1A       		.uleb128 0x1a
 6243 011a 07       		.byte	0x7
 6244 011b 00000000 		.4byte	.Ldebug_macro22
 6245 011f 04       		.byte	0x4
 6246              		.file 27 "../lpc11cx4-library/lpc_chip_11cxx_lib/inc/romapi_11xx.h"
 6247 0120 03       		.byte	0x3
 6248 0121 F201     		.uleb128 0xf2
 6249 0123 1B       		.uleb128 0x1b
 6250 0124 05       		.byte	0x5
 6251 0125 21       		.uleb128 0x21
 6252 0126 B82D0000 		.4byte	.LASF875
 6253              		.file 28 "../lpc11cx4-library/lpc_chip_11cxx_lib/inc/error.h"
 6254 012a 03       		.byte	0x3
 6255 012b 23       		.uleb128 0x23
 6256 012c 1C       		.uleb128 0x1c
 6257 012d 07       		.byte	0x7
ARM GAS  /var/folders/9j/_txx49hn253_s3mnzkyxlj8m0000gp/T//ccgYRR5b.s 			page 132


 6258 012e 00000000 		.4byte	.Ldebug_macro23
 6259 0132 04       		.byte	0x4
 6260 0133 04       		.byte	0x4
 6261              		.file 29 "../lpc11cx4-library/lpc_chip_11cxx_lib/inc/adc_11xx.h"
 6262 0134 03       		.byte	0x3
 6263 0135 F601     		.uleb128 0xf6
 6264 0137 1D       		.uleb128 0x1d
 6265 0138 07       		.byte	0x7
 6266 0139 00000000 		.4byte	.Ldebug_macro24
 6267 013d 04       		.byte	0x4
 6268              		.file 30 "../lpc11cx4-library/lpc_chip_11cxx_lib/inc/gpio_11xx_2.h"
 6269 013e 03       		.byte	0x3
 6270 013f FF01     		.uleb128 0xff
 6271 0141 1E       		.uleb128 0x1e
 6272 0142 05       		.byte	0x5
 6273 0143 22       		.uleb128 0x22
 6274 0144 37380000 		.4byte	.LASF898
 6275 0148 04       		.byte	0x4
 6276              		.file 31 "../lpc11cx4-library/lpc_chip_11cxx_lib/inc/i2c_11xx.h"
 6277 0149 03       		.byte	0x3
 6278 014a 8C02     		.uleb128 0x10c
 6279 014c 1F       		.uleb128 0x1f
 6280 014d 07       		.byte	0x7
 6281 014e 00000000 		.4byte	.Ldebug_macro25
 6282 0152 04       		.byte	0x4
 6283              		.file 32 "../lpc11cx4-library/lpc_chip_11cxx_lib/inc/ccand_11xx.h"
 6284 0153 03       		.byte	0x3
 6285 0154 8F02     		.uleb128 0x10f
 6286 0156 20       		.uleb128 0x20
 6287 0157 07       		.byte	0x7
 6288 0158 00000000 		.4byte	.Ldebug_macro26
 6289 015c 04       		.byte	0x4
 6290 015d 04       		.byte	0x4
 6291 015e 04       		.byte	0x4
 6292 015f 00       		.byte	0
 6293              		.section	.debug_macro,"G",%progbits,wm4.0.5c92e6baa7608753a1db66ee6c2bbf90,comdat
 6294              	.Ldebug_macro1:
 6295 0000 0400     		.2byte	0x4
 6296 0002 00       		.byte	0
 6297 0003 05       		.byte	0x5
 6298 0004 00       		.uleb128 0
 6299 0005 3C4A0000 		.4byte	.LASF0
 6300 0009 05       		.byte	0x5
 6301 000a 00       		.uleb128 0
 6302 000b C1090000 		.4byte	.LASF1
 6303 000f 05       		.byte	0x5
 6304 0010 00       		.uleb128 0
 6305 0011 EC360000 		.4byte	.LASF2
 6306 0015 05       		.byte	0x5
 6307 0016 00       		.uleb128 0
 6308 0017 835E0000 		.4byte	.LASF3
 6309 001b 05       		.byte	0x5
 6310 001c 00       		.uleb128 0
 6311 001d 541C0000 		.4byte	.LASF4
 6312 0021 05       		.byte	0x5
 6313 0022 00       		.uleb128 0
 6314 0023 82730000 		.4byte	.LASF5
ARM GAS  /var/folders/9j/_txx49hn253_s3mnzkyxlj8m0000gp/T//ccgYRR5b.s 			page 133


 6315 0027 05       		.byte	0x5
 6316 0028 00       		.uleb128 0
 6317 0029 82650000 		.4byte	.LASF6
 6318 002d 05       		.byte	0x5
 6319 002e 00       		.uleb128 0
 6320 002f 031F0000 		.4byte	.LASF7
 6321 0033 05       		.byte	0x5
 6322 0034 00       		.uleb128 0
 6323 0035 E7330000 		.4byte	.LASF8
 6324 0039 05       		.byte	0x5
 6325 003a 00       		.uleb128 0
 6326 003b 9E3A0000 		.4byte	.LASF9
 6327 003f 05       		.byte	0x5
 6328 0040 00       		.uleb128 0
 6329 0041 80770000 		.4byte	.LASF10
 6330 0045 05       		.byte	0x5
 6331 0046 00       		.uleb128 0
 6332 0047 E0030000 		.4byte	.LASF11
 6333 004b 05       		.byte	0x5
 6334 004c 00       		.uleb128 0
 6335 004d 743B0000 		.4byte	.LASF12
 6336 0051 05       		.byte	0x5
 6337 0052 00       		.uleb128 0
 6338 0053 BE580000 		.4byte	.LASF13
 6339 0057 05       		.byte	0x5
 6340 0058 00       		.uleb128 0
 6341 0059 8C6E0000 		.4byte	.LASF14
 6342 005d 05       		.byte	0x5
 6343 005e 00       		.uleb128 0
 6344 005f 7A1D0000 		.4byte	.LASF15
 6345 0063 05       		.byte	0x5
 6346 0064 00       		.uleb128 0
 6347 0065 E3040000 		.4byte	.LASF16
 6348 0069 05       		.byte	0x5
 6349 006a 00       		.uleb128 0
 6350 006b 85210000 		.4byte	.LASF17
 6351 006f 05       		.byte	0x5
 6352 0070 00       		.uleb128 0
 6353 0071 2D670000 		.4byte	.LASF18
 6354 0075 05       		.byte	0x5
 6355 0076 00       		.uleb128 0
 6356 0077 E5170000 		.4byte	.LASF19
 6357 007b 05       		.byte	0x5
 6358 007c 00       		.uleb128 0
 6359 007d 58750000 		.4byte	.LASF20
 6360 0081 05       		.byte	0x5
 6361 0082 00       		.uleb128 0
 6362 0083 A0620000 		.4byte	.LASF21
 6363 0087 05       		.byte	0x5
 6364 0088 00       		.uleb128 0
 6365 0089 2A420000 		.4byte	.LASF22
 6366 008d 05       		.byte	0x5
 6367 008e 00       		.uleb128 0
 6368 008f 7B4F0000 		.4byte	.LASF23
 6369 0093 05       		.byte	0x5
 6370 0094 00       		.uleb128 0
 6371 0095 3B550000 		.4byte	.LASF24
ARM GAS  /var/folders/9j/_txx49hn253_s3mnzkyxlj8m0000gp/T//ccgYRR5b.s 			page 134


 6372 0099 05       		.byte	0x5
 6373 009a 00       		.uleb128 0
 6374 009b FA510000 		.4byte	.LASF25
 6375 009f 05       		.byte	0x5
 6376 00a0 00       		.uleb128 0
 6377 00a1 33060000 		.4byte	.LASF26
 6378 00a5 05       		.byte	0x5
 6379 00a6 00       		.uleb128 0
 6380 00a7 2F410000 		.4byte	.LASF27
 6381 00ab 05       		.byte	0x5
 6382 00ac 00       		.uleb128 0
 6383 00ad 874A0000 		.4byte	.LASF28
 6384 00b1 05       		.byte	0x5
 6385 00b2 00       		.uleb128 0
 6386 00b3 D3140000 		.4byte	.LASF29
 6387 00b7 05       		.byte	0x5
 6388 00b8 00       		.uleb128 0
 6389 00b9 96750000 		.4byte	.LASF30
 6390 00bd 05       		.byte	0x5
 6391 00be 00       		.uleb128 0
 6392 00bf FB550000 		.4byte	.LASF31
 6393 00c3 05       		.byte	0x5
 6394 00c4 00       		.uleb128 0
 6395 00c5 D8220000 		.4byte	.LASF32
 6396 00c9 05       		.byte	0x5
 6397 00ca 00       		.uleb128 0
 6398 00cb 7A450000 		.4byte	.LASF33
 6399 00cf 05       		.byte	0x5
 6400 00d0 00       		.uleb128 0
 6401 00d1 945E0000 		.4byte	.LASF34
 6402 00d5 05       		.byte	0x5
 6403 00d6 00       		.uleb128 0
 6404 00d7 27480000 		.4byte	.LASF35
 6405 00db 05       		.byte	0x5
 6406 00dc 00       		.uleb128 0
 6407 00dd 77610000 		.4byte	.LASF36
 6408 00e1 05       		.byte	0x5
 6409 00e2 00       		.uleb128 0
 6410 00e3 CF160000 		.4byte	.LASF37
 6411 00e7 05       		.byte	0x5
 6412 00e8 00       		.uleb128 0
 6413 00e9 83390000 		.4byte	.LASF38
 6414 00ed 05       		.byte	0x5
 6415 00ee 00       		.uleb128 0
 6416 00ef CD060000 		.4byte	.LASF39
 6417 00f3 05       		.byte	0x5
 6418 00f4 00       		.uleb128 0
 6419 00f5 23080000 		.4byte	.LASF40
 6420 00f9 05       		.byte	0x5
 6421 00fa 00       		.uleb128 0
 6422 00fb 93770000 		.4byte	.LASF41
 6423 00ff 05       		.byte	0x5
 6424 0100 00       		.uleb128 0
 6425 0101 FA410000 		.4byte	.LASF42
 6426 0105 05       		.byte	0x5
 6427 0106 00       		.uleb128 0
 6428 0107 E14A0000 		.4byte	.LASF43
ARM GAS  /var/folders/9j/_txx49hn253_s3mnzkyxlj8m0000gp/T//ccgYRR5b.s 			page 135


 6429 010b 05       		.byte	0x5
 6430 010c 00       		.uleb128 0
 6431 010d 40370000 		.4byte	.LASF44
 6432 0111 05       		.byte	0x5
 6433 0112 00       		.uleb128 0
 6434 0113 486D0000 		.4byte	.LASF45
 6435 0117 05       		.byte	0x5
 6436 0118 00       		.uleb128 0
 6437 0119 EE620000 		.4byte	.LASF46
 6438 011d 05       		.byte	0x5
 6439 011e 00       		.uleb128 0
 6440 011f E8140000 		.4byte	.LASF47
 6441 0123 05       		.byte	0x5
 6442 0124 00       		.uleb128 0
 6443 0125 9D710000 		.4byte	.LASF48
 6444 0129 05       		.byte	0x5
 6445 012a 00       		.uleb128 0
 6446 012b 63540000 		.4byte	.LASF49
 6447 012f 05       		.byte	0x5
 6448 0130 00       		.uleb128 0
 6449 0131 52790000 		.4byte	.LASF50
 6450 0135 05       		.byte	0x5
 6451 0136 00       		.uleb128 0
 6452 0137 2A120000 		.4byte	.LASF51
 6453 013b 05       		.byte	0x5
 6454 013c 00       		.uleb128 0
 6455 013d 51570000 		.4byte	.LASF52
 6456 0141 05       		.byte	0x5
 6457 0142 00       		.uleb128 0
 6458 0143 4C5E0000 		.4byte	.LASF53
 6459 0147 05       		.byte	0x5
 6460 0148 00       		.uleb128 0
 6461 0149 C2390000 		.4byte	.LASF54
 6462 014d 05       		.byte	0x5
 6463 014e 00       		.uleb128 0
 6464 014f 62140000 		.4byte	.LASF55
 6465 0153 05       		.byte	0x5
 6466 0154 00       		.uleb128 0
 6467 0155 BA560000 		.4byte	.LASF56
 6468 0159 05       		.byte	0x5
 6469 015a 00       		.uleb128 0
 6470 015b EE3A0000 		.4byte	.LASF57
 6471 015f 05       		.byte	0x5
 6472 0160 00       		.uleb128 0
 6473 0161 210A0000 		.4byte	.LASF58
 6474 0165 05       		.byte	0x5
 6475 0166 00       		.uleb128 0
 6476 0167 82380000 		.4byte	.LASF59
 6477 016b 05       		.byte	0x5
 6478 016c 00       		.uleb128 0
 6479 016d FE6F0000 		.4byte	.LASF60
 6480 0171 05       		.byte	0x5
 6481 0172 00       		.uleb128 0
 6482 0173 98560000 		.4byte	.LASF61
 6483 0177 05       		.byte	0x5
 6484 0178 00       		.uleb128 0
 6485 0179 D3230000 		.4byte	.LASF62
ARM GAS  /var/folders/9j/_txx49hn253_s3mnzkyxlj8m0000gp/T//ccgYRR5b.s 			page 136


 6486 017d 05       		.byte	0x5
 6487 017e 00       		.uleb128 0
 6488 017f 63610000 		.4byte	.LASF63
 6489 0183 05       		.byte	0x5
 6490 0184 00       		.uleb128 0
 6491 0185 9A610000 		.4byte	.LASF64
 6492 0189 05       		.byte	0x5
 6493 018a 00       		.uleb128 0
 6494 018b 99340000 		.4byte	.LASF65
 6495 018f 05       		.byte	0x5
 6496 0190 00       		.uleb128 0
 6497 0191 46290000 		.4byte	.LASF66
 6498 0195 05       		.byte	0x5
 6499 0196 00       		.uleb128 0
 6500 0197 BC230000 		.4byte	.LASF67
 6501 019b 05       		.byte	0x5
 6502 019c 00       		.uleb128 0
 6503 019d 840E0000 		.4byte	.LASF68
 6504 01a1 05       		.byte	0x5
 6505 01a2 00       		.uleb128 0
 6506 01a3 58670000 		.4byte	.LASF69
 6507 01a7 05       		.byte	0x5
 6508 01a8 00       		.uleb128 0
 6509 01a9 AB390000 		.4byte	.LASF70
 6510 01ad 05       		.byte	0x5
 6511 01ae 00       		.uleb128 0
 6512 01af 07690000 		.4byte	.LASF71
 6513 01b3 05       		.byte	0x5
 6514 01b4 00       		.uleb128 0
 6515 01b5 9E010000 		.4byte	.LASF72
 6516 01b9 05       		.byte	0x5
 6517 01ba 00       		.uleb128 0
 6518 01bb 0E140000 		.4byte	.LASF73
 6519 01bf 05       		.byte	0x5
 6520 01c0 00       		.uleb128 0
 6521 01c1 4E3E0000 		.4byte	.LASF74
 6522 01c5 05       		.byte	0x5
 6523 01c6 00       		.uleb128 0
 6524 01c7 723F0000 		.4byte	.LASF75
 6525 01cb 05       		.byte	0x5
 6526 01cc 00       		.uleb128 0
 6527 01cd 18710000 		.4byte	.LASF76
 6528 01d1 05       		.byte	0x5
 6529 01d2 00       		.uleb128 0
 6530 01d3 DB600000 		.4byte	.LASF77
 6531 01d7 05       		.byte	0x5
 6532 01d8 00       		.uleb128 0
 6533 01d9 045C0000 		.4byte	.LASF78
 6534 01dd 05       		.byte	0x5
 6535 01de 00       		.uleb128 0
 6536 01df ED0F0000 		.4byte	.LASF79
 6537 01e3 05       		.byte	0x5
 6538 01e4 00       		.uleb128 0
 6539 01e5 D4020000 		.4byte	.LASF80
 6540 01e9 05       		.byte	0x5
 6541 01ea 00       		.uleb128 0
 6542 01eb D95D0000 		.4byte	.LASF81
ARM GAS  /var/folders/9j/_txx49hn253_s3mnzkyxlj8m0000gp/T//ccgYRR5b.s 			page 137


 6543 01ef 05       		.byte	0x5
 6544 01f0 00       		.uleb128 0
 6545 01f1 BB140000 		.4byte	.LASF82
 6546 01f5 05       		.byte	0x5
 6547 01f6 00       		.uleb128 0
 6548 01f7 F24B0000 		.4byte	.LASF83
 6549 01fb 05       		.byte	0x5
 6550 01fc 00       		.uleb128 0
 6551 01fd 93110000 		.4byte	.LASF84
 6552 0201 05       		.byte	0x5
 6553 0202 00       		.uleb128 0
 6554 0203 3F160000 		.4byte	.LASF85
 6555 0207 05       		.byte	0x5
 6556 0208 00       		.uleb128 0
 6557 0209 670F0000 		.4byte	.LASF86
 6558 020d 05       		.byte	0x5
 6559 020e 00       		.uleb128 0
 6560 020f DA520000 		.4byte	.LASF87
 6561 0213 05       		.byte	0x5
 6562 0214 00       		.uleb128 0
 6563 0215 482A0000 		.4byte	.LASF88
 6564 0219 05       		.byte	0x5
 6565 021a 00       		.uleb128 0
 6566 021b 8E780000 		.4byte	.LASF89
 6567 021f 05       		.byte	0x5
 6568 0220 00       		.uleb128 0
 6569 0221 42640000 		.4byte	.LASF90
 6570 0225 05       		.byte	0x5
 6571 0226 00       		.uleb128 0
 6572 0227 5F3E0000 		.4byte	.LASF91
 6573 022b 05       		.byte	0x5
 6574 022c 00       		.uleb128 0
 6575 022d F20A0000 		.4byte	.LASF92
 6576 0231 05       		.byte	0x5
 6577 0232 00       		.uleb128 0
 6578 0233 814D0000 		.4byte	.LASF93
 6579 0237 05       		.byte	0x5
 6580 0238 00       		.uleb128 0
 6581 0239 EC510000 		.4byte	.LASF94
 6582 023d 05       		.byte	0x5
 6583 023e 00       		.uleb128 0
 6584 023f CD280000 		.4byte	.LASF95
 6585 0243 05       		.byte	0x5
 6586 0244 00       		.uleb128 0
 6587 0245 CC760000 		.4byte	.LASF96
 6588 0249 05       		.byte	0x5
 6589 024a 00       		.uleb128 0
 6590 024b CB5E0000 		.4byte	.LASF97
 6591 024f 05       		.byte	0x5
 6592 0250 00       		.uleb128 0
 6593 0251 3C0D0000 		.4byte	.LASF98
 6594 0255 05       		.byte	0x5
 6595 0256 00       		.uleb128 0
 6596 0257 FF5A0000 		.4byte	.LASF99
 6597 025b 05       		.byte	0x5
 6598 025c 00       		.uleb128 0
 6599 025d 2E630000 		.4byte	.LASF100
ARM GAS  /var/folders/9j/_txx49hn253_s3mnzkyxlj8m0000gp/T//ccgYRR5b.s 			page 138


 6600 0261 05       		.byte	0x5
 6601 0262 00       		.uleb128 0
 6602 0263 D6780000 		.4byte	.LASF101
 6603 0267 05       		.byte	0x5
 6604 0268 00       		.uleb128 0
 6605 0269 14080000 		.4byte	.LASF102
 6606 026d 05       		.byte	0x5
 6607 026e 00       		.uleb128 0
 6608 026f 13580000 		.4byte	.LASF103
 6609 0273 05       		.byte	0x5
 6610 0274 00       		.uleb128 0
 6611 0275 FF640000 		.4byte	.LASF104
 6612 0279 05       		.byte	0x5
 6613 027a 00       		.uleb128 0
 6614 027b FE670000 		.4byte	.LASF105
 6615 027f 05       		.byte	0x5
 6616 0280 00       		.uleb128 0
 6617 0281 C5290000 		.4byte	.LASF106
 6618 0285 05       		.byte	0x5
 6619 0286 00       		.uleb128 0
 6620 0287 B44A0000 		.4byte	.LASF107
 6621 028b 05       		.byte	0x5
 6622 028c 00       		.uleb128 0
 6623 028d 35540000 		.4byte	.LASF108
 6624 0291 05       		.byte	0x5
 6625 0292 00       		.uleb128 0
 6626 0293 5C510000 		.4byte	.LASF109
 6627 0297 05       		.byte	0x5
 6628 0298 00       		.uleb128 0
 6629 0299 79150000 		.4byte	.LASF110
 6630 029d 05       		.byte	0x5
 6631 029e 00       		.uleb128 0
 6632 029f B6000000 		.4byte	.LASF111
 6633 02a3 05       		.byte	0x5
 6634 02a4 00       		.uleb128 0
 6635 02a5 86310000 		.4byte	.LASF112
 6636 02a9 05       		.byte	0x5
 6637 02aa 00       		.uleb128 0
 6638 02ab 64200000 		.4byte	.LASF113
 6639 02af 05       		.byte	0x5
 6640 02b0 00       		.uleb128 0
 6641 02b1 A1720000 		.4byte	.LASF114
 6642 02b5 05       		.byte	0x5
 6643 02b6 00       		.uleb128 0
 6644 02b7 B6780000 		.4byte	.LASF115
 6645 02bb 05       		.byte	0x5
 6646 02bc 00       		.uleb128 0
 6647 02bd 25130000 		.4byte	.LASF116
 6648 02c1 05       		.byte	0x5
 6649 02c2 00       		.uleb128 0
 6650 02c3 E6480000 		.4byte	.LASF117
 6651 02c7 05       		.byte	0x5
 6652 02c8 00       		.uleb128 0
 6653 02c9 E9470000 		.4byte	.LASF118
 6654 02cd 05       		.byte	0x5
 6655 02ce 00       		.uleb128 0
 6656 02cf 581E0000 		.4byte	.LASF119
ARM GAS  /var/folders/9j/_txx49hn253_s3mnzkyxlj8m0000gp/T//ccgYRR5b.s 			page 139


 6657 02d3 05       		.byte	0x5
 6658 02d4 00       		.uleb128 0
 6659 02d5 E2100000 		.4byte	.LASF120
 6660 02d9 05       		.byte	0x5
 6661 02da 00       		.uleb128 0
 6662 02db 73480000 		.4byte	.LASF121
 6663 02df 05       		.byte	0x5
 6664 02e0 00       		.uleb128 0
 6665 02e1 FF460000 		.4byte	.LASF122
 6666 02e5 05       		.byte	0x5
 6667 02e6 00       		.uleb128 0
 6668 02e7 F53E0000 		.4byte	.LASF123
 6669 02eb 05       		.byte	0x5
 6670 02ec 00       		.uleb128 0
 6671 02ed BD3A0000 		.4byte	.LASF124
 6672 02f1 05       		.byte	0x5
 6673 02f2 00       		.uleb128 0
 6674 02f3 19480000 		.4byte	.LASF125
 6675 02f7 05       		.byte	0x5
 6676 02f8 00       		.uleb128 0
 6677 02f9 E8460000 		.4byte	.LASF126
 6678 02fd 05       		.byte	0x5
 6679 02fe 00       		.uleb128 0
 6680 02ff C5190000 		.4byte	.LASF127
 6681 0303 05       		.byte	0x5
 6682 0304 00       		.uleb128 0
 6683 0305 8A170000 		.4byte	.LASF128
 6684 0309 05       		.byte	0x5
 6685 030a 00       		.uleb128 0
 6686 030b 015E0000 		.4byte	.LASF129
 6687 030f 05       		.byte	0x5
 6688 0310 00       		.uleb128 0
 6689 0311 211A0000 		.4byte	.LASF130
 6690 0315 05       		.byte	0x5
 6691 0316 00       		.uleb128 0
 6692 0317 E93D0000 		.4byte	.LASF131
 6693 031b 05       		.byte	0x5
 6694 031c 00       		.uleb128 0
 6695 031d 4A240000 		.4byte	.LASF132
 6696 0321 05       		.byte	0x5
 6697 0322 00       		.uleb128 0
 6698 0323 6C2A0000 		.4byte	.LASF133
 6699 0327 05       		.byte	0x5
 6700 0328 00       		.uleb128 0
 6701 0329 94280000 		.4byte	.LASF134
 6702 032d 05       		.byte	0x5
 6703 032e 00       		.uleb128 0
 6704 032f B8060000 		.4byte	.LASF135
 6705 0333 05       		.byte	0x5
 6706 0334 00       		.uleb128 0
 6707 0335 6A350000 		.4byte	.LASF136
 6708 0339 05       		.byte	0x5
 6709 033a 00       		.uleb128 0
 6710 033b CA1B0000 		.4byte	.LASF137
 6711 033f 05       		.byte	0x5
 6712 0340 00       		.uleb128 0
 6713 0341 FF780000 		.4byte	.LASF138
ARM GAS  /var/folders/9j/_txx49hn253_s3mnzkyxlj8m0000gp/T//ccgYRR5b.s 			page 140


 6714 0345 05       		.byte	0x5
 6715 0346 00       		.uleb128 0
 6716 0347 D6360000 		.4byte	.LASF139
 6717 034b 05       		.byte	0x5
 6718 034c 00       		.uleb128 0
 6719 034d 89520000 		.4byte	.LASF140
 6720 0351 05       		.byte	0x5
 6721 0352 00       		.uleb128 0
 6722 0353 B6770000 		.4byte	.LASF141
 6723 0357 05       		.byte	0x5
 6724 0358 00       		.uleb128 0
 6725 0359 4F200000 		.4byte	.LASF142
 6726 035d 05       		.byte	0x5
 6727 035e 00       		.uleb128 0
 6728 035f FA040000 		.4byte	.LASF143
 6729 0363 05       		.byte	0x5
 6730 0364 00       		.uleb128 0
 6731 0365 94670000 		.4byte	.LASF144
 6732 0369 05       		.byte	0x5
 6733 036a 00       		.uleb128 0
 6734 036b E6710000 		.4byte	.LASF145
 6735 036f 05       		.byte	0x5
 6736 0370 00       		.uleb128 0
 6737 0371 A2130000 		.4byte	.LASF146
 6738 0375 05       		.byte	0x5
 6739 0376 00       		.uleb128 0
 6740 0377 38350000 		.4byte	.LASF147
 6741 037b 05       		.byte	0x5
 6742 037c 00       		.uleb128 0
 6743 037d 206C0000 		.4byte	.LASF148
 6744 0381 05       		.byte	0x5
 6745 0382 00       		.uleb128 0
 6746 0383 E0260000 		.4byte	.LASF149
 6747 0387 05       		.byte	0x5
 6748 0388 00       		.uleb128 0
 6749 0389 D5650000 		.4byte	.LASF150
 6750 038d 05       		.byte	0x5
 6751 038e 00       		.uleb128 0
 6752 038f B55F0000 		.4byte	.LASF151
 6753 0393 05       		.byte	0x5
 6754 0394 00       		.uleb128 0
 6755 0395 B6070000 		.4byte	.LASF152
 6756 0399 05       		.byte	0x5
 6757 039a 00       		.uleb128 0
 6758 039b BE700000 		.4byte	.LASF153
 6759 039f 05       		.byte	0x5
 6760 03a0 00       		.uleb128 0
 6761 03a1 9D070000 		.4byte	.LASF154
 6762 03a5 05       		.byte	0x5
 6763 03a6 00       		.uleb128 0
 6764 03a7 F3350000 		.4byte	.LASF155
 6765 03ab 05       		.byte	0x5
 6766 03ac 00       		.uleb128 0
 6767 03ad 6A260000 		.4byte	.LASF156
 6768 03b1 05       		.byte	0x5
 6769 03b2 00       		.uleb128 0
 6770 03b3 1E460000 		.4byte	.LASF157
ARM GAS  /var/folders/9j/_txx49hn253_s3mnzkyxlj8m0000gp/T//ccgYRR5b.s 			page 141


 6771 03b7 05       		.byte	0x5
 6772 03b8 00       		.uleb128 0
 6773 03b9 53000000 		.4byte	.LASF158
 6774 03bd 05       		.byte	0x5
 6775 03be 00       		.uleb128 0
 6776 03bf CA3E0000 		.4byte	.LASF159
 6777 03c3 05       		.byte	0x5
 6778 03c4 00       		.uleb128 0
 6779 03c5 DB630000 		.4byte	.LASF160
 6780 03c9 05       		.byte	0x5
 6781 03ca 00       		.uleb128 0
 6782 03cb 263A0000 		.4byte	.LASF161
 6783 03cf 05       		.byte	0x5
 6784 03d0 00       		.uleb128 0
 6785 03d1 403C0000 		.4byte	.LASF162
 6786 03d5 05       		.byte	0x5
 6787 03d6 00       		.uleb128 0
 6788 03d7 BA530000 		.4byte	.LASF163
 6789 03db 05       		.byte	0x5
 6790 03dc 00       		.uleb128 0
 6791 03dd 82460000 		.4byte	.LASF164
 6792 03e1 05       		.byte	0x5
 6793 03e2 00       		.uleb128 0
 6794 03e3 B25E0000 		.4byte	.LASF165
 6795 03e7 05       		.byte	0x5
 6796 03e8 00       		.uleb128 0
 6797 03e9 224F0000 		.4byte	.LASF166
 6798 03ed 05       		.byte	0x5
 6799 03ee 00       		.uleb128 0
 6800 03ef CB550000 		.4byte	.LASF167
 6801 03f3 05       		.byte	0x5
 6802 03f4 00       		.uleb128 0
 6803 03f5 BD370000 		.4byte	.LASF168
 6804 03f9 05       		.byte	0x5
 6805 03fa 00       		.uleb128 0
 6806 03fb E1050000 		.4byte	.LASF169
 6807 03ff 05       		.byte	0x5
 6808 0400 00       		.uleb128 0
 6809 0401 FA100000 		.4byte	.LASF170
 6810 0405 05       		.byte	0x5
 6811 0406 00       		.uleb128 0
 6812 0407 960E0000 		.4byte	.LASF171
 6813 040b 05       		.byte	0x5
 6814 040c 00       		.uleb128 0
 6815 040d 41030000 		.4byte	.LASF172
 6816 0411 05       		.byte	0x5
 6817 0412 00       		.uleb128 0
 6818 0413 C4520000 		.4byte	.LASF173
 6819 0417 05       		.byte	0x5
 6820 0418 00       		.uleb128 0
 6821 0419 7B490000 		.4byte	.LASF174
 6822 041d 05       		.byte	0x5
 6823 041e 00       		.uleb128 0
 6824 041f 61060000 		.4byte	.LASF175
 6825 0423 05       		.byte	0x5
 6826 0424 00       		.uleb128 0
 6827 0425 25530000 		.4byte	.LASF176
ARM GAS  /var/folders/9j/_txx49hn253_s3mnzkyxlj8m0000gp/T//ccgYRR5b.s 			page 142


 6828 0429 05       		.byte	0x5
 6829 042a 00       		.uleb128 0
 6830 042b 35190000 		.4byte	.LASF177
 6831 042f 05       		.byte	0x5
 6832 0430 00       		.uleb128 0
 6833 0431 56710000 		.4byte	.LASF178
 6834 0435 05       		.byte	0x5
 6835 0436 00       		.uleb128 0
 6836 0437 06310000 		.4byte	.LASF179
 6837 043b 05       		.byte	0x5
 6838 043c 00       		.uleb128 0
 6839 043d DB4B0000 		.4byte	.LASF180
 6840 0441 05       		.byte	0x5
 6841 0442 00       		.uleb128 0
 6842 0443 28140000 		.4byte	.LASF181
 6843 0447 05       		.byte	0x5
 6844 0448 00       		.uleb128 0
 6845 0449 401E0000 		.4byte	.LASF182
 6846 044d 05       		.byte	0x5
 6847 044e 00       		.uleb128 0
 6848 044f 15630000 		.4byte	.LASF183
 6849 0453 05       		.byte	0x5
 6850 0454 00       		.uleb128 0
 6851 0455 61020000 		.4byte	.LASF184
 6852 0459 05       		.byte	0x5
 6853 045a 00       		.uleb128 0
 6854 045b EF390000 		.4byte	.LASF185
 6855 045f 05       		.byte	0x5
 6856 0460 00       		.uleb128 0
 6857 0461 06620000 		.4byte	.LASF186
 6858 0465 05       		.byte	0x5
 6859 0466 00       		.uleb128 0
 6860 0467 83010000 		.4byte	.LASF187
 6861 046b 05       		.byte	0x5
 6862 046c 00       		.uleb128 0
 6863 046d 57740000 		.4byte	.LASF188
 6864 0471 05       		.byte	0x5
 6865 0472 00       		.uleb128 0
 6866 0473 97360000 		.4byte	.LASF189
 6867 0477 05       		.byte	0x5
 6868 0478 00       		.uleb128 0
 6869 0479 2D760000 		.4byte	.LASF190
 6870 047d 05       		.byte	0x5
 6871 047e 00       		.uleb128 0
 6872 047f 7F6C0000 		.4byte	.LASF191
 6873 0483 05       		.byte	0x5
 6874 0484 00       		.uleb128 0
 6875 0485 D6310000 		.4byte	.LASF192
 6876 0489 05       		.byte	0x5
 6877 048a 00       		.uleb128 0
 6878 048b 9C250000 		.4byte	.LASF193
 6879 048f 05       		.byte	0x5
 6880 0490 00       		.uleb128 0
 6881 0491 F6250000 		.4byte	.LASF194
 6882 0495 05       		.byte	0x5
 6883 0496 00       		.uleb128 0
 6884 0497 2D0B0000 		.4byte	.LASF195
ARM GAS  /var/folders/9j/_txx49hn253_s3mnzkyxlj8m0000gp/T//ccgYRR5b.s 			page 143


 6885 049b 05       		.byte	0x5
 6886 049c 00       		.uleb128 0
 6887 049d 37310000 		.4byte	.LASF196
 6888 04a1 05       		.byte	0x5
 6889 04a2 00       		.uleb128 0
 6890 04a3 AE1B0000 		.4byte	.LASF197
 6891 04a7 05       		.byte	0x5
 6892 04a8 00       		.uleb128 0
 6893 04a9 D1540000 		.4byte	.LASF198
 6894 04ad 05       		.byte	0x5
 6895 04ae 00       		.uleb128 0
 6896 04af 27330000 		.4byte	.LASF199
 6897 04b3 05       		.byte	0x5
 6898 04b4 00       		.uleb128 0
 6899 04b5 C1460000 		.4byte	.LASF200
 6900 04b9 05       		.byte	0x5
 6901 04ba 00       		.uleb128 0
 6902 04bb F4380000 		.4byte	.LASF201
 6903 04bf 05       		.byte	0x5
 6904 04c0 00       		.uleb128 0
 6905 04c1 EC640000 		.4byte	.LASF202
 6906 04c5 05       		.byte	0x5
 6907 04c6 00       		.uleb128 0
 6908 04c7 A5510000 		.4byte	.LASF203
 6909 04cb 05       		.byte	0x5
 6910 04cc 00       		.uleb128 0
 6911 04cd 3D790000 		.4byte	.LASF204
 6912 04d1 05       		.byte	0x5
 6913 04d2 00       		.uleb128 0
 6914 04d3 50430000 		.4byte	.LASF205
 6915 04d7 05       		.byte	0x5
 6916 04d8 00       		.uleb128 0
 6917 04d9 313E0000 		.4byte	.LASF206
 6918 04dd 05       		.byte	0x5
 6919 04de 00       		.uleb128 0
 6920 04df 17420000 		.4byte	.LASF207
 6921 04e3 05       		.byte	0x5
 6922 04e4 00       		.uleb128 0
 6923 04e5 1C4D0000 		.4byte	.LASF208
 6924 04e9 05       		.byte	0x5
 6925 04ea 00       		.uleb128 0
 6926 04eb F3030000 		.4byte	.LASF209
 6927 04ef 05       		.byte	0x5
 6928 04f0 00       		.uleb128 0
 6929 04f1 E2490000 		.4byte	.LASF210
 6930 04f5 05       		.byte	0x5
 6931 04f6 00       		.uleb128 0
 6932 04f7 2E4D0000 		.4byte	.LASF211
 6933 04fb 05       		.byte	0x5
 6934 04fc 00       		.uleb128 0
 6935 04fd 640C0000 		.4byte	.LASF212
 6936 0501 05       		.byte	0x5
 6937 0502 00       		.uleb128 0
 6938 0503 000D0000 		.4byte	.LASF213
 6939 0507 05       		.byte	0x5
 6940 0508 00       		.uleb128 0
 6941 0509 095A0000 		.4byte	.LASF214
ARM GAS  /var/folders/9j/_txx49hn253_s3mnzkyxlj8m0000gp/T//ccgYRR5b.s 			page 144


 6942 050d 05       		.byte	0x5
 6943 050e 00       		.uleb128 0
 6944 050f 2F570000 		.4byte	.LASF215
 6945 0513 05       		.byte	0x5
 6946 0514 00       		.uleb128 0
 6947 0515 55620000 		.4byte	.LASF216
 6948 0519 05       		.byte	0x5
 6949 051a 00       		.uleb128 0
 6950 051b 28720000 		.4byte	.LASF217
 6951 051f 05       		.byte	0x5
 6952 0520 00       		.uleb128 0
 6953 0521 9D6E0000 		.4byte	.LASF218
 6954 0525 05       		.byte	0x5
 6955 0526 00       		.uleb128 0
 6956 0527 EC6A0000 		.4byte	.LASF219
 6957 052b 05       		.byte	0x5
 6958 052c 00       		.uleb128 0
 6959 052d 10600000 		.4byte	.LASF220
 6960 0531 05       		.byte	0x5
 6961 0532 00       		.uleb128 0
 6962 0533 585C0000 		.4byte	.LASF221
 6963 0537 05       		.byte	0x5
 6964 0538 00       		.uleb128 0
 6965 0539 D3090000 		.4byte	.LASF222
 6966 053d 05       		.byte	0x5
 6967 053e 00       		.uleb128 0
 6968 053f 8F3C0000 		.4byte	.LASF223
 6969 0543 05       		.byte	0x5
 6970 0544 00       		.uleb128 0
 6971 0545 176E0000 		.4byte	.LASF224
 6972 0549 05       		.byte	0x5
 6973 054a 00       		.uleb128 0
 6974 054b C6150000 		.4byte	.LASF225
 6975 054f 05       		.byte	0x5
 6976 0550 00       		.uleb128 0
 6977 0551 346A0000 		.4byte	.LASF226
 6978 0555 05       		.byte	0x5
 6979 0556 00       		.uleb128 0
 6980 0557 D6790000 		.4byte	.LASF227
 6981 055b 05       		.byte	0x5
 6982 055c 00       		.uleb128 0
 6983 055d 53560000 		.4byte	.LASF228
 6984 0561 05       		.byte	0x5
 6985 0562 00       		.uleb128 0
 6986 0563 0D570000 		.4byte	.LASF229
 6987 0567 05       		.byte	0x5
 6988 0568 00       		.uleb128 0
 6989 0569 48610000 		.4byte	.LASF230
 6990 056d 05       		.byte	0x5
 6991 056e 00       		.uleb128 0
 6992 056f 456F0000 		.4byte	.LASF231
 6993 0573 05       		.byte	0x5
 6994 0574 00       		.uleb128 0
 6995 0575 852C0000 		.4byte	.LASF232
 6996 0579 05       		.byte	0x5
 6997 057a 00       		.uleb128 0
 6998 057b A0470000 		.4byte	.LASF233
ARM GAS  /var/folders/9j/_txx49hn253_s3mnzkyxlj8m0000gp/T//ccgYRR5b.s 			page 145


 6999 057f 05       		.byte	0x5
 7000 0580 00       		.uleb128 0
 7001 0581 B54F0000 		.4byte	.LASF234
 7002 0585 05       		.byte	0x5
 7003 0586 00       		.uleb128 0
 7004 0587 C4050000 		.4byte	.LASF235
 7005 058b 05       		.byte	0x5
 7006 058c 00       		.uleb128 0
 7007 058d 975F0000 		.4byte	.LASF236
 7008 0591 05       		.byte	0x5
 7009 0592 00       		.uleb128 0
 7010 0593 7B120000 		.4byte	.LASF237
 7011 0597 05       		.byte	0x5
 7012 0598 00       		.uleb128 0
 7013 0599 14640000 		.4byte	.LASF238
 7014 059d 05       		.byte	0x5
 7015 059e 00       		.uleb128 0
 7016 059f 52040000 		.4byte	.LASF239
 7017 05a3 05       		.byte	0x5
 7018 05a4 00       		.uleb128 0
 7019 05a5 9C350000 		.4byte	.LASF240
 7020 05a9 05       		.byte	0x5
 7021 05aa 00       		.uleb128 0
 7022 05ab 84700000 		.4byte	.LASF241
 7023 05af 05       		.byte	0x5
 7024 05b0 00       		.uleb128 0
 7025 05b1 1E3E0000 		.4byte	.LASF242
 7026 05b5 05       		.byte	0x5
 7027 05b6 00       		.uleb128 0
 7028 05b7 09130000 		.4byte	.LASF243
 7029 05bb 05       		.byte	0x5
 7030 05bc 00       		.uleb128 0
 7031 05bd ED2E0000 		.4byte	.LASF244
 7032 05c1 05       		.byte	0x5
 7033 05c2 00       		.uleb128 0
 7034 05c3 21030000 		.4byte	.LASF245
 7035 05c7 05       		.byte	0x5
 7036 05c8 00       		.uleb128 0
 7037 05c9 852B0000 		.4byte	.LASF246
 7038 05cd 05       		.byte	0x5
 7039 05ce 00       		.uleb128 0
 7040 05cf 2E2D0000 		.4byte	.LASF247
 7041 05d3 05       		.byte	0x5
 7042 05d4 00       		.uleb128 0
 7043 05d5 43630000 		.4byte	.LASF248
 7044 05d9 05       		.byte	0x5
 7045 05da 00       		.uleb128 0
 7046 05db 316B0000 		.4byte	.LASF249
 7047 05df 05       		.byte	0x5
 7048 05e0 00       		.uleb128 0
 7049 05e1 5B360000 		.4byte	.LASF250
 7050 05e5 05       		.byte	0x5
 7051 05e6 00       		.uleb128 0
 7052 05e7 2C020000 		.4byte	.LASF251
 7053 05eb 05       		.byte	0x5
 7054 05ec 00       		.uleb128 0
 7055 05ed 20680000 		.4byte	.LASF252
ARM GAS  /var/folders/9j/_txx49hn253_s3mnzkyxlj8m0000gp/T//ccgYRR5b.s 			page 146


 7056 05f1 05       		.byte	0x5
 7057 05f2 00       		.uleb128 0
 7058 05f3 B7550000 		.4byte	.LASF253
 7059 05f7 05       		.byte	0x5
 7060 05f8 00       		.uleb128 0
 7061 05f9 A83E0000 		.4byte	.LASF254
 7062 05fd 05       		.byte	0x5
 7063 05fe 00       		.uleb128 0
 7064 05ff B5590000 		.4byte	.LASF255
 7065 0603 05       		.byte	0x5
 7066 0604 00       		.uleb128 0
 7067 0605 9F700000 		.4byte	.LASF256
 7068 0609 05       		.byte	0x5
 7069 060a 00       		.uleb128 0
 7070 060b C55D0000 		.4byte	.LASF257
 7071 060f 05       		.byte	0x5
 7072 0610 00       		.uleb128 0
 7073 0611 A3380000 		.4byte	.LASF258
 7074 0615 05       		.byte	0x5
 7075 0616 00       		.uleb128 0
 7076 0617 05020000 		.4byte	.LASF259
 7077 061b 05       		.byte	0x5
 7078 061c 00       		.uleb128 0
 7079 061d E9310000 		.4byte	.LASF260
 7080 0621 05       		.byte	0x5
 7081 0622 00       		.uleb128 0
 7082 0623 9F580000 		.4byte	.LASF261
 7083 0627 05       		.byte	0x5
 7084 0628 00       		.uleb128 0
 7085 0629 98210000 		.4byte	.LASF262
 7086 062d 05       		.byte	0x5
 7087 062e 00       		.uleb128 0
 7088 062f F6690000 		.4byte	.LASF263
 7089 0633 05       		.byte	0x5
 7090 0634 00       		.uleb128 0
 7091 0635 E8790000 		.4byte	.LASF264
 7092 0639 05       		.byte	0x5
 7093 063a 00       		.uleb128 0
 7094 063b 59050000 		.4byte	.LASF265
 7095 063f 05       		.byte	0x5
 7096 0640 00       		.uleb128 0
 7097 0641 E7280000 		.4byte	.LASF266
 7098 0645 05       		.byte	0x5
 7099 0646 00       		.uleb128 0
 7100 0647 20690000 		.4byte	.LASF267
 7101 064b 05       		.byte	0x5
 7102 064c 00       		.uleb128 0
 7103 064d E8090000 		.4byte	.LASF268
 7104 0651 05       		.byte	0x5
 7105 0652 00       		.uleb128 0
 7106 0653 DE720000 		.4byte	.LASF269
 7107 0657 05       		.byte	0x5
 7108 0658 00       		.uleb128 0
 7109 0659 652C0000 		.4byte	.LASF270
 7110 065d 05       		.byte	0x5
 7111 065e 00       		.uleb128 0
 7112 065f 880D0000 		.4byte	.LASF271
ARM GAS  /var/folders/9j/_txx49hn253_s3mnzkyxlj8m0000gp/T//ccgYRR5b.s 			page 147


 7113 0663 05       		.byte	0x5
 7114 0664 00       		.uleb128 0
 7115 0665 25060000 		.4byte	.LASF272
 7116 0669 05       		.byte	0x5
 7117 066a 00       		.uleb128 0
 7118 066b 65560000 		.4byte	.LASF273
 7119 066f 05       		.byte	0x5
 7120 0670 00       		.uleb128 0
 7121 0671 2A5A0000 		.4byte	.LASF274
 7122 0675 05       		.byte	0x5
 7123 0676 00       		.uleb128 0
 7124 0677 9A200000 		.4byte	.LASF275
 7125 067b 05       		.byte	0x5
 7126 067c 00       		.uleb128 0
 7127 067d 71190000 		.4byte	.LASF276
 7128 0681 05       		.byte	0x5
 7129 0682 00       		.uleb128 0
 7130 0683 2C490000 		.4byte	.LASF277
 7131 0687 05       		.byte	0x5
 7132 0688 00       		.uleb128 0
 7133 0689 7B3E0000 		.4byte	.LASF278
 7134 068d 05       		.byte	0x5
 7135 068e 00       		.uleb128 0
 7136 068f 010E0000 		.4byte	.LASF279
 7137 0693 05       		.byte	0x5
 7138 0694 00       		.uleb128 0
 7139 0695 745E0000 		.4byte	.LASF280
 7140 0699 05       		.byte	0x5
 7141 069a 00       		.uleb128 0
 7142 069b 500D0000 		.4byte	.LASF281
 7143 069f 05       		.byte	0x5
 7144 06a0 00       		.uleb128 0
 7145 06a1 3D5E0000 		.4byte	.LASF282
 7146 06a5 05       		.byte	0x5
 7147 06a6 00       		.uleb128 0
 7148 06a7 B2450000 		.4byte	.LASF283
 7149 06ab 05       		.byte	0x5
 7150 06ac 00       		.uleb128 0
 7151 06ad 7D6E0000 		.4byte	.LASF284
 7152 06b1 05       		.byte	0x5
 7153 06b2 00       		.uleb128 0
 7154 06b3 2E580000 		.4byte	.LASF285
 7155 06b7 05       		.byte	0x5
 7156 06b8 00       		.uleb128 0
 7157 06b9 3A5C0000 		.4byte	.LASF286
 7158 06bd 05       		.byte	0x5
 7159 06be 00       		.uleb128 0
 7160 06bf 6E240000 		.4byte	.LASF287
 7161 06c3 05       		.byte	0x5
 7162 06c4 00       		.uleb128 0
 7163 06c5 52400000 		.4byte	.LASF288
 7164 06c9 05       		.byte	0x5
 7165 06ca 00       		.uleb128 0
 7166 06cb 495C0000 		.4byte	.LASF289
 7167 06cf 05       		.byte	0x5
 7168 06d0 00       		.uleb128 0
 7169 06d1 C7360000 		.4byte	.LASF290
ARM GAS  /var/folders/9j/_txx49hn253_s3mnzkyxlj8m0000gp/T//ccgYRR5b.s 			page 148


 7170 06d5 05       		.byte	0x5
 7171 06d6 00       		.uleb128 0
 7172 06d7 09280000 		.4byte	.LASF291
 7173 06db 05       		.byte	0x5
 7174 06dc 00       		.uleb128 0
 7175 06dd A61C0000 		.4byte	.LASF292
 7176 06e1 05       		.byte	0x5
 7177 06e2 00       		.uleb128 0
 7178 06e3 D52D0000 		.4byte	.LASF293
 7179 06e7 05       		.byte	0x5
 7180 06e8 00       		.uleb128 0
 7181 06e9 2F010000 		.4byte	.LASF294
 7182 06ed 05       		.byte	0x5
 7183 06ee 00       		.uleb128 0
 7184 06ef 85000000 		.4byte	.LASF295
 7185 06f3 05       		.byte	0x5
 7186 06f4 00       		.uleb128 0
 7187 06f5 57700000 		.4byte	.LASF296
 7188 06f9 05       		.byte	0x5
 7189 06fa 00       		.uleb128 0
 7190 06fb 3F4C0000 		.4byte	.LASF297
 7191 06ff 05       		.byte	0x5
 7192 0700 00       		.uleb128 0
 7193 0701 1F230000 		.4byte	.LASF298
 7194 0705 05       		.byte	0x5
 7195 0706 00       		.uleb128 0
 7196 0707 86140000 		.4byte	.LASF299
 7197 070b 05       		.byte	0x5
 7198 070c 00       		.uleb128 0
 7199 070d 29650000 		.4byte	.LASF300
 7200 0711 05       		.byte	0x5
 7201 0712 00       		.uleb128 0
 7202 0713 A60D0000 		.4byte	.LASF301
 7203 0717 05       		.byte	0x5
 7204 0718 00       		.uleb128 0
 7205 0719 E6690000 		.4byte	.LASF302
 7206 071d 05       		.byte	0x5
 7207 071e 00       		.uleb128 0
 7208 071f F1610000 		.4byte	.LASF303
 7209 0723 05       		.byte	0x5
 7210 0724 00       		.uleb128 0
 7211 0725 47320000 		.4byte	.LASF304
 7212 0729 05       		.byte	0x5
 7213 072a 00       		.uleb128 0
 7214 072b 60400000 		.4byte	.LASF305
 7215 072f 05       		.byte	0x5
 7216 0730 00       		.uleb128 0
 7217 0731 EB5E0000 		.4byte	.LASF306
 7218 0735 05       		.byte	0x5
 7219 0736 00       		.uleb128 0
 7220 0737 08150000 		.4byte	.LASF307
 7221 073b 05       		.byte	0x5
 7222 073c 00       		.uleb128 0
 7223 073d F14C0000 		.4byte	.LASF308
 7224 0741 05       		.byte	0x5
 7225 0742 00       		.uleb128 0
 7226 0743 6E3A0000 		.4byte	.LASF309
ARM GAS  /var/folders/9j/_txx49hn253_s3mnzkyxlj8m0000gp/T//ccgYRR5b.s 			page 149


 7227 0747 05       		.byte	0x5
 7228 0748 00       		.uleb128 0
 7229 0749 F91B0000 		.4byte	.LASF310
 7230 074d 05       		.byte	0x5
 7231 074e 00       		.uleb128 0
 7232 074f 0E010000 		.4byte	.LASF311
 7233 0753 05       		.byte	0x5
 7234 0754 00       		.uleb128 0
 7235 0755 DB2B0000 		.4byte	.LASF312
 7236 0759 05       		.byte	0x5
 7237 075a 00       		.uleb128 0
 7238 075b 573B0000 		.4byte	.LASF313
 7239 075f 05       		.byte	0x5
 7240 0760 00       		.uleb128 0
 7241 0761 8A3E0000 		.4byte	.LASF314
 7242 0765 05       		.byte	0x5
 7243 0766 00       		.uleb128 0
 7244 0767 C5240000 		.4byte	.LASF315
 7245 076b 05       		.byte	0x5
 7246 076c 00       		.uleb128 0
 7247 076d 43690000 		.4byte	.LASF316
 7248 0771 05       		.byte	0x5
 7249 0772 00       		.uleb128 0
 7250 0773 68520000 		.4byte	.LASF317
 7251 0777 05       		.byte	0x5
 7252 0778 00       		.uleb128 0
 7253 0779 26150000 		.4byte	.LASF318
 7254 077d 05       		.byte	0x5
 7255 077e 00       		.uleb128 0
 7256 077f BC220000 		.4byte	.LASF319
 7257 0783 05       		.byte	0x5
 7258 0784 00       		.uleb128 0
 7259 0785 39420000 		.4byte	.LASF320
 7260 0789 05       		.byte	0x5
 7261 078a 00       		.uleb128 0
 7262 078b 7E6A0000 		.4byte	.LASF321
 7263 078f 05       		.byte	0x5
 7264 0790 00       		.uleb128 0
 7265 0791 024A0000 		.4byte	.LASF322
 7266 0795 05       		.byte	0x5
 7267 0796 00       		.uleb128 0
 7268 0797 654D0000 		.4byte	.LASF323
 7269 079b 05       		.byte	0x5
 7270 079c 00       		.uleb128 0
 7271 079d 66340000 		.4byte	.LASF324
 7272 07a1 05       		.byte	0x5
 7273 07a2 00       		.uleb128 0
 7274 07a3 E7060000 		.4byte	.LASF325
 7275 07a7 05       		.byte	0x5
 7276 07a8 00       		.uleb128 0
 7277 07a9 EA4D0000 		.4byte	.LASF326
 7278 07ad 05       		.byte	0x5
 7279 07ae 00       		.uleb128 0
 7280 07af 75590000 		.4byte	.LASF327
 7281 07b3 05       		.byte	0x5
 7282 07b4 00       		.uleb128 0
 7283 07b5 10560000 		.4byte	.LASF328
ARM GAS  /var/folders/9j/_txx49hn253_s3mnzkyxlj8m0000gp/T//ccgYRR5b.s 			page 150


 7284 07b9 05       		.byte	0x5
 7285 07ba 00       		.uleb128 0
 7286 07bb 7C720000 		.4byte	.LASF329
 7287 07bf 05       		.byte	0x5
 7288 07c0 00       		.uleb128 0
 7289 07c1 0E510000 		.4byte	.LASF330
 7290 07c5 05       		.byte	0x5
 7291 07c6 00       		.uleb128 0
 7292 07c7 525D0000 		.4byte	.LASF331
 7293 07cb 05       		.byte	0x5
 7294 07cc 00       		.uleb128 0
 7295 07cd 175D0000 		.4byte	.LASF332
 7296 07d1 05       		.byte	0x5
 7297 07d2 00       		.uleb128 0
 7298 07d3 84370000 		.4byte	.LASF333
 7299 07d7 05       		.byte	0x5
 7300 07d8 00       		.uleb128 0
 7301 07d9 AB0F0000 		.4byte	.LASF334
 7302 07dd 05       		.byte	0x5
 7303 07de 00       		.uleb128 0
 7304 07df F85B0000 		.4byte	.LASF335
 7305 07e3 05       		.byte	0x5
 7306 07e4 00       		.uleb128 0
 7307 07e5 F7050000 		.4byte	.LASF336
 7308 07e9 05       		.byte	0x5
 7309 07ea 00       		.uleb128 0
 7310 07eb B0150000 		.4byte	.LASF337
 7311 07ef 05       		.byte	0x5
 7312 07f0 00       		.uleb128 0
 7313 07f1 8E620000 		.4byte	.LASF338
 7314 07f5 05       		.byte	0x5
 7315 07f6 00       		.uleb128 0
 7316 07f7 642E0000 		.4byte	.LASF339
 7317 07fb 05       		.byte	0x5
 7318 07fc 00       		.uleb128 0
 7319 07fd 736B0000 		.4byte	.LASF340
 7320 0801 05       		.byte	0x5
 7321 0802 00       		.uleb128 0
 7322 0803 1A000000 		.4byte	.LASF341
 7323 0807 05       		.byte	0x5
 7324 0808 00       		.uleb128 0
 7325 0809 EE5C0000 		.4byte	.LASF342
 7326 080d 05       		.byte	0x5
 7327 080e 00       		.uleb128 0
 7328 080f 2F210000 		.4byte	.LASF343
 7329 0813 05       		.byte	0x5
 7330 0814 00       		.uleb128 0
 7331 0815 1D2D0000 		.4byte	.LASF344
 7332 0819 05       		.byte	0x5
 7333 081a 00       		.uleb128 0
 7334 081b 8A6D0000 		.4byte	.LASF345
 7335 081f 05       		.byte	0x5
 7336 0820 00       		.uleb128 0
 7337 0821 58300000 		.4byte	.LASF346
 7338 0825 05       		.byte	0x5
 7339 0826 00       		.uleb128 0
 7340 0827 4C540000 		.4byte	.LASF347
ARM GAS  /var/folders/9j/_txx49hn253_s3mnzkyxlj8m0000gp/T//ccgYRR5b.s 			page 151


 7341 082b 00       		.byte	0
 7342              		.section	.debug_macro,"G",%progbits,wm4.features.h.22.2e382148a0560adabf236cddd4e880f4,comdat
 7343              	.Ldebug_macro2:
 7344 0000 0400     		.2byte	0x4
 7345 0002 00       		.byte	0
 7346 0003 05       		.byte	0x5
 7347 0004 16       		.uleb128 0x16
 7348 0005 0F220000 		.4byte	.LASF352
 7349 0009 05       		.byte	0x5
 7350 000a 1F       		.uleb128 0x1f
 7351 000b 5B190000 		.4byte	.LASF353
 7352 000f 05       		.byte	0x5
 7353 0010 20       		.uleb128 0x20
 7354 0011 01640000 		.4byte	.LASF354
 7355 0015 05       		.byte	0x5
 7356 0016 25       		.uleb128 0x25
 7357 0017 8D120000 		.4byte	.LASF355
 7358 001b 05       		.byte	0x5
 7359 001c 2C       		.uleb128 0x2c
 7360 001d B0690000 		.4byte	.LASF356
 7361 0021 00       		.byte	0
 7362              		.section	.debug_macro,"G",%progbits,wm4._default_types.h.15.933e8edd27a65e0b69af4a865eb623d2,comda
 7363              	.Ldebug_macro3:
 7364 0000 0400     		.2byte	0x4
 7365 0002 00       		.byte	0
 7366 0003 05       		.byte	0x5
 7367 0004 0F       		.uleb128 0xf
 7368 0005 59440000 		.4byte	.LASF357
 7369 0009 05       		.byte	0x5
 7370 000a 21       		.uleb128 0x21
 7371 000b 83360000 		.4byte	.LASF358
 7372 000f 05       		.byte	0x5
 7373 0010 2F       		.uleb128 0x2f
 7374 0011 55260000 		.4byte	.LASF359
 7375 0015 05       		.byte	0x5
 7376 0016 45       		.uleb128 0x45
 7377 0017 61410000 		.4byte	.LASF360
 7378 001b 05       		.byte	0x5
 7379 001c 5F       		.uleb128 0x5f
 7380 001d A5530000 		.4byte	.LASF361
 7381 0021 05       		.byte	0x5
 7382 0022 7E       		.uleb128 0x7e
 7383 0023 684A0000 		.4byte	.LASF362
 7384 0027 05       		.byte	0x5
 7385 0028 9801     		.uleb128 0x98
 7386 002a 42280000 		.4byte	.LASF363
 7387 002e 05       		.byte	0x5
 7388 002f AE01     		.uleb128 0xae
 7389 0031 7C5F0000 		.4byte	.LASF364
 7390 0035 05       		.byte	0x5
 7391 0036 C001     		.uleb128 0xc0
 7392 0038 7B430000 		.4byte	.LASF365
 7393 003c 06       		.byte	0x6
 7394 003d D601     		.uleb128 0xd6
 7395 003f 84530000 		.4byte	.LASF366
 7396 0043 00       		.byte	0
 7397              		.section	.debug_macro,"G",%progbits,wm4._intsup.h.10.35a45952db64d30146faa63a55c20c1c,comdat
ARM GAS  /var/folders/9j/_txx49hn253_s3mnzkyxlj8m0000gp/T//ccgYRR5b.s 			page 152


 7398              	.Ldebug_macro4:
 7399 0000 0400     		.2byte	0x4
 7400 0002 00       		.byte	0
 7401 0003 05       		.byte	0x5
 7402 0004 0A       		.uleb128 0xa
 7403 0005 2B6F0000 		.4byte	.LASF367
 7404 0009 05       		.byte	0x5
 7405 000a 10       		.uleb128 0x10
 7406 000b 3D440000 		.4byte	.LASF368
 7407 000f 05       		.byte	0x5
 7408 0010 1A       		.uleb128 0x1a
 7409 0011 EE580000 		.4byte	.LASF369
 7410 0015 05       		.byte	0x5
 7411 0016 21       		.uleb128 0x21
 7412 0017 C5670000 		.4byte	.LASF370
 7413 001b 06       		.byte	0x6
 7414 001c 37       		.uleb128 0x37
 7415 001d E5360000 		.4byte	.LASF371
 7416 0021 06       		.byte	0x6
 7417 0022 38       		.uleb128 0x38
 7418 0023 3C080000 		.4byte	.LASF372
 7419 0027 06       		.byte	0x6
 7420 0028 39       		.uleb128 0x39
 7421 0029 1A230000 		.4byte	.LASF373
 7422 002d 06       		.byte	0x6
 7423 002e 3A       		.uleb128 0x3a
 7424 002f 89510000 		.4byte	.LASF374
 7425 0033 02       		.byte	0x2
 7426 0034 3B       		.uleb128 0x3b
 7427 0035 696E7400 		.ascii	"int\000"
 7428 0039 06       		.byte	0x6
 7429 003a 3C       		.uleb128 0x3c
 7430 003b 79510000 		.4byte	.LASF375
 7431 003f 05       		.byte	0x5
 7432 0040 3D       		.uleb128 0x3d
 7433 0041 990A0000 		.4byte	.LASF376
 7434 0045 05       		.byte	0x5
 7435 0046 3E       		.uleb128 0x3e
 7436 0047 B13A0000 		.4byte	.LASF377
 7437 004b 05       		.byte	0x5
 7438 004c 3F       		.uleb128 0x3f
 7439 004d DA490000 		.4byte	.LASF378
 7440 0051 05       		.byte	0x5
 7441 0052 40       		.uleb128 0x40
 7442 0053 09770000 		.4byte	.LASF379
 7443 0057 05       		.byte	0x5
 7444 0058 41       		.uleb128 0x41
 7445 0059 30380000 		.4byte	.LASF380
 7446 005d 05       		.byte	0x5
 7447 005e 42       		.uleb128 0x42
 7448 005f 3B4E0000 		.4byte	.LASF381
 7449 0063 05       		.byte	0x5
 7450 0064 4D       		.uleb128 0x4d
 7451 0065 35730000 		.4byte	.LASF382
 7452 0069 05       		.byte	0x5
 7453 006a 55       		.uleb128 0x55
 7454 006b 7F090000 		.4byte	.LASF383
ARM GAS  /var/folders/9j/_txx49hn253_s3mnzkyxlj8m0000gp/T//ccgYRR5b.s 			page 153


 7455 006f 05       		.byte	0x5
 7456 0070 60       		.uleb128 0x60
 7457 0071 DA480000 		.4byte	.LASF384
 7458 0075 05       		.byte	0x5
 7459 0076 6B       		.uleb128 0x6b
 7460 0077 CA6C0000 		.4byte	.LASF385
 7461 007b 05       		.byte	0x5
 7462 007c 74       		.uleb128 0x74
 7463 007d C60F0000 		.4byte	.LASF386
 7464 0081 05       		.byte	0x5
 7465 0082 7B       		.uleb128 0x7b
 7466 0083 F7680000 		.4byte	.LASF387
 7467 0087 05       		.byte	0x5
 7468 0088 8401     		.uleb128 0x84
 7469 008a F9180000 		.4byte	.LASF388
 7470 008e 05       		.byte	0x5
 7471 008f 8B01     		.uleb128 0x8b
 7472 0091 D83B0000 		.4byte	.LASF389
 7473 0095 05       		.byte	0x5
 7474 0096 9601     		.uleb128 0x96
 7475 0098 903A0000 		.4byte	.LASF390
 7476 009c 05       		.byte	0x5
 7477 009d 9A01     		.uleb128 0x9a
 7478 009f BF280000 		.4byte	.LASF391
 7479 00a3 05       		.byte	0x5
 7480 00a4 A501     		.uleb128 0xa5
 7481 00a6 39650000 		.4byte	.LASF392
 7482 00aa 05       		.byte	0x5
 7483 00ab B001     		.uleb128 0xb0
 7484 00ad B80F0000 		.4byte	.LASF393
 7485 00b1 05       		.byte	0x5
 7486 00b2 B901     		.uleb128 0xb9
 7487 00b4 18500000 		.4byte	.LASF394
 7488 00b8 06       		.byte	0x6
 7489 00b9 BB01     		.uleb128 0xbb
 7490 00bb E5360000 		.4byte	.LASF371
 7491 00bf 06       		.byte	0x6
 7492 00c0 BC01     		.uleb128 0xbc
 7493 00c2 3C080000 		.4byte	.LASF372
 7494 00c6 06       		.byte	0x6
 7495 00c7 BD01     		.uleb128 0xbd
 7496 00c9 1A230000 		.4byte	.LASF373
 7497 00cd 06       		.byte	0x6
 7498 00ce BE01     		.uleb128 0xbe
 7499 00d0 89510000 		.4byte	.LASF374
 7500 00d4 02       		.byte	0x2
 7501 00d5 BF01     		.uleb128 0xbf
 7502 00d7 696E7400 		.ascii	"int\000"
 7503 00db 06       		.byte	0x6
 7504 00dc C001     		.uleb128 0xc0
 7505 00de 79510000 		.4byte	.LASF375
 7506 00e2 00       		.byte	0
 7507              		.section	.debug_macro,"G",%progbits,wm4._stdint.h.10.f76354baea1c7088202064e6f3d4f5e3,comdat
 7508              	.Ldebug_macro5:
 7509 0000 0400     		.2byte	0x4
 7510 0002 00       		.byte	0
 7511 0003 05       		.byte	0x5
ARM GAS  /var/folders/9j/_txx49hn253_s3mnzkyxlj8m0000gp/T//ccgYRR5b.s 			page 154


 7512 0004 0A       		.uleb128 0xa
 7513 0005 9B390000 		.4byte	.LASF395
 7514 0009 05       		.byte	0x5
 7515 000a 15       		.uleb128 0x15
 7516 000b B1260000 		.4byte	.LASF396
 7517 000f 05       		.byte	0x5
 7518 0010 1B       		.uleb128 0x1b
 7519 0011 69740000 		.4byte	.LASF397
 7520 0015 05       		.byte	0x5
 7521 0016 21       		.uleb128 0x21
 7522 0017 91370000 		.4byte	.LASF398
 7523 001b 05       		.byte	0x5
 7524 001c 27       		.uleb128 0x27
 7525 001d 92680000 		.4byte	.LASF399
 7526 0021 00       		.byte	0
 7527              		.section	.debug_macro,"G",%progbits,wm4.stdint.h.23.373a9d32a9e4c2e88fd347156532d281,comdat
 7528              	.Ldebug_macro6:
 7529 0000 0400     		.2byte	0x4
 7530 0002 00       		.byte	0
 7531 0003 05       		.byte	0x5
 7532 0004 17       		.uleb128 0x17
 7533 0005 A1740000 		.4byte	.LASF400
 7534 0009 05       		.byte	0x5
 7535 000a 1D       		.uleb128 0x1d
 7536 000b 6B2B0000 		.4byte	.LASF401
 7537 000f 05       		.byte	0x5
 7538 0010 23       		.uleb128 0x23
 7539 0011 2D320000 		.4byte	.LASF402
 7540 0015 05       		.byte	0x5
 7541 0016 29       		.uleb128 0x29
 7542 0017 B4300000 		.4byte	.LASF403
 7543 001b 05       		.byte	0x5
 7544 001c 35       		.uleb128 0x35
 7545 001d 3C4B0000 		.4byte	.LASF404
 7546 0021 05       		.byte	0x5
 7547 0022 3F       		.uleb128 0x3f
 7548 0023 EC450000 		.4byte	.LASF405
 7549 0027 05       		.byte	0x5
 7550 0028 49       		.uleb128 0x49
 7551 0029 AC0C0000 		.4byte	.LASF406
 7552 002d 05       		.byte	0x5
 7553 002e 53       		.uleb128 0x53
 7554 002f 9D3D0000 		.4byte	.LASF407
 7555 0033 05       		.byte	0x5
 7556 0034 9301     		.uleb128 0x93
 7557 0036 062E0000 		.4byte	.LASF408
 7558 003a 05       		.byte	0x5
 7559 003b 9401     		.uleb128 0x94
 7560 003d 47650000 		.4byte	.LASF409
 7561 0041 05       		.byte	0x5
 7562 0042 9501     		.uleb128 0x95
 7563 0044 5B150000 		.4byte	.LASF410
 7564 0048 05       		.byte	0x5
 7565 0049 AB01     		.uleb128 0xab
 7566 004b 42330000 		.4byte	.LASF411
 7567 004f 05       		.byte	0x5
 7568 0050 AC01     		.uleb128 0xac
ARM GAS  /var/folders/9j/_txx49hn253_s3mnzkyxlj8m0000gp/T//ccgYRR5b.s 			page 155


 7569 0052 5D0A0000 		.4byte	.LASF412
 7570 0056 05       		.byte	0x5
 7571 0057 AD01     		.uleb128 0xad
 7572 0059 3D740000 		.4byte	.LASF413
 7573 005d 05       		.byte	0x5
 7574 005e B501     		.uleb128 0xb5
 7575 0060 D5670000 		.4byte	.LASF414
 7576 0064 05       		.byte	0x5
 7577 0065 B601     		.uleb128 0xb6
 7578 0067 F60E0000 		.4byte	.LASF415
 7579 006b 05       		.byte	0x5
 7580 006c B701     		.uleb128 0xb7
 7581 006e 175E0000 		.4byte	.LASF416
 7582 0072 05       		.byte	0x5
 7583 0073 C101     		.uleb128 0xc1
 7584 0075 B04E0000 		.4byte	.LASF417
 7585 0079 05       		.byte	0x5
 7586 007a C201     		.uleb128 0xc2
 7587 007c 210C0000 		.4byte	.LASF418
 7588 0080 05       		.byte	0x5
 7589 0081 C301     		.uleb128 0xc3
 7590 0083 7D340000 		.4byte	.LASF419
 7591 0087 05       		.byte	0x5
 7592 0088 CB01     		.uleb128 0xcb
 7593 008a 68420000 		.4byte	.LASF420
 7594 008e 05       		.byte	0x5
 7595 008f CC01     		.uleb128 0xcc
 7596 0091 9B090000 		.4byte	.LASF421
 7597 0095 05       		.byte	0x5
 7598 0096 CD01     		.uleb128 0xcd
 7599 0098 9D290000 		.4byte	.LASF422
 7600 009c 05       		.byte	0x5
 7601 009d D701     		.uleb128 0xd7
 7602 009f F85C0000 		.4byte	.LASF423
 7603 00a3 05       		.byte	0x5
 7604 00a4 D801     		.uleb128 0xd8
 7605 00a6 AF270000 		.4byte	.LASF424
 7606 00aa 05       		.byte	0x5
 7607 00ab D901     		.uleb128 0xd9
 7608 00ad 3E3F0000 		.4byte	.LASF425
 7609 00b1 05       		.byte	0x5
 7610 00b2 E701     		.uleb128 0xe7
 7611 00b4 5F630000 		.4byte	.LASF426
 7612 00b8 05       		.byte	0x5
 7613 00b9 E801     		.uleb128 0xe8
 7614 00bb B52B0000 		.4byte	.LASF427
 7615 00bf 05       		.byte	0x5
 7616 00c0 E901     		.uleb128 0xe9
 7617 00c2 7A600000 		.4byte	.LASF428
 7618 00c6 05       		.byte	0x5
 7619 00c7 F901     		.uleb128 0xf9
 7620 00c9 63650000 		.4byte	.LASF429
 7621 00cd 05       		.byte	0x5
 7622 00ce FA01     		.uleb128 0xfa
 7623 00d0 56460000 		.4byte	.LASF430
 7624 00d4 05       		.byte	0x5
 7625 00d5 FB01     		.uleb128 0xfb
ARM GAS  /var/folders/9j/_txx49hn253_s3mnzkyxlj8m0000gp/T//ccgYRR5b.s 			page 156


 7626 00d7 61660000 		.4byte	.LASF431
 7627 00db 05       		.byte	0x5
 7628 00dc 8902     		.uleb128 0x109
 7629 00de 22100000 		.4byte	.LASF432
 7630 00e2 05       		.byte	0x5
 7631 00e3 8A02     		.uleb128 0x10a
 7632 00e5 110E0000 		.4byte	.LASF433
 7633 00e9 05       		.byte	0x5
 7634 00ea 8B02     		.uleb128 0x10b
 7635 00ec 8F550000 		.4byte	.LASF434
 7636 00f0 05       		.byte	0x5
 7637 00f1 9902     		.uleb128 0x119
 7638 00f3 C2470000 		.4byte	.LASF435
 7639 00f7 05       		.byte	0x5
 7640 00f8 9A02     		.uleb128 0x11a
 7641 00fa FD1F0000 		.4byte	.LASF436
 7642 00fe 05       		.byte	0x5
 7643 00ff 9B02     		.uleb128 0x11b
 7644 0101 7D740000 		.4byte	.LASF437
 7645 0105 05       		.byte	0x5
 7646 0106 A902     		.uleb128 0x129
 7647 0108 511D0000 		.4byte	.LASF438
 7648 010c 05       		.byte	0x5
 7649 010d AA02     		.uleb128 0x12a
 7650 010f 4F480000 		.4byte	.LASF439
 7651 0113 05       		.byte	0x5
 7652 0114 AB02     		.uleb128 0x12b
 7653 0116 EA5F0000 		.4byte	.LASF440
 7654 011a 05       		.byte	0x5
 7655 011b B902     		.uleb128 0x139
 7656 011d D0110000 		.4byte	.LASF441
 7657 0121 05       		.byte	0x5
 7658 0122 BA02     		.uleb128 0x13a
 7659 0124 D1130000 		.4byte	.LASF442
 7660 0128 05       		.byte	0x5
 7661 0129 BB02     		.uleb128 0x13b
 7662 012b 17440000 		.4byte	.LASF443
 7663 012f 05       		.byte	0x5
 7664 0130 C902     		.uleb128 0x149
 7665 0132 374F0000 		.4byte	.LASF444
 7666 0136 05       		.byte	0x5
 7667 0137 CA02     		.uleb128 0x14a
 7668 0139 876F0000 		.4byte	.LASF445
 7669 013d 05       		.byte	0x5
 7670 013e CB02     		.uleb128 0x14b
 7671 0140 04660000 		.4byte	.LASF446
 7672 0144 05       		.byte	0x5
 7673 0145 D902     		.uleb128 0x159
 7674 0147 93270000 		.4byte	.LASF447
 7675 014b 05       		.byte	0x5
 7676 014c DA02     		.uleb128 0x15a
 7677 014e 17780000 		.4byte	.LASF448
 7678 0152 05       		.byte	0x5
 7679 0153 E202     		.uleb128 0x162
 7680 0155 193B0000 		.4byte	.LASF449
 7681 0159 05       		.byte	0x5
 7682 015a EA02     		.uleb128 0x16a
ARM GAS  /var/folders/9j/_txx49hn253_s3mnzkyxlj8m0000gp/T//ccgYRR5b.s 			page 157


 7683 015c A5370000 		.4byte	.LASF450
 7684 0160 05       		.byte	0x5
 7685 0161 F002     		.uleb128 0x170
 7686 0163 702F0000 		.4byte	.LASF451
 7687 0167 05       		.byte	0x5
 7688 0168 F102     		.uleb128 0x171
 7689 016a E4240000 		.4byte	.LASF452
 7690 016e 05       		.byte	0x5
 7691 016f F502     		.uleb128 0x175
 7692 0171 A30A0000 		.4byte	.LASF453
 7693 0175 05       		.byte	0x5
 7694 0176 F902     		.uleb128 0x179
 7695 0178 7C230000 		.4byte	.LASF454
 7696 017c 05       		.byte	0x5
 7697 017d FE02     		.uleb128 0x17e
 7698 017f 831B0000 		.4byte	.LASF455
 7699 0183 05       		.byte	0x5
 7700 0184 8903     		.uleb128 0x189
 7701 0186 AF0E0000 		.4byte	.LASF456
 7702 018a 05       		.byte	0x5
 7703 018b 9303     		.uleb128 0x193
 7704 018d CD3F0000 		.4byte	.LASF457
 7705 0191 05       		.byte	0x5
 7706 0192 9803     		.uleb128 0x198
 7707 0194 3B000000 		.4byte	.LASF458
 7708 0198 05       		.byte	0x5
 7709 0199 9F03     		.uleb128 0x19f
 7710 019b 49380000 		.4byte	.LASF459
 7711 019f 05       		.byte	0x5
 7712 01a0 A003     		.uleb128 0x1a0
 7713 01a2 40670000 		.4byte	.LASF460
 7714 01a6 05       		.byte	0x5
 7715 01a7 AB03     		.uleb128 0x1ab
 7716 01a9 130D0000 		.4byte	.LASF461
 7717 01ad 05       		.byte	0x5
 7718 01ae AC03     		.uleb128 0x1ac
 7719 01b0 B06E0000 		.4byte	.LASF462
 7720 01b4 05       		.byte	0x5
 7721 01b5 B703     		.uleb128 0x1b7
 7722 01b7 D25F0000 		.4byte	.LASF463
 7723 01bb 05       		.byte	0x5
 7724 01bc B803     		.uleb128 0x1b8
 7725 01be 15470000 		.4byte	.LASF464
 7726 01c2 05       		.byte	0x5
 7727 01c3 C403     		.uleb128 0x1c4
 7728 01c5 0F330000 		.4byte	.LASF465
 7729 01c9 05       		.byte	0x5
 7730 01ca C503     		.uleb128 0x1c5
 7731 01cc AB5D0000 		.4byte	.LASF466
 7732 01d0 05       		.byte	0x5
 7733 01d1 D403     		.uleb128 0x1d4
 7734 01d3 62230000 		.4byte	.LASF467
 7735 01d7 05       		.byte	0x5
 7736 01d8 D503     		.uleb128 0x1d5
 7737 01da 5E530000 		.4byte	.LASF468
 7738 01de 00       		.byte	0
 7739              		.section	.debug_macro,"G",%progbits,wm4.stdbool.h.29.1c9ee6859ce8145f7838a4f2549ccec2,comdat
ARM GAS  /var/folders/9j/_txx49hn253_s3mnzkyxlj8m0000gp/T//ccgYRR5b.s 			page 158


 7740              	.Ldebug_macro7:
 7741 0000 0400     		.2byte	0x4
 7742 0002 00       		.byte	0
 7743 0003 05       		.byte	0x5
 7744 0004 1D       		.uleb128 0x1d
 7745 0005 191D0000 		.4byte	.LASF470
 7746 0009 05       		.byte	0x5
 7747 000a 21       		.uleb128 0x21
 7748 000b 702E0000 		.4byte	.LASF471
 7749 000f 05       		.byte	0x5
 7750 0010 22       		.uleb128 0x22
 7751 0011 284C0000 		.4byte	.LASF472
 7752 0015 05       		.byte	0x5
 7753 0016 23       		.uleb128 0x23
 7754 0017 FA2B0000 		.4byte	.LASF473
 7755 001b 05       		.byte	0x5
 7756 001c 30       		.uleb128 0x30
 7757 001d ED720000 		.4byte	.LASF474
 7758 0021 00       		.byte	0
 7759              		.section	.debug_macro,"G",%progbits,wm4.lpc_types.h.63.860ba57581a002825766a7c2ac00d549,comdat
 7760              	.Ldebug_macro8:
 7761 0000 0400     		.2byte	0x4
 7762 0002 00       		.byte	0
 7763 0003 05       		.byte	0x5
 7764 0004 3F       		.uleb128 0x3f
 7765 0005 13170000 		.4byte	.LASF475
 7766 0009 05       		.byte	0x5
 7767 000a 45       		.uleb128 0x45
 7768 000b C1080000 		.4byte	.LASF476
 7769 000f 06       		.byte	0x6
 7770 0010 66       		.uleb128 0x66
 7771 0011 CD5F0000 		.4byte	.LASF477
 7772 0015 05       		.byte	0x5
 7773 0016 68       		.uleb128 0x68
 7774 0017 A22B0000 		.4byte	.LASF478
 7775 001b 06       		.byte	0x6
 7776 001c 6E       		.uleb128 0x6e
 7777 001d 432A0000 		.4byte	.LASF479
 7778 0021 05       		.byte	0x5
 7779 0022 70       		.uleb128 0x70
 7780 0023 E21B0000 		.4byte	.LASF480
 7781 0027 06       		.byte	0x6
 7782 0028 7F       		.uleb128 0x7f
 7783 0029 7D310000 		.4byte	.LASF481
 7784 002d 05       		.byte	0x5
 7785 002e 8101     		.uleb128 0x81
 7786 0030 EF6C0000 		.4byte	.LASF482
 7787 0034 05       		.byte	0x5
 7788 0035 8501     		.uleb128 0x85
 7789 0037 A1520000 		.4byte	.LASF483
 7790 003b 05       		.byte	0x5
 7791 003c 8901     		.uleb128 0x89
 7792 003e 46450000 		.4byte	.LASF484
 7793 0042 05       		.byte	0x5
 7794 0043 8C01     		.uleb128 0x8c
 7795 0045 2F220000 		.4byte	.LASF485
 7796 0049 05       		.byte	0x5
ARM GAS  /var/folders/9j/_txx49hn253_s3mnzkyxlj8m0000gp/T//ccgYRR5b.s 			page 159


 7797 004a 8E01     		.uleb128 0x8e
 7798 004c 0F390000 		.4byte	.LASF486
 7799 0050 05       		.byte	0x5
 7800 0051 9101     		.uleb128 0x91
 7801 0053 190B0000 		.4byte	.LASF487
 7802 0057 05       		.byte	0x5
 7803 0058 9401     		.uleb128 0x94
 7804 005a 5F380000 		.4byte	.LASF488
 7805 005e 05       		.byte	0x5
 7806 005f 9701     		.uleb128 0x97
 7807 0061 194A0000 		.4byte	.LASF489
 7808 0065 05       		.byte	0x5
 7809 0066 D001     		.uleb128 0xd0
 7810 0068 67690000 		.4byte	.LASF490
 7811 006c 00       		.byte	0
 7812              		.section	.debug_macro,"G",%progbits,wm4.sys_config.h.31.9f234e9c90333d233c7e647ebe63e928,comdat
 7813              	.Ldebug_macro9:
 7814 0000 0400     		.2byte	0x4
 7815 0002 00       		.byte	0
 7816 0003 05       		.byte	0x5
 7817 0004 1F       		.uleb128 0x1f
 7818 0005 19590000 		.4byte	.LASF491
 7819 0009 05       		.byte	0x5
 7820 000a 26       		.uleb128 0x26
 7821 000b 181B0000 		.4byte	.LASF492
 7822 000f 00       		.byte	0
 7823              		.section	.debug_macro,"G",%progbits,wm4.cmsis_11cxx.h.33.407e9bbb5d170cd1552d3f7dc3fd5c42,comdat
 7824              	.Ldebug_macro10:
 7825 0000 0400     		.2byte	0x4
 7826 0002 00       		.byte	0
 7827 0003 05       		.byte	0x5
 7828 0004 21       		.uleb128 0x21
 7829 0005 D3730000 		.4byte	.LASF494
 7830 0009 05       		.byte	0x5
 7831 000a 8801     		.uleb128 0x88
 7832 000c 73390000 		.4byte	.LASF495
 7833 0010 05       		.byte	0x5
 7834 0011 8901     		.uleb128 0x89
 7835 0013 C36F0000 		.4byte	.LASF496
 7836 0017 05       		.byte	0x5
 7837 0018 8A01     		.uleb128 0x8a
 7838 001a 1E520000 		.4byte	.LASF497
 7839 001e 00       		.byte	0
 7840              		.section	.debug_macro,"G",%progbits,wm4.core_cm0.h.32.192d13cfa8b31e63c86621de62eb153f,comdat
 7841              	.Ldebug_macro11:
 7842 0000 0400     		.2byte	0x4
 7843 0002 00       		.byte	0
 7844 0003 05       		.byte	0x5
 7845 0004 20       		.uleb128 0x20
 7846 0005 14120000 		.4byte	.LASF498
 7847 0009 05       		.byte	0x5
 7848 000a 38       		.uleb128 0x38
 7849 000b 3C510000 		.4byte	.LASF499
 7850 000f 05       		.byte	0x5
 7851 0010 39       		.uleb128 0x39
 7852 0011 5F6A0000 		.4byte	.LASF500
 7853 0015 05       		.byte	0x5
ARM GAS  /var/folders/9j/_txx49hn253_s3mnzkyxlj8m0000gp/T//ccgYRR5b.s 			page 160


 7854 0016 3A       		.uleb128 0x3a
 7855 0017 731E0000 		.4byte	.LASF501
 7856 001b 05       		.byte	0x5
 7857 001c 3D       		.uleb128 0x3d
 7858 001d 732C0000 		.4byte	.LASF502
 7859 0021 05       		.byte	0x5
 7860 0022 4B       		.uleb128 0x4b
 7861 0023 1A0F0000 		.4byte	.LASF503
 7862 0027 05       		.byte	0x5
 7863 0028 4C       		.uleb128 0x4c
 7864 0029 7E780000 		.4byte	.LASF504
 7865 002d 05       		.byte	0x5
 7866 002e 4D       		.uleb128 0x4d
 7867 002f 673D0000 		.4byte	.LASF505
 7868 0033 05       		.byte	0x5
 7869 0034 58       		.uleb128 0x58
 7870 0035 0B6A0000 		.4byte	.LASF506
 7871 0039 00       		.byte	0
 7872              		.section	.debug_macro,"G",%progbits,wm4.core_cm0.h.120.f4257ea7d0bce0cbabffe223e23b2fd4,comdat
 7873              	.Ldebug_macro12:
 7874 0000 0400     		.2byte	0x4
 7875 0002 00       		.byte	0
 7876 0003 05       		.byte	0x5
 7877 0004 78       		.uleb128 0x78
 7878 0005 35180000 		.4byte	.LASF509
 7879 0009 05       		.byte	0x5
 7880 000a 9701     		.uleb128 0x97
 7881 000c E23B0000 		.4byte	.LASF510
 7882 0010 05       		.byte	0x5
 7883 0011 9901     		.uleb128 0x99
 7884 0013 382F0000 		.4byte	.LASF511
 7885 0017 05       		.byte	0x5
 7886 0018 9A01     		.uleb128 0x9a
 7887 001a E4660000 		.4byte	.LASF512
 7888 001e 05       		.byte	0x5
 7889 001f B002     		.uleb128 0x130
 7890 0021 E5430000 		.4byte	.LASF513
 7891 0025 05       		.byte	0x5
 7892 0026 B102     		.uleb128 0x131
 7893 0028 3C720000 		.4byte	.LASF514
 7894 002c 05       		.byte	0x5
 7895 002d B302     		.uleb128 0x133
 7896 002f 8A5A0000 		.4byte	.LASF515
 7897 0033 05       		.byte	0x5
 7898 0034 B402     		.uleb128 0x134
 7899 0036 2F470000 		.4byte	.LASF516
 7900 003a 05       		.byte	0x5
 7901 003b B602     		.uleb128 0x136
 7902 003d 43210000 		.4byte	.LASF517
 7903 0041 05       		.byte	0x5
 7904 0042 B702     		.uleb128 0x137
 7905 0044 11040000 		.4byte	.LASF518
 7906 0048 05       		.byte	0x5
 7907 0049 B902     		.uleb128 0x139
 7908 004b DB290000 		.4byte	.LASF519
 7909 004f 05       		.byte	0x5
 7910 0050 BA02     		.uleb128 0x13a
ARM GAS  /var/folders/9j/_txx49hn253_s3mnzkyxlj8m0000gp/T//ccgYRR5b.s 			page 161


 7911 0052 531A0000 		.4byte	.LASF520
 7912 0056 05       		.byte	0x5
 7913 0057 BC02     		.uleb128 0x13c
 7914 0059 A3170000 		.4byte	.LASF521
 7915 005d 05       		.byte	0x5
 7916 005e BD02     		.uleb128 0x13d
 7917 0060 D7340000 		.4byte	.LASF522
 7918 0064 05       		.byte	0x5
 7919 0065 C002     		.uleb128 0x140
 7920 0067 C4500000 		.4byte	.LASF523
 7921 006b 05       		.byte	0x5
 7922 006c C102     		.uleb128 0x141
 7923 006e F2290000 		.4byte	.LASF524
 7924 0072 05       		.byte	0x5
 7925 0073 C302     		.uleb128 0x143
 7926 0075 022F0000 		.4byte	.LASF525
 7927 0079 05       		.byte	0x5
 7928 007a C402     		.uleb128 0x144
 7929 007c F6600000 		.4byte	.LASF526
 7930 0080 05       		.byte	0x5
 7931 0081 C602     		.uleb128 0x146
 7932 0083 AB670000 		.4byte	.LASF527
 7933 0087 05       		.byte	0x5
 7934 0088 C702     		.uleb128 0x147
 7935 008a 5D280000 		.4byte	.LASF528
 7936 008e 05       		.byte	0x5
 7937 008f C902     		.uleb128 0x149
 7938 0091 430A0000 		.4byte	.LASF529
 7939 0095 05       		.byte	0x5
 7940 0096 CA02     		.uleb128 0x14a
 7941 0098 15070000 		.4byte	.LASF530
 7942 009c 05       		.byte	0x5
 7943 009d CC02     		.uleb128 0x14c
 7944 009f 9A460000 		.4byte	.LASF531
 7945 00a3 05       		.byte	0x5
 7946 00a4 CD02     		.uleb128 0x14d
 7947 00a6 EA020000 		.4byte	.LASF532
 7948 00aa 05       		.byte	0x5
 7949 00ab CF02     		.uleb128 0x14f
 7950 00ad A9500000 		.4byte	.LASF533
 7951 00b1 05       		.byte	0x5
 7952 00b2 D002     		.uleb128 0x150
 7953 00b4 1D390000 		.4byte	.LASF534
 7954 00b8 05       		.byte	0x5
 7955 00b9 D202     		.uleb128 0x152
 7956 00bb C8040000 		.4byte	.LASF535
 7957 00bf 05       		.byte	0x5
 7958 00c0 D302     		.uleb128 0x153
 7959 00c2 BA350000 		.4byte	.LASF536
 7960 00c6 05       		.byte	0x5
 7961 00c7 D502     		.uleb128 0x155
 7962 00c9 11430000 		.4byte	.LASF537
 7963 00cd 05       		.byte	0x5
 7964 00ce D602     		.uleb128 0x156
 7965 00d0 C32C0000 		.4byte	.LASF538
 7966 00d4 05       		.byte	0x5
 7967 00d5 D802     		.uleb128 0x158
ARM GAS  /var/folders/9j/_txx49hn253_s3mnzkyxlj8m0000gp/T//ccgYRR5b.s 			page 162


 7968 00d7 E50B0000 		.4byte	.LASF539
 7969 00db 05       		.byte	0x5
 7970 00dc D902     		.uleb128 0x159
 7971 00de DC1C0000 		.4byte	.LASF540
 7972 00e2 05       		.byte	0x5
 7973 00e3 DC02     		.uleb128 0x15c
 7974 00e5 D66C0000 		.4byte	.LASF541
 7975 00e9 05       		.byte	0x5
 7976 00ea DD02     		.uleb128 0x15d
 7977 00ec AD330000 		.4byte	.LASF542
 7978 00f0 05       		.byte	0x5
 7979 00f1 DF02     		.uleb128 0x15f
 7980 00f3 AC0B0000 		.4byte	.LASF543
 7981 00f7 05       		.byte	0x5
 7982 00f8 E002     		.uleb128 0x160
 7983 00fa D5770000 		.4byte	.LASF544
 7984 00fe 05       		.byte	0x5
 7985 00ff E202     		.uleb128 0x162
 7986 0101 34680000 		.4byte	.LASF545
 7987 0105 05       		.byte	0x5
 7988 0106 E302     		.uleb128 0x163
 7989 0108 1B1C0000 		.4byte	.LASF546
 7990 010c 05       		.byte	0x5
 7991 010d E502     		.uleb128 0x165
 7992 010f 1C2F0000 		.4byte	.LASF547
 7993 0113 05       		.byte	0x5
 7994 0114 E602     		.uleb128 0x166
 7995 0116 B7380000 		.4byte	.LASF548
 7996 011a 05       		.byte	0x5
 7997 011b E802     		.uleb128 0x168
 7998 011d 45730000 		.4byte	.LASF549
 7999 0121 05       		.byte	0x5
 8000 0122 E902     		.uleb128 0x169
 8001 0124 9F030000 		.4byte	.LASF550
 8002 0128 05       		.byte	0x5
 8003 0129 EC02     		.uleb128 0x16c
 8004 012b CC4F0000 		.4byte	.LASF551
 8005 012f 05       		.byte	0x5
 8006 0130 ED02     		.uleb128 0x16d
 8007 0132 2E770000 		.4byte	.LASF552
 8008 0136 05       		.byte	0x5
 8009 0137 EF02     		.uleb128 0x16f
 8010 0139 2A280000 		.4byte	.LASF553
 8011 013d 05       		.byte	0x5
 8012 013e F002     		.uleb128 0x170
 8013 0140 7D660000 		.4byte	.LASF554
 8014 0144 05       		.byte	0x5
 8015 0145 F202     		.uleb128 0x172
 8016 0147 BA020000 		.4byte	.LASF555
 8017 014b 05       		.byte	0x5
 8018 014c F302     		.uleb128 0x173
 8019 014e 161F0000 		.4byte	.LASF556
 8020 0152 05       		.byte	0x5
 8021 0153 F602     		.uleb128 0x176
 8022 0155 75690000 		.4byte	.LASF557
 8023 0159 05       		.byte	0x5
 8024 015a F702     		.uleb128 0x177
ARM GAS  /var/folders/9j/_txx49hn253_s3mnzkyxlj8m0000gp/T//ccgYRR5b.s 			page 163


 8025 015c 60110000 		.4byte	.LASF558
 8026 0160 05       		.byte	0x5
 8027 0161 F902     		.uleb128 0x179
 8028 0163 4B4D0000 		.4byte	.LASF559
 8029 0167 05       		.byte	0x5
 8030 0168 FA02     		.uleb128 0x17a
 8031 016a 7F060000 		.4byte	.LASF560
 8032 016e 05       		.byte	0x5
 8033 016f FD02     		.uleb128 0x17d
 8034 0171 94640000 		.4byte	.LASF561
 8035 0175 05       		.byte	0x5
 8036 0176 FE02     		.uleb128 0x17e
 8037 0178 984D0000 		.4byte	.LASF562
 8038 017c 05       		.byte	0x5
 8039 017d 9403     		.uleb128 0x194
 8040 017f 4D2B0000 		.4byte	.LASF563
 8041 0183 05       		.byte	0x5
 8042 0184 9503     		.uleb128 0x195
 8043 0186 AD6A0000 		.4byte	.LASF564
 8044 018a 05       		.byte	0x5
 8045 018b 9703     		.uleb128 0x197
 8046 018d 480B0000 		.4byte	.LASF565
 8047 0191 05       		.byte	0x5
 8048 0192 9803     		.uleb128 0x198
 8049 0194 85050000 		.4byte	.LASF566
 8050 0198 05       		.byte	0x5
 8051 0199 9A03     		.uleb128 0x19a
 8052 019b F9110000 		.4byte	.LASF567
 8053 019f 05       		.byte	0x5
 8054 01a0 9B03     		.uleb128 0x19b
 8055 01a2 A85B0000 		.4byte	.LASF568
 8056 01a6 05       		.byte	0x5
 8057 01a7 9D03     		.uleb128 0x19d
 8058 01a9 79270000 		.4byte	.LASF569
 8059 01ad 05       		.byte	0x5
 8060 01ae 9E03     		.uleb128 0x19e
 8061 01b0 B8610000 		.4byte	.LASF570
 8062 01b4 05       		.byte	0x5
 8063 01b5 A103     		.uleb128 0x1a1
 8064 01b7 A6680000 		.4byte	.LASF571
 8065 01bb 05       		.byte	0x5
 8066 01bc A203     		.uleb128 0x1a2
 8067 01be 3A600000 		.4byte	.LASF572
 8068 01c2 05       		.byte	0x5
 8069 01c3 A503     		.uleb128 0x1a5
 8070 01c5 D0530000 		.4byte	.LASF573
 8071 01c9 05       		.byte	0x5
 8072 01ca A603     		.uleb128 0x1a6
 8073 01cc 3B490000 		.4byte	.LASF574
 8074 01d0 05       		.byte	0x5
 8075 01d1 A903     		.uleb128 0x1a9
 8076 01d3 2D610000 		.4byte	.LASF575
 8077 01d7 05       		.byte	0x5
 8078 01d8 AA03     		.uleb128 0x1aa
 8079 01da C41F0000 		.4byte	.LASF576
 8080 01de 05       		.byte	0x5
 8081 01df AC03     		.uleb128 0x1ac
ARM GAS  /var/folders/9j/_txx49hn253_s3mnzkyxlj8m0000gp/T//ccgYRR5b.s 			page 164


 8082 01e1 520E0000 		.4byte	.LASF577
 8083 01e5 05       		.byte	0x5
 8084 01e6 AD03     		.uleb128 0x1ad
 8085 01e8 20700000 		.4byte	.LASF578
 8086 01ec 05       		.byte	0x5
 8087 01ed AF03     		.uleb128 0x1af
 8088 01ef D2370000 		.4byte	.LASF579
 8089 01f3 05       		.byte	0x5
 8090 01f4 B003     		.uleb128 0x1b0
 8091 01f6 93420000 		.4byte	.LASF580
 8092 01fa 05       		.byte	0x5
 8093 01fb C603     		.uleb128 0x1c6
 8094 01fd D4510000 		.4byte	.LASF581
 8095 0201 05       		.byte	0x5
 8096 0202 C703     		.uleb128 0x1c7
 8097 0204 714C0000 		.4byte	.LASF582
 8098 0208 05       		.byte	0x5
 8099 0209 C803     		.uleb128 0x1c8
 8100 020b EE000000 		.4byte	.LASF583
 8101 020f 05       		.byte	0x5
 8102 0210 C903     		.uleb128 0x1c9
 8103 0212 34780000 		.4byte	.LASF584
 8104 0216 05       		.byte	0x5
 8105 0217 CB03     		.uleb128 0x1cb
 8106 0219 1D5C0000 		.4byte	.LASF585
 8107 021d 05       		.byte	0x5
 8108 021e CC03     		.uleb128 0x1cc
 8109 0220 6B670000 		.4byte	.LASF586
 8110 0224 05       		.byte	0x5
 8111 0225 CD03     		.uleb128 0x1cd
 8112 0227 36460000 		.4byte	.LASF587
 8113 022b 05       		.byte	0x5
 8114 022c E903     		.uleb128 0x1e9
 8115 022e 8D400000 		.4byte	.LASF588
 8116 0232 05       		.byte	0x5
 8117 0233 EA03     		.uleb128 0x1ea
 8118 0235 485B0000 		.4byte	.LASF589
 8119 0239 05       		.byte	0x5
 8120 023a EB03     		.uleb128 0x1eb
 8121 023c C2450000 		.4byte	.LASF590
 8122 0240 00       		.byte	0
 8123              		.section	.debug_macro,"G",%progbits,wm4.chip.h.116.857da603c399e979152c31968de4baae,comdat
 8124              	.Ldebug_macro13:
 8125 0000 0400     		.2byte	0x4
 8126 0002 00       		.byte	0
 8127 0003 05       		.byte	0x5
 8128 0004 74       		.uleb128 0x74
 8129 0005 07740000 		.4byte	.LASF591
 8130 0009 05       		.byte	0x5
 8131 000a 75       		.uleb128 0x75
 8132 000b C6010000 		.4byte	.LASF592
 8133 000f 05       		.byte	0x5
 8134 0010 76       		.uleb128 0x76
 8135 0011 DE190000 		.4byte	.LASF593
 8136 0015 05       		.byte	0x5
 8137 0016 77       		.uleb128 0x77
 8138 0017 7E5D0000 		.4byte	.LASF594
ARM GAS  /var/folders/9j/_txx49hn253_s3mnzkyxlj8m0000gp/T//ccgYRR5b.s 			page 165


 8139 001b 05       		.byte	0x5
 8140 001c 78       		.uleb128 0x78
 8141 001d 0E750000 		.4byte	.LASF595
 8142 0021 05       		.byte	0x5
 8143 0022 79       		.uleb128 0x79
 8144 0023 84080000 		.4byte	.LASF596
 8145 0027 05       		.byte	0x5
 8146 0028 7A       		.uleb128 0x7a
 8147 0029 07060000 		.4byte	.LASF597
 8148 002d 05       		.byte	0x5
 8149 002e 7B       		.uleb128 0x7b
 8150 002f 50250000 		.4byte	.LASF598
 8151 0033 05       		.byte	0x5
 8152 0034 7C       		.uleb128 0x7c
 8153 0035 B26C0000 		.4byte	.LASF599
 8154 0039 05       		.byte	0x5
 8155 003a 7D       		.uleb128 0x7d
 8156 003b 42150000 		.4byte	.LASF600
 8157 003f 05       		.byte	0x5
 8158 0040 7E       		.uleb128 0x7e
 8159 0041 853D0000 		.4byte	.LASF601
 8160 0045 05       		.byte	0x5
 8161 0046 7F       		.uleb128 0x7f
 8162 0047 4E420000 		.4byte	.LASF602
 8163 004b 05       		.byte	0x5
 8164 004c 8001     		.uleb128 0x80
 8165 004e 224E0000 		.4byte	.LASF603
 8166 0052 05       		.byte	0x5
 8167 0053 8101     		.uleb128 0x81
 8168 0055 D4000000 		.4byte	.LASF604
 8169 0059 05       		.byte	0x5
 8170 005a 8201     		.uleb128 0x82
 8171 005c C92E0000 		.4byte	.LASF605
 8172 0060 05       		.byte	0x5
 8173 0061 8301     		.uleb128 0x83
 8174 0063 DF590000 		.4byte	.LASF606
 8175 0067 05       		.byte	0x5
 8176 0068 8401     		.uleb128 0x84
 8177 006a 332E0000 		.4byte	.LASF607
 8178 006e 05       		.byte	0x5
 8179 006f 8501     		.uleb128 0x85
 8180 0071 DE680000 		.4byte	.LASF608
 8181 0075 05       		.byte	0x5
 8182 0076 9001     		.uleb128 0x90
 8183 0078 B05C0000 		.4byte	.LASF609
 8184 007c 05       		.byte	0x5
 8185 007d 9101     		.uleb128 0x91
 8186 007f 39300000 		.4byte	.LASF610
 8187 0083 05       		.byte	0x5
 8188 0084 9301     		.uleb128 0x93
 8189 0086 8D440000 		.4byte	.LASF611
 8190 008a 05       		.byte	0x5
 8191 008b 9401     		.uleb128 0x94
 8192 008d 82320000 		.4byte	.LASF612
 8193 0091 05       		.byte	0x5
 8194 0092 9701     		.uleb128 0x97
 8195 0094 556B0000 		.4byte	.LASF613
ARM GAS  /var/folders/9j/_txx49hn253_s3mnzkyxlj8m0000gp/T//ccgYRR5b.s 			page 166


 8196 0098 05       		.byte	0x5
 8197 0099 9801     		.uleb128 0x98
 8198 009b 0F210000 		.4byte	.LASF614
 8199 009f 05       		.byte	0x5
 8200 00a0 9B01     		.uleb128 0x9b
 8201 00a2 AC2A0000 		.4byte	.LASF615
 8202 00a6 05       		.byte	0x5
 8203 00a7 9E01     		.uleb128 0x9e
 8204 00a9 805B0000 		.4byte	.LASF616
 8205 00ad 05       		.byte	0x5
 8206 00ae 9F01     		.uleb128 0x9f
 8207 00b0 526E0000 		.4byte	.LASF617
 8208 00b4 05       		.byte	0x5
 8209 00b5 A001     		.uleb128 0xa0
 8210 00b7 28360000 		.4byte	.LASF618
 8211 00bb 05       		.byte	0x5
 8212 00bc A101     		.uleb128 0xa1
 8213 00be 2F230000 		.4byte	.LASF619
 8214 00c2 05       		.byte	0x5
 8215 00c3 A201     		.uleb128 0xa2
 8216 00c5 50160000 		.4byte	.LASF620
 8217 00c9 05       		.byte	0x5
 8218 00ca A301     		.uleb128 0xa3
 8219 00cc 8C1D0000 		.4byte	.LASF621
 8220 00d0 05       		.byte	0x5
 8221 00d1 A401     		.uleb128 0xa4
 8222 00d3 9F1F0000 		.4byte	.LASF622
 8223 00d7 05       		.byte	0x5
 8224 00d8 B101     		.uleb128 0xb1
 8225 00da 59780000 		.4byte	.LASF623
 8226 00de 05       		.byte	0x5
 8227 00df B201     		.uleb128 0xb2
 8228 00e1 2A590000 		.4byte	.LASF624
 8229 00e5 05       		.byte	0x5
 8230 00e6 B301     		.uleb128 0xb3
 8231 00e8 AF310000 		.4byte	.LASF625
 8232 00ec 05       		.byte	0x5
 8233 00ed B401     		.uleb128 0xb4
 8234 00ef 452F0000 		.4byte	.LASF626
 8235 00f3 05       		.byte	0x5
 8236 00f4 B501     		.uleb128 0xb5
 8237 00f6 97240000 		.4byte	.LASF627
 8238 00fa 05       		.byte	0x5
 8239 00fb B701     		.uleb128 0xb7
 8240 00fd 0C3D0000 		.4byte	.LASF628
 8241 0101 05       		.byte	0x5
 8242 0102 B801     		.uleb128 0xb8
 8243 0104 E1120000 		.4byte	.LASF629
 8244 0108 05       		.byte	0x5
 8245 0109 BA01     		.uleb128 0xba
 8246 010b F4220000 		.4byte	.LASF630
 8247 010f 05       		.byte	0x5
 8248 0110 C101     		.uleb128 0xc1
 8249 0112 D1210000 		.4byte	.LASF631
 8250 0116 05       		.byte	0x5
 8251 0117 C401     		.uleb128 0xc4
 8252 0119 9E3B0000 		.4byte	.LASF632
ARM GAS  /var/folders/9j/_txx49hn253_s3mnzkyxlj8m0000gp/T//ccgYRR5b.s 			page 167


 8253 011d 00       		.byte	0
 8254              		.section	.debug_macro,"G",%progbits,wm4.pmu_11xx.h.33.1d6b708881441cb98d19b8bab3caa180,comdat
 8255              	.Ldebug_macro14:
 8256 0000 0400     		.2byte	0x4
 8257 0002 00       		.byte	0
 8258 0003 05       		.byte	0x5
 8259 0004 21       		.uleb128 0x21
 8260 0005 6C430000 		.4byte	.LASF633
 8261 0009 05       		.byte	0x5
 8262 000a 4D       		.uleb128 0x4d
 8263 000b EC650000 		.4byte	.LASF634
 8264 000f 05       		.byte	0x5
 8265 0010 53       		.uleb128 0x53
 8266 0011 18340000 		.4byte	.LASF635
 8267 0015 05       		.byte	0x5
 8268 0016 55       		.uleb128 0x55
 8269 0017 616F0000 		.4byte	.LASF636
 8270 001b 05       		.byte	0x5
 8271 001c 56       		.uleb128 0x56
 8272 001d 926A0000 		.4byte	.LASF637
 8273 0021 00       		.byte	0
 8274              		.section	.debug_macro,"G",%progbits,wm4.sysctl_11xx.h.33.ae61a1181e608f8409883008e291930c,comdat
 8275              	.Ldebug_macro15:
 8276 0000 0400     		.2byte	0x4
 8277 0002 00       		.byte	0
 8278 0003 05       		.byte	0x5
 8279 0004 21       		.uleb128 0x21
 8280 0005 366D0000 		.4byte	.LASF639
 8281 0009 05       		.byte	0x5
 8282 000a BC01     		.uleb128 0xbc
 8283 000c 49020000 		.4byte	.LASF640
 8284 0010 05       		.byte	0x5
 8285 0011 BD01     		.uleb128 0xbd
 8286 0013 F9070000 		.4byte	.LASF641
 8287 0017 05       		.byte	0x5
 8288 0018 BE01     		.uleb128 0xbe
 8289 001a B12E0000 		.4byte	.LASF642
 8290 001e 05       		.byte	0x5
 8291 001f BF01     		.uleb128 0xbf
 8292 0021 1E6D0000 		.4byte	.LASF643
 8293 0025 05       		.byte	0x5
 8294 0026 C001     		.uleb128 0xc0
 8295 0028 FF5E0000 		.4byte	.LASF644
 8296 002c 05       		.byte	0x5
 8297 002d C501     		.uleb128 0xc5
 8298 002f 4E170000 		.4byte	.LASF645
 8299 0033 05       		.byte	0x5
 8300 0034 A904     		.uleb128 0x229
 8301 0036 5A270000 		.4byte	.LASF646
 8302 003a 05       		.byte	0x5
 8303 003b AA04     		.uleb128 0x22a
 8304 003d C15A0000 		.4byte	.LASF647
 8305 0041 05       		.byte	0x5
 8306 0042 C904     		.uleb128 0x249
 8307 0044 306E0000 		.4byte	.LASF648
 8308 0048 05       		.byte	0x5
 8309 0049 CA04     		.uleb128 0x24a
ARM GAS  /var/folders/9j/_txx49hn253_s3mnzkyxlj8m0000gp/T//ccgYRR5b.s 			page 168


 8310 004b C7710000 		.4byte	.LASF649
 8311 004f 05       		.byte	0x5
 8312 0050 CB04     		.uleb128 0x24b
 8313 0052 0F380000 		.4byte	.LASF650
 8314 0056 05       		.byte	0x5
 8315 0057 CC04     		.uleb128 0x24c
 8316 0059 480F0000 		.4byte	.LASF651
 8317 005d 05       		.byte	0x5
 8318 005e CD04     		.uleb128 0x24d
 8319 0060 D2560000 		.4byte	.LASF652
 8320 0064 05       		.byte	0x5
 8321 0065 CE04     		.uleb128 0x24e
 8322 0067 AB3F0000 		.4byte	.LASF653
 8323 006b 05       		.byte	0x5
 8324 006c CF04     		.uleb128 0x24f
 8325 006e 4F680000 		.4byte	.LASF654
 8326 0072 05       		.byte	0x5
 8327 0073 D004     		.uleb128 0x250
 8328 0075 4C5A0000 		.4byte	.LASF655
 8329 0079 05       		.byte	0x5
 8330 007a F104     		.uleb128 0x271
 8331 007c 66470000 		.4byte	.LASF656
 8332 0080 05       		.byte	0x5
 8333 0081 F204     		.uleb128 0x272
 8334 0083 B14C0000 		.4byte	.LASF657
 8335 0087 05       		.byte	0x5
 8336 0088 F304     		.uleb128 0x273
 8337 008a E81A0000 		.4byte	.LASF658
 8338 008e 05       		.byte	0x5
 8339 008f F504     		.uleb128 0x275
 8340 0091 25450000 		.4byte	.LASF659
 8341 0095 05       		.byte	0x5
 8342 0096 F704     		.uleb128 0x277
 8343 0098 71680000 		.4byte	.LASF660
 8344 009c 05       		.byte	0x5
 8345 009d F804     		.uleb128 0x278
 8346 009f 750A0000 		.4byte	.LASF661
 8347 00a3 05       		.byte	0x5
 8348 00a4 F904     		.uleb128 0x279
 8349 00a6 E5270000 		.4byte	.LASF662
 8350 00aa 05       		.byte	0x5
 8351 00ab FA04     		.uleb128 0x27a
 8352 00ad AC4B0000 		.4byte	.LASF663
 8353 00b1 00       		.byte	0
 8354              		.section	.debug_macro,"G",%progbits,wm4.clock_11xx.h.33.23290a9e2ed919e3a6958d25130bc848,comdat
 8355              	.Ldebug_macro16:
 8356 0000 0400     		.2byte	0x4
 8357 0002 00       		.byte	0
 8358 0003 05       		.byte	0x5
 8359 0004 21       		.uleb128 0x21
 8360 0005 0D3E0000 		.4byte	.LASF664
 8361 0009 05       		.byte	0x5
 8362 000a 2D       		.uleb128 0x2d
 8363 000b 1A5F0000 		.4byte	.LASF665
 8364 000f 00       		.byte	0
 8365              		.section	.debug_macro,"G",%progbits,wm4.iocon_11xx.h.33.25e2b3cde122df23fb07b984cb4f3a93,comdat
 8366              	.Ldebug_macro17:
ARM GAS  /var/folders/9j/_txx49hn253_s3mnzkyxlj8m0000gp/T//ccgYRR5b.s 			page 169


 8367 0000 0400     		.2byte	0x4
 8368 0002 00       		.byte	0
 8369 0003 05       		.byte	0x5
 8370 0004 21       		.uleb128 0x21
 8371 0005 5D2D0000 		.4byte	.LASF666
 8372 0009 05       		.byte	0x5
 8373 000a A601     		.uleb128 0xa6
 8374 000c 28350000 		.4byte	.LASF667
 8375 0010 05       		.byte	0x5
 8376 0011 A701     		.uleb128 0xa7
 8377 0013 8B090000 		.4byte	.LASF668
 8378 0017 05       		.byte	0x5
 8379 0018 A801     		.uleb128 0xa8
 8380 001a E9180000 		.4byte	.LASF669
 8381 001e 05       		.byte	0x5
 8382 001f A901     		.uleb128 0xa9
 8383 0021 255D0000 		.4byte	.LASF670
 8384 0025 05       		.byte	0x5
 8385 0026 AA01     		.uleb128 0xaa
 8386 0028 2F4C0000 		.4byte	.LASF671
 8387 002c 05       		.byte	0x5
 8388 002d AB01     		.uleb128 0xab
 8389 002f 5E3A0000 		.4byte	.LASF672
 8390 0033 05       		.byte	0x5
 8391 0034 AC01     		.uleb128 0xac
 8392 0036 80260000 		.4byte	.LASF673
 8393 003a 05       		.byte	0x5
 8394 003b AD01     		.uleb128 0xad
 8395 003d C0110000 		.4byte	.LASF674
 8396 0041 05       		.byte	0x5
 8397 0042 AE01     		.uleb128 0xae
 8398 0044 B2640000 		.4byte	.LASF675
 8399 0048 05       		.byte	0x5
 8400 0049 AF01     		.uleb128 0xaf
 8401 004b F44D0000 		.4byte	.LASF676
 8402 004f 05       		.byte	0x5
 8403 0050 B001     		.uleb128 0xb0
 8404 0052 355F0000 		.4byte	.LASF677
 8405 0056 05       		.byte	0x5
 8406 0057 B101     		.uleb128 0xb1
 8407 0059 28710000 		.4byte	.LASF678
 8408 005d 05       		.byte	0x5
 8409 005e B201     		.uleb128 0xb2
 8410 0060 E44F0000 		.4byte	.LASF679
 8411 0064 05       		.byte	0x5
 8412 0065 B301     		.uleb128 0xb3
 8413 0067 47220000 		.4byte	.LASF680
 8414 006b 05       		.byte	0x5
 8415 006c B401     		.uleb128 0xb4
 8416 006e 8A530000 		.4byte	.LASF681
 8417 0072 05       		.byte	0x5
 8418 0073 B501     		.uleb128 0xb5
 8419 0075 6E5A0000 		.4byte	.LASF682
 8420 0079 05       		.byte	0x5
 8421 007a B601     		.uleb128 0xb6
 8422 007c D30F0000 		.4byte	.LASF683
 8423 0080 05       		.byte	0x5
ARM GAS  /var/folders/9j/_txx49hn253_s3mnzkyxlj8m0000gp/T//ccgYRR5b.s 			page 170


 8424 0081 B701     		.uleb128 0xb7
 8425 0083 8A630000 		.4byte	.LASF684
 8426 0087 05       		.byte	0x5
 8427 0088 B801     		.uleb128 0xb8
 8428 008a 78640000 		.4byte	.LASF685
 8429 008e 05       		.byte	0x5
 8430 008f B901     		.uleb128 0xb9
 8431 0091 0F650000 		.4byte	.LASF686
 8432 0095 05       		.byte	0x5
 8433 0096 BA01     		.uleb128 0xba
 8434 0098 43140000 		.4byte	.LASF687
 8435 009c 05       		.byte	0x5
 8436 009d C001     		.uleb128 0xc0
 8437 009f 650B0000 		.4byte	.LASF688
 8438 00a3 05       		.byte	0x5
 8439 00a4 C101     		.uleb128 0xc1
 8440 00a6 F2660000 		.4byte	.LASF689
 8441 00aa 05       		.byte	0x5
 8442 00ab C201     		.uleb128 0xc2
 8443 00ad 6A5F0000 		.4byte	.LASF690
 8444 00b1 05       		.byte	0x5
 8445 00b2 C301     		.uleb128 0xc3
 8446 00b4 55310000 		.4byte	.LASF691
 8447 00b8 05       		.byte	0x5
 8448 00b9 C401     		.uleb128 0xc4
 8449 00bb 4F1F0000 		.4byte	.LASF692
 8450 00bf 05       		.byte	0x5
 8451 00c0 C501     		.uleb128 0xc5
 8452 00c2 78170000 		.4byte	.LASF693
 8453 00c6 05       		.byte	0x5
 8454 00c7 C601     		.uleb128 0xc6
 8455 00c9 4D180000 		.4byte	.LASF694
 8456 00cd 05       		.byte	0x5
 8457 00ce C701     		.uleb128 0xc7
 8458 00d0 8A470000 		.4byte	.LASF695
 8459 00d4 05       		.byte	0x5
 8460 00d5 C801     		.uleb128 0xc8
 8461 00d7 13160000 		.4byte	.LASF696
 8462 00db 05       		.byte	0x5
 8463 00dc C901     		.uleb128 0xc9
 8464 00de 92540000 		.4byte	.LASF697
 8465 00e2 05       		.byte	0x5
 8466 00e3 CA01     		.uleb128 0xca
 8467 00e5 05480000 		.4byte	.LASF698
 8468 00e9 05       		.byte	0x5
 8469 00ea CB01     		.uleb128 0xcb
 8470 00ec 9B230000 		.4byte	.LASF699
 8471 00f0 05       		.byte	0x5
 8472 00f1 CC01     		.uleb128 0xcc
 8473 00f3 C8440000 		.4byte	.LASF700
 8474 00f7 05       		.byte	0x5
 8475 00f8 CD01     		.uleb128 0xcd
 8476 00fa 932A0000 		.4byte	.LASF701
 8477 00fe 05       		.byte	0x5
 8478 00ff CE01     		.uleb128 0xce
 8479 0101 CF6D0000 		.4byte	.LASF702
 8480 0105 05       		.byte	0x5
ARM GAS  /var/folders/9j/_txx49hn253_s3mnzkyxlj8m0000gp/T//ccgYRR5b.s 			page 171


 8481 0106 CF01     		.uleb128 0xcf
 8482 0108 7D6F0000 		.4byte	.LASF703
 8483 010c 05       		.byte	0x5
 8484 010d D001     		.uleb128 0xd0
 8485 010f 9C5C0000 		.4byte	.LASF704
 8486 0113 05       		.byte	0x5
 8487 0114 D101     		.uleb128 0xd1
 8488 0116 794B0000 		.4byte	.LASF705
 8489 011a 05       		.byte	0x5
 8490 011b D201     		.uleb128 0xd2
 8491 011d 343F0000 		.4byte	.LASF706
 8492 0121 05       		.byte	0x5
 8493 0122 D301     		.uleb128 0xd3
 8494 0124 0D260000 		.4byte	.LASF707
 8495 0128 05       		.byte	0x5
 8496 0129 D401     		.uleb128 0xd4
 8497 012b 48400000 		.4byte	.LASF708
 8498 012f 05       		.byte	0x5
 8499 0130 D501     		.uleb128 0xd5
 8500 0132 14520000 		.4byte	.LASF709
 8501 0136 00       		.byte	0
 8502              		.section	.debug_macro,"G",%progbits,wm4.timer_11xx.h.33.c92f50a9325789ee6a8ffd6248980d70,comdat
 8503              	.Ldebug_macro18:
 8504 0000 0400     		.2byte	0x4
 8505 0002 00       		.byte	0
 8506 0003 05       		.byte	0x5
 8507 0004 21       		.uleb128 0x21
 8508 0005 BE6D0000 		.4byte	.LASF710
 8509 0009 05       		.byte	0x5
 8510 000a 40       		.uleb128 0x40
 8511 000b 23090000 		.4byte	.LASF711
 8512 000f 05       		.byte	0x5
 8513 0010 43       		.uleb128 0x43
 8514 0011 1A370000 		.4byte	.LASF712
 8515 0015 05       		.byte	0x5
 8516 0016 45       		.uleb128 0x45
 8517 0017 8C2D0000 		.4byte	.LASF713
 8518 001b 05       		.byte	0x5
 8519 001c 48       		.uleb128 0x48
 8520 001d 880F0000 		.4byte	.LASF714
 8521 0021 05       		.byte	0x5
 8522 0022 4A       		.uleb128 0x4a
 8523 0023 4F4C0000 		.4byte	.LASF715
 8524 0027 05       		.byte	0x5
 8525 0028 4D       		.uleb128 0x4d
 8526 0029 C9200000 		.4byte	.LASF716
 8527 002d 05       		.byte	0x5
 8528 002e 4F       		.uleb128 0x4f
 8529 002f 262C0000 		.4byte	.LASF717
 8530 0033 05       		.byte	0x5
 8531 0034 51       		.uleb128 0x51
 8532 0035 3F580000 		.4byte	.LASF718
 8533 0039 05       		.byte	0x5
 8534 003a 54       		.uleb128 0x54
 8535 003b DE440000 		.4byte	.LASF719
 8536 003f 05       		.byte	0x5
 8537 0040 56       		.uleb128 0x56
ARM GAS  /var/folders/9j/_txx49hn253_s3mnzkyxlj8m0000gp/T//ccgYRR5b.s 			page 172


 8538 0041 B8430000 		.4byte	.LASF720
 8539 0045 05       		.byte	0x5
 8540 0046 58       		.uleb128 0x58
 8541 0047 46760000 		.4byte	.LASF721
 8542 004b 00       		.byte	0
 8543              		.section	.debug_macro,"G",%progbits,wm4.ring_buffer.h.33.2f271415f1f27d60350fb4738c5cbee6,comdat
 8544              	.Ldebug_macro19:
 8545 0000 0400     		.2byte	0x4
 8546 0002 00       		.byte	0
 8547 0003 05       		.byte	0x5
 8548 0004 21       		.uleb128 0x21
 8549 0005 FC500000 		.4byte	.LASF723
 8550 0009 05       		.byte	0x5
 8551 000a 3A       		.uleb128 0x3a
 8552 000b 70710000 		.4byte	.LASF724
 8553 000f 05       		.byte	0x5
 8554 0010 41       		.uleb128 0x41
 8555 0011 CE300000 		.4byte	.LASF725
 8556 0015 00       		.byte	0
 8557              		.section	.debug_macro,"G",%progbits,wm4.uart_11xx.h.98.fe68b709973730a4fba3f3ce60c5c312,comdat
 8558              	.Ldebug_macro20:
 8559 0000 0400     		.2byte	0x4
 8560 0002 00       		.byte	0
 8561 0003 05       		.byte	0x5
 8562 0004 62       		.uleb128 0x62
 8563 0005 4C2E0000 		.4byte	.LASF726
 8564 0009 05       		.byte	0x5
 8565 000a 67       		.uleb128 0x67
 8566 000b 37520000 		.4byte	.LASF727
 8567 000f 05       		.byte	0x5
 8568 0010 68       		.uleb128 0x68
 8569 0011 AB6F0000 		.4byte	.LASF728
 8570 0015 05       		.byte	0x5
 8571 0016 6D       		.uleb128 0x6d
 8572 0017 EA530000 		.4byte	.LASF729
 8573 001b 05       		.byte	0x5
 8574 001c 6E       		.uleb128 0x6e
 8575 001d 04670000 		.4byte	.LASF730
 8576 0021 05       		.byte	0x5
 8577 0022 73       		.uleb128 0x73
 8578 0023 13540000 		.4byte	.LASF731
 8579 0027 05       		.byte	0x5
 8580 0028 74       		.uleb128 0x74
 8581 0029 C0490000 		.4byte	.LASF732
 8582 002d 05       		.byte	0x5
 8583 002e 75       		.uleb128 0x75
 8584 002f 05460000 		.4byte	.LASF733
 8585 0033 05       		.byte	0x5
 8586 0034 76       		.uleb128 0x76
 8587 0035 3B560000 		.4byte	.LASF734
 8588 0039 05       		.byte	0x5
 8589 003a 77       		.uleb128 0x77
 8590 003b BC650000 		.4byte	.LASF735
 8591 003f 05       		.byte	0x5
 8592 0040 78       		.uleb128 0x78
 8593 0041 1B190000 		.4byte	.LASF736
 8594 0045 05       		.byte	0x5
ARM GAS  /var/folders/9j/_txx49hn253_s3mnzkyxlj8m0000gp/T//ccgYRR5b.s 			page 173


 8595 0046 79       		.uleb128 0x79
 8596 0047 333D0000 		.4byte	.LASF737
 8597 004b 05       		.byte	0x5
 8598 004c 7A       		.uleb128 0x7a
 8599 004d D5580000 		.4byte	.LASF738
 8600 0051 05       		.byte	0x5
 8601 0052 7B       		.uleb128 0x7b
 8602 0053 BA600000 		.4byte	.LASF739
 8603 0057 05       		.byte	0x5
 8604 0058 7C       		.uleb128 0x7c
 8605 0059 F6090000 		.4byte	.LASF740
 8606 005d 05       		.byte	0x5
 8607 005e 8101     		.uleb128 0x81
 8608 0060 295B0000 		.4byte	.LASF741
 8609 0064 05       		.byte	0x5
 8610 0065 8201     		.uleb128 0x82
 8611 0067 13320000 		.4byte	.LASF742
 8612 006b 05       		.byte	0x5
 8613 006c 8301     		.uleb128 0x83
 8614 006e 022D0000 		.4byte	.LASF743
 8615 0072 05       		.byte	0x5
 8616 0073 8401     		.uleb128 0x84
 8617 0075 75790000 		.4byte	.LASF744
 8618 0079 05       		.byte	0x5
 8619 007a 8501     		.uleb128 0x85
 8620 007c 98260000 		.4byte	.LASF745
 8621 0080 05       		.byte	0x5
 8622 0081 8801     		.uleb128 0x88
 8623 0083 63770000 		.4byte	.LASF746
 8624 0087 05       		.byte	0x5
 8625 0088 8901     		.uleb128 0x89
 8626 008a E35A0000 		.4byte	.LASF747
 8627 008e 05       		.byte	0x5
 8628 008f 8A01     		.uleb128 0x8a
 8629 0091 186A0000 		.4byte	.LASF748
 8630 0095 05       		.byte	0x5
 8631 0096 8B01     		.uleb128 0x8b
 8632 0098 0A3A0000 		.4byte	.LASF749
 8633 009c 05       		.byte	0x5
 8634 009d 8C01     		.uleb128 0x8c
 8635 009f 054F0000 		.4byte	.LASF750
 8636 00a3 05       		.byte	0x5
 8637 00a4 8D01     		.uleb128 0x8d
 8638 00a6 7D0B0000 		.4byte	.LASF751
 8639 00aa 05       		.byte	0x5
 8640 00ab 9201     		.uleb128 0x92
 8641 00ad CF180000 		.4byte	.LASF752
 8642 00b1 05       		.byte	0x5
 8643 00b2 9301     		.uleb128 0x93
 8644 00b4 95650000 		.4byte	.LASF753
 8645 00b8 05       		.byte	0x5
 8646 00b9 9401     		.uleb128 0x94
 8647 00bb 10350000 		.4byte	.LASF754
 8648 00bf 05       		.byte	0x5
 8649 00c0 9501     		.uleb128 0x95
 8650 00c2 CE640000 		.4byte	.LASF755
 8651 00c6 05       		.byte	0x5
ARM GAS  /var/folders/9j/_txx49hn253_s3mnzkyxlj8m0000gp/T//ccgYRR5b.s 			page 174


 8652 00c7 9601     		.uleb128 0x96
 8653 00c9 B3210000 		.4byte	.LASF756
 8654 00cd 05       		.byte	0x5
 8655 00ce 9801     		.uleb128 0x98
 8656 00d0 EA0D0000 		.4byte	.LASF757
 8657 00d4 05       		.byte	0x5
 8658 00d5 9B01     		.uleb128 0x9b
 8659 00d7 67310000 		.4byte	.LASF758
 8660 00db 05       		.byte	0x5
 8661 00dc 9C01     		.uleb128 0x9c
 8662 00de 8E100000 		.4byte	.LASF759
 8663 00e2 05       		.byte	0x5
 8664 00e3 9D01     		.uleb128 0x9d
 8665 00e5 F22A0000 		.4byte	.LASF760
 8666 00e9 05       		.byte	0x5
 8667 00ea 9E01     		.uleb128 0x9e
 8668 00ec CE3C0000 		.4byte	.LASF761
 8669 00f0 05       		.byte	0x5
 8670 00f1 A401     		.uleb128 0xa4
 8671 00f3 C9270000 		.4byte	.LASF762
 8672 00f7 05       		.byte	0x5
 8673 00f8 A501     		.uleb128 0xa5
 8674 00fa 525F0000 		.4byte	.LASF763
 8675 00fe 05       		.byte	0x5
 8676 00ff A601     		.uleb128 0xa6
 8677 0101 FD060000 		.4byte	.LASF764
 8678 0105 05       		.byte	0x5
 8679 0106 A701     		.uleb128 0xa7
 8680 0108 2B2A0000 		.4byte	.LASF765
 8681 010c 05       		.byte	0x5
 8682 010d A801     		.uleb128 0xa8
 8683 010f A2600000 		.4byte	.LASF766
 8684 0113 05       		.byte	0x5
 8685 0114 AB01     		.uleb128 0xab
 8686 0116 A1220000 		.4byte	.LASF767
 8687 011a 05       		.byte	0x5
 8688 011b AC01     		.uleb128 0xac
 8689 011d 22790000 		.4byte	.LASF768
 8690 0121 05       		.byte	0x5
 8691 0122 AD01     		.uleb128 0xad
 8692 0124 833B0000 		.4byte	.LASF769
 8693 0128 05       		.byte	0x5
 8694 0129 B001     		.uleb128 0xb0
 8695 012b B60D0000 		.4byte	.LASF770
 8696 012f 05       		.byte	0x5
 8697 0130 B101     		.uleb128 0xb1
 8698 0132 944C0000 		.4byte	.LASF771
 8699 0136 05       		.byte	0x5
 8700 0137 B201     		.uleb128 0xb2
 8701 0139 95450000 		.4byte	.LASF772
 8702 013d 05       		.byte	0x5
 8703 013e B301     		.uleb128 0xb3
 8704 0140 B2660000 		.4byte	.LASF773
 8705 0144 05       		.byte	0x5
 8706 0145 B401     		.uleb128 0xb4
 8707 0147 C4410000 		.4byte	.LASF774
 8708 014b 05       		.byte	0x5
ARM GAS  /var/folders/9j/_txx49hn253_s3mnzkyxlj8m0000gp/T//ccgYRR5b.s 			page 175


 8709 014c B501     		.uleb128 0xb5
 8710 014e 821F0000 		.4byte	.LASF775
 8711 0152 05       		.byte	0x5
 8712 0153 B601     		.uleb128 0xb6
 8713 0155 84030000 		.4byte	.LASF776
 8714 0159 05       		.byte	0x5
 8715 015a B701     		.uleb128 0xb7
 8716 015c 251D0000 		.4byte	.LASF777
 8717 0160 05       		.byte	0x5
 8718 0161 B801     		.uleb128 0xb8
 8719 0163 5A3F0000 		.4byte	.LASF778
 8720 0167 05       		.byte	0x5
 8721 0168 BD01     		.uleb128 0xbd
 8722 016a 2A050000 		.4byte	.LASF779
 8723 016e 05       		.byte	0x5
 8724 016f BE01     		.uleb128 0xbe
 8725 0171 A0140000 		.4byte	.LASF780
 8726 0175 05       		.byte	0x5
 8727 0176 BF01     		.uleb128 0xbf
 8728 0178 F9170000 		.4byte	.LASF781
 8729 017c 05       		.byte	0x5
 8730 017d C001     		.uleb128 0xc0
 8731 017f BC100000 		.4byte	.LASF782
 8732 0183 05       		.byte	0x5
 8733 0184 C101     		.uleb128 0xc1
 8734 0186 2F2B0000 		.4byte	.LASF783
 8735 018a 05       		.byte	0x5
 8736 018b C201     		.uleb128 0xc2
 8737 018d DA0A0000 		.4byte	.LASF784
 8738 0191 05       		.byte	0x5
 8739 0192 C701     		.uleb128 0xc7
 8740 0194 A6480000 		.4byte	.LASF785
 8741 0198 05       		.byte	0x5
 8742 0199 C801     		.uleb128 0xc8
 8743 019b D9700000 		.4byte	.LASF786
 8744 019f 05       		.byte	0x5
 8745 01a0 C901     		.uleb128 0xc9
 8746 01a2 911C0000 		.4byte	.LASF787
 8747 01a6 05       		.byte	0x5
 8748 01a7 CA01     		.uleb128 0xca
 8749 01a9 B4620000 		.4byte	.LASF788
 8750 01ad 05       		.byte	0x5
 8751 01ae CB01     		.uleb128 0xcb
 8752 01b0 8C220000 		.4byte	.LASF789
 8753 01b4 05       		.byte	0x5
 8754 01b5 CC01     		.uleb128 0xcc
 8755 01b7 62180000 		.4byte	.LASF790
 8756 01bb 05       		.byte	0x5
 8757 01bc CD01     		.uleb128 0xcd
 8758 01be CE170000 		.4byte	.LASF791
 8759 01c2 05       		.byte	0x5
 8760 01c3 CE01     		.uleb128 0xce
 8761 01c5 28160000 		.4byte	.LASF792
 8762 01c9 05       		.byte	0x5
 8763 01ca CF01     		.uleb128 0xcf
 8764 01cc 86070000 		.4byte	.LASF793
 8765 01d0 05       		.byte	0x5
ARM GAS  /var/folders/9j/_txx49hn253_s3mnzkyxlj8m0000gp/T//ccgYRR5b.s 			page 176


 8766 01d1 D001     		.uleb128 0xd0
 8767 01d3 E80C0000 		.4byte	.LASF794
 8768 01d7 05       		.byte	0x5
 8769 01d8 D101     		.uleb128 0xd1
 8770 01da B43C0000 		.4byte	.LASF795
 8771 01de 05       		.byte	0x5
 8772 01df D601     		.uleb128 0xd6
 8773 01e1 AC440000 		.4byte	.LASF796
 8774 01e5 05       		.byte	0x5
 8775 01e6 D701     		.uleb128 0xd7
 8776 01e8 FB6D0000 		.4byte	.LASF797
 8777 01ec 05       		.byte	0x5
 8778 01ed D801     		.uleb128 0xd8
 8779 01ef 73040000 		.4byte	.LASF798
 8780 01f3 05       		.byte	0x5
 8781 01f4 D901     		.uleb128 0xd9
 8782 01f6 F7400000 		.4byte	.LASF799
 8783 01fa 05       		.byte	0x5
 8784 01fb DA01     		.uleb128 0xda
 8785 01fd 017A0000 		.4byte	.LASF800
 8786 0201 05       		.byte	0x5
 8787 0202 DB01     		.uleb128 0xdb
 8788 0204 0F530000 		.4byte	.LASF801
 8789 0208 05       		.byte	0x5
 8790 0209 DC01     		.uleb128 0xdc
 8791 020b E35B0000 		.4byte	.LASF802
 8792 020f 05       		.byte	0x5
 8793 0210 DD01     		.uleb128 0xdd
 8794 0212 A0780000 		.4byte	.LASF803
 8795 0216 05       		.byte	0x5
 8796 0217 DE01     		.uleb128 0xde
 8797 0219 C3400000 		.4byte	.LASF804
 8798 021d 05       		.byte	0x5
 8799 021e E301     		.uleb128 0xe3
 8800 0220 21300000 		.4byte	.LASF805
 8801 0224 05       		.byte	0x5
 8802 0225 E401     		.uleb128 0xe4
 8803 0227 57640000 		.4byte	.LASF806
 8804 022b 05       		.byte	0x5
 8805 022c E501     		.uleb128 0xe5
 8806 022e CF5C0000 		.4byte	.LASF807
 8807 0232 05       		.byte	0x5
 8808 0233 E601     		.uleb128 0xe6
 8809 0235 BC480000 		.4byte	.LASF808
 8810 0239 05       		.byte	0x5
 8811 023a E701     		.uleb128 0xe7
 8812 023c 17260000 		.4byte	.LASF809
 8813 0240 05       		.byte	0x5
 8814 0241 E801     		.uleb128 0xe8
 8815 0243 11050000 		.4byte	.LASF810
 8816 0247 05       		.byte	0x5
 8817 0248 ED01     		.uleb128 0xed
 8818 024a A2080000 		.4byte	.LASF811
 8819 024e 05       		.byte	0x5
 8820 024f EE01     		.uleb128 0xee
 8821 0251 16110000 		.4byte	.LASF812
 8822 0255 05       		.byte	0x5
ARM GAS  /var/folders/9j/_txx49hn253_s3mnzkyxlj8m0000gp/T//ccgYRR5b.s 			page 177


 8823 0256 EF01     		.uleb128 0xef
 8824 0258 BD2F0000 		.4byte	.LASF813
 8825 025c 05       		.byte	0x5
 8826 025d F001     		.uleb128 0xf0
 8827 025f 6A6D0000 		.4byte	.LASF814
 8828 0263 05       		.byte	0x5
 8829 0264 F201     		.uleb128 0xf2
 8830 0266 63370000 		.4byte	.LASF815
 8831 026a 05       		.byte	0x5
 8832 026b F301     		.uleb128 0xf3
 8833 026d D24C0000 		.4byte	.LASF816
 8834 0271 05       		.byte	0x5
 8835 0272 F601     		.uleb128 0xf6
 8836 0274 08290000 		.4byte	.LASF817
 8837 0278 05       		.byte	0x5
 8838 0279 FB01     		.uleb128 0xfb
 8839 027b BF1D0000 		.4byte	.LASF818
 8840 027f 05       		.byte	0x5
 8841 0280 FC01     		.uleb128 0xfc
 8842 0282 0E360000 		.4byte	.LASF819
 8843 0286 05       		.byte	0x5
 8844 0287 FD01     		.uleb128 0xfd
 8845 0289 1F740000 		.4byte	.LASF820
 8846 028d 05       		.byte	0x5
 8847 028e FE01     		.uleb128 0xfe
 8848 0290 6A1C0000 		.4byte	.LASF821
 8849 0294 05       		.byte	0x5
 8850 0295 FF01     		.uleb128 0xff
 8851 0297 6C0E0000 		.4byte	.LASF822
 8852 029b 05       		.byte	0x5
 8853 029c 8402     		.uleb128 0x104
 8854 029e 4D3D0000 		.4byte	.LASF823
 8855 02a2 05       		.byte	0x5
 8856 02a3 8902     		.uleb128 0x109
 8857 02a5 13410000 		.4byte	.LASF824
 8858 02a9 05       		.byte	0x5
 8859 02aa 8A02     		.uleb128 0x10a
 8860 02ac 0D6F0000 		.4byte	.LASF825
 8861 02b0 05       		.byte	0x5
 8862 02b1 8B02     		.uleb128 0x10b
 8863 02b3 67300000 		.4byte	.LASF826
 8864 02b7 05       		.byte	0x5
 8865 02b8 8C02     		.uleb128 0x10c
 8866 02ba E5320000 		.4byte	.LASF827
 8867 02be 05       		.byte	0x5
 8868 02bf 8D02     		.uleb128 0x10d
 8869 02c1 88300000 		.4byte	.LASF828
 8870 02c5 05       		.byte	0x5
 8871 02c6 9202     		.uleb128 0x112
 8872 02c8 D12A0000 		.4byte	.LASF829
 8873 02cc 05       		.byte	0x5
 8874 02cd 9302     		.uleb128 0x113
 8875 02cf 775C0000 		.4byte	.LASF830
 8876 02d3 05       		.byte	0x5
 8877 02d4 9402     		.uleb128 0x114
 8878 02d6 C6680000 		.4byte	.LASF831
 8879 02da 05       		.byte	0x5
ARM GAS  /var/folders/9j/_txx49hn253_s3mnzkyxlj8m0000gp/T//ccgYRR5b.s 			page 178


 8880 02db 9902     		.uleb128 0x119
 8881 02dd 300F0000 		.4byte	.LASF832
 8882 02e1 05       		.byte	0x5
 8883 02e2 9A02     		.uleb128 0x11a
 8884 02e4 74220000 		.4byte	.LASF833
 8885 02e8 05       		.byte	0x5
 8886 02e9 9F02     		.uleb128 0x11f
 8887 02eb 59590000 		.4byte	.LASF834
 8888 02ef 05       		.byte	0x5
 8889 02f0 A002     		.uleb128 0x120
 8890 02f2 EC370000 		.4byte	.LASF835
 8891 02f6 05       		.byte	0x5
 8892 02f7 A102     		.uleb128 0x121
 8893 02f9 E81E0000 		.4byte	.LASF836
 8894 02fd 05       		.byte	0x5
 8895 02fe A202     		.uleb128 0x122
 8896 0300 82590000 		.4byte	.LASF837
 8897 0304 05       		.byte	0x5
 8898 0305 A302     		.uleb128 0x123
 8899 0307 89480000 		.4byte	.LASF838
 8900 030b 05       		.byte	0x5
 8901 030c A402     		.uleb128 0x124
 8902 030e DB750000 		.4byte	.LASF839
 8903 0312 05       		.byte	0x5
 8904 0313 A502     		.uleb128 0x125
 8905 0315 C1720000 		.4byte	.LASF840
 8906 0319 00       		.byte	0
 8907              		.section	.debug_macro,"G",%progbits,wm4.wwdt_11xx.h.33.5768344983cb842df69cc91ea86cabb0,comdat
 8908              	.Ldebug_macro21:
 8909 0000 0400     		.2byte	0x4
 8910 0002 00       		.byte	0
 8911 0003 05       		.byte	0x5
 8912 0004 21       		.uleb128 0x21
 8913 0005 12100000 		.4byte	.LASF841
 8914 0009 05       		.byte	0x5
 8915 000a 4B       		.uleb128 0x4b
 8916 000b C9620000 		.4byte	.LASF842
 8917 000f 05       		.byte	0x5
 8918 0010 4D       		.uleb128 0x4d
 8919 0011 4D100000 		.4byte	.LASF843
 8920 0015 05       		.byte	0x5
 8921 0016 4F       		.uleb128 0x4f
 8922 0017 12550000 		.4byte	.LASF844
 8923 001b 05       		.byte	0x5
 8924 001c 51       		.uleb128 0x51
 8925 001d F53B0000 		.4byte	.LASF845
 8926 0021 05       		.byte	0x5
 8927 0022 53       		.uleb128 0x53
 8928 0023 BA740000 		.4byte	.LASF846
 8929 0027 05       		.byte	0x5
 8930 0028 55       		.uleb128 0x55
 8931 0029 76410000 		.4byte	.LASF847
 8932 002d 00       		.byte	0
 8933              		.section	.debug_macro,"G",%progbits,wm4.ssp_11xx.h.33.af054d3d65f4cb0c078be40bb872ec37,comdat
 8934              	.Ldebug_macro22:
 8935 0000 0400     		.2byte	0x4
 8936 0002 00       		.byte	0
ARM GAS  /var/folders/9j/_txx49hn253_s3mnzkyxlj8m0000gp/T//ccgYRR5b.s 			page 179


 8937 0003 05       		.byte	0x5
 8938 0004 21       		.uleb128 0x21
 8939 0005 562C0000 		.4byte	.LASF848
 8940 0009 05       		.byte	0x5
 8941 000a 40       		.uleb128 0x40
 8942 000b 144B0000 		.4byte	.LASF849
 8943 000f 05       		.byte	0x5
 8944 0010 42       		.uleb128 0x42
 8945 0011 60070000 		.4byte	.LASF850
 8946 0015 05       		.byte	0x5
 8947 0016 44       		.uleb128 0x44
 8948 0017 78290000 		.4byte	.LASF851
 8949 001b 05       		.byte	0x5
 8950 001c 46       		.uleb128 0x46
 8951 001d 2E270000 		.4byte	.LASF852
 8952 0021 05       		.byte	0x5
 8953 0022 49       		.uleb128 0x49
 8954 0023 053F0000 		.4byte	.LASF853
 8955 0027 05       		.byte	0x5
 8956 0028 4A       		.uleb128 0x4a
 8957 0029 59090000 		.4byte	.LASF854
 8958 002d 05       		.byte	0x5
 8959 002e 4D       		.uleb128 0x4d
 8960 002f 61210000 		.4byte	.LASF855
 8961 0033 05       		.byte	0x5
 8962 0034 4E       		.uleb128 0x4e
 8963 0035 946D0000 		.4byte	.LASF856
 8964 0039 05       		.byte	0x5
 8965 003a 51       		.uleb128 0x51
 8966 003b 961A0000 		.4byte	.LASF857
 8967 003f 05       		.byte	0x5
 8968 0040 53       		.uleb128 0x53
 8969 0041 3A110000 		.4byte	.LASF858
 8970 0045 05       		.byte	0x5
 8971 0046 55       		.uleb128 0x55
 8972 0047 3A110000 		.4byte	.LASF858
 8973 004b 05       		.byte	0x5
 8974 004c 58       		.uleb128 0x58
 8975 004d 961A0000 		.4byte	.LASF857
 8976 0051 05       		.byte	0x5
 8977 0052 5F       		.uleb128 0x5f
 8978 0053 84500000 		.4byte	.LASF859
 8979 0057 05       		.byte	0x5
 8980 0058 61       		.uleb128 0x61
 8981 0059 271B0000 		.4byte	.LASF860
 8982 005d 05       		.byte	0x5
 8983 005e 63       		.uleb128 0x63
 8984 005f 23240000 		.4byte	.LASF861
 8985 0063 05       		.byte	0x5
 8986 0064 64       		.uleb128 0x64
 8987 0065 38340000 		.4byte	.LASF862
 8988 0069 05       		.byte	0x5
 8989 006a 67       		.uleb128 0x67
 8990 006b 834B0000 		.4byte	.LASF863
 8991 006f 05       		.byte	0x5
 8992 0070 69       		.uleb128 0x69
 8993 0071 8E760000 		.4byte	.LASF864
ARM GAS  /var/folders/9j/_txx49hn253_s3mnzkyxlj8m0000gp/T//ccgYRR5b.s 			page 180


 8994 0075 05       		.byte	0x5
 8995 0076 6C       		.uleb128 0x6c
 8996 0077 71750000 		.4byte	.LASF865
 8997 007b 05       		.byte	0x5
 8998 007c 72       		.uleb128 0x72
 8999 007d 611F0000 		.4byte	.LASF866
 9000 0081 05       		.byte	0x5
 9001 0082 79       		.uleb128 0x79
 9002 0083 F7360000 		.4byte	.LASF867
 9003 0087 05       		.byte	0x5
 9004 0088 7C       		.uleb128 0x7c
 9005 0089 CB070000 		.4byte	.LASF868
 9006 008d 05       		.byte	0x5
 9007 008e C503     		.uleb128 0x1c5
 9008 0090 6D3C0000 		.4byte	.LASF869
 9009 0094 05       		.byte	0x5
 9010 0095 C603     		.uleb128 0x1c6
 9011 0097 5E320000 		.4byte	.LASF870
 9012 009b 05       		.byte	0x5
 9013 009c CF03     		.uleb128 0x1cf
 9014 009e A9190000 		.4byte	.LASF871
 9015 00a2 05       		.byte	0x5
 9016 00a3 D003     		.uleb128 0x1d0
 9017 00a5 B51C0000 		.4byte	.LASF872
 9018 00a9 05       		.byte	0x5
 9019 00aa D303     		.uleb128 0x1d3
 9020 00ac 26290000 		.4byte	.LASF873
 9021 00b0 05       		.byte	0x5
 9022 00b1 D403     		.uleb128 0x1d4
 9023 00b3 FF0B0000 		.4byte	.LASF874
 9024 00b7 00       		.byte	0
 9025              		.section	.debug_macro,"G",%progbits,wm4.error.h.38.ae74fe1dd9d19c80c505f1fda144fce8,comdat
 9026              	.Ldebug_macro23:
 9027 0000 0400     		.2byte	0x4
 9028 0002 00       		.byte	0
 9029 0003 05       		.byte	0x5
 9030 0004 26       		.uleb128 0x26
 9031 0005 07500000 		.4byte	.LASF876
 9032 0009 05       		.byte	0x5
 9033 000a 8401     		.uleb128 0x84
 9034 000c 45080000 		.4byte	.LASF877
 9035 0010 00       		.byte	0
 9036              		.section	.debug_macro,"G",%progbits,wm4.adc_11xx.h.33.6ce7433ac6b30df70a6993d01dbd513f,comdat
 9037              	.Ldebug_macro24:
 9038 0000 0400     		.2byte	0x4
 9039 0002 00       		.byte	0
 9040 0003 05       		.byte	0x5
 9041 0004 21       		.uleb128 0x21
 9042 0005 04580000 		.4byte	.LASF878
 9043 0009 05       		.byte	0x5
 9044 000a 2F       		.uleb128 0x2f
 9045 000b 80330000 		.4byte	.LASF879
 9046 000f 05       		.byte	0x5
 9047 0010 40       		.uleb128 0x40
 9048 0011 D66F0000 		.4byte	.LASF880
 9049 0015 05       		.byte	0x5
 9050 0016 41       		.uleb128 0x41
ARM GAS  /var/folders/9j/_txx49hn253_s3mnzkyxlj8m0000gp/T//ccgYRR5b.s 			page 181


 9051 0017 00490000 		.4byte	.LASF881
 9052 001b 05       		.byte	0x5
 9053 001c 43       		.uleb128 0x43
 9054 001d 01400000 		.4byte	.LASF882
 9055 0021 05       		.byte	0x5
 9056 0022 44       		.uleb128 0x44
 9057 0023 1E400000 		.4byte	.LASF883
 9058 0027 05       		.byte	0x5
 9059 0028 45       		.uleb128 0x45
 9060 0029 373B0000 		.4byte	.LASF884
 9061 002d 05       		.byte	0x5
 9062 002e 46       		.uleb128 0x46
 9063 002f 90790000 		.4byte	.LASF885
 9064 0033 05       		.byte	0x5
 9065 0034 47       		.uleb128 0x47
 9066 0035 73100000 		.4byte	.LASF886
 9067 0039 05       		.byte	0x5
 9068 003a 48       		.uleb128 0x48
 9069 003b 88720000 		.4byte	.LASF887
 9070 003f 05       		.byte	0x5
 9071 0040 49       		.uleb128 0x49
 9072 0041 5E5D0000 		.4byte	.LASF888
 9073 0045 05       		.byte	0x5
 9074 0046 4A       		.uleb128 0x4a
 9075 0047 F8190000 		.4byte	.LASF889
 9076 004b 05       		.byte	0x5
 9077 004c 4B       		.uleb128 0x4b
 9078 004d AA200000 		.4byte	.LASF890
 9079 0051 05       		.byte	0x5
 9080 0052 4C       		.uleb128 0x4c
 9081 0053 2D430000 		.4byte	.LASF891
 9082 0057 05       		.byte	0x5
 9083 0058 4D       		.uleb128 0x4d
 9084 0059 A5160000 		.4byte	.LASF892
 9085 005d 05       		.byte	0x5
 9086 005e 4E       		.uleb128 0x4e
 9087 005f 022C0000 		.4byte	.LASF893
 9088 0063 05       		.byte	0x5
 9089 0064 4F       		.uleb128 0x4f
 9090 0065 1C3C0000 		.4byte	.LASF894
 9091 0069 05       		.byte	0x5
 9092 006a 50       		.uleb128 0x50
 9093 006b DF010000 		.4byte	.LASF895
 9094 006f 05       		.byte	0x5
 9095 0070 51       		.uleb128 0x51
 9096 0071 B2760000 		.4byte	.LASF896
 9097 0075 05       		.byte	0x5
 9098 0076 52       		.uleb128 0x52
 9099 0077 7A570000 		.4byte	.LASF897
 9100 007b 00       		.byte	0
 9101              		.section	.debug_macro,"G",%progbits,wm4.i2c_11xx.h.33.2b506d1350e00a8c26e8bf006a5f9390,comdat
 9102              	.Ldebug_macro25:
 9103 0000 0400     		.2byte	0x4
 9104 0002 00       		.byte	0
 9105 0003 05       		.byte	0x5
 9106 0004 21       		.uleb128 0x21
 9107 0005 8C690000 		.4byte	.LASF899
ARM GAS  /var/folders/9j/_txx49hn253_s3mnzkyxlj8m0000gp/T//ccgYRR5b.s 			page 182


 9108 0009 05       		.byte	0x5
 9109 000a 46       		.uleb128 0x46
 9110 000b 970D0000 		.4byte	.LASF900
 9111 000f 05       		.byte	0x5
 9112 0010 47       		.uleb128 0x47
 9113 0011 E2540000 		.4byte	.LASF901
 9114 0015 05       		.byte	0x5
 9115 0016 48       		.uleb128 0x48
 9116 0017 9D1B0000 		.4byte	.LASF902
 9117 001b 05       		.byte	0x5
 9118 001c 49       		.uleb128 0x49
 9119 001d 1C670000 		.4byte	.LASF903
 9120 0021 05       		.byte	0x5
 9121 0022 4E       		.uleb128 0x4e
 9122 0023 474A0000 		.4byte	.LASF904
 9123 0027 05       		.byte	0x5
 9124 0028 53       		.uleb128 0x53
 9125 0029 37250000 		.4byte	.LASF905
 9126 002d 05       		.byte	0x5
 9127 002e 54       		.uleb128 0x54
 9128 002f C10A0000 		.4byte	.LASF906
 9129 0033 05       		.byte	0x5
 9130 0034 55       		.uleb128 0x55
 9131 0035 00000000 		.4byte	.LASF907
 9132 0039 05       		.byte	0x5
 9133 003a 56       		.uleb128 0x56
 9134 003b 7B2E0000 		.4byte	.LASF908
 9135 003f 05       		.byte	0x5
 9136 0040 57       		.uleb128 0x57
 9137 0041 370E0000 		.4byte	.LASF909
 9138 0045 05       		.byte	0x5
 9139 0046 5C       		.uleb128 0x5c
 9140 0047 E1740000 		.4byte	.LASF910
 9141 004b 05       		.byte	0x5
 9142 004c 5D       		.uleb128 0x5d
 9143 004d C90B0000 		.4byte	.LASF911
 9144 0051 05       		.byte	0x5
 9145 0052 5E       		.uleb128 0x5e
 9146 0053 B7510000 		.4byte	.LASF912
 9147 0057 05       		.byte	0x5
 9148 0058 5F       		.uleb128 0x5f
 9149 0059 3B0C0000 		.4byte	.LASF913
 9150 005d 05       		.byte	0x5
 9151 005e 60       		.uleb128 0x60
 9152 005f D8250000 		.4byte	.LASF914
 9153 0063 05       		.byte	0x5
 9154 0064 65       		.uleb128 0x65
 9155 0065 FE4A0000 		.4byte	.LASF915
 9156 0069 05       		.byte	0x5
 9157 006a 66       		.uleb128 0x66
 9158 006b 8F510000 		.4byte	.LASF916
 9159 006f 05       		.byte	0x5
 9160 0070 67       		.uleb128 0x67
 9161 0071 76400000 		.4byte	.LASF917
 9162 0075 05       		.byte	0x5
 9163 0076 68       		.uleb128 0x68
 9164 0077 83200000 		.4byte	.LASF918
ARM GAS  /var/folders/9j/_txx49hn253_s3mnzkyxlj8m0000gp/T//ccgYRR5b.s 			page 183


 9165 007b 05       		.byte	0x5
 9166 007c 69       		.uleb128 0x69
 9167 007d 104C0000 		.4byte	.LASF919
 9168 0081 05       		.byte	0x5
 9169 0082 6E       		.uleb128 0x6e
 9170 0083 B7790000 		.4byte	.LASF920
 9171 0087 05       		.byte	0x5
 9172 0088 6F       		.uleb128 0x6f
 9173 0089 E84E0000 		.4byte	.LASF921
 9174 008d 05       		.byte	0x5
 9175 008e 74       		.uleb128 0x74
 9176 008f 7C240000 		.4byte	.LASF922
 9177 0093 05       		.byte	0x5
 9178 0094 75       		.uleb128 0x75
 9179 0095 3B090000 		.4byte	.LASF923
 9180 0099 05       		.byte	0x5
 9181 009a 7A       		.uleb128 0x7a
 9182 009b A1490000 		.4byte	.LASF924
 9183 009f 05       		.byte	0x5
 9184 00a0 7B       		.uleb128 0x7b
 9185 00a1 5F330000 		.4byte	.LASF925
 9186 00a5 05       		.byte	0x5
 9187 00a6 7C       		.uleb128 0x7c
 9188 00a7 68250000 		.4byte	.LASF926
 9189 00ab 05       		.byte	0x5
 9190 00ac 7D       		.uleb128 0x7d
 9191 00ad A1410000 		.4byte	.LASF927
 9192 00b1 05       		.byte	0x5
 9193 00b2 7E       		.uleb128 0x7e
 9194 00b3 9C2F0000 		.4byte	.LASF928
 9195 00b7 05       		.byte	0x5
 9196 00b8 7F       		.uleb128 0x7f
 9197 00b9 62500000 		.4byte	.LASF929
 9198 00bd 05       		.byte	0x5
 9199 00be 8001     		.uleb128 0x80
 9200 00c0 611B0000 		.4byte	.LASF930
 9201 00c4 05       		.byte	0x5
 9202 00c5 8501     		.uleb128 0x85
 9203 00c7 9B020000 		.4byte	.LASF931
 9204 00cb 05       		.byte	0x5
 9205 00cc 8601     		.uleb128 0x86
 9206 00ce 51010000 		.4byte	.LASF932
 9207 00d2 05       		.byte	0x5
 9208 00d3 8701     		.uleb128 0x87
 9209 00d5 A12C0000 		.4byte	.LASF933
 9210 00d9 05       		.byte	0x5
 9211 00da 8801     		.uleb128 0x88
 9212 00dc 83160000 		.4byte	.LASF934
 9213 00e0 05       		.byte	0x5
 9214 00e1 8901     		.uleb128 0x89
 9215 00e3 E93C0000 		.4byte	.LASF935
 9216 00e7 05       		.byte	0x5
 9217 00e8 8A01     		.uleb128 0x8a
 9218 00ea 8B0C0000 		.4byte	.LASF936
 9219 00ee 05       		.byte	0x5
 9220 00ef 8B01     		.uleb128 0x8b
 9221 00f1 3C530000 		.4byte	.LASF937
ARM GAS  /var/folders/9j/_txx49hn253_s3mnzkyxlj8m0000gp/T//ccgYRR5b.s 			page 184


 9222 00f5 05       		.byte	0x5
 9223 00f6 9001     		.uleb128 0x90
 9224 00f8 E42D0000 		.4byte	.LASF938
 9225 00fc 05       		.byte	0x5
 9226 00fd 9101     		.uleb128 0x91
 9227 00ff 0D730000 		.4byte	.LASF939
 9228 0103 05       		.byte	0x5
 9229 0104 9301     		.uleb128 0x93
 9230 0106 544B0000 		.4byte	.LASF940
 9231 010a 05       		.byte	0x5
 9232 010b 9401     		.uleb128 0x94
 9233 010d 6B4E0000 		.4byte	.LASF941
 9234 0111 05       		.byte	0x5
 9235 0112 9601     		.uleb128 0x96
 9236 0114 AF250000 		.4byte	.LASF942
 9237 0118 05       		.byte	0x5
 9238 0119 9701     		.uleb128 0x97
 9239 011b B1750000 		.4byte	.LASF943
 9240 011f 05       		.byte	0x5
 9241 0120 9801     		.uleb128 0x98
 9242 0122 51130000 		.4byte	.LASF944
 9243 0126 05       		.byte	0x5
 9244 0127 9901     		.uleb128 0x99
 9245 0129 4D120000 		.4byte	.LASF945
 9246 012d 05       		.byte	0x5
 9247 012e 9A01     		.uleb128 0x9a
 9248 0130 D3420000 		.4byte	.LASF946
 9249 0134 05       		.byte	0x5
 9250 0135 A001     		.uleb128 0xa0
 9251 0137 2C750000 		.4byte	.LASF947
 9252 013b 05       		.byte	0x5
 9253 013c A101     		.uleb128 0xa1
 9254 013e 434E0000 		.4byte	.LASF948
 9255 0142 05       		.byte	0x5
 9256 0143 A301     		.uleb128 0xa3
 9257 0145 14180000 		.4byte	.LASF949
 9258 0149 05       		.byte	0x5
 9259 014a A401     		.uleb128 0xa4
 9260 014c 934F0000 		.4byte	.LASF950
 9261 0150 05       		.byte	0x5
 9262 0151 A501     		.uleb128 0xa5
 9263 0153 CA6E0000 		.4byte	.LASF951
 9264 0157 05       		.byte	0x5
 9265 0158 A601     		.uleb128 0xa6
 9266 015a 01300000 		.4byte	.LASF952
 9267 015e 05       		.byte	0x5
 9268 015f AB01     		.uleb128 0xab
 9269 0161 A1320000 		.4byte	.LASF953
 9270 0165 05       		.byte	0x5
 9271 0166 AC01     		.uleb128 0xac
 9272 0168 EE760000 		.4byte	.LASF954
 9273 016c 05       		.byte	0x5
 9274 016d B201     		.uleb128 0xb2
 9275 016f 66000000 		.4byte	.LASF955
 9276 0173 05       		.byte	0x5
 9277 0174 B301     		.uleb128 0xb3
 9278 0176 EE700000 		.4byte	.LASF956
ARM GAS  /var/folders/9j/_txx49hn253_s3mnzkyxlj8m0000gp/T//ccgYRR5b.s 			page 185


 9279 017a 05       		.byte	0x5
 9280 017b B401     		.uleb128 0xb4
 9281 017d 96430000 		.4byte	.LASF957
 9282 0181 05       		.byte	0x5
 9283 0182 B501     		.uleb128 0xb5
 9284 0184 6E2D0000 		.4byte	.LASF958
 9285 0188 05       		.byte	0x5
 9286 0189 BA01     		.uleb128 0xba
 9287 018b 63730000 		.4byte	.LASF959
 9288 018f 05       		.byte	0x5
 9289 0190 BF01     		.uleb128 0xbf
 9290 0192 B9630000 		.4byte	.LASF960
 9291 0196 05       		.byte	0x5
 9292 0197 C001     		.uleb128 0xc0
 9293 0199 81350000 		.4byte	.LASF961
 9294 019d 05       		.byte	0x5
 9295 019e C501     		.uleb128 0xc5
 9296 01a0 58550000 		.4byte	.LASF962
 9297 01a4 05       		.byte	0x5
 9298 01a5 CA01     		.uleb128 0xca
 9299 01a7 66700000 		.4byte	.LASF963
 9300 01ab 05       		.byte	0x5
 9301 01ac CF01     		.uleb128 0xcf
 9302 01ae A35A0000 		.4byte	.LASF964
 9303 01b2 05       		.byte	0x5
 9304 01b3 D401     		.uleb128 0xd4
 9305 01b5 80580000 		.4byte	.LASF965
 9306 01b9 05       		.byte	0x5
 9307 01ba D501     		.uleb128 0xd5
 9308 01bc 177A0000 		.4byte	.LASF966
 9309 01c0 05       		.byte	0x5
 9310 01c1 D601     		.uleb128 0xd6
 9311 01c3 8B3F0000 		.4byte	.LASF967
 9312 01c7 05       		.byte	0x5
 9313 01c8 DB01     		.uleb128 0xdb
 9314 01ca B3520000 		.4byte	.LASF968
 9315 01ce 05       		.byte	0x5
 9316 01cf DC01     		.uleb128 0xdc
 9317 01d1 A2590000 		.4byte	.LASF969
 9318 01d5 05       		.byte	0x5
 9319 01d6 DD01     		.uleb128 0xdd
 9320 01d8 3E010000 		.4byte	.LASF970
 9321 01dc 05       		.byte	0x5
 9322 01dd DE01     		.uleb128 0xde
 9323 01df 5B390000 		.4byte	.LASF971
 9324 01e3 05       		.byte	0x5
 9325 01e4 DF01     		.uleb128 0xdf
 9326 01e6 6E580000 		.4byte	.LASF972
 9327 01ea 05       		.byte	0x5
 9328 01eb E001     		.uleb128 0xe0
 9329 01ed 18280000 		.4byte	.LASF973
 9330 01f1 05       		.byte	0x5
 9331 01f2 E101     		.uleb128 0xe1
 9332 01f4 474A0000 		.4byte	.LASF904
 9333 01f8 05       		.byte	0x5
 9334 01f9 E301     		.uleb128 0xe3
 9335 01fb 2E690000 		.4byte	.LASF974
ARM GAS  /var/folders/9j/_txx49hn253_s3mnzkyxlj8m0000gp/T//ccgYRR5b.s 			page 186


 9336 01ff 05       		.byte	0x5
 9337 0200 E401     		.uleb128 0xe4
 9338 0202 F2150000 		.4byte	.LASF975
 9339 0206 05       		.byte	0x5
 9340 0207 E601     		.uleb128 0xe6
 9341 0209 B63D0000 		.4byte	.LASF976
 9342 020d 05       		.byte	0x5
 9343 020e EB01     		.uleb128 0xeb
 9344 0210 32500000 		.4byte	.LASF977
 9345 0214 05       		.byte	0x5
 9346 0215 EC01     		.uleb128 0xec
 9347 0217 1F200000 		.4byte	.LASF978
 9348 021b 00       		.byte	0
 9349              		.section	.debug_macro,"G",%progbits,wm4.ccand_11xx.h.33.99627f4b529fecdc77b0877ab6fe5266,comdat
 9350              	.Ldebug_macro26:
 9351 0000 0400     		.2byte	0x4
 9352 0002 00       		.byte	0
 9353 0003 05       		.byte	0x5
 9354 0004 21       		.uleb128 0x21
 9355 0005 94000000 		.4byte	.LASF979
 9356 0009 05       		.byte	0x5
 9357 000a 6E       		.uleb128 0x6e
 9358 000b 412D0000 		.4byte	.LASF980
 9359 000f 05       		.byte	0x5
 9360 0010 6F       		.uleb128 0x6f
 9361 0011 1B250000 		.4byte	.LASF981
 9362 0015 05       		.byte	0x5
 9363 0016 70       		.uleb128 0x70
 9364 0017 E53F0000 		.4byte	.LASF982
 9365 001b 05       		.byte	0x5
 9366 001c 71       		.uleb128 0x71
 9367 001d 72760000 		.4byte	.LASF983
 9368 0021 05       		.byte	0x5
 9369 0022 72       		.uleb128 0x72
 9370 0023 98180000 		.4byte	.LASF984
 9371 0027 05       		.byte	0x5
 9372 0028 73       		.uleb128 0x73
 9373 0029 C90E0000 		.4byte	.LASF985
 9374 002d 05       		.byte	0x5
 9375 002e 74       		.uleb128 0x74
 9376 002f 08090000 		.4byte	.LASF986
 9377 0033 05       		.byte	0x5
 9378 0034 75       		.uleb128 0x75
 9379 0035 952E0000 		.4byte	.LASF987
 9380 0039 05       		.byte	0x5
 9381 003a 76       		.uleb128 0x76
 9382 003b 26640000 		.4byte	.LASF988
 9383 003f 05       		.byte	0x5
 9384 0040 77       		.uleb128 0x77
 9385 0041 04450000 		.4byte	.LASF989
 9386 0045 05       		.byte	0x5
 9387 0046 7C       		.uleb128 0x7c
 9388 0047 371A0000 		.4byte	.LASF990
 9389 004b 05       		.byte	0x5
 9390 004c 7D       		.uleb128 0x7d
 9391 004d C4260000 		.4byte	.LASF991
 9392 0051 05       		.byte	0x5
ARM GAS  /var/folders/9j/_txx49hn253_s3mnzkyxlj8m0000gp/T//ccgYRR5b.s 			page 187


 9393 0052 7E       		.uleb128 0x7e
 9394 0053 E52F0000 		.4byte	.LASF992
 9395 0057 05       		.byte	0x5
 9396 0058 7F       		.uleb128 0x7f
 9397 0059 12770000 		.4byte	.LASF993
 9398 005d 05       		.byte	0x5
 9399 005e 9101     		.uleb128 0x91
 9400 0060 F1200000 		.4byte	.LASF994
 9401 0064 05       		.byte	0x5
 9402 0065 9201     		.uleb128 0x92
 9403 0067 D96D0000 		.4byte	.LASF995
 9404 006b 05       		.byte	0x5
 9405 006c 9301     		.uleb128 0x93
 9406 006e A1040000 		.4byte	.LASF996
 9407 0072 05       		.byte	0x5
 9408 0073 9401     		.uleb128 0x94
 9409 0075 C50C0000 		.4byte	.LASF997
 9410 0079 05       		.byte	0x5
 9411 007a 9501     		.uleb128 0x95
 9412 007c F1540000 		.4byte	.LASF998
 9413 0080 05       		.byte	0x5
 9414 0081 9601     		.uleb128 0x96
 9415 0083 35260000 		.4byte	.LASF999
 9416 0087 05       		.byte	0x5
 9417 0088 9701     		.uleb128 0x97
 9418 008a E5730000 		.4byte	.LASF1000
 9419 008e 05       		.byte	0x5
 9420 008f 9801     		.uleb128 0x98
 9421 0091 0D2B0000 		.4byte	.LASF1001
 9422 0095 05       		.byte	0x5
 9423 0096 9901     		.uleb128 0x99
 9424 0098 A6540000 		.4byte	.LASF1002
 9425 009c 05       		.byte	0x5
 9426 009d 9A01     		.uleb128 0x9a
 9427 009f 7E130000 		.4byte	.LASF1003
 9428 00a3 05       		.byte	0x5
 9429 00a4 9B01     		.uleb128 0x9b
 9430 00a6 F1160000 		.4byte	.LASF1004
 9431 00aa 05       		.byte	0x5
 9432 00ab 9C01     		.uleb128 0x9c
 9433 00ad C51E0000 		.4byte	.LASF1005
 9434 00b1 05       		.byte	0x5
 9435 00b2 9D01     		.uleb128 0x9d
 9436 00b4 0D760000 		.4byte	.LASF1006
 9437 00b8 05       		.byte	0x5
 9438 00b9 9E01     		.uleb128 0x9e
 9439 00bb DF500000 		.4byte	.LASF1007
 9440 00bf 05       		.byte	0x5
 9441 00c0 9F01     		.uleb128 0x9f
 9442 00c2 79180000 		.4byte	.LASF1008
 9443 00c6 05       		.byte	0x5
 9444 00c7 A901     		.uleb128 0xa9
 9445 00c9 A34E0000 		.4byte	.LASF1009
 9446 00cd 05       		.byte	0x5
 9447 00ce AA01     		.uleb128 0xaa
 9448 00d0 59520000 		.4byte	.LASF1010
 9449 00d4 05       		.byte	0x5
ARM GAS  /var/folders/9j/_txx49hn253_s3mnzkyxlj8m0000gp/T//ccgYRR5b.s 			page 188


 9450 00d5 AB01     		.uleb128 0xab
 9451 00d7 20220000 		.4byte	.LASF1011
 9452 00db 05       		.byte	0x5
 9453 00dc AC01     		.uleb128 0xac
 9454 00de 134E0000 		.4byte	.LASF1012
 9455 00e2 05       		.byte	0x5
 9456 00e3 AD01     		.uleb128 0xad
 9457 00e5 F5130000 		.4byte	.LASF1013
 9458 00e9 05       		.byte	0x5
 9459 00ea AE01     		.uleb128 0xae
 9460 00ec 4F3A0000 		.4byte	.LASF1014
 9461 00f0 05       		.byte	0x5
 9462 00f1 AF01     		.uleb128 0xaf
 9463 00f3 B3470000 		.4byte	.LASF1015
 9464 00f7 05       		.byte	0x5
 9465 00f8 C401     		.uleb128 0xc4
 9466 00fa 03190000 		.4byte	.LASF1016
 9467 00fe 05       		.byte	0x5
 9468 00ff C501     		.uleb128 0xc5
 9469 0101 74620000 		.4byte	.LASF1017
 9470 0105 05       		.byte	0x5
 9471 0106 C601     		.uleb128 0xc6
 9472 0108 F1560000 		.4byte	.LASF1018
 9473 010c 05       		.byte	0x5
 9474 010d C901     		.uleb128 0xc9
 9475 010f 02440000 		.4byte	.LASF1019
 9476 0113 05       		.byte	0x5
 9477 0114 CA01     		.uleb128 0xca
 9478 0116 70460000 		.4byte	.LASF1020
 9479 011a 05       		.byte	0x5
 9480 011b CB01     		.uleb128 0xcb
 9481 011d A9100000 		.4byte	.LASF1021
 9482 0121 05       		.byte	0x5
 9483 0122 E501     		.uleb128 0xe5
 9484 0124 F5260000 		.4byte	.LASF1022
 9485 0128 00       		.byte	0
 9486              		.section	.debug_line,"",%progbits
 9487              	.Ldebug_line0:
 9488 0000 BE060000 		.section	.debug_str,"MS",%progbits,1
 9488      02006803 
 9488      00000201 
 9488      FB0E0D00 
 9488      01010101 
 9489              	.LASF907:
 9490 0000 4932435F 		.ascii	"I2C_I2CONSET_STO ((0x10))\000"
 9490      4932434F 
 9490      4E534554 
 9490      5F53544F 
 9490      20282830 
 9491              	.LASF341:
 9492 001a 5F5F4758 		.ascii	"__GXX_TYPEINFO_EQUALITY_INLINE 0\000"
 9492      585F5459 
 9492      5045494E 
 9492      464F5F45 
 9492      5155414C 
 9493              	.LASF458:
 9494 003b 57494E54 		.ascii	"WINT_MIN (__WINT_MIN__)\000"
ARM GAS  /var/folders/9j/_txx49hn253_s3mnzkyxlj8m0000gp/T//ccgYRR5b.s 			page 189


 9494      5F4D494E 
 9494      20285F5F 
 9494      57494E54 
 9494      5F4D494E 
 9495              	.LASF158:
 9496 0053 5F5F4445 		.ascii	"__DECIMAL_DIG__ 17\000"
 9496      43494D41 
 9496      4C5F4449 
 9496      475F5F20 
 9496      313700
 9497              	.LASF955:
 9498 0066 4932435F 		.ascii	"I2C_I2MMCTRL_MM_ENA ((1 << 0))\000"
 9498      49324D4D 
 9498      4354524C 
 9498      5F4D4D5F 
 9498      454E4120 
 9499              	.LASF295:
 9500 0085 5F5F5548 		.ascii	"__UHA_FBIT__ 8\000"
 9500      415F4642 
 9500      49545F5F 
 9500      203800
 9501              	.LASF979:
 9502 0094 5F5F4343 		.ascii	"__CCAND_11XX_H_ \000"
 9502      414E445F 
 9502      31315858 
 9502      5F485F20 
 9502      00
 9503              	.LASF1102:
 9504 00a5 53595343 		.ascii	"SYSCTL_CLOCK_SYS\000"
 9504      544C5F43 
 9504      4C4F434B 
 9504      5F535953 
 9504      00
 9505              	.LASF111:
 9506 00b6 5F5F494E 		.ascii	"__INT_FAST32_MAX__ 2147483647\000"
 9506      545F4641 
 9506      53543332 
 9506      5F4D4158 
 9506      5F5F2032 
 9507              	.LASF604:
 9508 00d4 4C50435F 		.ascii	"LPC_IOCON_BASE 0x40044000\000"
 9508      494F434F 
 9508      4E5F4241 
 9508      53452030 
 9508      78343030 
 9509              	.LASF583:
 9510 00ee 4E564943 		.ascii	"NVIC_BASE (SCS_BASE + 0x0100UL)\000"
 9510      5F424153 
 9510      45202853 
 9510      43535F42 
 9510      41534520 
 9511              	.LASF311:
 9512 010e 5F5F4743 		.ascii	"__GCC_ATOMIC_WCHAR_T_LOCK_FREE 1\000"
 9512      435F4154 
 9512      4F4D4943 
 9512      5F574348 
 9512      41525F54 
ARM GAS  /var/folders/9j/_txx49hn253_s3mnzkyxlj8m0000gp/T//ccgYRR5b.s 			page 190


 9513              	.LASF294:
 9514 012f 5F5F5441 		.ascii	"__TA_IBIT__ 64\000"
 9514      5F494249 
 9514      545F5F20 
 9514      363400
 9515              	.LASF970:
 9516 013e 4932435F 		.ascii	"I2C_BYTE_RECV 0x02\000"
 9516      42595445 
 9516      5F524543 
 9516      56203078 
 9516      303200
 9517              	.LASF932:
 9518 0151 4932435F 		.ascii	"I2C_I2STAT_M_RX_RESTART ((0x10))\000"
 9518      49325354 
 9518      41545F4D 
 9518      5F52585F 
 9518      52455354 
 9519              	.LASF1104:
 9520 0172 53595343 		.ascii	"SYSCTL_CLOCK_RAM\000"
 9520      544C5F43 
 9520      4C4F434B 
 9520      5F52414D 
 9520      00
 9521              	.LASF187:
 9522 0183 5F5F5346 		.ascii	"__SFRACT_FBIT__ 7\000"
 9522      52414354 
 9522      5F464249 
 9522      545F5F20 
 9522      3700
 9523              	.LASF1037:
 9524 0195 73697A65 		.ascii	"sizetype\000"
 9524      74797065 
 9524      00
 9525              	.LASF72:
 9526 019e 5F5F4C4F 		.ascii	"__LONG_LONG_MAX__ 9223372036854775807LL\000"
 9526      4E475F4C 
 9526      4F4E475F 
 9526      4D41585F 
 9526      5F203932 
 9527              	.LASF592:
 9528 01c6 4C50435F 		.ascii	"LPC_WWDT_BASE 0x40004000\000"
 9528      57574454 
 9528      5F424153 
 9528      45203078 
 9528      34303030 
 9529              	.LASF895:
 9530 01df 4144435F 		.ascii	"ADC_CR_START_MCOA2 ((6UL << 24))\000"
 9530      43525F53 
 9530      54415254 
 9530      5F4D434F 
 9530      41322028 
 9531              	.LASF1164:
 9532 0200 70617373 		.ascii	"pass\000"
 9532      00
 9533              	.LASF259:
 9534 0205 5F5F4C4C 		.ascii	"__LLACCUM_MIN__ (-0X1P31LLK-0X1P31LLK)\000"
 9534      41434355 
ARM GAS  /var/folders/9j/_txx49hn253_s3mnzkyxlj8m0000gp/T//ccgYRR5b.s 			page 191


 9534      4D5F4D49 
 9534      4E5F5F20 
 9534      282D3058 
 9535              	.LASF251:
 9536 022c 5F5F4C41 		.ascii	"__LACCUM_EPSILON__ 0x1P-31LK\000"
 9536      4343554D 
 9536      5F455053 
 9536      494C4F4E 
 9536      5F5F2030 
 9537              	.LASF640:
 9538 0249 53595343 		.ascii	"SYSCTL_RST_POR (1 << 0)\000"
 9538      544C5F52 
 9538      53545F50 
 9538      4F522028 
 9538      31203C3C 
 9539              	.LASF184:
 9540 0261 5F5F4445 		.ascii	"__DEC128_MAX__ 9.999999999999999999999999999999999E"
 9540      43313238 
 9540      5F4D4158 
 9540      5F5F2039 
 9540      2E393939 
 9541 0294 36313434 		.ascii	"6144DL\000"
 9541      444C00
 9542              	.LASF931:
 9543 029b 4932435F 		.ascii	"I2C_I2STAT_M_RX_START ((0x08))\000"
 9543      49325354 
 9543      41545F4D 
 9543      5F52585F 
 9543      53544152 
 9544              	.LASF555:
 9545 02ba 5343425F 		.ascii	"SCB_SCR_SLEEPONEXIT_Pos 1\000"
 9545      5343525F 
 9545      534C4545 
 9545      504F4E45 
 9545      5849545F 
 9546              	.LASF80:
 9547 02d4 5F5F494E 		.ascii	"__INTMAX_C(c) c ## LL\000"
 9547      544D4158 
 9547      5F432863 
 9547      29206320 
 9547      2323204C 
 9548              	.LASF532:
 9549 02ea 5343425F 		.ascii	"SCB_ICSR_PENDSTCLR_Msk (1UL << SCB_ICSR_PENDSTCLR_P"
 9549      49435352 
 9549      5F50454E 
 9549      44535443 
 9549      4C525F4D 
 9550 031d 6F732900 		.ascii	"os)\000"
 9551              	.LASF245:
 9552 0321 5F5F5541 		.ascii	"__UACCUM_MAX__ 0XFFFFFFFFP-16UK\000"
 9552      4343554D 
 9552      5F4D4158 
 9552      5F5F2030 
 9552      58464646 
 9553              	.LASF172:
 9554 0341 5F5F4445 		.ascii	"__DEC32_SUBNORMAL_MIN__ 0.000001E-95DF\000"
 9554      4333325F 
ARM GAS  /var/folders/9j/_txx49hn253_s3mnzkyxlj8m0000gp/T//ccgYRR5b.s 			page 192


 9554      5355424E 
 9554      4F524D41 
 9554      4C5F4D49 
 9555              	.LASF1176:
 9556 0368 43686970 		.ascii	"Chip_UART_IRQRBHandler\000"
 9556      5F554152 
 9556      545F4952 
 9556      51524248 
 9556      616E646C 
 9557              	.LASF1126:
 9558 037f 7461696C 		.ascii	"tail\000"
 9558      00
 9559              	.LASF776:
 9560 0384 55415254 		.ascii	"UART_LCR_BREAK_EN (1 << 6)\000"
 9560      5F4C4352 
 9560      5F425245 
 9560      414B5F45 
 9560      4E202831 
 9561              	.LASF550:
 9562 039f 5343425F 		.ascii	"SCB_AIRCR_VECTCLRACTIVE_Msk (1UL << SCB_AIRCR_VECTC"
 9562      41495243 
 9562      525F5645 
 9562      4354434C 
 9562      52414354 
 9563 03d2 4C524143 		.ascii	"LRACTIVE_Pos)\000"
 9563      54495645 
 9563      5F506F73 
 9563      2900
 9564              	.LASF11:
 9565 03e0 5F5F4154 		.ascii	"__ATOMIC_CONSUME 1\000"
 9565      4F4D4943 
 9565      5F434F4E 
 9565      53554D45 
 9565      203100
 9566              	.LASF209:
 9567 03f3 5F5F4C46 		.ascii	"__LFRACT_MIN__ (-0.5LR-0.5LR)\000"
 9567      52414354 
 9567      5F4D494E 
 9567      5F5F2028 
 9567      2D302E35 
 9568              	.LASF518:
 9569 0411 5343425F 		.ascii	"SCB_CPUID_ARCHITECTURE_Msk (0xFUL << SCB_CPUID_ARCH"
 9569      43505549 
 9569      445F4152 
 9569      43484954 
 9569      45435455 
 9570 0444 49544543 		.ascii	"ITECTURE_Pos)\000"
 9570      54555245 
 9570      5F506F73 
 9570      2900
 9571              	.LASF239:
 9572 0452 5F5F4143 		.ascii	"__ACCUM_MIN__ (-0X1P15K-0X1P15K)\000"
 9572      43554D5F 
 9572      4D494E5F 
 9572      5F20282D 
 9572      30583150 
 9573              	.LASF798:
ARM GAS  /var/folders/9j/_txx49hn253_s3mnzkyxlj8m0000gp/T//ccgYRR5b.s 			page 193


 9574 0473 55415254 		.ascii	"UART_MSR_LO2HI_RI (1 << 2)\000"
 9574      5F4D5352 
 9574      5F4C4F32 
 9574      48495F52 
 9574      49202831 
 9575              	.LASF1152:
 9576 048e 43686970 		.ascii	"Chip_UART_ReadByte\000"
 9576      5F554152 
 9576      545F5265 
 9576      61644279 
 9576      746500
 9577              	.LASF996:
 9578 04a1 53444F5F 		.ascii	"SDO_ABORT_UNKNOWN_COMMAND 0x05040001UL\000"
 9578      41424F52 
 9578      545F554E 
 9578      4B4E4F57 
 9578      4E5F434F 
 9579              	.LASF535:
 9580 04c8 5343425F 		.ascii	"SCB_ICSR_ISRPENDING_Pos 22\000"
 9580      49435352 
 9580      5F495352 
 9580      50454E44 
 9580      494E475F 
 9581              	.LASF16:
 9582 04e3 5F5F5349 		.ascii	"__SIZEOF_LONG_LONG__ 8\000"
 9582      5A454F46 
 9582      5F4C4F4E 
 9582      475F4C4F 
 9582      4E475F5F 
 9583              	.LASF143:
 9584 04fa 5F5F4442 		.ascii	"__DBL_MAX_10_EXP__ 308\000"
 9584      4C5F4D41 
 9584      585F3130 
 9584      5F455850 
 9584      5F5F2033 
 9585              	.LASF810:
 9586 0511 55415254 		.ascii	"UART_ACR_BITMASK (0x307)\000"
 9586      5F414352 
 9586      5F424954 
 9586      4D41534B 
 9586      20283078 
 9587              	.LASF779:
 9588 052a 55415254 		.ascii	"UART_MCR_DTR_CTRL (1 << 0)\000"
 9588      5F4D4352 
 9588      5F445452 
 9588      5F435452 
 9588      4C202831 
 9589              	.LASF1161:
 9590 0545 43686970 		.ascii	"Chip_UART_IntEnable\000"
 9590      5F554152 
 9590      545F496E 
 9590      74456E61 
 9590      626C6500 
 9591              	.LASF265:
 9592 0559 5F5F554C 		.ascii	"__ULLACCUM_MAX__ 0XFFFFFFFFFFFFFFFFP-32ULLK\000"
 9592      4C414343 
 9592      554D5F4D 
ARM GAS  /var/folders/9j/_txx49hn253_s3mnzkyxlj8m0000gp/T//ccgYRR5b.s 			page 194


 9592      41585F5F 
 9592      20305846 
 9593              	.LASF566:
 9594 0585 53797354 		.ascii	"SysTick_CTRL_CLKSOURCE_Msk (1UL << SysTick_CTRL_CLK"
 9594      69636B5F 
 9594      4354524C 
 9594      5F434C4B 
 9594      534F5552 
 9595 05b8 534F5552 		.ascii	"SOURCE_Pos)\000"
 9595      43455F50 
 9595      6F732900 
 9596              	.LASF235:
 9597 05c4 5F5F5553 		.ascii	"__USACCUM_MAX__ 0XFFFFP-8UHK\000"
 9597      41434355 
 9597      4D5F4D41 
 9597      585F5F20 
 9597      30584646 
 9598              	.LASF169:
 9599 05e1 5F5F4445 		.ascii	"__DEC32_MIN__ 1E-95DF\000"
 9599      4333325F 
 9599      4D494E5F 
 9599      5F203145 
 9599      2D393544 
 9600              	.LASF336:
 9601 05f7 5F5F4152 		.ascii	"__ARM_NEON_FP 4\000"
 9601      4D5F4E45 
 9601      4F4E5F46 
 9601      50203400 
 9602              	.LASF597:
 9603 0607 4C50435F 		.ascii	"LPC_TIMER32_1_BASE 0x40018000\000"
 9603      54494D45 
 9603      5233325F 
 9603      315F4241 
 9603      53452030 
 9604              	.LASF272:
 9605 0625 5F5F5351 		.ascii	"__SQ_IBIT__ 0\000"
 9605      5F494249 
 9605      545F5F20 
 9605      3000
 9606              	.LASF26:
 9607 0633 5F5F4F52 		.ascii	"__ORDER_PDP_ENDIAN__ 3412\000"
 9607      4445525F 
 9607      5044505F 
 9607      454E4449 
 9607      414E5F5F 
 9608              	.LASF1121:
 9609 064d 43484950 		.ascii	"CHIP_SYSCTL_CLOCK_T\000"
 9609      5F535953 
 9609      43544C5F 
 9609      434C4F43 
 9609      4B5F5400 
 9610              	.LASF175:
 9611 0661 5F5F4445 		.ascii	"__DEC64_MAX_EXP__ 385\000"
 9611      4336345F 
 9611      4D41585F 
 9611      4558505F 
 9611      5F203338 
ARM GAS  /var/folders/9j/_txx49hn253_s3mnzkyxlj8m0000gp/T//ccgYRR5b.s 			page 195


 9612              	.LASF1080:
 9613 0677 424F4443 		.ascii	"BODCTRL\000"
 9613      54524C00 
 9614              	.LASF560:
 9615 067f 5343425F 		.ascii	"SCB_CCR_UNALIGN_TRP_Msk (1UL << SCB_CCR_UNALIGN_TRP"
 9615      4343525F 
 9615      554E414C 
 9615      49474E5F 
 9615      5452505F 
 9616 06b2 5F506F73 		.ascii	"_Pos)\000"
 9616      2900
 9617              	.LASF135:
 9618 06b8 5F5F464C 		.ascii	"__FLT_HAS_DENORM__ 1\000"
 9618      545F4841 
 9618      535F4445 
 9618      4E4F524D 
 9618      5F5F2031 
 9619              	.LASF39:
 9620 06cd 5F5F494E 		.ascii	"__INT8_TYPE__ signed char\000"
 9620      54385F54 
 9620      5950455F 
 9620      5F207369 
 9620      676E6564 
 9621              	.LASF325:
 9622 06e7 5F5F4152 		.ascii	"__ARM_ARCH_PROFILE 77\000"
 9622      4D5F4152 
 9622      43485F50 
 9622      524F4649 
 9622      4C452037 
 9623              	.LASF764:
 9624 06fd 55415254 		.ascii	"UART_LCR_WLEN6 (1 << 0)\000"
 9624      5F4C4352 
 9624      5F574C45 
 9624      4E362028 
 9624      31203C3C 
 9625              	.LASF530:
 9626 0715 5343425F 		.ascii	"SCB_ICSR_PENDSTSET_Msk (1UL << SCB_ICSR_PENDSTSET_P"
 9626      49435352 
 9626      5F50454E 
 9626      44535453 
 9626      45545F4D 
 9627 0748 6F732900 		.ascii	"os)\000"
 9628              	.LASF1110:
 9629 074c 53595343 		.ascii	"SYSCTL_CLOCK_CT16B1\000"
 9629      544C5F43 
 9629      4C4F434B 
 9629      5F435431 
 9629      36423100 
 9630              	.LASF850:
 9631 0760 5353505F 		.ascii	"SSP_CR0_FRF_SPI ((uint32_t) (0 << 4))\000"
 9631      4352305F 
 9631      4652465F 
 9631      53504920 
 9631      28287569 
 9632              	.LASF793:
 9633 0786 55415254 		.ascii	"UART_LSR_TXFE (1 << 8)\000"
 9633      5F4C5352 
ARM GAS  /var/folders/9j/_txx49hn253_s3mnzkyxlj8m0000gp/T//ccgYRR5b.s 			page 196


 9633      5F545846 
 9633      45202831 
 9633      203C3C20 
 9634              	.LASF154:
 9635 079d 5F5F4C44 		.ascii	"__LDBL_MIN_EXP__ (-1021)\000"
 9635      424C5F4D 
 9635      494E5F45 
 9635      58505F5F 
 9635      20282D31 
 9636              	.LASF152:
 9637 07b6 5F5F4C44 		.ascii	"__LDBL_MANT_DIG__ 53\000"
 9637      424C5F4D 
 9637      414E545F 
 9637      4449475F 
 9637      5F203533 
 9638              	.LASF868:
 9639 07cb 5353505F 		.ascii	"SSP_ICR_BITMASK ((uint32_t) (0x03))\000"
 9639      4943525F 
 9639      4249544D 
 9639      41534B20 
 9639      28287569 
 9640              	.LASF1155:
 9641 07ef 72656164 		.ascii	"readBytes\000"
 9641      42797465 
 9641      7300
 9642              	.LASF641:
 9643 07f9 53595343 		.ascii	"SYSCTL_RST_EXTRST (1 << 1)\000"
 9643      544C5F52 
 9643      53545F45 
 9643      58545253 
 9643      54202831 
 9644              	.LASF102:
 9645 0814 5F5F5549 		.ascii	"__UINT8_C(c) c\000"
 9645      4E54385F 
 9645      43286329 
 9645      206300
 9646              	.LASF40:
 9647 0823 5F5F494E 		.ascii	"__INT16_TYPE__ short int\000"
 9647      5431365F 
 9647      54595045 
 9647      5F5F2073 
 9647      686F7274 
 9648              	.LASF372:
 9649 083c 756E7369 		.ascii	"unsigned\000"
 9649      676E6564 
 9649      00
 9650              	.LASF877:
 9651 0845 434F4D50 		.ascii	"COMPILE_TIME_ASSERT(pred) switch(0){case 0:case pre"
 9651      494C455F 
 9651      54494D45 
 9651      5F415353 
 9651      45525428 
 9652 0878 643A3B7D 		.ascii	"d:;}\000"
 9652      00
 9653              	.LASF1183:
 9654 087d 72617465 		.ascii	"rate16\000"
 9654      313600
ARM GAS  /var/folders/9j/_txx49hn253_s3mnzkyxlj8m0000gp/T//ccgYRR5b.s 			page 197


 9655              	.LASF596:
 9656 0884 4C50435F 		.ascii	"LPC_TIMER32_0_BASE 0x40014000\000"
 9656      54494D45 
 9656      5233325F 
 9656      305F4241 
 9656      53452030 
 9657              	.LASF811:
 9658 08a2 55415254 		.ascii	"UART_RS485CTRL_NMM_EN (1 << 0)\000"
 9658      5F525334 
 9658      38354354 
 9658      524C5F4E 
 9658      4D4D5F45 
 9659              	.LASF476:
 9660 08c1 50415241 		.ascii	"PARAM_FUNCTIONALSTATE(State) ((State == DISABLE) ||"
 9660      4D5F4655 
 9660      4E435449 
 9660      4F4E414C 
 9660      53544154 
 9661 08f4 20285374 		.ascii	" (State == ENABLE))\000"
 9661      61746520 
 9661      3D3D2045 
 9661      4E41424C 
 9661      45292900 
 9662              	.LASF986:
 9663 0908 43414E5F 		.ascii	"CAN_ERROR_ACK 0x00000020UL\000"
 9663      4552524F 
 9663      525F4143 
 9663      4B203078 
 9663      30303030 
 9664              	.LASF711:
 9665 0923 54494D45 		.ascii	"TIMER_IR_CLR(n) _BIT(n)\000"
 9665      525F4952 
 9665      5F434C52 
 9665      286E2920 
 9665      5F424954 
 9666              	.LASF923:
 9667 093b 4932435F 		.ascii	"I2C_I2STAT_BUS_ERROR ((0x00))\000"
 9667      49325354 
 9667      41545F42 
 9667      55535F45 
 9667      52524F52 
 9668              	.LASF854:
 9669 0959 5353505F 		.ascii	"SSP_CR0_CPOL_HI ((uint32_t) (1 << 6))\000"
 9669      4352305F 
 9669      43504F4C 
 9669      5F484920 
 9669      28287569 
 9670              	.LASF383:
 9671 097f 5F5F494E 		.ascii	"__INT8 \"hh\"\000"
 9671      54382022 
 9671      68682200 
 9672              	.LASF668:
 9673 098b 494F434F 		.ascii	"IOCON_FUNC1 0x1\000"
 9673      4E5F4655 
 9673      4E433120 
 9673      30783100 
 9674              	.LASF421:
ARM GAS  /var/folders/9j/_txx49hn253_s3mnzkyxlj8m0000gp/T//ccgYRR5b.s 			page 198


 9675 099b 494E545F 		.ascii	"INT_LEAST16_MAX (__INT_LEAST16_MAX__)\000"
 9675      4C454153 
 9675      5431365F 
 9675      4D415820 
 9675      285F5F49 
 9676              	.LASF1:
 9677 09c1 5F5F5354 		.ascii	"__STDC_HOSTED__ 1\000"
 9677      44435F48 
 9677      4F535445 
 9677      445F5F20 
 9677      3100
 9678              	.LASF222:
 9679 09d3 5F5F554C 		.ascii	"__ULLFRACT_FBIT__ 64\000"
 9679      4C465241 
 9679      43545F46 
 9679      4249545F 
 9679      5F203634 
 9680              	.LASF268:
 9681 09e8 5F5F5151 		.ascii	"__QQ_IBIT__ 0\000"
 9681      5F494249 
 9681      545F5F20 
 9681      3000
 9682              	.LASF740:
 9683 09f6 55415254 		.ascii	"UART2_IER_BITMASK (0x38F)\000"
 9683      325F4945 
 9683      525F4249 
 9683      544D4153 
 9683      4B202830 
 9684              	.LASF1145:
 9685 0a10 636F6E66 		.ascii	"config\000"
 9685      696700
 9686              	.LASF1068:
 9687 0a17 55534243 		.ascii	"USBCLKDIV\000"
 9687      4C4B4449 
 9687      5600
 9688              	.LASF58:
 9689 0a21 5F5F494E 		.ascii	"__INT_FAST64_TYPE__ long long int\000"
 9689      545F4641 
 9689      53543634 
 9689      5F545950 
 9689      455F5F20 
 9690              	.LASF529:
 9691 0a43 5343425F 		.ascii	"SCB_ICSR_PENDSTSET_Pos 26\000"
 9691      49435352 
 9691      5F50454E 
 9691      44535453 
 9691      45545F50 
 9692              	.LASF412:
 9693 0a5d 494E5438 		.ascii	"INT8_MAX (__INT8_MAX__)\000"
 9693      5F4D4158 
 9693      20285F5F 
 9693      494E5438 
 9693      5F4D4158 
 9694              	.LASF661:
 9695 0a75 53595343 		.ascii	"SYSCTL_POWERDOWN_SYSOSC_PD (1 << 5)\000"
 9695      544C5F50 
 9695      4F574552 
ARM GAS  /var/folders/9j/_txx49hn253_s3mnzkyxlj8m0000gp/T//ccgYRR5b.s 			page 199


 9695      444F574E 
 9695      5F535953 
 9696              	.LASF376:
 9697 0a99 7369676E 		.ascii	"signed +0\000"
 9697      6564202B 
 9697      3000
 9698              	.LASF453:
 9699 0aa3 50545244 		.ascii	"PTRDIFF_MAX (__PTRDIFF_MAX__)\000"
 9699      4946465F 
 9699      4D415820 
 9699      285F5F50 
 9699      54524449 
 9700              	.LASF906:
 9701 0ac1 4932435F 		.ascii	"I2C_I2CONSET_SI ((0x08))\000"
 9701      4932434F 
 9701      4E534554 
 9701      5F534920 
 9701      28283078 
 9702              	.LASF784:
 9703 0ada 55415254 		.ascii	"UART_MCR_BITMASK (0xD3)\000"
 9703      5F4D4352 
 9703      5F424954 
 9703      4D41534B 
 9703      20283078 
 9704              	.LASF92:
 9705 0af2 5F5F5549 		.ascii	"__UINT64_MAX__ 18446744073709551615ULL\000"
 9705      4E543634 
 9705      5F4D4158 
 9705      5F5F2031 
 9705      38343436 
 9706              	.LASF487:
 9707 0b19 554E5553 		.ascii	"UNUSED(x) (void)(x)\000"
 9707      45442878 
 9707      29202876 
 9707      6F696429 
 9707      28782900 
 9708              	.LASF195:
 9709 0b2d 5F5F5553 		.ascii	"__USFRACT_MAX__ 0XFFP-8UHR\000"
 9709      46524143 
 9709      545F4D41 
 9709      585F5F20 
 9709      30584646 
 9710              	.LASF565:
 9711 0b48 53797354 		.ascii	"SysTick_CTRL_CLKSOURCE_Pos 2\000"
 9711      69636B5F 
 9711      4354524C 
 9711      5F434C4B 
 9711      534F5552 
 9712              	.LASF688:
 9713 0b65 4D445F50 		.ascii	"MD_PLN (0x0 << 3)\000"
 9713      4C4E2028 
 9713      30783020 
 9713      3C3C2033 
 9713      2900
 9714              	.LASF1177:
 9715 0b77 70525852 		.ascii	"pRXRB\000"
 9715      4200
ARM GAS  /var/folders/9j/_txx49hn253_s3mnzkyxlj8m0000gp/T//ccgYRR5b.s 			page 200


 9716              	.LASF751:
 9717 0b7d 55415254 		.ascii	"UART_IIR_INTID_MODEM (0 << 1)\000"
 9717      5F494952 
 9717      5F494E54 
 9717      49445F4D 
 9717      4F44454D 
 9718              	.LASF508:
 9719 0b9b 5F5F434F 		.ascii	"__CORE_CMFUNC_H \000"
 9719      52455F43 
 9719      4D46554E 
 9719      435F4820 
 9719      00
 9720              	.LASF543:
 9721 0bac 5343425F 		.ascii	"SCB_AIRCR_VECTKEYSTAT_Pos 16\000"
 9721      41495243 
 9721      525F5645 
 9721      43544B45 
 9721      59535441 
 9722              	.LASF911:
 9723 0bc9 4932435F 		.ascii	"I2C_I2CONCLR_SIC ((1 << 3))\000"
 9723      4932434F 
 9723      4E434C52 
 9723      5F534943 
 9723      20282831 
 9724              	.LASF539:
 9725 0be5 5343425F 		.ascii	"SCB_ICSR_VECTACTIVE_Pos 0\000"
 9725      49435352 
 9725      5F564543 
 9725      54414354 
 9725      4956455F 
 9726              	.LASF874:
 9727 0bff 5353505F 		.ascii	"SSP_MASTER_MODE SSP_CR1_MASTER_EN\000"
 9727      4D415354 
 9727      45525F4D 
 9727      4F444520 
 9727      5353505F 
 9728              	.LASF418:
 9729 0c21 494E5431 		.ascii	"INT16_MAX (__INT16_MAX__)\000"
 9729      365F4D41 
 9729      5820285F 
 9729      5F494E54 
 9729      31365F4D 
 9730              	.LASF913:
 9731 0c3b 4932435F 		.ascii	"I2C_I2CONCLR_STAC ((1 << 5))\000"
 9731      4932434F 
 9731      4E434C52 
 9731      5F535441 
 9731      43202828 
 9732              	.LASF1138:
 9733 0c58 4C50435F 		.ascii	"LPC_USART_T\000"
 9733      55534152 
 9733      545F5400 
 9734              	.LASF212:
 9735 0c64 5F5F554C 		.ascii	"__ULFRACT_FBIT__ 32\000"
 9735      46524143 
 9735      545F4642 
 9735      49545F5F 
ARM GAS  /var/folders/9j/_txx49hn253_s3mnzkyxlj8m0000gp/T//ccgYRR5b.s 			page 201


 9735      20333200 
 9736              	.LASF1189:
 9737 0c78 52696E67 		.ascii	"RingBuffer_PopMult\000"
 9737      42756666 
 9737      65725F50 
 9737      6F704D75 
 9737      6C7400
 9738              	.LASF936:
 9739 0c8b 4932435F 		.ascii	"I2C_I2STAT_M_RX_DAT_ACK ((0x50))\000"
 9739      49325354 
 9739      41545F4D 
 9739      5F52585F 
 9739      4441545F 
 9740              	.LASF406:
 9741 0cac 5F5F696E 		.ascii	"__int_fast32_t_defined 1\000"
 9741      745F6661 
 9741      73743332 
 9741      5F745F64 
 9741      6566696E 
 9742              	.LASF997:
 9743 0cc5 53444F5F 		.ascii	"SDO_ABORT_UNSUPPORTED 0x06010000UL\000"
 9743      41424F52 
 9743      545F554E 
 9743      53555050 
 9743      4F525445 
 9744              	.LASF794:
 9745 0ce8 55415254 		.ascii	"UART_LSR_BITMASK (0xFF)\000"
 9745      5F4C5352 
 9745      5F424954 
 9745      4D41534B 
 9745      20283078 
 9746              	.LASF213:
 9747 0d00 5F5F554C 		.ascii	"__ULFRACT_IBIT__ 0\000"
 9747      46524143 
 9747      545F4942 
 9747      49545F5F 
 9747      203000
 9748              	.LASF461:
 9749 0d13 494E5431 		.ascii	"INT16_C(x) __INT16_C(x)\000"
 9749      365F4328 
 9749      7829205F 
 9749      5F494E54 
 9749      31365F43 
 9750              	.LASF1184:
 9751 0d2b 61637475 		.ascii	"actualRate\000"
 9751      616C5261 
 9751      746500
 9752              	.LASF1178:
 9753 0d36 70545852 		.ascii	"pTXRB\000"
 9753      4200
 9754              	.LASF98:
 9755 0d3c 5F5F494E 		.ascii	"__INT32_C(c) c ## L\000"
 9755      5433325F 
 9755      43286329 
 9755      20632023 
 9755      23204C00 
 9756              	.LASF281:
ARM GAS  /var/folders/9j/_txx49hn253_s3mnzkyxlj8m0000gp/T//ccgYRR5b.s 			page 202


 9757 0d50 5F5F5553 		.ascii	"__USQ_FBIT__ 32\000"
 9757      515F4642 
 9757      49545F5F 
 9757      20333200 
 9758              	.LASF1111:
 9759 0d60 53595343 		.ascii	"SYSCTL_CLOCK_CT32B0\000"
 9759      544C5F43 
 9759      4C4F434B 
 9759      5F435433 
 9759      32423000 
 9760              	.LASF1112:
 9761 0d74 53595343 		.ascii	"SYSCTL_CLOCK_CT32B1\000"
 9761      544C5F43 
 9761      4C4F434B 
 9761      5F435433 
 9761      32423100 
 9762              	.LASF271:
 9763 0d88 5F5F5351 		.ascii	"__SQ_FBIT__ 31\000"
 9763      5F464249 
 9763      545F5F20 
 9763      333100
 9764              	.LASF900:
 9765 0d97 5245545F 		.ascii	"RET_SLAVE_TX 6\000"
 9765      534C4156 
 9765      455F5458 
 9765      203600
 9766              	.LASF301:
 9767 0da6 5F5F5554 		.ascii	"__UTA_FBIT__ 64\000"
 9767      415F4642 
 9767      49545F5F 
 9767      20363400 
 9768              	.LASF770:
 9769 0db6 55415254 		.ascii	"UART_LCR_PARITY_EN (1 << 3)\000"
 9769      5F4C4352 
 9769      5F504152 
 9769      4954595F 
 9769      454E2028 
 9770              	.LASF1130:
 9771 0dd2 54455231 		.ascii	"TER1\000"
 9771      00
 9772              	.LASF1137:
 9773 0dd7 54455232 		.ascii	"TER2\000"
 9773      00
 9774              	.LASF1135:
 9775 0ddc 52533438 		.ascii	"RS485ADRMATCH\000"
 9775      35414452 
 9775      4D415443 
 9775      4800
 9776              	.LASF757:
 9777 0dea 55415254 		.ascii	"UART_TX_FIFO_SIZE (16)\000"
 9777      5F54585F 
 9777      4649464F 
 9777      5F53495A 
 9777      45202831 
 9778              	.LASF279:
 9779 0e01 5F5F5548 		.ascii	"__UHQ_FBIT__ 16\000"
 9779      515F4642 
ARM GAS  /var/folders/9j/_txx49hn253_s3mnzkyxlj8m0000gp/T//ccgYRR5b.s 			page 203


 9779      49545F5F 
 9779      20313600 
 9780              	.LASF433:
 9781 0e11 494E545F 		.ascii	"INT_LEAST64_MAX (__INT_LEAST64_MAX__)\000"
 9781      4C454153 
 9781      5436345F 
 9781      4D415820 
 9781      285F5F49 
 9782              	.LASF909:
 9783 0e37 4932435F 		.ascii	"I2C_I2CONSET_I2EN ((0x40))\000"
 9783      4932434F 
 9783      4E534554 
 9783      5F493245 
 9783      4E202828 
 9784              	.LASF577:
 9785 0e52 53797354 		.ascii	"SysTick_CALIB_SKEW_Pos 30\000"
 9785      69636B5F 
 9785      43414C49 
 9785      425F534B 
 9785      45575F50 
 9786              	.LASF822:
 9787 0e6c 55415254 		.ascii	"UART_ICR_BITMASK (0x3F)\000"
 9787      5F494352 
 9787      5F424954 
 9787      4D41534B 
 9787      20283078 
 9788              	.LASF68:
 9789 0e84 5F5F5343 		.ascii	"__SCHAR_MAX__ 127\000"
 9789      4841525F 
 9789      4D41585F 
 9789      5F203132 
 9789      3700
 9790              	.LASF171:
 9791 0e96 5F5F4445 		.ascii	"__DEC32_EPSILON__ 1E-6DF\000"
 9791      4333325F 
 9791      45505349 
 9791      4C4F4E5F 
 9791      5F203145 
 9792              	.LASF456:
 9793 0eaf 57434841 		.ascii	"WCHAR_MAX (__WCHAR_MAX__)\000"
 9793      525F4D41 
 9793      5820285F 
 9793      5F574348 
 9793      41525F4D 
 9794              	.LASF985:
 9795 0ec9 43414E5F 		.ascii	"CAN_ERROR_FORM 0x00000010UL\000"
 9795      4552524F 
 9795      525F464F 
 9795      524D2030 
 9795      78303030 
 9796              	.LASF1117:
 9797 0ee5 53595343 		.ascii	"SYSCTL_CLOCK_WDT\000"
 9797      544C5F43 
 9797      4C4F434B 
 9797      5F574454 
 9797      00
 9798              	.LASF415:
ARM GAS  /var/folders/9j/_txx49hn253_s3mnzkyxlj8m0000gp/T//ccgYRR5b.s 			page 204


 9799 0ef6 494E545F 		.ascii	"INT_LEAST8_MAX (__INT_LEAST8_MAX__)\000"
 9799      4C454153 
 9799      54385F4D 
 9799      41582028 
 9799      5F5F494E 
 9800              	.LASF503:
 9801 0f1a 5F5F4153 		.ascii	"__ASM __asm\000"
 9801      4D205F5F 
 9801      61736D00 
 9802              	.LASF1029:
 9803 0f26 5F5F7569 		.ascii	"__uint8_t\000"
 9803      6E74385F 
 9803      7400
 9804              	.LASF832:
 9805 0f30 55415254 		.ascii	"UART_TER1_TXEN (1 << 7)\000"
 9805      5F544552 
 9805      315F5458 
 9805      454E2028 
 9805      31203C3C 
 9806              	.LASF651:
 9807 0f48 53595343 		.ascii	"SYSCTL_SLPWAKE_BOD_PD (1 << 3)\000"
 9807      544C5F53 
 9807      4C505741 
 9807      4B455F42 
 9807      4F445F50 
 9808              	.LASF86:
 9809 0f67 5F5F494E 		.ascii	"__INT16_MAX__ 32767\000"
 9809      5431365F 
 9809      4D41585F 
 9809      5F203332 
 9809      37363700 
 9810              	.LASF1101:
 9811 0f7b 4C50435F 		.ascii	"LPC_SYSCTL_T\000"
 9811      53595343 
 9811      544C5F54 
 9811      00
 9812              	.LASF714:
 9813 0f88 54494D45 		.ascii	"TIMER_ENABLE ((uint32_t) (1 << 0))\000"
 9813      525F454E 
 9813      41424C45 
 9813      20282875 
 9813      696E7433 
 9814              	.LASF334:
 9815 0fab 5F5F5646 		.ascii	"__VFP_FP__ 1\000"
 9815      505F4650 
 9815      5F5F2031 
 9815      00
 9816              	.LASF393:
 9817 0fb8 5F5F4C45 		.ascii	"__LEAST32 \"l\"\000"
 9817      41535433 
 9817      3220226C 
 9817      2200
 9818              	.LASF386:
 9819 0fc6 5F5F494E 		.ascii	"__INT64 \"ll\"\000"
 9819      54363420 
 9819      226C6C22 
 9819      00
ARM GAS  /var/folders/9j/_txx49hn253_s3mnzkyxlj8m0000gp/T//ccgYRR5b.s 			page 205


 9820              	.LASF683:
 9821 0fd3 494F434F 		.ascii	"IOCON_SFI2C_EN (0x0 << 8)\000"
 9821      4E5F5346 
 9821      4932435F 
 9821      454E2028 
 9821      30783020 
 9822              	.LASF79:
 9823 0fed 5F5F494E 		.ascii	"__INTMAX_MAX__ 9223372036854775807LL\000"
 9823      544D4158 
 9823      5F4D4158 
 9823      5F5F2039 
 9823      32323333 
 9824              	.LASF841:
 9825 1012 5F5F5757 		.ascii	"__WWDT_11XX_H_ \000"
 9825      44545F31 
 9825      3158585F 
 9825      485F2000 
 9826              	.LASF432:
 9827 1022 494E545F 		.ascii	"INT_LEAST64_MIN (-__INT_LEAST64_MAX__ - 1)\000"
 9827      4C454153 
 9827      5436345F 
 9827      4D494E20 
 9827      282D5F5F 
 9828              	.LASF843:
 9829 104d 57574454 		.ascii	"WWDT_WDMOD_WDEN ((uint32_t) (1 << 0))\000"
 9829      5F57444D 
 9829      4F445F57 
 9829      44454E20 
 9829      28287569 
 9830              	.LASF886:
 9831 1073 4144435F 		.ascii	"ADC_CR_BURST ((1UL << 16))\000"
 9831      43525F42 
 9831      55525354 
 9831      20282831 
 9831      554C203C 
 9832              	.LASF759:
 9833 108e 55415254 		.ascii	"UART_FCR_TRG_LEV1 (1 << 6)\000"
 9833      5F464352 
 9833      5F545247 
 9833      5F4C4556 
 9833      31202831 
 9834              	.LASF1021:
 9835 10a9 43414E5F 		.ascii	"CAN_SDOSEG_CLOSE 2\000"
 9835      53444F53 
 9835      45475F43 
 9835      4C4F5345 
 9835      203200
 9836              	.LASF782:
 9837 10bc 55415254 		.ascii	"UART_MCR_AUTO_RTS_EN (1 << 6)\000"
 9837      5F4D4352 
 9837      5F415554 
 9837      4F5F5254 
 9837      535F454E 
 9838              	.LASF1085:
 9839 10da 50494E54 		.ascii	"PINTSEL\000"
 9839      53454C00 
 9840              	.LASF120:
ARM GAS  /var/folders/9j/_txx49hn253_s3mnzkyxlj8m0000gp/T//ccgYRR5b.s 			page 206


 9841 10e2 5F5F4743 		.ascii	"__GCC_IEC_559_COMPLEX 0\000"
 9841      435F4945 
 9841      435F3535 
 9841      395F434F 
 9841      4D504C45 
 9842              	.LASF170:
 9843 10fa 5F5F4445 		.ascii	"__DEC32_MAX__ 9.999999E96DF\000"
 9843      4333325F 
 9843      4D41585F 
 9843      5F20392E 
 9843      39393939 
 9844              	.LASF812:
 9845 1116 55415254 		.ascii	"UART_RS485CTRL_RX_DIS (1 << 1)\000"
 9845      5F525334 
 9845      38354354 
 9845      524C5F52 
 9845      585F4449 
 9846              	.LASF1182:
 9847 1135 6D76616C 		.ascii	"mval\000"
 9847      00
 9848              	.LASF858:
 9849 113a 5353505F 		.ascii	"SSP_CR0_BITMASK ((uint32_t) (0xFFFF))\000"
 9849      4352305F 
 9849      4249544D 
 9849      41534B20 
 9849      28287569 
 9850              	.LASF558:
 9851 1160 5343425F 		.ascii	"SCB_CCR_STKALIGN_Msk (1UL << SCB_CCR_STKALIGN_Pos)\000"
 9851      4343525F 
 9851      53544B41 
 9851      4C49474E 
 9851      5F4D736B 
 9852              	.LASF84:
 9853 1193 5F5F5349 		.ascii	"__SIG_ATOMIC_MIN__ (-__SIG_ATOMIC_MAX__ - 1)\000"
 9853      475F4154 
 9853      4F4D4943 
 9853      5F4D494E 
 9853      5F5F2028 
 9854              	.LASF674:
 9855 11c0 494F434F 		.ascii	"IOCON_FUNC7 0x7\000"
 9855      4E5F4655 
 9855      4E433720 
 9855      30783700 
 9856              	.LASF441:
 9857 11d0 494E545F 		.ascii	"INT_FAST32_MIN (-__INT_FAST32_MAX__ - 1)\000"
 9857      46415354 
 9857      33325F4D 
 9857      494E2028 
 9857      2D5F5F49 
 9858              	.LASF567:
 9859 11f9 53797354 		.ascii	"SysTick_CTRL_TICKINT_Pos 1\000"
 9859      69636B5F 
 9859      4354524C 
 9859      5F544943 
 9859      4B494E54 
 9860              	.LASF498:
 9861 1214 5F5F434F 		.ascii	"__CORE_CM0_H_GENERIC \000"
ARM GAS  /var/folders/9j/_txx49hn253_s3mnzkyxlj8m0000gp/T//ccgYRR5b.s 			page 207


 9861      52455F43 
 9861      4D305F48 
 9861      5F47454E 
 9861      45524943 
 9862              	.LASF51:
 9863 122a 5F5F5549 		.ascii	"__UINT_LEAST8_TYPE__ unsigned char\000"
 9863      4E545F4C 
 9863      45415354 
 9863      385F5459 
 9863      50455F5F 
 9864              	.LASF945:
 9865 124d 4932435F 		.ascii	"I2C_I2STAT_S_RX_PRE_GENCALL_DAT_NACK ((0x98))\000"
 9865      49325354 
 9865      41545F53 
 9865      5F52585F 
 9865      5052455F 
 9866              	.LASF237:
 9867 127b 5F5F4143 		.ascii	"__ACCUM_FBIT__ 15\000"
 9867      43554D5F 
 9867      46424954 
 9867      5F5F2031 
 9867      3500
 9868              	.LASF355:
 9869 128d 5F5F474E 		.ascii	"__GNUC_PREREQ(maj,min) ((__GNUC__ << 16) + __GNUC_M"
 9869      55435F50 
 9869      52455245 
 9869      51286D61 
 9869      6A2C6D69 
 9870 12c0 494E4F52 		.ascii	"INOR__ >= ((maj) << 16) + (min))\000"
 9870      5F5F203E 
 9870      3D202828 
 9870      6D616A29 
 9870      203C3C20 
 9871              	.LASF629:
 9872 12e1 4C50435F 		.ascii	"LPC_CCAN ((LPC_CCAN_T *) LPC_CAN0_BASE)\000"
 9872      4343414E 
 9872      2028284C 
 9872      50435F43 
 9872      43414E5F 
 9873              	.LASF243:
 9874 1309 5F5F5541 		.ascii	"__UACCUM_IBIT__ 16\000"
 9874      4343554D 
 9874      5F494249 
 9874      545F5F20 
 9874      313600
 9875              	.LASF1028:
 9876 131c 6C6F6E67 		.ascii	"long int\000"
 9876      20696E74 
 9876      00
 9877              	.LASF116:
 9878 1325 5F5F5549 		.ascii	"__UINT_FAST64_MAX__ 18446744073709551615ULL\000"
 9878      4E545F46 
 9878      41535436 
 9878      345F4D41 
 9878      585F5F20 
 9879              	.LASF944:
 9880 1351 4932435F 		.ascii	"I2C_I2STAT_S_RX_PRE_GENCALL_DAT_ACK ((0x90))\000"
ARM GAS  /var/folders/9j/_txx49hn253_s3mnzkyxlj8m0000gp/T//ccgYRR5b.s 			page 208


 9880      49325354 
 9880      41545F53 
 9880      5F52585F 
 9880      5052455F 
 9881              	.LASF1003:
 9882 137e 53444F5F 		.ascii	"SDO_ABORT_TYPEMISMATCH 0x06070010UL\000"
 9882      41424F52 
 9882      545F5459 
 9882      50454D49 
 9882      534D4154 
 9883              	.LASF146:
 9884 13a2 5F5F4442 		.ascii	"__DBL_MIN__ ((double)2.2250738585072014e-308L)\000"
 9884      4C5F4D49 
 9884      4E5F5F20 
 9884      2828646F 
 9884      75626C65 
 9885              	.LASF442:
 9886 13d1 494E545F 		.ascii	"INT_FAST32_MAX (__INT_FAST32_MAX__)\000"
 9886      46415354 
 9886      33325F4D 
 9886      41582028 
 9886      5F5F494E 
 9887              	.LASF1013:
 9888 13f5 4F445F53 		.ascii	"OD_SEG_RO 0x40\000"
 9888      45475F52 
 9888      4F203078 
 9888      343000
 9889              	.LASF1078:
 9890 1404 50494F50 		.ascii	"PIOPORCAP\000"
 9890      4F524341 
 9890      5000
 9891              	.LASF73:
 9892 140e 5F5F5743 		.ascii	"__WCHAR_MAX__ 4294967295U\000"
 9892      4841525F 
 9892      4D41585F 
 9892      5F203432 
 9892      39343936 
 9893              	.LASF181:
 9894 1428 5F5F4445 		.ascii	"__DEC128_MIN_EXP__ (-6142)\000"
 9894      43313238 
 9894      5F4D494E 
 9894      5F455850 
 9894      5F5F2028 
 9895              	.LASF687:
 9896 1443 494F434F 		.ascii	"IOCON_OPENDRAIN_EN (0x1 << 10)\000"
 9896      4E5F4F50 
 9896      454E4452 
 9896      41494E5F 
 9896      454E2028 
 9897              	.LASF55:
 9898 1462 5F5F494E 		.ascii	"__INT_FAST8_TYPE__ int\000"
 9898      545F4641 
 9898      5354385F 
 9898      54595045 
 9898      5F5F2069 
 9899              	.LASF1051:
 9900 1479 53595350 		.ascii	"SYSPLLCLKSEL\000"
ARM GAS  /var/folders/9j/_txx49hn253_s3mnzkyxlj8m0000gp/T//ccgYRR5b.s 			page 209


 9900      4C4C434C 
 9900      4B53454C 
 9900      00
 9901              	.LASF299:
 9902 1486 5F5F5544 		.ascii	"__UDA_FBIT__ 32\000"
 9902      415F4642 
 9902      49545F5F 
 9902      20333200 
 9903              	.LASF1071:
 9904 1496 57445443 		.ascii	"WDTCLKUEN\000"
 9904      4C4B5545 
 9904      4E00
 9905              	.LASF780:
 9906 14a0 55415254 		.ascii	"UART_MCR_RTS_CTRL (1 << 1)\000"
 9906      5F4D4352 
 9906      5F525453 
 9906      5F435452 
 9906      4C202831 
 9907              	.LASF82:
 9908 14bb 5F5F5549 		.ascii	"__UINTMAX_C(c) c ## ULL\000"
 9908      4E544D41 
 9908      585F4328 
 9908      63292063 
 9908      20232320 
 9909              	.LASF29:
 9910 14d3 5F5F5349 		.ascii	"__SIZEOF_POINTER__ 4\000"
 9910      5A454F46 
 9910      5F504F49 
 9910      4E544552 
 9910      5F5F2034 
 9911              	.LASF47:
 9912 14e8 5F5F494E 		.ascii	"__INT_LEAST8_TYPE__ signed char\000"
 9912      545F4C45 
 9912      41535438 
 9912      5F545950 
 9912      455F5F20 
 9913              	.LASF307:
 9914 1508 5F5F4743 		.ascii	"__GCC_ATOMIC_BOOL_LOCK_FREE 1\000"
 9914      435F4154 
 9914      4F4D4943 
 9914      5F424F4F 
 9914      4C5F4C4F 
 9915              	.LASF318:
 9916 1526 5F5F4743 		.ascii	"__GCC_HAVE_DWARF2_CFI_ASM 1\000"
 9916      435F4841 
 9916      56455F44 
 9916      57415246 
 9916      325F4346 
 9917              	.LASF600:
 9918 1542 4C50435F 		.ascii	"LPC_ACMP_BASE 0x40028000\000"
 9918      41434D50 
 9918      5F424153 
 9918      45203078 
 9918      34303032 
 9919              	.LASF410:
 9920 155b 55494E54 		.ascii	"UINTPTR_MAX (__UINTPTR_MAX__)\000"
 9920      5054525F 
ARM GAS  /var/folders/9j/_txx49hn253_s3mnzkyxlj8m0000gp/T//ccgYRR5b.s 			page 210


 9920      4D415820 
 9920      285F5F55 
 9920      494E5450 
 9921              	.LASF110:
 9922 1579 5F5F494E 		.ascii	"__INT_FAST16_MAX__ 2147483647\000"
 9922      545F4641 
 9922      53543136 
 9922      5F4D4158 
 9922      5F5F2032 
 9923              	.LASF1172:
 9924 1597 43686970 		.ascii	"Chip_UART_TXIntHandlerRB\000"
 9924      5F554152 
 9924      545F5458 
 9924      496E7448 
 9924      616E646C 
 9925              	.LASF337:
 9926 15b0 5F5F5448 		.ascii	"__THUMB_INTERWORK__ 1\000"
 9926      554D425F 
 9926      494E5445 
 9926      52574F52 
 9926      4B5F5F20 
 9927              	.LASF225:
 9928 15c6 5F5F554C 		.ascii	"__ULLFRACT_MAX__ 0XFFFFFFFFFFFFFFFFP-64ULLR\000"
 9928      4C465241 
 9928      43545F4D 
 9928      41585F5F 
 9928      20305846 
 9929              	.LASF975:
 9930 15f2 4932435F 		.ascii	"I2C_NAK_RECV (0x10000000 | 0x01)\000"
 9930      4E414B5F 
 9930      52454356 
 9930      20283078 
 9930      31303030 
 9931              	.LASF696:
 9932 1613 4D445F44 		.ascii	"MD_DISFIL (0x0 << 8)\000"
 9932      49534649 
 9932      4C202830 
 9932      7830203C 
 9932      3C203829 
 9933              	.LASF792:
 9934 1628 55415254 		.ascii	"UART_LSR_RXFE (1 << 7)\000"
 9934      5F4C5352 
 9934      5F525846 
 9934      45202831 
 9934      203C3C20 
 9935              	.LASF85:
 9936 163f 5F5F494E 		.ascii	"__INT8_MAX__ 127\000"
 9936      54385F4D 
 9936      41585F5F 
 9936      20313237 
 9936      00
 9937              	.LASF620:
 9938 1650 4C50435F 		.ascii	"LPC_TIMER32_0 ((LPC_TIMER_T *) LPC_TIMER32_0_BASE)\000"
 9938      54494D45 
 9938      5233325F 
 9938      30202828 
 9938      4C50435F 
ARM GAS  /var/folders/9j/_txx49hn253_s3mnzkyxlj8m0000gp/T//ccgYRR5b.s 			page 211


 9939              	.LASF934:
 9940 1683 4932435F 		.ascii	"I2C_I2STAT_M_RX_SLAR_ACK ((0x40))\000"
 9940      49325354 
 9940      41545F4D 
 9940      5F52585F 
 9940      534C4152 
 9941              	.LASF892:
 9942 16a5 4144435F 		.ascii	"ADC_CR_START_CTOUT8 ((3UL << 24))\000"
 9942      43525F53 
 9942      54415254 
 9942      5F43544F 
 9942      55543820 
 9943              	.LASF1129:
 9944 16c7 4649464F 		.ascii	"FIFOLVL\000"
 9944      4C564C00 
 9945              	.LASF37:
 9946 16cf 5F5F4348 		.ascii	"__CHAR32_TYPE__ long unsigned int\000"
 9946      41523332 
 9946      5F545950 
 9946      455F5F20 
 9946      6C6F6E67 
 9947              	.LASF1004:
 9948 16f1 53444F5F 		.ascii	"SDO_ABORT_UNKNOWNSUB 0x06090011UL\000"
 9948      41424F52 
 9948      545F554E 
 9948      4B4E4F57 
 9948      4E535542 
 9949              	.LASF475:
 9950 1713 50415241 		.ascii	"PARAM_SETSTATE(State) ((State == RESET) || (State ="
 9950      4D5F5345 
 9950      54535441 
 9950      54452853 
 9950      74617465 
 9951 1746 3D205345 		.ascii	"= SET))\000"
 9951      54292900 
 9952              	.LASF645:
 9953 174e 53595343 		.ascii	"SYSCTL_NMISRC_ENABLE ((uint32_t) 1 << 31)\000"
 9953      544C5F4E 
 9953      4D495352 
 9953      435F454E 
 9953      41424C45 
 9954              	.LASF693:
 9955 1778 4D445F49 		.ascii	"MD_INV (0x1 << 6)\000"
 9955      4E562028 
 9955      30783120 
 9955      3C3C2036 
 9955      2900
 9956              	.LASF128:
 9957 178a 5F5F464C 		.ascii	"__FLT_MAX_EXP__ 128\000"
 9957      545F4D41 
 9957      585F4558 
 9957      505F5F20 
 9957      31323800 
 9958              	.LASF1125:
 9959 179e 68656164 		.ascii	"head\000"
 9959      00
 9960              	.LASF521:
ARM GAS  /var/folders/9j/_txx49hn253_s3mnzkyxlj8m0000gp/T//ccgYRR5b.s 			page 212


 9961 17a3 5343425F 		.ascii	"SCB_CPUID_REVISION_Pos 0\000"
 9961      43505549 
 9961      445F5245 
 9961      56495349 
 9961      4F4E5F50 
 9962              	.LASF1167:
 9963 17bc 43686970 		.ascii	"Chip_UART_SetBaud\000"
 9963      5F554152 
 9963      545F5365 
 9963      74426175 
 9963      6400
 9964              	.LASF791:
 9965 17ce 55415254 		.ascii	"UART_LSR_TEMT (1 << 6)\000"
 9965      5F4C5352 
 9965      5F54454D 
 9965      54202831 
 9965      203C3C20 
 9966              	.LASF19:
 9967 17e5 5F5F5349 		.ascii	"__SIZEOF_DOUBLE__ 8\000"
 9967      5A454F46 
 9967      5F444F55 
 9967      424C455F 
 9967      5F203800 
 9968              	.LASF781:
 9969 17f9 55415254 		.ascii	"UART_MCR_LOOPB_EN (1 << 4)\000"
 9969      5F4D4352 
 9969      5F4C4F4F 
 9969      50425F45 
 9969      4E202831 
 9970              	.LASF949:
 9971 1814 4932435F 		.ascii	"I2C_I2STAT_S_TX_DAT_ACK ((0xB8))\000"
 9971      49325354 
 9971      41545F53 
 9971      5F54585F 
 9971      4441545F 
 9972              	.LASF509:
 9973 1835 5F5F434F 		.ascii	"__CORE_CM0_H_DEPENDANT \000"
 9973      52455F43 
 9973      4D305F48 
 9973      5F444550 
 9973      454E4441 
 9974              	.LASF694:
 9975 184d 4D445F41 		.ascii	"MD_ADMODE (0x0 << 7)\000"
 9975      444D4F44 
 9975      45202830 
 9975      7830203C 
 9975      3C203729 
 9976              	.LASF790:
 9977 1862 55415254 		.ascii	"UART_LSR_THRE (1 << 5)\000"
 9977      5F4C5352 
 9977      5F544852 
 9977      45202831 
 9977      203C3C20 
 9978              	.LASF1008:
 9979 1879 53444F5F 		.ascii	"SDO_ABORT_DEVSTAT 0x08000022UL\000"
 9979      41424F52 
 9979      545F4445 
ARM GAS  /var/folders/9j/_txx49hn253_s3mnzkyxlj8m0000gp/T//ccgYRR5b.s 			page 213


 9979      56535441 
 9979      54203078 
 9980              	.LASF984:
 9981 1898 43414E5F 		.ascii	"CAN_ERROR_STUF 0x00000008UL\000"
 9981      4552524F 
 9981      525F5354 
 9981      55462030 
 9981      78303030 
 9982              	.LASF1141:
 9983 18b4 43686970 		.ascii	"Chip_Clock_SetUARTClockDiv\000"
 9983      5F436C6F 
 9983      636B5F53 
 9983      65745541 
 9983      5254436C 
 9984              	.LASF752:
 9985 18cf 55415254 		.ascii	"UART_FCR_FIFO_EN (1 << 0)\000"
 9985      5F464352 
 9985      5F464946 
 9985      4F5F454E 
 9985      20283120 
 9986              	.LASF669:
 9987 18e9 494F434F 		.ascii	"IOCON_FUNC2 0x2\000"
 9987      4E5F4655 
 9987      4E433220 
 9987      30783200 
 9988              	.LASF388:
 9989 18f9 5F5F4641 		.ascii	"__FAST16 \000"
 9989      53543136 
 9989      2000
 9990              	.LASF1016:
 9991 1903 43414E5F 		.ascii	"CAN_SDOREQ_NOTHANDLED 0\000"
 9991      53444F52 
 9991      45515F4E 
 9991      4F544841 
 9991      4E444C45 
 9992              	.LASF736:
 9993 191b 55415254 		.ascii	"UART_IER_ABEOINT (1 << 8)\000"
 9993      5F494552 
 9993      5F414245 
 9993      4F494E54 
 9993      20283120 
 9994              	.LASF177:
 9995 1935 5F5F4445 		.ascii	"__DEC64_MAX__ 9.999999999999999E384DD\000"
 9995      4336345F 
 9995      4D41585F 
 9995      5F20392E 
 9995      39393939 
 9996              	.LASF353:
 9997 195b 5F5F4E45 		.ascii	"__NEWLIB__ 2\000"
 9997      574C4942 
 9997      5F5F2032 
 9997      00
 9998              	.LASF1098:
 9999 1968 50445255 		.ascii	"PDRUNCFG\000"
 9999      4E434647 
 9999      00
 10000              	.LASF276:
ARM GAS  /var/folders/9j/_txx49hn253_s3mnzkyxlj8m0000gp/T//ccgYRR5b.s 			page 214


 10001 1971 5F5F5451 		.ascii	"__TQ_IBIT__ 0\000"
 10001      5F494249 
 10001      545F5F20 
 10001      3000
 10002              	.LASF1192:
 10003 197f 2F557365 		.ascii	"/Users/aheifetz/FSAE/ARM/PIO1_0_fail_demo\000"
 10003      72732F61 
 10003      68656966 
 10003      65747A2F 
 10003      46534145 
 10004              	.LASF871:
 10005 19a9 5353505F 		.ascii	"SSP_CPOL_HI SSP_CR0_CPOL_LO\000"
 10005      43504F4C 
 10005      5F484920 
 10005      5353505F 
 10005      4352305F 
 10006              	.LASF127:
 10007 19c5 5F5F464C 		.ascii	"__FLT_MIN_10_EXP__ (-37)\000"
 10007      545F4D49 
 10007      4E5F3130 
 10007      5F455850 
 10007      5F5F2028 
 10008              	.LASF593:
 10009 19de 4C50435F 		.ascii	"LPC_USART_BASE 0x40008000\000"
 10009      55534152 
 10009      545F4241 
 10009      53452030 
 10009      78343030 
 10010              	.LASF889:
 10011 19f8 4144435F 		.ascii	"ADC_CR_START_MODE_SEL(SEL) ((SEL << 24))\000"
 10011      43525F53 
 10011      54415254 
 10011      5F4D4F44 
 10011      455F5345 
 10012              	.LASF130:
 10013 1a21 5F5F464C 		.ascii	"__FLT_DECIMAL_DIG__ 9\000"
 10013      545F4445 
 10013      43494D41 
 10013      4C5F4449 
 10013      475F5F20 
 10014              	.LASF990:
 10015 1a37 43414E5F 		.ascii	"CAN_MSGOBJ_STD 0x00000000UL\000"
 10015      4D53474F 
 10015      424A5F53 
 10015      54442030 
 10015      78303030 
 10016              	.LASF520:
 10017 1a53 5343425F 		.ascii	"SCB_CPUID_PARTNO_Msk (0xFFFUL << SCB_CPUID_PARTNO_P"
 10017      43505549 
 10017      445F5041 
 10017      52544E4F 
 10017      5F4D736B 
 10018 1a86 6F732900 		.ascii	"os)\000"
 10019              	.LASF1024:
 10020 1a8a 7369676E 		.ascii	"signed char\000"
 10020      65642063 
 10020      68617200 
ARM GAS  /var/folders/9j/_txx49hn253_s3mnzkyxlj8m0000gp/T//ccgYRR5b.s 			page 215


 10021              	.LASF857:
 10022 1a96 5353505F 		.ascii	"SSP_CR0_SCR(n) ((uint32_t) ((n & 0xFF) << 8))\000"
 10022      4352305F 
 10022      53435228 
 10022      6E292028 
 10022      2875696E 
 10023              	.LASF1157:
 10024 1ac4 43686970 		.ascii	"Chip_UART_SetDivisorLatches\000"
 10024      5F554152 
 10024      545F5365 
 10024      74446976 
 10024      69736F72 
 10025              	.LASF1034:
 10026 1ae0 75696E74 		.ascii	"uint8_t\000"
 10026      385F7400 
 10027              	.LASF658:
 10028 1ae8 53595343 		.ascii	"SYSCTL_POWERDOWN_FLASH_PD (1 << 2)\000"
 10028      544C5F50 
 10028      4F574552 
 10028      444F574E 
 10028      5F464C41 
 10029              	.LASF1053:
 10030 1b0b 55534250 		.ascii	"USBPLLCLKSEL\000"
 10030      4C4C434C 
 10030      4B53454C 
 10030      00
 10031              	.LASF492:
 10032 1b18 43484950 		.ascii	"CHIP_LPC11CXX \000"
 10032      5F4C5043 
 10032      31314358 
 10032      582000
 10033              	.LASF860:
 10034 1b27 5353505F 		.ascii	"SSP_CR1_SSP_EN ((uint32_t) (1 << 1))\000"
 10034      4352315F 
 10034      5353505F 
 10034      454E2028 
 10034      2875696E 
 10035              	.LASF1179:
 10036 1b4c 43686970 		.ascii	"Chip_UART_SetBaudFDR\000"
 10036      5F554152 
 10036      545F5365 
 10036      74426175 
 10036      64464452 
 10037              	.LASF930:
 10038 1b61 4932435F 		.ascii	"I2C_I2STAT_M_TX_ARB_LOST ((0x38))\000"
 10038      49325354 
 10038      41545F4D 
 10038      5F54585F 
 10038      4152425F 
 10039              	.LASF455:
 10040 1b83 57434841 		.ascii	"WCHAR_MIN (__WCHAR_MIN__)\000"
 10040      525F4D49 
 10040      4E20285F 
 10040      5F574348 
 10040      41525F4D 
 10041              	.LASF902:
 10042 1b9d 5245545F 		.ascii	"RET_SLAVE_IDLE 2\000"
ARM GAS  /var/folders/9j/_txx49hn253_s3mnzkyxlj8m0000gp/T//ccgYRR5b.s 			page 216


 10042      534C4156 
 10042      455F4944 
 10042      4C452032 
 10042      00
 10043              	.LASF197:
 10044 1bae 5F5F4652 		.ascii	"__FRACT_FBIT__ 15\000"
 10044      4143545F 
 10044      46424954 
 10044      5F5F2031 
 10044      3500
 10045              	.LASF1075:
 10046 1bc0 434C4B4F 		.ascii	"CLKOUTUEN\000"
 10046      55545545 
 10046      4E00
 10047              	.LASF137:
 10048 1bca 5F5F464C 		.ascii	"__FLT_HAS_QUIET_NAN__ 1\000"
 10048      545F4841 
 10048      535F5155 
 10048      4945545F 
 10048      4E414E5F 
 10049              	.LASF480:
 10050 1be2 5F534246 		.ascii	"_SBF(f,v) ((v) << (f))\000"
 10050      28662C76 
 10050      29202828 
 10050      7629203C 
 10050      3C202866 
 10051              	.LASF310:
 10052 1bf9 5F5F4743 		.ascii	"__GCC_ATOMIC_CHAR32_T_LOCK_FREE 1\000"
 10052      435F4154 
 10052      4F4D4943 
 10052      5F434841 
 10052      5233325F 
 10053              	.LASF546:
 10054 1c1b 5343425F 		.ascii	"SCB_AIRCR_ENDIANESS_Msk (1UL << SCB_AIRCR_ENDIANESS"
 10054      41495243 
 10054      525F454E 
 10054      4449414E 
 10054      4553535F 
 10055 1c4e 5F506F73 		.ascii	"_Pos)\000"
 10055      2900
 10056              	.LASF4:
 10057 1c54 5F5F474E 		.ascii	"__GNUC_PATCHLEVEL__ 3\000"
 10057      55435F50 
 10057      41544348 
 10057      4C455645 
 10057      4C5F5F20 
 10058              	.LASF821:
 10059 1c6a 55415254 		.ascii	"UART_ICR_PULSEDIV(n) ((n & 0x07) << 3)\000"
 10059      5F494352 
 10059      5F50554C 
 10059      53454449 
 10059      56286E29 
 10060              	.LASF787:
 10061 1c91 55415254 		.ascii	"UART_LSR_PE (1 << 2)\000"
 10061      5F4C5352 
 10061      5F504520 
 10061      2831203C 
ARM GAS  /var/folders/9j/_txx49hn253_s3mnzkyxlj8m0000gp/T//ccgYRR5b.s 			page 217


 10061      3C203229 
 10062              	.LASF292:
 10063 1ca6 5F5F4441 		.ascii	"__DA_IBIT__ 32\000"
 10063      5F494249 
 10063      545F5F20 
 10063      333200
 10064              	.LASF872:
 10065 1cb5 5353505F 		.ascii	"SSP_CPOL_LO SSP_CR0_CPOL_HI\000"
 10065      43504F4C 
 10065      5F4C4F20 
 10065      5353505F 
 10065      4352305F 
 10066              	.LASF350:
 10067 1cd1 5F535444 		.ascii	"_STDINT_H \000"
 10067      494E545F 
 10067      482000
 10068              	.LASF540:
 10069 1cdc 5343425F 		.ascii	"SCB_ICSR_VECTACTIVE_Msk (0x1FFUL << SCB_ICSR_VECTAC"
 10069      49435352 
 10069      5F564543 
 10069      54414354 
 10069      4956455F 
 10070 1d0f 54495645 		.ascii	"TIVE_Pos)\000"
 10070      5F506F73 
 10070      2900
 10071              	.LASF470:
 10072 1d19 5F535444 		.ascii	"_STDBOOL_H \000"
 10072      424F4F4C 
 10072      5F482000 
 10073              	.LASF777:
 10074 1d25 55415254 		.ascii	"UART_LCR_DLAB_EN (1 << 7)\000"
 10074      5F4C4352 
 10074      5F444C41 
 10074      425F454E 
 10074      20283120 
 10075              	.LASF507:
 10076 1d3f 5F5F434F 		.ascii	"__CORE_CMINSTR_H \000"
 10076      52455F43 
 10076      4D494E53 
 10076      54525F48 
 10076      2000
 10077              	.LASF438:
 10078 1d51 494E545F 		.ascii	"INT_FAST16_MIN (-__INT_FAST16_MAX__ - 1)\000"
 10078      46415354 
 10078      31365F4D 
 10078      494E2028 
 10078      2D5F5F49 
 10079              	.LASF15:
 10080 1d7a 5F5F5349 		.ascii	"__SIZEOF_LONG__ 4\000"
 10080      5A454F46 
 10080      5F4C4F4E 
 10080      475F5F20 
 10080      3400
 10081              	.LASF621:
 10082 1d8c 4C50435F 		.ascii	"LPC_TIMER32_1 ((LPC_TIMER_T *) LPC_TIMER32_1_BASE)\000"
 10082      54494D45 
 10082      5233325F 
ARM GAS  /var/folders/9j/_txx49hn253_s3mnzkyxlj8m0000gp/T//ccgYRR5b.s 			page 218


 10082      31202828 
 10082      4C50435F 
 10083              	.LASF818:
 10084 1dbf 55415254 		.ascii	"UART_ICR_IRDAEN (1 << 0)\000"
 10084      5F494352 
 10084      5F495244 
 10084      41454E20 
 10084      2831203C 
 10085              	.LASF1131:
 10086 1dd8 52455345 		.ascii	"RESERVED0\000"
 10086      52564544 
 10086      3000
 10087              	.LASF1044:
 10088 1de2 52455345 		.ascii	"RESERVED1\000"
 10088      52564544 
 10088      3100
 10089              	.LASF1025:
 10090 1dec 756E7369 		.ascii	"unsigned char\000"
 10090      676E6564 
 10090      20636861 
 10090      7200
 10091              	.LASF1055:
 10092 1dfa 52455345 		.ascii	"RESERVED3\000"
 10092      52564544 
 10092      3300
 10093              	.LASF1059:
 10094 1e04 52455345 		.ascii	"RESERVED4\000"
 10094      52564544 
 10094      3400
 10095              	.LASF1061:
 10096 1e0e 52455345 		.ascii	"RESERVED5\000"
 10096      52564544 
 10096      3500
 10097              	.LASF1065:
 10098 1e18 52455345 		.ascii	"RESERVED6\000"
 10098      52564544 
 10098      3600
 10099              	.LASF1069:
 10100 1e22 52455345 		.ascii	"RESERVED7\000"
 10100      52564544 
 10100      3700
 10101              	.LASF1073:
 10102 1e2c 52455345 		.ascii	"RESERVED8\000"
 10102      52564544 
 10102      3800
 10103              	.LASF1077:
 10104 1e36 52455345 		.ascii	"RESERVED9\000"
 10104      52564544 
 10104      3900
 10105              	.LASF182:
 10106 1e40 5F5F4445 		.ascii	"__DEC128_MAX_EXP__ 6145\000"
 10106      43313238 
 10106      5F4D4158 
 10106      5F455850 
 10106      5F5F2036 
 10107              	.LASF119:
 10108 1e58 5F5F4743 		.ascii	"__GCC_IEC_559 0\000"
ARM GAS  /var/folders/9j/_txx49hn253_s3mnzkyxlj8m0000gp/T//ccgYRR5b.s 			page 219


 10108      435F4945 
 10108      435F3535 
 10108      39203000 
 10109              	.LASF1056:
 10110 1e68 4D41494E 		.ascii	"MAINCLKSEL\000"
 10110      434C4B53 
 10110      454C00
 10111              	.LASF501:
 10112 1e73 5F5F434D 		.ascii	"__CM0_CMSIS_VERSION ((__CM0_CMSIS_VERSION_MAIN << 1"
 10112      305F434D 
 10112      5349535F 
 10112      56455253 
 10112      494F4E20 
 10113 1ea6 3629207C 		.ascii	"6) | __CM0_CMSIS_VERSION_SUB )\000"
 10113      205F5F43 
 10113      4D305F43 
 10113      4D534953 
 10113      5F564552 
 10114              	.LASF1005:
 10115 1ec5 53444F5F 		.ascii	"SDO_ABORT_VALUE_RANGE 0x06090030UL\000"
 10115      41424F52 
 10115      545F5641 
 10115      4C55455F 
 10115      52414E47 
 10116              	.LASF836:
 10117 1ee8 55415254 		.ascii	"UART_SYNCCTRL_FES (1 << 2)\000"
 10117      5F53594E 
 10117      43435452 
 10117      4C5F4645 
 10117      53202831 
 10118              	.LASF7:
 10119 1f03 5F5F4154 		.ascii	"__ATOMIC_SEQ_CST 5\000"
 10119      4F4D4943 
 10119      5F534551 
 10119      5F435354 
 10119      203500
 10120              	.LASF556:
 10121 1f16 5343425F 		.ascii	"SCB_SCR_SLEEPONEXIT_Msk (1UL << SCB_SCR_SLEEPONEXIT"
 10121      5343525F 
 10121      534C4545 
 10121      504F4E45 
 10121      5849545F 
 10122 1f49 5F506F73 		.ascii	"_Pos)\000"
 10122      2900
 10123              	.LASF692:
 10124 1f4f 4D445F48 		.ascii	"MD_HYS (0x1 << 5)\000"
 10124      59532028 
 10124      30783120 
 10124      3C3C2035 
 10124      2900
 10125              	.LASF866:
 10126 1f61 5353505F 		.ascii	"SSP_DR_BITMASK(n) ((n) & 0xFFFF)\000"
 10126      44525F42 
 10126      49544D41 
 10126      534B286E 
 10126      29202828 
 10127              	.LASF775:
ARM GAS  /var/folders/9j/_txx49hn253_s3mnzkyxlj8m0000gp/T//ccgYRR5b.s 			page 220


 10128 1f82 55415254 		.ascii	"UART_LCR_PARITY_F_0 (3 << 4)\000"
 10128      5F4C4352 
 10128      5F504152 
 10128      4954595F 
 10128      465F3020 
 10129              	.LASF622:
 10130 1f9f 4C50435F 		.ascii	"LPC_ADC ((LPC_ADC_T *) LPC_ADC_BASE)\000"
 10130      41444320 
 10130      28284C50 
 10130      435F4144 
 10130      435F5420 
 10131              	.LASF576:
 10132 1fc4 53797354 		.ascii	"SysTick_CALIB_NOREF_Msk (1UL << SysTick_CALIB_NOREF"
 10132      69636B5F 
 10132      43414C49 
 10132      425F4E4F 
 10132      5245465F 
 10133 1ff7 5F506F73 		.ascii	"_Pos)\000"
 10133      2900
 10134              	.LASF436:
 10135 1ffd 494E545F 		.ascii	"INT_FAST8_MAX (__INT_FAST8_MAX__)\000"
 10135      46415354 
 10135      385F4D41 
 10135      5820285F 
 10135      5F494E54 
 10136              	.LASF978:
 10137 201f 4932435F 		.ascii	"I2C_MONITOR_CFG_MATCHALL I2C_I2MMCTRL_MATCH_ALL\000"
 10137      4D4F4E49 
 10137      544F525F 
 10137      4346475F 
 10137      4D415443 
 10138              	.LASF142:
 10139 204f 5F5F4442 		.ascii	"__DBL_MAX_EXP__ 1024\000"
 10139      4C5F4D41 
 10139      585F4558 
 10139      505F5F20 
 10139      31303234 
 10140              	.LASF113:
 10141 2064 5F5F5549 		.ascii	"__UINT_FAST8_MAX__ 4294967295U\000"
 10141      4E545F46 
 10141      41535438 
 10141      5F4D4158 
 10141      5F5F2034 
 10142              	.LASF918:
 10143 2083 4932435F 		.ascii	"I2C_CON_STA (1UL << 5)\000"
 10143      434F4E5F 
 10143      53544120 
 10143      2831554C 
 10143      203C3C20 
 10144              	.LASF275:
 10145 209a 5F5F5451 		.ascii	"__TQ_FBIT__ 127\000"
 10145      5F464249 
 10145      545F5F20 
 10145      31323700 
 10146              	.LASF890:
 10147 20aa 4144435F 		.ascii	"ADC_CR_START_NOW ((1UL << 24))\000"
 10147      43525F53 
ARM GAS  /var/folders/9j/_txx49hn253_s3mnzkyxlj8m0000gp/T//ccgYRR5b.s 			page 221


 10147      54415254 
 10147      5F4E4F57 
 10147      20282831 
 10148              	.LASF716:
 10149 20c9 54494D45 		.ascii	"TIMER_INT_ON_MATCH(n) (_BIT(((n) * 3)))\000"
 10149      525F494E 
 10149      545F4F4E 
 10149      5F4D4154 
 10149      4348286E 
 10150              	.LASF994:
 10151 20f1 53444F5F 		.ascii	"SDO_ABORT_TOGGLE 0x05030000UL\000"
 10151      41424F52 
 10151      545F544F 
 10151      47474C45 
 10151      20307830 
 10152              	.LASF614:
 10153 210f 4C50435F 		.ascii	"LPC_ROM_API_BASE_LOC 0x1FFF1FF8\000"
 10153      524F4D5F 
 10153      4150495F 
 10153      42415345 
 10153      5F4C4F43 
 10154              	.LASF343:
 10155 212f 5F5F5553 		.ascii	"__USES_INITFINI__ 1\000"
 10155      45535F49 
 10155      4E495446 
 10155      494E495F 
 10155      5F203100 
 10156              	.LASF517:
 10157 2143 5343425F 		.ascii	"SCB_CPUID_ARCHITECTURE_Pos 16\000"
 10157      43505549 
 10157      445F4152 
 10157      43484954 
 10157      45435455 
 10158              	.LASF855:
 10159 2161 5353505F 		.ascii	"SSP_CR0_CPHA_FIRST ((uint32_t) (0))\000"
 10159      4352305F 
 10159      43504841 
 10159      5F464952 
 10159      53542028 
 10160              	.LASF17:
 10161 2185 5F5F5349 		.ascii	"__SIZEOF_SHORT__ 2\000"
 10161      5A454F46 
 10161      5F53484F 
 10161      52545F5F 
 10161      203200
 10162              	.LASF262:
 10163 2198 5F5F554C 		.ascii	"__ULLACCUM_FBIT__ 32\000"
 10163      4C414343 
 10163      554D5F46 
 10163      4249545F 
 10163      5F203332 
 10164              	.LASF1036:
 10165 21ad 5F426F6F 		.ascii	"_Bool\000"
 10165      6C00
 10166              	.LASF756:
 10167 21b3 55415254 		.ascii	"UART_FCR_BITMASK (0xCF)\000"
 10167      5F464352 
ARM GAS  /var/folders/9j/_txx49hn253_s3mnzkyxlj8m0000gp/T//ccgYRR5b.s 			page 222


 10167      5F424954 
 10167      4D41534B 
 10167      20283078 
 10168              	.LASF1174:
 10169 21cb 62797465 		.ascii	"bytes\000"
 10169      7300
 10170              	.LASF631:
 10171 21d1 4C50435F 		.ascii	"LPC_GPIO ((LPC_GPIO_T *) LPC_GPIO_PORT0_BASE)\000"
 10171      4750494F 
 10171      2028284C 
 10171      50435F47 
 10171      50494F5F 
 10172              	.LASF349:
 10173 21ff 5F5F4C50 		.ascii	"__LPC_TYPES_H_ \000"
 10173      435F5459 
 10173      5045535F 
 10173      485F2000 
 10174              	.LASF352:
 10175 220f 5F535953 		.ascii	"_SYS_FEATURES_H \000"
 10175      5F464541 
 10175      54555245 
 10175      535F4820 
 10175      00
 10176              	.LASF1011:
 10177 2220 4F445F45 		.ascii	"OD_EXP_WO 0x20\000"
 10177      58505F57 
 10177      4F203078 
 10177      323000
 10178              	.LASF485:
 10179 222f 53544154 		.ascii	"STATIC static\000"
 10179      49432073 
 10179      74617469 
 10179      6300
 10180              	.LASF1050:
 10181 223d 52455345 		.ascii	"RESERVED2\000"
 10181      52564544 
 10181      3200
 10182              	.LASF680:
 10183 2247 494F434F 		.ascii	"IOCON_INV_EN (0x1 << 6)\000"
 10183      4E5F494E 
 10183      565F454E 
 10183      20283078 
 10183      31203C3C 
 10184              	.LASF1142:
 10185 225f 43686970 		.ascii	"Chip_UART_SetupFIFOS\000"
 10185      5F554152 
 10185      545F5365 
 10185      74757046 
 10185      49464F53 
 10186              	.LASF833:
 10187 2274 55415254 		.ascii	"UART_TER2_TXEN (1 << 0)\000"
 10187      5F544552 
 10187      325F5458 
 10187      454E2028 
 10187      31203C3C 
 10188              	.LASF789:
 10189 228c 55415254 		.ascii	"UART_LSR_BI (1 << 4)\000"
ARM GAS  /var/folders/9j/_txx49hn253_s3mnzkyxlj8m0000gp/T//ccgYRR5b.s 			page 223


 10189      5F4C5352 
 10189      5F424920 
 10189      2831203C 
 10189      3C203429 
 10190              	.LASF767:
 10191 22a1 55415254 		.ascii	"UART_LCR_SBS_MASK (1 << 2)\000"
 10191      5F4C4352 
 10191      5F534253 
 10191      5F4D4153 
 10191      4B202831 
 10192              	.LASF319:
 10193 22bc 5F5F5052 		.ascii	"__PRAGMA_REDEFINE_EXTNAME 1\000"
 10193      41474D41 
 10193      5F524544 
 10193      4546494E 
 10193      455F4558 
 10194              	.LASF32:
 10195 22d8 5F5F5743 		.ascii	"__WCHAR_TYPE__ unsigned int\000"
 10195      4841525F 
 10195      54595045 
 10195      5F5F2075 
 10195      6E736967 
 10196              	.LASF630:
 10197 22f4 4C50435F 		.ascii	"LPC_USB ((LPC_USB_T *) LPC_USB0_BASE)\000"
 10197      55534220 
 10197      28284C50 
 10197      435F5553 
 10197      425F5420 
 10198              	.LASF373:
 10199 231a 63686172 		.ascii	"char\000"
 10199      00
 10200              	.LASF298:
 10201 231f 5F5F5553 		.ascii	"__USA_IBIT__ 16\000"
 10201      415F4942 
 10201      49545F5F 
 10201      20313600 
 10202              	.LASF619:
 10203 232f 4C50435F 		.ascii	"LPC_TIMER16_1 ((LPC_TIMER_T *) LPC_TIMER16_1_BASE)\000"
 10203      54494D45 
 10203      5231365F 
 10203      31202828 
 10203      4C50435F 
 10204              	.LASF467:
 10205 2362 494E544D 		.ascii	"INTMAX_C(x) __INTMAX_C(x)\000"
 10205      41585F43 
 10205      28782920 
 10205      5F5F494E 
 10205      544D4158 
 10206              	.LASF454:
 10207 237c 50545244 		.ascii	"PTRDIFF_MIN (-PTRDIFF_MAX - 1)\000"
 10207      4946465F 
 10207      4D494E20 
 10207      282D5054 
 10207      52444946 
 10208              	.LASF699:
 10209 239b 4D445F53 		.ascii	"MD_STDI2C (0x1 << 8)\000"
 10209      54444932 
ARM GAS  /var/folders/9j/_txx49hn253_s3mnzkyxlj8m0000gp/T//ccgYRR5b.s 			page 224


 10209      43202830 
 10209      7831203C 
 10209      3C203829 
 10210              	.LASF1063:
 10211 23b0 55534152 		.ascii	"USARTCLKDIV\000"
 10211      54434C4B 
 10211      44495600 
 10212              	.LASF67:
 10213 23bc 5F5F4758 		.ascii	"__GXX_ABI_VERSION 1002\000"
 10213      585F4142 
 10213      495F5645 
 10213      5253494F 
 10213      4E203130 
 10214              	.LASF62:
 10215 23d3 5F5F5549 		.ascii	"__UINT_FAST64_TYPE__ long long unsigned int\000"
 10215      4E545F46 
 10215      41535436 
 10215      345F5459 
 10215      50455F5F 
 10216              	.LASF1113:
 10217 23ff 53595343 		.ascii	"SYSCTL_CLOCK_SSP0\000"
 10217      544C5F43 
 10217      4C4F434B 
 10217      5F535350 
 10217      3000
 10218              	.LASF1120:
 10219 2411 53595343 		.ascii	"SYSCTL_CLOCK_SSP1\000"
 10219      544C5F43 
 10219      4C4F434B 
 10219      5F535350 
 10219      3100
 10220              	.LASF861:
 10221 2423 5353505F 		.ascii	"SSP_CR1_SLAVE_EN ((uint32_t) (1 << 2))\000"
 10221      4352315F 
 10221      534C4156 
 10221      455F454E 
 10221      20282875 
 10222              	.LASF132:
 10223 244a 5F5F464C 		.ascii	"__FLT_MIN__ 1.1754943508222875e-38F\000"
 10223      545F4D49 
 10223      4E5F5F20 
 10223      312E3137 
 10223      35343934 
 10224              	.LASF287:
 10225 246e 5F5F4841 		.ascii	"__HA_FBIT__ 7\000"
 10225      5F464249 
 10225      545F5F20 
 10225      3700
 10226              	.LASF922:
 10227 247c 4932435F 		.ascii	"I2C_I2STAT_NO_INF ((0xF8))\000"
 10227      49325354 
 10227      41545F4E 
 10227      4F5F494E 
 10227      46202828 
 10228              	.LASF627:
 10229 2497 4C50435F 		.ascii	"LPC_SYSCTL ((LPC_SYSCTL_T *) LPC_SYSCTL_BASE)\000"
 10229      53595343 
ARM GAS  /var/folders/9j/_txx49hn253_s3mnzkyxlj8m0000gp/T//ccgYRR5b.s 			page 225


 10229      544C2028 
 10229      284C5043 
 10229      5F535953 
 10230              	.LASF315:
 10231 24c5 5F5F4743 		.ascii	"__GCC_ATOMIC_LLONG_LOCK_FREE 1\000"
 10231      435F4154 
 10231      4F4D4943 
 10231      5F4C4C4F 
 10231      4E475F4C 
 10232              	.LASF452:
 10233 24e4 5349475F 		.ascii	"SIG_ATOMIC_MAX (__STDINT_EXP(INT_MAX))\000"
 10233      41544F4D 
 10233      49435F4D 
 10233      41582028 
 10233      5F5F5354 
 10234              	.LASF722:
 10235 250b 5F5F5541 		.ascii	"__UART_11XX_H_ \000"
 10235      52545F31 
 10235      3158585F 
 10235      485F2000 
 10236              	.LASF981:
 10237 251b 43414E5F 		.ascii	"CAN_ERROR_PASS 0x00000001UL\000"
 10237      4552524F 
 10237      525F5041 
 10237      53532030 
 10237      78303030 
 10238              	.LASF905:
 10239 2537 4932435F 		.ascii	"I2C_I2CONSET_AA ((0x04))\000"
 10239      4932434F 
 10239      4E534554 
 10239      5F414120 
 10239      28283078 
 10240              	.LASF598:
 10241 2550 4C50435F 		.ascii	"LPC_ADC_BASE 0x4001C000\000"
 10241      4144435F 
 10241      42415345 
 10241      20307834 
 10241      30303143 
 10242              	.LASF926:
 10243 2568 4932435F 		.ascii	"I2C_I2STAT_M_TX_SLAW_ACK ((0x18))\000"
 10243      49325354 
 10243      41545F4D 
 10243      5F54585F 
 10243      534C4157 
 10244              	.LASF1185:
 10245 258a 52696E67 		.ascii	"RingBuffer_Insert\000"
 10245      42756666 
 10245      65725F49 
 10245      6E736572 
 10245      7400
 10246              	.LASF193:
 10247 259c 5F5F5553 		.ascii	"__USFRACT_IBIT__ 0\000"
 10247      46524143 
 10247      545F4942 
 10247      49545F5F 
 10247      203000
 10248              	.LASF942:
ARM GAS  /var/folders/9j/_txx49hn253_s3mnzkyxlj8m0000gp/T//ccgYRR5b.s 			page 226


 10249 25af 4932435F 		.ascii	"I2C_I2STAT_S_RX_PRE_SLA_DAT_ACK ((0x80))\000"
 10249      49325354 
 10249      41545F53 
 10249      5F52585F 
 10249      5052455F 
 10250              	.LASF914:
 10251 25d8 4932435F 		.ascii	"I2C_I2CONCLR_I2ENC ((1 << 6))\000"
 10251      4932434F 
 10251      4E434C52 
 10251      5F493245 
 10251      4E432028 
 10252              	.LASF194:
 10253 25f6 5F5F5553 		.ascii	"__USFRACT_MIN__ 0.0UHR\000"
 10253      46524143 
 10253      545F4D49 
 10253      4E5F5F20 
 10253      302E3055 
 10254              	.LASF707:
 10255 260d 46554E43 		.ascii	"FUNC5 0x5\000"
 10255      35203078 
 10255      3500
 10256              	.LASF809:
 10257 2617 55415254 		.ascii	"UART_ACR_ABTOINT_CLR (1 << 9)\000"
 10257      5F414352 
 10257      5F414254 
 10257      4F494E54 
 10257      5F434C52 
 10258              	.LASF999:
 10259 2635 53444F5F 		.ascii	"SDO_ABORT_READONLY 0x06010002UL\000"
 10259      41424F52 
 10259      545F5245 
 10259      41444F4E 
 10259      4C592030 
 10260              	.LASF359:
 10261 2655 5F5F5F69 		.ascii	"___int16_t_defined 1\000"
 10261      6E743136 
 10261      5F745F64 
 10261      6566696E 
 10261      65642031 
 10262              	.LASF156:
 10263 266a 5F5F4C44 		.ascii	"__LDBL_MAX_EXP__ 1024\000"
 10263      424C5F4D 
 10263      41585F45 
 10263      58505F5F 
 10263      20313032 
 10264              	.LASF673:
 10265 2680 494F434F 		.ascii	"IOCON_FUNC6 0x6\000"
 10265      4E5F4655 
 10265      4E433620 
 10265      30783600 
 10266              	.LASF1160:
 10267 2690 696E744D 		.ascii	"intMask\000"
 10267      61736B00 
 10268              	.LASF745:
 10269 2698 55415254 		.ascii	"UART_IIR_BITMASK (0x3CF)\000"
 10269      5F494952 
 10269      5F424954 
ARM GAS  /var/folders/9j/_txx49hn253_s3mnzkyxlj8m0000gp/T//ccgYRR5b.s 			page 227


 10269      4D41534B 
 10269      20283078 
 10270              	.LASF396:
 10271 26b1 5F5F696E 		.ascii	"__int8_t_defined 1\000"
 10271      74385F74 
 10271      5F646566 
 10271      696E6564 
 10271      203100
 10272              	.LASF991:
 10273 26c4 43414E5F 		.ascii	"CAN_MSGOBJ_EXT 0x20000000UL\000"
 10273      4D53474F 
 10273      424A5F45 
 10273      58542030 
 10273      78323030 
 10274              	.LASF149:
 10275 26e0 5F5F4442 		.ascii	"__DBL_HAS_DENORM__ 1\000"
 10275      4C5F4841 
 10275      535F4445 
 10275      4E4F524D 
 10275      5F5F2031 
 10276              	.LASF1022:
 10277 26f5 4C50435F 		.ascii	"LPC_CCAN_API ((CCAN_API_T *) (LPC_ROM_API->candApiB"
 10277      4343414E 
 10277      5F415049 
 10277      20282843 
 10277      43414E5F 
 10278 2728 61736529 		.ascii	"ase))\000"
 10278      2900
 10279              	.LASF852:
 10280 272e 5353505F 		.ascii	"SSP_CR0_FRF_MICROWIRE ((uint32_t) (2 << 4))\000"
 10280      4352305F 
 10280      4652465F 
 10280      4D494352 
 10280      4F574952 
 10281              	.LASF646:
 10282 275a 53595343 		.ascii	"SYSCTL_DEEPSLP_BOD_PD (1 << 3)\000"
 10282      544C5F44 
 10282      45455053 
 10282      4C505F42 
 10282      4F445F50 
 10283              	.LASF569:
 10284 2779 53797354 		.ascii	"SysTick_CTRL_ENABLE_Pos 0\000"
 10284      69636B5F 
 10284      4354524C 
 10284      5F454E41 
 10284      424C455F 
 10285              	.LASF447:
 10286 2793 494E544D 		.ascii	"INTMAX_MAX (__INTMAX_MAX__)\000"
 10286      41585F4D 
 10286      41582028 
 10286      5F5F494E 
 10286      544D4158 
 10287              	.LASF424:
 10288 27af 494E5433 		.ascii	"INT32_MAX (__INT32_MAX__)\000"
 10288      325F4D41 
 10288      5820285F 
 10288      5F494E54 
ARM GAS  /var/folders/9j/_txx49hn253_s3mnzkyxlj8m0000gp/T//ccgYRR5b.s 			page 228


 10288      33325F4D 
 10289              	.LASF762:
 10290 27c9 55415254 		.ascii	"UART_LCR_WLEN_MASK (3 << 0)\000"
 10290      5F4C4352 
 10290      5F574C45 
 10290      4E5F4D41 
 10290      534B2028 
 10291              	.LASF662:
 10292 27e5 53595343 		.ascii	"SYSCTL_POWERDOWN_WDTOSC_PD (1 << 6)\000"
 10292      544C5F50 
 10292      4F574552 
 10292      444F574E 
 10292      5F574454 
 10293              	.LASF291:
 10294 2809 5F5F4441 		.ascii	"__DA_FBIT__ 31\000"
 10294      5F464249 
 10294      545F5F20 
 10294      333100
 10295              	.LASF973:
 10296 2818 4932435F 		.ascii	"I2C_RECV_END 0x10\000"
 10296      52454356 
 10296      5F454E44 
 10296      20307831 
 10296      3000
 10297              	.LASF553:
 10298 282a 5343425F 		.ascii	"SCB_SCR_SLEEPDEEP_Pos 2\000"
 10298      5343525F 
 10298      534C4545 
 10298      50444545 
 10298      505F506F 
 10299              	.LASF363:
 10300 2842 5F5F5F69 		.ascii	"___int_least16_t_defined 1\000"
 10300      6E745F6C 
 10300      65617374 
 10300      31365F74 
 10300      5F646566 
 10301              	.LASF528:
 10302 285d 5343425F 		.ascii	"SCB_ICSR_PENDSVCLR_Msk (1UL << SCB_ICSR_PENDSVCLR_P"
 10302      49435352 
 10302      5F50454E 
 10302      44535643 
 10302      4C525F4D 
 10303 2890 6F732900 		.ascii	"os)\000"
 10304              	.LASF134:
 10305 2894 5F5F464C 		.ascii	"__FLT_DENORM_MIN__ 1.4012984643248171e-45F\000"
 10305      545F4445 
 10305      4E4F524D 
 10305      5F4D494E 
 10305      5F5F2031 
 10306              	.LASF391:
 10307 28bf 5F5F4C45 		.ascii	"__LEAST8 \"hh\"\000"
 10307      41535438 
 10307      20226868 
 10307      2200
 10308              	.LASF95:
 10309 28cd 5F5F494E 		.ascii	"__INT_LEAST16_MAX__ 32767\000"
 10309      545F4C45 
ARM GAS  /var/folders/9j/_txx49hn253_s3mnzkyxlj8m0000gp/T//ccgYRR5b.s 			page 229


 10309      41535431 
 10309      365F4D41 
 10309      585F5F20 
 10310              	.LASF266:
 10311 28e7 5F5F554C 		.ascii	"__ULLACCUM_EPSILON__ 0x1P-32ULLK\000"
 10311      4C414343 
 10311      554D5F45 
 10311      5053494C 
 10311      4F4E5F5F 
 10312              	.LASF817:
 10313 2908 55415254 		.ascii	"UART_RS485CTRL_BITMASK (0x3F)\000"
 10313      5F525334 
 10313      38354354 
 10313      524C5F42 
 10313      49544D41 
 10314              	.LASF873:
 10315 2926 5353505F 		.ascii	"SSP_SLAVE_MODE SSP_CR1_SLAVE_EN\000"
 10315      534C4156 
 10315      455F4D4F 
 10315      44452053 
 10315      53505F43 
 10316              	.LASF66:
 10317 2946 5F5F6861 		.ascii	"__has_include_next(STR) __has_include_next__(STR)\000"
 10317      735F696E 
 10317      636C7564 
 10317      655F6E65 
 10317      78742853 
 10318              	.LASF851:
 10319 2978 5353505F 		.ascii	"SSP_CR0_FRF_TI ((uint32_t) (1 << 4))\000"
 10319      4352305F 
 10319      4652465F 
 10319      54492028 
 10319      2875696E 
 10320              	.LASF422:
 10321 299d 55494E54 		.ascii	"UINT_LEAST16_MAX (__UINT_LEAST16_MAX__)\000"
 10321      5F4C4541 
 10321      53543136 
 10321      5F4D4158 
 10321      20285F5F 
 10322              	.LASF106:
 10323 29c5 5F5F5549 		.ascii	"__UINT32_C(c) c ## UL\000"
 10323      4E543332 
 10323      5F432863 
 10323      29206320 
 10323      23232055 
 10324              	.LASF519:
 10325 29db 5343425F 		.ascii	"SCB_CPUID_PARTNO_Pos 4\000"
 10325      43505549 
 10325      445F5041 
 10325      52544E4F 
 10325      5F506F73 
 10326              	.LASF524:
 10327 29f2 5343425F 		.ascii	"SCB_ICSR_NMIPENDSET_Msk (1UL << SCB_ICSR_NMIPENDSET"
 10327      49435352 
 10327      5F4E4D49 
 10327      50454E44 
 10327      5345545F 
ARM GAS  /var/folders/9j/_txx49hn253_s3mnzkyxlj8m0000gp/T//ccgYRR5b.s 			page 230


 10328 2a25 5F506F73 		.ascii	"_Pos)\000"
 10328      2900
 10329              	.LASF765:
 10330 2a2b 55415254 		.ascii	"UART_LCR_WLEN7 (2 << 0)\000"
 10330      5F4C4352 
 10330      5F574C45 
 10330      4E372028 
 10330      32203C3C 
 10331              	.LASF479:
 10332 2a43 5F534246 		.ascii	"_SBF\000"
 10332      00
 10333              	.LASF88:
 10334 2a48 5F5F494E 		.ascii	"__INT64_MAX__ 9223372036854775807LL\000"
 10334      5436345F 
 10334      4D41585F 
 10334      5F203932 
 10334      32333337 
 10335              	.LASF133:
 10336 2a6c 5F5F464C 		.ascii	"__FLT_EPSILON__ 1.1920928955078125e-7F\000"
 10336      545F4550 
 10336      53494C4F 
 10336      4E5F5F20 
 10336      312E3139 
 10337              	.LASF701:
 10338 2a93 4D445F4F 		.ascii	"MD_OPENDRAIN (0x1 << 10)\000"
 10338      50454E44 
 10338      5241494E 
 10338      20283078 
 10338      31203C3C 
 10339              	.LASF615:
 10340 2aac 4C50435F 		.ascii	"LPC_I2C ((LPC_I2C_T *) LPC_I2C_BASE)\000"
 10340      49324320 
 10340      28284C50 
 10340      435F4932 
 10340      435F5420 
 10341              	.LASF829:
 10342 2ad1 55415254 		.ascii	"UART_FDR_DIVADDVAL(n) (n & 0x0F)\000"
 10342      5F464452 
 10342      5F444956 
 10342      41444456 
 10342      414C286E 
 10343              	.LASF760:
 10344 2af2 55415254 		.ascii	"UART_FCR_TRG_LEV2 (2 << 6)\000"
 10344      5F464352 
 10344      5F545247 
 10344      5F4C4556 
 10344      32202832 
 10345              	.LASF1001:
 10346 2b0d 53444F5F 		.ascii	"SDO_ABORT_PARAINCOMP 0x06040043UL\000"
 10346      41424F52 
 10346      545F5041 
 10346      5241494E 
 10346      434F4D50 
 10347              	.LASF783:
 10348 2b2f 55415254 		.ascii	"UART_MCR_AUTO_CTS_EN (1 << 7)\000"
 10348      5F4D4352 
 10348      5F415554 
ARM GAS  /var/folders/9j/_txx49hn253_s3mnzkyxlj8m0000gp/T//ccgYRR5b.s 			page 231


 10348      4F5F4354 
 10348      535F454E 
 10349              	.LASF563:
 10350 2b4d 53797354 		.ascii	"SysTick_CTRL_COUNTFLAG_Pos 16\000"
 10350      69636B5F 
 10350      4354524C 
 10350      5F434F55 
 10350      4E54464C 
 10351              	.LASF401:
 10352 2b6b 5F5F696E 		.ascii	"__int_least16_t_defined 1\000"
 10352      745F6C65 
 10352      61737431 
 10352      365F745F 
 10352      64656669 
 10353              	.LASF246:
 10354 2b85 5F5F5541 		.ascii	"__UACCUM_EPSILON__ 0x1P-16UK\000"
 10354      4343554D 
 10354      5F455053 
 10354      494C4F4E 
 10354      5F5F2030 
 10355              	.LASF478:
 10356 2ba2 5F424954 		.ascii	"_BIT(n) (1 << (n))\000"
 10356      286E2920 
 10356      2831203C 
 10356      3C20286E 
 10356      292900
 10357              	.LASF427:
 10358 2bb5 494E545F 		.ascii	"INT_LEAST32_MAX (__INT_LEAST32_MAX__)\000"
 10358      4C454153 
 10358      5433325F 
 10358      4D415820 
 10358      285F5F49 
 10359              	.LASF312:
 10360 2bdb 5F5F4743 		.ascii	"__GCC_ATOMIC_SHORT_LOCK_FREE 1\000"
 10360      435F4154 
 10360      4F4D4943 
 10360      5F53484F 
 10360      52545F4C 
 10361              	.LASF473:
 10362 2bfa 66616C73 		.ascii	"false 0\000"
 10362      65203000 
 10363              	.LASF893:
 10364 2c02 4144435F 		.ascii	"ADC_CR_START_ADCTRIG0 ((4UL << 24))\000"
 10364      43525F53 
 10364      54415254 
 10364      5F414443 
 10364      54524947 
 10365              	.LASF717:
 10366 2c26 54494D45 		.ascii	"TIMER_RESET_ON_MATCH(n) (_BIT((((n) * 3) + 1)))\000"
 10366      525F5245 
 10366      5345545F 
 10366      4F4E5F4D 
 10366      41544348 
 10367              	.LASF848:
 10368 2c56 5F5F5353 		.ascii	"__SSP_11XX_H_ \000"
 10368      505F3131 
 10368      58585F48 
ARM GAS  /var/folders/9j/_txx49hn253_s3mnzkyxlj8m0000gp/T//ccgYRR5b.s 			page 232


 10368      5F2000
 10369              	.LASF270:
 10370 2c65 5F5F4851 		.ascii	"__HQ_IBIT__ 0\000"
 10370      5F494249 
 10370      545F5F20 
 10370      3000
 10371              	.LASF502:
 10372 2c73 5F5F434F 		.ascii	"__CORTEX_M (0x00)\000"
 10372      52544558 
 10372      5F4D2028 
 10372      30783030 
 10372      2900
 10373              	.LASF232:
 10374 2c85 5F5F5553 		.ascii	"__USACCUM_FBIT__ 8\000"
 10374      41434355 
 10374      4D5F4642 
 10374      49545F5F 
 10374      203800
 10375              	.LASF1139:
 10376 2c98 52696E67 		.ascii	"RingBuff\000"
 10376      42756666 
 10376      00
 10377              	.LASF933:
 10378 2ca1 4932435F 		.ascii	"I2C_I2STAT_M_RX_ARB_LOST ((0x38))\000"
 10378      49325354 
 10378      41545F4D 
 10378      5F52585F 
 10378      4152425F 
 10379              	.LASF538:
 10380 2cc3 5343425F 		.ascii	"SCB_ICSR_VECTPENDING_Msk (0x1FFUL << SCB_ICSR_VECTP"
 10380      49435352 
 10380      5F564543 
 10380      5450454E 
 10380      44494E47 
 10381 2cf6 454E4449 		.ascii	"ENDING_Pos)\000"
 10381      4E475F50 
 10381      6F732900 
 10382              	.LASF743:
 10383 2d02 55415254 		.ascii	"UART_IIR_ABEO_INT (1 << 8)\000"
 10383      5F494952 
 10383      5F414245 
 10383      4F5F494E 
 10383      54202831 
 10384              	.LASF344:
 10385 2d1d 55415254 		.ascii	"UART_BAUD 115200\000"
 10385      5F424155 
 10385      44203131 
 10385      35323030 
 10385      00
 10386              	.LASF247:
 10387 2d2e 5F5F4C41 		.ascii	"__LACCUM_FBIT__ 31\000"
 10387      4343554D 
 10387      5F464249 
 10387      545F5F20 
 10387      333100
 10388              	.LASF980:
 10389 2d41 43414E5F 		.ascii	"CAN_ERROR_NONE 0x00000000UL\000"
ARM GAS  /var/folders/9j/_txx49hn253_s3mnzkyxlj8m0000gp/T//ccgYRR5b.s 			page 233


 10389      4552524F 
 10389      525F4E4F 
 10389      4E452030 
 10389      78303030 
 10390              	.LASF666:
 10391 2d5d 5F5F494F 		.ascii	"__IOCON_11XX_H_ \000"
 10391      434F4E5F 
 10391      31315858 
 10391      5F485F20 
 10391      00
 10392              	.LASF958:
 10393 2d6e 4932435F 		.ascii	"I2C_I2MMCTRL_BITMASK ((0x07))\000"
 10393      49324D4D 
 10393      4354524C 
 10393      5F424954 
 10393      4D41534B 
 10394              	.LASF713:
 10395 2d8c 54494D45 		.ascii	"TIMER_CAP_INT(n) (_BIT((((n) & 0x0F) + 4)))\000"
 10395      525F4341 
 10395      505F494E 
 10395      54286E29 
 10395      20285F42 
 10396              	.LASF875:
 10397 2db8 5F5F524F 		.ascii	"__ROMAPI_11XX_H_ \000"
 10397      4D415049 
 10397      5F313158 
 10397      585F485F 
 10397      2000
 10398              	.LASF1040:
 10399 2dca 53595350 		.ascii	"SYSPLLCTRL\000"
 10399      4C4C4354 
 10399      524C00
 10400              	.LASF293:
 10401 2dd5 5F5F5441 		.ascii	"__TA_FBIT__ 63\000"
 10401      5F464249 
 10401      545F5F20 
 10401      363300
 10402              	.LASF938:
 10403 2de4 4932435F 		.ascii	"I2C_I2STAT_S_RX_SLAW_ACK ((0x60))\000"
 10403      49325354 
 10403      41545F53 
 10403      5F52585F 
 10403      534C4157 
 10404              	.LASF408:
 10405 2e06 494E5450 		.ascii	"INTPTR_MIN (-__INTPTR_MAX__ - 1)\000"
 10405      54525F4D 
 10405      494E2028 
 10405      2D5F5F49 
 10405      4E545054 
 10406              	.LASF1038:
 10407 2e27 5359534D 		.ascii	"SYSMEMREMAP\000"
 10407      454D5245 
 10407      4D415000 
 10408              	.LASF607:
 10409 2e33 4C50435F 		.ascii	"LPC_CAN0_BASE 0x40050000\000"
 10409      43414E30 
 10409      5F424153 
ARM GAS  /var/folders/9j/_txx49hn253_s3mnzkyxlj8m0000gp/T//ccgYRR5b.s 			page 234


 10409      45203078 
 10409      34303035 
 10410              	.LASF726:
 10411 2e4c 55415254 		.ascii	"UART_RBR_MASKBIT (0xFF)\000"
 10411      5F524252 
 10411      5F4D4153 
 10411      4B424954 
 10411      20283078 
 10412              	.LASF339:
 10413 2e64 5F5F4152 		.ascii	"__ARM_PCS 1\000"
 10413      4D5F5043 
 10413      53203100 
 10414              	.LASF471:
 10415 2e70 626F6F6C 		.ascii	"bool _Bool\000"
 10415      205F426F 
 10415      6F6C00
 10416              	.LASF908:
 10417 2e7b 4932435F 		.ascii	"I2C_I2CONSET_STA ((0x20))\000"
 10417      4932434F 
 10417      4E534554 
 10417      5F535441 
 10417      20282830 
 10418              	.LASF987:
 10419 2e95 43414E5F 		.ascii	"CAN_ERROR_BIT1 0x00000040UL\000"
 10419      4552524F 
 10419      525F4249 
 10419      54312030 
 10419      78303030 
 10420              	.LASF642:
 10421 2eb1 53595343 		.ascii	"SYSCTL_RST_WDT (1 << 2)\000"
 10421      544C5F52 
 10421      53545F57 
 10421      44542028 
 10421      31203C3C 
 10422              	.LASF605:
 10423 2ec9 4C50435F 		.ascii	"LPC_SYSCTL_BASE 0x40048000\000"
 10423      53595343 
 10423      544C5F42 
 10423      41534520 
 10423      30783430 
 10424              	.LASF1136:
 10425 2ee4 52533438 		.ascii	"RS485DLY\000"
 10425      35444C59 
 10425      00
 10426              	.LASF244:
 10427 2eed 5F5F5541 		.ascii	"__UACCUM_MIN__ 0.0UK\000"
 10427      4343554D 
 10427      5F4D494E 
 10427      5F5F2030 
 10427      2E30554B 
 10428              	.LASF525:
 10429 2f02 5343425F 		.ascii	"SCB_ICSR_PENDSVSET_Pos 28\000"
 10429      49435352 
 10429      5F50454E 
 10429      44535653 
 10429      45545F50 
 10430              	.LASF547:
ARM GAS  /var/folders/9j/_txx49hn253_s3mnzkyxlj8m0000gp/T//ccgYRR5b.s 			page 235


 10431 2f1c 5343425F 		.ascii	"SCB_AIRCR_SYSRESETREQ_Pos 2\000"
 10431      41495243 
 10431      525F5359 
 10431      53524553 
 10431      45545245 
 10432              	.LASF511:
 10433 2f38 5F5F4F20 		.ascii	"__O volatile\000"
 10433      766F6C61 
 10433      74696C65 
 10433      00
 10434              	.LASF626:
 10435 2f45 4C50435F 		.ascii	"LPC_IOCON ((LPC_IOCON_T *) LPC_IOCON_BASE)\000"
 10435      494F434F 
 10435      4E202828 
 10435      4C50435F 
 10435      494F434F 
 10436              	.LASF451:
 10437 2f70 5349475F 		.ascii	"SIG_ATOMIC_MIN (-__STDINT_EXP(INT_MAX) - 1)\000"
 10437      41544F4D 
 10437      49435F4D 
 10437      494E2028 
 10437      2D5F5F53 
 10438              	.LASF928:
 10439 2f9c 4932435F 		.ascii	"I2C_I2STAT_M_TX_DAT_ACK ((0x28))\000"
 10439      49325354 
 10439      41545F4D 
 10439      5F54585F 
 10439      4441545F 
 10440              	.LASF813:
 10441 2fbd 55415254 		.ascii	"UART_RS485CTRL_AADEN (1 << 2)\000"
 10441      5F525334 
 10441      38354354 
 10441      524C5F41 
 10441      4144454E 
 10442              	.LASF1067:
 10443 2fdb 55534243 		.ascii	"USBCLKUEN\000"
 10443      4C4B5545 
 10443      4E00
 10444              	.LASF992:
 10445 2fe5 43414E5F 		.ascii	"CAN_MSGOBJ_DAT 0x00000000UL\000"
 10445      4D53474F 
 10445      424A5F44 
 10445      41542030 
 10445      78303030 
 10446              	.LASF952:
 10447 3001 4932435F 		.ascii	"I2C_SLAVE_TIME_OUT 0x10000000UL\000"
 10447      534C4156 
 10447      455F5449 
 10447      4D455F4F 
 10447      55542030 
 10448              	.LASF805:
 10449 3021 55415254 		.ascii	"UART_ACR_START (1 << 0)\000"
 10449      5F414352 
 10449      5F535441 
 10449      52542028 
 10449      31203C3C 
 10450              	.LASF610:
ARM GAS  /var/folders/9j/_txx49hn253_s3mnzkyxlj8m0000gp/T//ccgYRR5b.s 			page 236


 10451 3039 4C50435F 		.ascii	"LPC_GPIO_PORT1_BASE 0x50010000\000"
 10451      4750494F 
 10451      5F504F52 
 10451      54315F42 
 10451      41534520 
 10452              	.LASF346:
 10453 3058 44454255 		.ascii	"DEBUG_ENABLE 1\000"
 10453      475F454E 
 10453      41424C45 
 10453      203100
 10454              	.LASF826:
 10455 3067 55415254 		.ascii	"UART_SCICTRL_PROTSEL_T1 (1 << 2)\000"
 10455      5F534349 
 10455      4354524C 
 10455      5F50524F 
 10455      5453454C 
 10456              	.LASF828:
 10457 3088 55415254 		.ascii	"UART_SCICTRL_GUARDTIME(n) ((n & 0xFF) << 8)\000"
 10457      5F534349 
 10457      4354524C 
 10457      5F475541 
 10457      52445449 
 10458              	.LASF403:
 10459 30b4 5F5F696E 		.ascii	"__int_least64_t_defined 1\000"
 10459      745F6C65 
 10459      61737436 
 10459      345F745F 
 10459      64656669 
 10460              	.LASF725:
 10461 30ce 52425F56 		.ascii	"RB_VTAIL(rb) ((volatile uint32_t)(rb->tail))\000"
 10461      5441494C 
 10461      28726229 
 10461      20282876 
 10461      6F6C6174 
 10462              	.LASF1086:
 10463 30fb 55534243 		.ascii	"USBCLKCTRL\000"
 10463      4C4B4354 
 10463      524C00
 10464              	.LASF179:
 10465 3106 5F5F4445 		.ascii	"__DEC64_SUBNORMAL_MIN__ 0.000000000000001E-383DD\000"
 10465      4336345F 
 10465      5355424E 
 10465      4F524D41 
 10465      4C5F4D49 
 10466              	.LASF196:
 10467 3137 5F5F5553 		.ascii	"__USFRACT_EPSILON__ 0x1P-8UHR\000"
 10467      46524143 
 10467      545F4550 
 10467      53494C4F 
 10467      4E5F5F20 
 10468              	.LASF691:
 10469 3155 4D445F42 		.ascii	"MD_BUK (0x3 << 3)\000"
 10469      554B2028 
 10469      30783320 
 10469      3C3C2033 
 10469      2900
 10470              	.LASF758:
ARM GAS  /var/folders/9j/_txx49hn253_s3mnzkyxlj8m0000gp/T//ccgYRR5b.s 			page 237


 10471 3167 55415254 		.ascii	"UART_FCR_TRG_LEV0 (0)\000"
 10471      5F464352 
 10471      5F545247 
 10471      5F4C4556 
 10471      30202830 
 10472              	.LASF481:
 10473 317d 5F424954 		.ascii	"_BITMASK\000"
 10473      4D41534B 
 10473      00
 10474              	.LASF112:
 10475 3186 5F5F494E 		.ascii	"__INT_FAST64_MAX__ 9223372036854775807LL\000"
 10475      545F4641 
 10475      53543634 
 10475      5F4D4158 
 10475      5F5F2039 
 10476              	.LASF625:
 10477 31af 4C50435F 		.ascii	"LPC_SSP0 ((LPC_SSP_T *) LPC_SSP0_BASE)\000"
 10477      53535030 
 10477      2028284C 
 10477      50435F53 
 10477      53505F54 
 10478              	.LASF192:
 10479 31d6 5F5F5553 		.ascii	"__USFRACT_FBIT__ 8\000"
 10479      46524143 
 10479      545F4642 
 10479      49545F5F 
 10479      203800
 10480              	.LASF260:
 10481 31e9 5F5F4C4C 		.ascii	"__LLACCUM_MAX__ 0X7FFFFFFFFFFFFFFFP-31LLK\000"
 10481      41434355 
 10481      4D5F4D41 
 10481      585F5F20 
 10481      30583746 
 10482              	.LASF742:
 10483 3213 55415254 		.ascii	"UART_IIR_FIFO_EN (3 << 6)\000"
 10483      5F494952 
 10483      5F464946 
 10483      4F5F454E 
 10483      20283320 
 10484              	.LASF402:
 10485 322d 5F5F696E 		.ascii	"__int_least32_t_defined 1\000"
 10485      745F6C65 
 10485      61737433 
 10485      325F745F 
 10485      64656669 
 10486              	.LASF304:
 10487 3247 5F5F5553 		.ascii	"__USER_LABEL_PREFIX__ \000"
 10487      45525F4C 
 10487      4142454C 
 10487      5F505245 
 10487      4649585F 
 10488              	.LASF870:
 10489 325e 5353505F 		.ascii	"SSP_CPHA_SECOND SSP_CR0_CPHA_SECOND\000"
 10489      43504841 
 10489      5F534543 
 10489      4F4E4420 
 10489      5353505F 
ARM GAS  /var/folders/9j/_txx49hn253_s3mnzkyxlj8m0000gp/T//ccgYRR5b.s 			page 238


 10490              	.LASF612:
 10491 3282 4C50435F 		.ascii	"LPC_GPIO_PORT3_BASE 0x50030000\000"
 10491      4750494F 
 10491      5F504F52 
 10491      54335F42 
 10491      41534520 
 10492              	.LASF953:
 10493 32a1 4932435F 		.ascii	"I2C_I2DAT_BITMASK ((0xFF))\000"
 10493      49324441 
 10493      545F4249 
 10493      544D4153 
 10493      4B202828 
 10494              	.LASF1163:
 10495 32bc 43686970 		.ascii	"Chip_UART_DeInit\000"
 10495      5F554152 
 10495      545F4465 
 10495      496E6974 
 10495      00
 10496              	.LASF1106:
 10497 32cd 53595343 		.ascii	"SYSCTL_CLOCK_FLASHARRAY\000"
 10497      544C5F43 
 10497      4C4F434B 
 10497      5F464C41 
 10497      53484152 
 10498              	.LASF827:
 10499 32e5 55415254 		.ascii	"UART_SCICTRL_TXRETRY(n) ((n & 0x07) << 5)\000"
 10499      5F534349 
 10499      4354524C 
 10499      5F545852 
 10499      45545259 
 10500              	.LASF465:
 10501 330f 494E5436 		.ascii	"INT64_C(x) __INT64_C(x)\000"
 10501      345F4328 
 10501      7829205F 
 10501      5F494E54 
 10501      36345F43 
 10502              	.LASF199:
 10503 3327 5F5F4652 		.ascii	"__FRACT_MIN__ (-0.5R-0.5R)\000"
 10503      4143545F 
 10503      4D494E5F 
 10503      5F20282D 
 10503      302E3552 
 10504              	.LASF411:
 10505 3342 494E5438 		.ascii	"INT8_MIN (-__INT8_MAX__ - 1)\000"
 10505      5F4D494E 
 10505      20282D5F 
 10505      5F494E54 
 10505      385F4D41 
 10506              	.LASF925:
 10507 335f 4932435F 		.ascii	"I2C_I2STAT_M_TX_RESTART ((0x10))\000"
 10507      49325354 
 10507      41545F4D 
 10507      5F54585F 
 10507      52455354 
 10508              	.LASF879:
 10509 3380 4144435F 		.ascii	"ADC_MAX_SAMPLE_RATE 400000\000"
 10509      4D41585F 
ARM GAS  /var/folders/9j/_txx49hn253_s3mnzkyxlj8m0000gp/T//ccgYRR5b.s 			page 239


 10509      53414D50 
 10509      4C455F52 
 10509      41544520 
 10510              	.LASF1108:
 10511 339b 53595343 		.ascii	"SYSCTL_CLOCK_GPIO\000"
 10511      544C5F43 
 10511      4C4F434B 
 10511      5F475049 
 10511      4F00
 10512              	.LASF542:
 10513 33ad 5343425F 		.ascii	"SCB_AIRCR_VECTKEY_Msk (0xFFFFUL << SCB_AIRCR_VECTKE"
 10513      41495243 
 10513      525F5645 
 10513      43544B45 
 10513      595F4D73 
 10514 33e0 595F506F 		.ascii	"Y_Pos)\000"
 10514      732900
 10515              	.LASF8:
 10516 33e7 5F5F4154 		.ascii	"__ATOMIC_ACQUIRE 2\000"
 10516      4F4D4943 
 10516      5F414351 
 10516      55495245 
 10516      203200
 10517              	.LASF1146:
 10518 33fa 43686970 		.ascii	"Chip_Clock_DisablePeriphClock\000"
 10518      5F436C6F 
 10518      636B5F44 
 10518      69736162 
 10518      6C655065 
 10519              	.LASF635:
 10520 3418 504D555F 		.ascii	"PMU_PCON_PM_DEEPPOWERDOWN (0x2)\000"
 10520      50434F4E 
 10520      5F504D5F 
 10520      44454550 
 10520      504F5745 
 10521              	.LASF862:
 10522 3438 5353505F 		.ascii	"SSP_CR1_MASTER_EN ((uint32_t) (0))\000"
 10522      4352315F 
 10522      4D415354 
 10522      45525F45 
 10522      4E202828 
 10523              	.LASF1043:
 10524 345b 55534250 		.ascii	"USBPLLSTAT\000"
 10524      4C4C5354 
 10524      415400
 10525              	.LASF324:
 10526 3466 5F5F4152 		.ascii	"__ARM_SIZEOF_WCHAR_T 4\000"
 10526      4D5F5349 
 10526      5A454F46 
 10526      5F574348 
 10526      41525F54 
 10527              	.LASF419:
 10528 347d 55494E54 		.ascii	"UINT16_MAX (__UINT16_MAX__)\000"
 10528      31365F4D 
 10528      41582028 
 10528      5F5F5549 
 10528      4E543136 
ARM GAS  /var/folders/9j/_txx49hn253_s3mnzkyxlj8m0000gp/T//ccgYRR5b.s 			page 240


 10529              	.LASF65:
 10530 3499 5F5F6861 		.ascii	"__has_include(STR) __has_include__(STR)\000"
 10530      735F696E 
 10530      636C7564 
 10530      65285354 
 10530      5229205F 
 10531              	.LASF1187:
 10532 34c1 52696E67 		.ascii	"RingBuffer_InsertMult\000"
 10532      42756666 
 10532      65725F49 
 10532      6E736572 
 10532      744D756C 
 10533              	.LASF522:
 10534 34d7 5343425F 		.ascii	"SCB_CPUID_REVISION_Msk (0xFUL << SCB_CPUID_REVISION"
 10534      43505549 
 10534      445F5245 
 10534      56495349 
 10534      4F4E5F4D 
 10535 350a 5F506F73 		.ascii	"_Pos)\000"
 10535      2900
 10536              	.LASF754:
 10537 3510 55415254 		.ascii	"UART_FCR_TX_RS (1 << 2)\000"
 10537      5F464352 
 10537      5F54585F 
 10537      52532028 
 10537      31203C3C 
 10538              	.LASF667:
 10539 3528 494F434F 		.ascii	"IOCON_FUNC0 0x0\000"
 10539      4E5F4655 
 10539      4E433020 
 10539      30783000 
 10540              	.LASF147:
 10541 3538 5F5F4442 		.ascii	"__DBL_EPSILON__ ((double)2.2204460492503131e-16L)\000"
 10541      4C5F4550 
 10541      53494C4F 
 10541      4E5F5F20 
 10541      2828646F 
 10542              	.LASF136:
 10543 356a 5F5F464C 		.ascii	"__FLT_HAS_INFINITY__ 1\000"
 10543      545F4841 
 10543      535F494E 
 10543      46494E49 
 10543      54595F5F 
 10544              	.LASF961:
 10545 3581 4932435F 		.ascii	"I2C_I2ADR_BITMASK ((0xFF))\000"
 10545      49324144 
 10545      525F4249 
 10545      544D4153 
 10545      4B202828 
 10546              	.LASF240:
 10547 359c 5F5F4143 		.ascii	"__ACCUM_MAX__ 0X7FFFFFFFP-15K\000"
 10547      43554D5F 
 10547      4D41585F 
 10547      5F203058 
 10547      37464646 
 10548              	.LASF536:
 10549 35ba 5343425F 		.ascii	"SCB_ICSR_ISRPENDING_Msk (1UL << SCB_ICSR_ISRPENDING"
ARM GAS  /var/folders/9j/_txx49hn253_s3mnzkyxlj8m0000gp/T//ccgYRR5b.s 			page 241


 10549      49435352 
 10549      5F495352 
 10549      50454E44 
 10549      494E475F 
 10550 35ed 5F506F73 		.ascii	"_Pos)\000"
 10550      2900
 10551              	.LASF155:
 10552 35f3 5F5F4C44 		.ascii	"__LDBL_MIN_10_EXP__ (-307)\000"
 10552      424C5F4D 
 10552      494E5F31 
 10552      305F4558 
 10552      505F5F20 
 10553              	.LASF819:
 10554 360e 55415254 		.ascii	"UART_ICR_IRDAINV (1 << 1)\000"
 10554      5F494352 
 10554      5F495244 
 10554      41494E56 
 10554      20283120 
 10555              	.LASF618:
 10556 3628 4C50435F 		.ascii	"LPC_TIMER16_0 ((LPC_TIMER_T *) LPC_TIMER16_0_BASE)\000"
 10556      54494D45 
 10556      5231365F 
 10556      30202828 
 10556      4C50435F 
 10557              	.LASF250:
 10558 365b 5F5F4C41 		.ascii	"__LACCUM_MAX__ 0X7FFFFFFFFFFFFFFFP-31LK\000"
 10558      4343554D 
 10558      5F4D4158 
 10558      5F5F2030 
 10558      58374646 
 10559              	.LASF358:
 10560 3683 5F5F5F69 		.ascii	"___int8_t_defined 1\000"
 10560      6E74385F 
 10560      745F6465 
 10560      66696E65 
 10560      64203100 
 10561              	.LASF189:
 10562 3697 5F5F5346 		.ascii	"__SFRACT_MIN__ (-0.5HR-0.5HR)\000"
 10562      52414354 
 10562      5F4D494E 
 10562      5F5F2028 
 10562      2D302E35 
 10563              	.LASF1031:
 10564 36b5 6C6F6E67 		.ascii	"long unsigned int\000"
 10564      20756E73 
 10564      69676E65 
 10564      6420696E 
 10564      7400
 10565              	.LASF290:
 10566 36c7 5F5F5341 		.ascii	"__SA_IBIT__ 16\000"
 10566      5F494249 
 10566      545F5F20 
 10566      313600
 10567              	.LASF139:
 10568 36d6 5F5F4442 		.ascii	"__DBL_DIG__ 15\000"
 10568      4C5F4449 
 10568      475F5F20 
ARM GAS  /var/folders/9j/_txx49hn253_s3mnzkyxlj8m0000gp/T//ccgYRR5b.s 			page 242


 10568      313500
 10569              	.LASF371:
 10570 36e5 7369676E 		.ascii	"signed\000"
 10570      656400
 10571              	.LASF2:
 10572 36ec 5F5F474E 		.ascii	"__GNUC__ 4\000"
 10572      55435F5F 
 10572      203400
 10573              	.LASF867:
 10574 36f7 5353505F 		.ascii	"SSP_SR_BITMASK ((uint32_t) (0x1F))\000"
 10574      53525F42 
 10574      49544D41 
 10574      534B2028 
 10574      2875696E 
 10575              	.LASF712:
 10576 371a 54494D45 		.ascii	"TIMER_MATCH_INT(n) (_BIT((n) & 0x0F))\000"
 10576      525F4D41 
 10576      5443485F 
 10576      494E5428 
 10576      6E292028 
 10577              	.LASF44:
 10578 3740 5F5F5549 		.ascii	"__UINT16_TYPE__ short unsigned int\000"
 10578      4E543136 
 10578      5F545950 
 10578      455F5F20 
 10578      73686F72 
 10579              	.LASF815:
 10580 3763 55415254 		.ascii	"UART_RS485CTRL_DCTRL_EN (1 << 4)\000"
 10580      5F525334 
 10580      38354354 
 10580      524C5F44 
 10580      4354524C 
 10581              	.LASF333:
 10582 3784 5F5F534F 		.ascii	"__SOFTFP__ 1\000"
 10582      46544650 
 10582      5F5F2031 
 10582      00
 10583              	.LASF398:
 10584 3791 5F5F696E 		.ascii	"__int32_t_defined 1\000"
 10584      7433325F 
 10584      745F6465 
 10584      66696E65 
 10584      64203100 
 10585              	.LASF450:
 10586 37a5 53495A45 		.ascii	"SIZE_MAX (__SIZE_MAX__)\000"
 10586      5F4D4158 
 10586      20285F5F 
 10586      53495A45 
 10586      5F4D4158 
 10587              	.LASF168:
 10588 37bd 5F5F4445 		.ascii	"__DEC32_MAX_EXP__ 97\000"
 10588      4333325F 
 10588      4D41585F 
 10588      4558505F 
 10588      5F203937 
 10589              	.LASF579:
 10590 37d2 53797354 		.ascii	"SysTick_CALIB_TENMS_Pos 0\000"
ARM GAS  /var/folders/9j/_txx49hn253_s3mnzkyxlj8m0000gp/T//ccgYRR5b.s 			page 243


 10590      69636B5F 
 10590      43414C49 
 10590      425F5445 
 10590      4E4D535F 
 10591              	.LASF835:
 10592 37ec 55415254 		.ascii	"UART_SYNCCTRL_CSRC_MASTER (1 << 1)\000"
 10592      5F53594E 
 10592      43435452 
 10592      4C5F4353 
 10592      52435F4D 
 10593              	.LASF650:
 10594 380f 53595343 		.ascii	"SYSCTL_SLPWAKE_FLASH_PD (1 << 2)\000"
 10594      544C5F53 
 10594      4C505741 
 10594      4B455F46 
 10594      4C415348 
 10595              	.LASF380:
 10596 3830 696E7420 		.ascii	"int +2\000"
 10596      2B3200
 10597              	.LASF898:
 10598 3837 5F5F4750 		.ascii	"__GPIO_11XX_2_H_ \000"
 10598      494F5F31 
 10598      3158585F 
 10598      325F485F 
 10598      2000
 10599              	.LASF459:
 10600 3849 494E5438 		.ascii	"INT8_C(x) __INT8_C(x)\000"
 10600      5F432878 
 10600      29205F5F 
 10600      494E5438 
 10600      5F432878 
 10601              	.LASF488:
 10602 385f 4D415828 		.ascii	"MAX(a,b) (((a) > (b)) ? (a) : (b))\000"
 10602      612C6229 
 10602      20282828 
 10602      6129203E 
 10602      20286229 
 10603              	.LASF59:
 10604 3882 5F5F5549 		.ascii	"__UINT_FAST8_TYPE__ unsigned int\000"
 10604      4E545F46 
 10604      41535438 
 10604      5F545950 
 10604      455F5F20 
 10605              	.LASF258:
 10606 38a3 5F5F4C4C 		.ascii	"__LLACCUM_IBIT__ 32\000"
 10606      41434355 
 10606      4D5F4942 
 10606      49545F5F 
 10606      20333200 
 10607              	.LASF548:
 10608 38b7 5343425F 		.ascii	"SCB_AIRCR_SYSRESETREQ_Msk (1UL << SCB_AIRCR_SYSRESE"
 10608      41495243 
 10608      525F5359 
 10608      53524553 
 10608      45545245 
 10609 38ea 54524551 		.ascii	"TREQ_Pos)\000"
 10609      5F506F73 
ARM GAS  /var/folders/9j/_txx49hn253_s3mnzkyxlj8m0000gp/T//ccgYRR5b.s 			page 244


 10609      2900
 10610              	.LASF201:
 10611 38f4 5F5F4652 		.ascii	"__FRACT_EPSILON__ 0x1P-15R\000"
 10611      4143545F 
 10611      45505349 
 10611      4C4F4E5F 
 10611      5F203078 
 10612              	.LASF486:
 10613 390f 45585445 		.ascii	"EXTERN extern\000"
 10613      524E2065 
 10613      78746572 
 10613      6E00
 10614              	.LASF534:
 10615 391d 5343425F 		.ascii	"SCB_ICSR_ISRPREEMPT_Msk (1UL << SCB_ICSR_ISRPREEMPT"
 10615      49435352 
 10615      5F495352 
 10615      50524545 
 10615      4D50545F 
 10616 3950 5F506F73 		.ascii	"_Pos)\000"
 10616      2900
 10617              	.LASF1132:
 10618 3956 4844454E 		.ascii	"HDEN\000"
 10618      00
 10619              	.LASF971:
 10620 395b 4932435F 		.ascii	"I2C_LAST_BYTE_RECV 0x04\000"
 10620      4C415354 
 10620      5F425954 
 10620      455F5245 
 10620      43562030 
 10621              	.LASF495:
 10622 3973 5F5F4D50 		.ascii	"__MPU_PRESENT 0\000"
 10622      555F5052 
 10622      4553454E 
 10622      54203000 
 10623              	.LASF38:
 10624 3983 5F5F5349 		.ascii	"__SIG_ATOMIC_TYPE__ int\000"
 10624      475F4154 
 10624      4F4D4943 
 10624      5F545950 
 10624      455F5F20 
 10625              	.LASF395:
 10626 399b 5F535953 		.ascii	"_SYS__STDINT_H \000"
 10626      5F5F5354 
 10626      44494E54 
 10626      5F482000 
 10627              	.LASF70:
 10628 39ab 5F5F494E 		.ascii	"__INT_MAX__ 2147483647\000"
 10628      545F4D41 
 10628      585F5F20 
 10628      32313437 
 10628      34383336 
 10629              	.LASF54:
 10630 39c2 5F5F5549 		.ascii	"__UINT_LEAST64_TYPE__ long long unsigned int\000"
 10630      4E545F4C 
 10630      45415354 
 10630      36345F54 
 10630      5950455F 
ARM GAS  /var/folders/9j/_txx49hn253_s3mnzkyxlj8m0000gp/T//ccgYRR5b.s 			page 245


 10631              	.LASF185:
 10632 39ef 5F5F4445 		.ascii	"__DEC128_EPSILON__ 1E-33DL\000"
 10632      43313238 
 10632      5F455053 
 10632      494C4F4E 
 10632      5F5F2031 
 10633              	.LASF749:
 10634 3a0a 55415254 		.ascii	"UART_IIR_INTID_CTI (6 << 1)\000"
 10634      5F494952 
 10634      5F494E54 
 10634      49445F43 
 10634      54492028 
 10635              	.LASF161:
 10636 3a26 5F5F4C44 		.ascii	"__LDBL_EPSILON__ 2.2204460492503131e-16L\000"
 10636      424C5F45 
 10636      5053494C 
 10636      4F4E5F5F 
 10636      20322E32 
 10637              	.LASF1014:
 10638 3a4f 4F445F53 		.ascii	"OD_SEG_WO 0x50\000"
 10638      45475F57 
 10638      4F203078 
 10638      353000
 10639              	.LASF672:
 10640 3a5e 494F434F 		.ascii	"IOCON_FUNC5 0x5\000"
 10640      4E5F4655 
 10640      4E433520 
 10640      30783500 
 10641              	.LASF309:
 10642 3a6e 5F5F4743 		.ascii	"__GCC_ATOMIC_CHAR16_T_LOCK_FREE 1\000"
 10642      435F4154 
 10642      4F4D4943 
 10642      5F434841 
 10642      5231365F 
 10643              	.LASF390:
 10644 3a90 5F5F4641 		.ascii	"__FAST64 \"ll\"\000"
 10644      53543634 
 10644      20226C6C 
 10644      2200
 10645              	.LASF9:
 10646 3a9e 5F5F4154 		.ascii	"__ATOMIC_RELEASE 3\000"
 10646      4F4D4943 
 10646      5F52454C 
 10646      45415345 
 10646      203300
 10647              	.LASF377:
 10648 3ab1 756E7369 		.ascii	"unsigned +0\000"
 10648      676E6564 
 10648      202B3000 
 10649              	.LASF124:
 10650 3abd 5F5F464C 		.ascii	"__FLT_MANT_DIG__ 24\000"
 10650      545F4D41 
 10650      4E545F44 
 10650      49475F5F 
 10650      20323400 
 10651              	.LASF1193:
 10652 3ad1 43484950 		.ascii	"CHIP_SYSCTL_CLOCK\000"
ARM GAS  /var/folders/9j/_txx49hn253_s3mnzkyxlj8m0000gp/T//ccgYRR5b.s 			page 246


 10652      5F535953 
 10652      43544C5F 
 10652      434C4F43 
 10652      4B00
 10653              	.LASF1083:
 10654 3ae3 4952514C 		.ascii	"IRQLATENCY\000"
 10654      4154454E 
 10654      435900
 10655              	.LASF57:
 10656 3aee 5F5F494E 		.ascii	"__INT_FAST32_TYPE__ int\000"
 10656      545F4641 
 10656      53543332 
 10656      5F545950 
 10656      455F5F20 
 10657              	.LASF1118:
 10658 3b06 53595343 		.ascii	"SYSCTL_CLOCK_IOCON\000"
 10658      544C5F43 
 10658      4C4F434B 
 10658      5F494F43 
 10658      4F4E00
 10659              	.LASF449:
 10660 3b19 55494E54 		.ascii	"UINTMAX_MAX (__UINTMAX_MAX__)\000"
 10660      4D41585F 
 10660      4D415820 
 10660      285F5F55 
 10660      494E544D 
 10661              	.LASF884:
 10662 3b37 4144435F 		.ascii	"ADC_CR_CH_SEL(n) ((1UL << (n)))\000"
 10662      43525F43 
 10662      485F5345 
 10662      4C286E29 
 10662      20282831 
 10663              	.LASF313:
 10664 3b57 5F5F4743 		.ascii	"__GCC_ATOMIC_INT_LOCK_FREE 1\000"
 10664      435F4154 
 10664      4F4D4943 
 10664      5F494E54 
 10664      5F4C4F43 
 10665              	.LASF12:
 10666 3b74 5F5F4F50 		.ascii	"__OPTIMIZE__ 1\000"
 10666      54494D49 
 10666      5A455F5F 
 10666      203100
 10667              	.LASF769:
 10668 3b83 55415254 		.ascii	"UART_LCR_SBS_2BIT (1 << 2)\000"
 10668      5F4C4352 
 10668      5F534253 
 10668      5F324249 
 10668      54202831 
 10669              	.LASF632:
 10670 3b9e 4C50435F 		.ascii	"LPC_ROM_API (*((LPC_ROM_API_T * *) LPC_ROM_API_BASE"
 10670      524F4D5F 
 10670      41504920 
 10670      282A2828 
 10670      4C50435F 
 10671 3bd1 5F4C4F43 		.ascii	"_LOC))\000"
 10671      292900
ARM GAS  /var/folders/9j/_txx49hn253_s3mnzkyxlj8m0000gp/T//ccgYRR5b.s 			page 247


 10672              	.LASF389:
 10673 3bd8 5F5F4641 		.ascii	"__FAST32 \000"
 10673      53543332 
 10673      2000
 10674              	.LASF510:
 10675 3be2 5F5F4920 		.ascii	"__I volatile const\000"
 10675      766F6C61 
 10675      74696C65 
 10675      20636F6E 
 10675      737400
 10676              	.LASF845:
 10677 3bf5 57574454 		.ascii	"WWDT_WDMOD_WDTOF ((uint32_t) (1 << 2))\000"
 10677      5F57444D 
 10677      4F445F57 
 10677      44544F46 
 10677      20282875 
 10678              	.LASF894:
 10679 3c1c 4144435F 		.ascii	"ADC_CR_START_ADCTRIG1 ((5UL << 24))\000"
 10679      43525F53 
 10679      54415254 
 10679      5F414443 
 10679      54524947 
 10680              	.LASF162:
 10681 3c40 5F5F4C44 		.ascii	"__LDBL_DENORM_MIN__ 4.9406564584124654e-324L\000"
 10681      424C5F44 
 10681      454E4F52 
 10681      4D5F4D49 
 10681      4E5F5F20 
 10682              	.LASF869:
 10683 3c6d 5353505F 		.ascii	"SSP_CPHA_FIRST SSP_CR0_CPHA_FIRST\000"
 10683      43504841 
 10683      5F464952 
 10683      53542053 
 10683      53505F43 
 10684              	.LASF223:
 10685 3c8f 5F5F554C 		.ascii	"__ULLFRACT_IBIT__ 0\000"
 10685      4C465241 
 10685      43545F49 
 10685      4249545F 
 10685      5F203000 
 10686              	.LASF1103:
 10687 3ca3 53595343 		.ascii	"SYSCTL_CLOCK_ROM\000"
 10687      544C5F43 
 10687      4C4F434B 
 10687      5F524F4D 
 10687      00
 10688              	.LASF795:
 10689 3cb4 55415254 		.ascii	"UART1_LSR_BITMASK (0x1FF)\000"
 10689      315F4C53 
 10689      525F4249 
 10689      544D4153 
 10689      4B202830 
 10690              	.LASF761:
 10691 3cce 55415254 		.ascii	"UART_FCR_TRG_LEV3 (3 << 6)\000"
 10691      5F464352 
 10691      5F545247 
 10691      5F4C4556 
ARM GAS  /var/folders/9j/_txx49hn253_s3mnzkyxlj8m0000gp/T//ccgYRR5b.s 			page 248


 10691      33202833 
 10692              	.LASF935:
 10693 3ce9 4932435F 		.ascii	"I2C_I2STAT_M_RX_SLAR_NACK ((0x48))\000"
 10693      49325354 
 10693      41545F4D 
 10693      5F52585F 
 10693      534C4152 
 10694              	.LASF628:
 10695 3d0c 4C50435F 		.ascii	"LPC_SSP1 ((LPC_SSP_T *) LPC_SSP1_BASE)\000"
 10695      53535031 
 10695      2028284C 
 10695      50435F53 
 10695      53505F54 
 10696              	.LASF737:
 10697 3d33 55415254 		.ascii	"UART_IER_ABTOINT (1 << 9)\000"
 10697      5F494552 
 10697      5F414254 
 10697      4F494E54 
 10697      20283120 
 10698              	.LASF823:
 10699 3d4d 55415254 		.ascii	"UART_HDEN_HDEN ((1 << 0))\000"
 10699      5F484445 
 10699      4E5F4844 
 10699      454E2028 
 10699      2831203C 
 10700              	.LASF505:
 10701 3d67 5F5F5354 		.ascii	"__STATIC_INLINE static inline\000"
 10701      41544943 
 10701      5F494E4C 
 10701      494E4520 
 10701      73746174 
 10702              	.LASF601:
 10703 3d85 4C50435F 		.ascii	"LPC_PMU_BASE 0x40038000\000"
 10703      504D555F 
 10703      42415345 
 10703      20307834 
 10703      30303338 
 10704              	.LASF407:
 10705 3d9d 5F5F696E 		.ascii	"__int_fast64_t_defined 1\000"
 10705      745F6661 
 10705      73743634 
 10705      5F745F64 
 10705      6566696E 
 10706              	.LASF976:
 10707 3db6 4932435F 		.ascii	"I2C_CheckError(ErrorCode) (ErrorCode & 0x10000000)\000"
 10707      43686563 
 10707      6B457272 
 10707      6F722845 
 10707      72726F72 
 10708              	.LASF131:
 10709 3de9 5F5F464C 		.ascii	"__FLT_MAX__ 3.4028234663852886e+38F\000"
 10709      545F4D41 
 10709      585F5F20 
 10709      332E3430 
 10709      32383233 
 10710              	.LASF664:
 10711 3e0d 5F5F434C 		.ascii	"__CLOCK_11XX_H_ \000"
ARM GAS  /var/folders/9j/_txx49hn253_s3mnzkyxlj8m0000gp/T//ccgYRR5b.s 			page 249


 10711      4F434B5F 
 10711      31315858 
 10711      5F485F20 
 10711      00
 10712              	.LASF242:
 10713 3e1e 5F5F5541 		.ascii	"__UACCUM_FBIT__ 16\000"
 10713      4343554D 
 10713      5F464249 
 10713      545F5F20 
 10713      313600
 10714              	.LASF206:
 10715 3e31 5F5F5546 		.ascii	"__UFRACT_EPSILON__ 0x1P-16UR\000"
 10715      52414354 
 10715      5F455053 
 10715      494C4F4E 
 10715      5F5F2030 
 10716              	.LASF74:
 10717 3e4e 5F5F5743 		.ascii	"__WCHAR_MIN__ 0U\000"
 10717      4841525F 
 10717      4D494E5F 
 10717      5F203055 
 10717      00
 10718              	.LASF91:
 10719 3e5f 5F5F5549 		.ascii	"__UINT32_MAX__ 4294967295UL\000"
 10719      4E543332 
 10719      5F4D4158 
 10719      5F5F2034 
 10719      32393439 
 10720              	.LASF278:
 10721 3e7b 5F5F5551 		.ascii	"__UQQ_IBIT__ 0\000"
 10721      515F4942 
 10721      49545F5F 
 10721      203000
 10722              	.LASF314:
 10723 3e8a 5F5F4743 		.ascii	"__GCC_ATOMIC_LONG_LOCK_FREE 1\000"
 10723      435F4154 
 10723      4F4D4943 
 10723      5F4C4F4E 
 10723      475F4C4F 
 10724              	.LASF254:
 10725 3ea8 5F5F554C 		.ascii	"__ULACCUM_MIN__ 0.0ULK\000"
 10725      41434355 
 10725      4D5F4D49 
 10725      4E5F5F20 
 10725      302E3055 
 10726              	.LASF1030:
 10727 3ebf 5F5F7569 		.ascii	"__uint32_t\000"
 10727      6E743332 
 10727      5F7400
 10728              	.LASF159:
 10729 3eca 5F5F4C44 		.ascii	"__LDBL_MAX__ 1.7976931348623157e+308L\000"
 10729      424C5F4D 
 10729      41585F5F 
 10729      20312E37 
 10729      39373639 
 10730              	.LASF1151:
 10731 3ef0 73656E74 		.ascii	"sent\000"
ARM GAS  /var/folders/9j/_txx49hn253_s3mnzkyxlj8m0000gp/T//ccgYRR5b.s 			page 250


 10731      00
 10732              	.LASF123:
 10733 3ef5 5F5F464C 		.ascii	"__FLT_RADIX__ 2\000"
 10733      545F5241 
 10733      4449585F 
 10733      5F203200 
 10734              	.LASF853:
 10735 3f05 5353505F 		.ascii	"SSP_CR0_CPOL_LO ((uint32_t) (0))\000"
 10735      4352305F 
 10735      43504F4C 
 10735      5F4C4F20 
 10735      28287569 
 10736              	.LASF1032:
 10737 3f26 6C6F6E67 		.ascii	"long long int\000"
 10737      206C6F6E 
 10737      6720696E 
 10737      7400
 10738              	.LASF706:
 10739 3f34 46554E43 		.ascii	"FUNC4 0x4\000"
 10739      34203078 
 10739      3400
 10740              	.LASF425:
 10741 3f3e 55494E54 		.ascii	"UINT32_MAX (__UINT32_MAX__)\000"
 10741      33325F4D 
 10741      41582028 
 10741      5F5F5549 
 10741      4E543332 
 10742              	.LASF778:
 10743 3f5a 55415254 		.ascii	"UART_LCR_BITMASK (0xFF)\000"
 10743      5F4C4352 
 10743      5F424954 
 10743      4D41534B 
 10743      20283078 
 10744              	.LASF75:
 10745 3f72 5F5F5749 		.ascii	"__WINT_MAX__ 4294967295U\000"
 10745      4E545F4D 
 10745      41585F5F 
 10745      20343239 
 10745      34393637 
 10746              	.LASF967:
 10747 3f8b 4932435F 		.ascii	"I2C_SETUP_STATUS_DONE (1 << 10)\000"
 10747      53455455 
 10747      505F5354 
 10747      41545553 
 10747      5F444F4E 
 10748              	.LASF653:
 10749 3fab 53595343 		.ascii	"SYSCTL_SLPWAKE_SYSOSC_PD (1 << 5)\000"
 10749      544C5F53 
 10749      4C505741 
 10749      4B455F53 
 10749      59534F53 
 10750              	.LASF457:
 10751 3fcd 57494E54 		.ascii	"WINT_MAX (__WINT_MAX__)\000"
 10751      5F4D4158 
 10751      20285F5F 
 10751      57494E54 
 10751      5F4D4158 
ARM GAS  /var/folders/9j/_txx49hn253_s3mnzkyxlj8m0000gp/T//ccgYRR5b.s 			page 251


 10752              	.LASF982:
 10753 3fe5 43414E5F 		.ascii	"CAN_ERROR_WARN 0x00000002UL\000"
 10753      4552524F 
 10753      525F5741 
 10753      524E2030 
 10753      78303030 
 10754              	.LASF882:
 10755 4001 4144435F 		.ascii	"ADC_DR_DONE(n) (((n) >> 31))\000"
 10755      44525F44 
 10755      4F4E4528 
 10755      6E292028 
 10755      28286E29 
 10756              	.LASF883:
 10757 401e 4144435F 		.ascii	"ADC_DR_OVERRUN(n) ((((n) >> 30) & (1UL)))\000"
 10757      44525F4F 
 10757      56455252 
 10757      554E286E 
 10757      29202828 
 10758              	.LASF708:
 10759 4048 46554E43 		.ascii	"FUNC6 0x6\000"
 10759      36203078 
 10759      3600
 10760              	.LASF288:
 10761 4052 5F5F4841 		.ascii	"__HA_IBIT__ 8\000"
 10761      5F494249 
 10761      545F5F20 
 10761      3800
 10762              	.LASF305:
 10763 4060 5F5F474E 		.ascii	"__GNUC_GNU_INLINE__ 1\000"
 10763      55435F47 
 10763      4E555F49 
 10763      4E4C494E 
 10763      455F5F20 
 10764              	.LASF917:
 10765 4076 4932435F 		.ascii	"I2C_CON_STO (1UL << 4)\000"
 10765      434F4E5F 
 10765      53544F20 
 10765      2831554C 
 10765      203C3C20 
 10766              	.LASF588:
 10767 408d 5F424954 		.ascii	"_BIT_SHIFT(IRQn) ( (((uint32_t)(IRQn) ) & 0x03) * 8"
 10767      5F534849 
 10767      46542849 
 10767      52516E29 
 10767      20282028 
 10768 40c0 202900   		.ascii	" )\000"
 10769              	.LASF804:
 10770 40c3 55415254 		.ascii	"UART_MSR_BITMASK (0xFF)\000"
 10770      5F4D5352 
 10770      5F424954 
 10770      4D41534B 
 10770      20283078 
 10771              	.LASF1195:
 10772 40db 43686970 		.ascii	"Chip_Clock_GetMainClockRate\000"
 10772      5F436C6F 
 10772      636B5F47 
 10772      65744D61 
ARM GAS  /var/folders/9j/_txx49hn253_s3mnzkyxlj8m0000gp/T//ccgYRR5b.s 			page 252


 10772      696E436C 
 10773              	.LASF799:
 10774 40f7 55415254 		.ascii	"UART_MSR_DELTA_DCD (1 << 3)\000"
 10774      5F4D5352 
 10774      5F44454C 
 10774      54415F44 
 10774      43442028 
 10775              	.LASF824:
 10776 4113 55415254 		.ascii	"UART_SCICTRL_SCIEN (1 << 0)\000"
 10776      5F534349 
 10776      4354524C 
 10776      5F534349 
 10776      454E2028 
 10777              	.LASF27:
 10778 412f 5F5F4259 		.ascii	"__BYTE_ORDER__ __ORDER_LITTLE_ENDIAN__\000"
 10778      54455F4F 
 10778      52444552 
 10778      5F5F205F 
 10778      5F4F5244 
 10779              	.LASF1049:
 10780 4156 53595352 		.ascii	"SYSRSTSTAT\000"
 10780      53545354 
 10780      415400
 10781              	.LASF360:
 10782 4161 5F5F5F69 		.ascii	"___int32_t_defined 1\000"
 10782      6E743332 
 10782      5F745F64 
 10782      6566696E 
 10782      65642031 
 10783              	.LASF847:
 10784 4176 57574454 		.ascii	"WWDT_WDMOD_WDPROTECT ((uint32_t) (1 << 4))\000"
 10784      5F57444D 
 10784      4F445F57 
 10784      4450524F 
 10784      54454354 
 10785              	.LASF927:
 10786 41a1 4932435F 		.ascii	"I2C_I2STAT_M_TX_SLAW_NACK ((0x20))\000"
 10786      49325354 
 10786      41545F4D 
 10786      5F54585F 
 10786      534C4157 
 10787              	.LASF774:
 10788 41c4 55415254 		.ascii	"UART_LCR_PARITY_F_1 (2 << 4)\000"
 10788      5F4C4352 
 10788      5F504152 
 10788      4954595F 
 10788      465F3120 
 10789              	.LASF1149:
 10790 41e1 43686970 		.ascii	"Chip_UART_ReadLineStatus\000"
 10790      5F554152 
 10790      545F5265 
 10790      61644C69 
 10790      6E655374 
 10791              	.LASF42:
 10792 41fa 5F5F494E 		.ascii	"__INT64_TYPE__ long long int\000"
 10792      5436345F 
 10792      54595045 
ARM GAS  /var/folders/9j/_txx49hn253_s3mnzkyxlj8m0000gp/T//ccgYRR5b.s 			page 253


 10792      5F5F206C 
 10792      6F6E6720 
 10793              	.LASF207:
 10794 4217 5F5F4C46 		.ascii	"__LFRACT_FBIT__ 31\000"
 10794      52414354 
 10794      5F464249 
 10794      545F5F20 
 10794      333100
 10795              	.LASF22:
 10796 422a 5F5F4348 		.ascii	"__CHAR_BIT__ 8\000"
 10796      41525F42 
 10796      49545F5F 
 10796      203800
 10797              	.LASF320:
 10798 4239 5F5F5349 		.ascii	"__SIZEOF_WCHAR_T__ 4\000"
 10798      5A454F46 
 10798      5F574348 
 10798      41525F54 
 10798      5F5F2034 
 10799              	.LASF602:
 10800 424e 4C50435F 		.ascii	"LPC_FLASH_BASE 0x4003C000\000"
 10800      464C4153 
 10800      485F4241 
 10800      53452030 
 10800      78343030 
 10801              	.LASF420:
 10802 4268 494E545F 		.ascii	"INT_LEAST16_MIN (-__INT_LEAST16_MAX__ - 1)\000"
 10802      4C454153 
 10802      5431365F 
 10802      4D494E20 
 10802      282D5F5F 
 10803              	.LASF580:
 10804 4293 53797354 		.ascii	"SysTick_CALIB_TENMS_Msk (0xFFFFFFUL << SysTick_VAL_"
 10804      69636B5F 
 10804      43414C49 
 10804      425F5445 
 10804      4E4D535F 
 10805 42c6 43555252 		.ascii	"CURRENT_Pos)\000"
 10805      454E545F 
 10805      506F7329 
 10805      00
 10806              	.LASF946:
 10807 42d3 4932435F 		.ascii	"I2C_I2STAT_S_RX_STA_STO_SLVREC_SLVTRX ((0xA0))\000"
 10807      49325354 
 10807      41545F53 
 10807      5F52585F 
 10807      5354415F 
 10808              	.LASF1162:
 10809 4302 43686970 		.ascii	"Chip_UART_Init\000"
 10809      5F554152 
 10809      545F496E 
 10809      697400
 10810              	.LASF537:
 10811 4311 5343425F 		.ascii	"SCB_ICSR_VECTPENDING_Pos 12\000"
 10811      49435352 
 10811      5F564543 
 10811      5450454E 
ARM GAS  /var/folders/9j/_txx49hn253_s3mnzkyxlj8m0000gp/T//ccgYRR5b.s 			page 254


 10811      44494E47 
 10812              	.LASF891:
 10813 432d 4144435F 		.ascii	"ADC_CR_START_CTOUT15 ((2UL << 24))\000"
 10813      43525F53 
 10813      54415254 
 10813      5F43544F 
 10813      55543135 
 10814              	.LASF205:
 10815 4350 5F5F5546 		.ascii	"__UFRACT_MAX__ 0XFFFFP-16UR\000"
 10815      52414354 
 10815      5F4D4158 
 10815      5F5F2030 
 10815      58464646 
 10816              	.LASF633:
 10817 436c 5F5F504D 		.ascii	"__PMU_11XX_H_ \000"
 10817      555F3131 
 10817      58585F48 
 10817      5F2000
 10818              	.LASF365:
 10819 437b 5F5F5F69 		.ascii	"___int_least64_t_defined 1\000"
 10819      6E745F6C 
 10819      65617374 
 10819      36345F74 
 10819      5F646566 
 10820              	.LASF957:
 10821 4396 4932435F 		.ascii	"I2C_I2MMCTRL_MATCH_ALL ((1 << 2))\000"
 10821      49324D4D 
 10821      4354524C 
 10821      5F4D4154 
 10821      43485F41 
 10822              	.LASF720:
 10823 43b8 54494D45 		.ascii	"TIMER_CAP_FALLING(n) (_BIT((((n) * 3) + 1)))\000"
 10823      525F4341 
 10823      505F4641 
 10823      4C4C494E 
 10823      47286E29 
 10824              	.LASF513:
 10825 43e5 5343425F 		.ascii	"SCB_CPUID_IMPLEMENTER_Pos 24\000"
 10825      43505549 
 10825      445F494D 
 10825      504C454D 
 10825      454E5445 
 10826              	.LASF1019:
 10827 4402 43414E5F 		.ascii	"CAN_SDOSEG_SEGMENT 0\000"
 10827      53444F53 
 10827      45475F53 
 10827      45474D45 
 10827      4E542030 
 10828              	.LASF443:
 10829 4417 55494E54 		.ascii	"UINT_FAST32_MAX (__UINT_FAST32_MAX__)\000"
 10829      5F464153 
 10829      5433325F 
 10829      4D415820 
 10829      285F5F55 
 10830              	.LASF368:
 10831 443d 5F5F5354 		.ascii	"__STDINT_EXP(x) __ ##x ##__\000"
 10831      44494E54 
ARM GAS  /var/folders/9j/_txx49hn253_s3mnzkyxlj8m0000gp/T//ccgYRR5b.s 			page 255


 10831      5F455850 
 10831      28782920 
 10831      5F5F2023 
 10832              	.LASF357:
 10833 4459 5F5F4558 		.ascii	"__EXP(x) __ ##x ##__\000"
 10833      50287829 
 10833      205F5F20 
 10833      23237820 
 10833      23235F5F 
 10834              	.LASF1158:
 10835 446e 43686970 		.ascii	"Chip_UART_DisableDivisorAccess\000"
 10835      5F554152 
 10835      545F4469 
 10835      7361626C 
 10835      65446976 
 10836              	.LASF611:
 10837 448d 4C50435F 		.ascii	"LPC_GPIO_PORT2_BASE 0x50020000\000"
 10837      4750494F 
 10837      5F504F52 
 10837      54325F42 
 10837      41534520 
 10838              	.LASF796:
 10839 44ac 55415254 		.ascii	"UART_MSR_DELTA_CTS (1 << 0)\000"
 10839      5F4D5352 
 10839      5F44454C 
 10839      54415F43 
 10839      54532028 
 10840              	.LASF700:
 10841 44c8 4D445F46 		.ascii	"MD_FASTI2C (0x2 << 8)\000"
 10841      41535449 
 10841      32432028 
 10841      30783220 
 10841      3C3C2038 
 10842              	.LASF719:
 10843 44de 54494D45 		.ascii	"TIMER_CAP_RISING(n) (_BIT(((n) * 3)))\000"
 10843      525F4341 
 10843      505F5249 
 10843      53494E47 
 10843      286E2920 
 10844              	.LASF989:
 10845 4504 43414E5F 		.ascii	"CAN_ERROR_CRC 0x00000100UL\000"
 10845      4552524F 
 10845      525F4352 
 10845      43203078 
 10845      30303030 
 10846              	.LASF1123:
 10847 451f 636F756E 		.ascii	"count\000"
 10847      7400
 10848              	.LASF659:
 10849 4525 53595343 		.ascii	"SYSCTL_POWERDOWN_BOD_PD (1 << 3)\000"
 10849      544C5F50 
 10849      4F574552 
 10849      444F574E 
 10849      5F424F44 
 10850              	.LASF484:
 10851 4546 4E454C45 		.ascii	"NELEMENTS(array) (sizeof(array) / sizeof(array[0]))"
 10851      4D454E54 
ARM GAS  /var/folders/9j/_txx49hn253_s3mnzkyxlj8m0000gp/T//ccgYRR5b.s 			page 256


 10851      53286172 
 10851      72617929 
 10851      20287369 
 10852 4579 00       		.ascii	"\000"
 10853              	.LASF33:
 10854 457a 5F5F5749 		.ascii	"__WINT_TYPE__ unsigned int\000"
 10854      4E545F54 
 10854      5950455F 
 10854      5F20756E 
 10854      7369676E 
 10855              	.LASF772:
 10856 4595 55415254 		.ascii	"UART_LCR_PARITY_ODD (0 << 4)\000"
 10856      5F4C4352 
 10856      5F504152 
 10856      4954595F 
 10856      4F444420 
 10857              	.LASF283:
 10858 45b2 5F5F5544 		.ascii	"__UDQ_FBIT__ 64\000"
 10858      515F4642 
 10858      49545F5F 
 10858      20363400 
 10859              	.LASF590:
 10860 45c2 5F49505F 		.ascii	"_IP_IDX(IRQn) ( ((uint32_t)(IRQn) >> 2) )\000"
 10860      49445828 
 10860      4952516E 
 10860      29202820 
 10860      28287569 
 10861              	.LASF405:
 10862 45ec 5F5F696E 		.ascii	"__int_fast16_t_defined 1\000"
 10862      745F6661 
 10862      73743136 
 10862      5F745F64 
 10862      6566696E 
 10863              	.LASF733:
 10864 4605 55415254 		.ascii	"UART_IER_RLSINT (1 << 2)\000"
 10864      5F494552 
 10864      5F524C53 
 10864      494E5420 
 10864      2831203C 
 10865              	.LASF157:
 10866 461e 5F5F4C44 		.ascii	"__LDBL_MAX_10_EXP__ 308\000"
 10866      424C5F4D 
 10866      41585F31 
 10866      305F4558 
 10866      505F5F20 
 10867              	.LASF587:
 10868 4636 4E564943 		.ascii	"NVIC ((NVIC_Type *) NVIC_BASE )\000"
 10868      2028284E 
 10868      5649435F 
 10868      54797065 
 10868      202A2920 
 10869              	.LASF430:
 10870 4656 494E5436 		.ascii	"INT64_MAX (__INT64_MAX__)\000"
 10870      345F4D41 
 10870      5820285F 
 10870      5F494E54 
 10870      36345F4D 
ARM GAS  /var/folders/9j/_txx49hn253_s3mnzkyxlj8m0000gp/T//ccgYRR5b.s 			page 257


 10871              	.LASF1020:
 10872 4670 43414E5F 		.ascii	"CAN_SDOSEG_OPEN 1\000"
 10872      53444F53 
 10872      45475F4F 
 10872      50454E20 
 10872      3100
 10873              	.LASF164:
 10874 4682 5F5F4C44 		.ascii	"__LDBL_HAS_INFINITY__ 1\000"
 10874      424C5F48 
 10874      41535F49 
 10874      4E46494E 
 10874      4954595F 
 10875              	.LASF531:
 10876 469a 5343425F 		.ascii	"SCB_ICSR_PENDSTCLR_Pos 25\000"
 10876      49435352 
 10876      5F50454E 
 10876      44535443 
 10876      4C525F50 
 10877              	.LASF1023:
 10878 46b4 756E7369 		.ascii	"unsigned int\000"
 10878      676E6564 
 10878      20696E74 
 10878      00
 10879              	.LASF200:
 10880 46c1 5F5F4652 		.ascii	"__FRACT_MAX__ 0X7FFFP-15R\000"
 10880      4143545F 
 10880      4D41585F 
 10880      5F203058 
 10880      37464646 
 10881              	.LASF1052:
 10882 46db 53595350 		.ascii	"SYSPLLCLKUEN\000"
 10882      4C4C434C 
 10882      4B55454E 
 10882      00
 10883              	.LASF126:
 10884 46e8 5F5F464C 		.ascii	"__FLT_MIN_EXP__ (-125)\000"
 10884      545F4D49 
 10884      4E5F4558 
 10884      505F5F20 
 10884      282D3132 
 10885              	.LASF122:
 10886 46ff 5F5F4445 		.ascii	"__DEC_EVAL_METHOD__ 2\000"
 10886      435F4556 
 10886      414C5F4D 
 10886      4554484F 
 10886      445F5F20 
 10887              	.LASF464:
 10888 4715 55494E54 		.ascii	"UINT32_C(x) __UINT32_C(x)\000"
 10888      33325F43 
 10888      28782920 
 10888      5F5F5549 
 10888      4E543332 
 10889              	.LASF516:
 10890 472f 5343425F 		.ascii	"SCB_CPUID_VARIANT_Msk (0xFUL << SCB_CPUID_VARIANT_P"
 10890      43505549 
 10890      445F5641 
 10890      5249414E 
ARM GAS  /var/folders/9j/_txx49hn253_s3mnzkyxlj8m0000gp/T//ccgYRR5b.s 			page 258


 10890      545F4D73 
 10891 4762 6F732900 		.ascii	"os)\000"
 10892              	.LASF656:
 10893 4766 53595343 		.ascii	"SYSCTL_POWERDOWN_IRCOUT_PD (1 << 0)\000"
 10893      544C5F50 
 10893      4F574552 
 10893      444F574E 
 10893      5F495243 
 10894              	.LASF695:
 10895 478a 4D445F44 		.ascii	"MD_DIGMODE (0x1 << 7)\000"
 10895      49474D4F 
 10895      44452028 
 10895      30783120 
 10895      3C3C2037 
 10896              	.LASF233:
 10897 47a0 5F5F5553 		.ascii	"__USACCUM_IBIT__ 8\000"
 10897      41434355 
 10897      4D5F4942 
 10897      49545F5F 
 10897      203800
 10898              	.LASF1015:
 10899 47b3 4F445F53 		.ascii	"OD_SEG_RW 0x60\000"
 10899      45475F52 
 10899      57203078 
 10899      363000
 10900              	.LASF435:
 10901 47c2 494E545F 		.ascii	"INT_FAST8_MIN (-__INT_FAST8_MAX__ - 1)\000"
 10901      46415354 
 10901      385F4D49 
 10901      4E20282D 
 10901      5F5F494E 
 10902              	.LASF118:
 10903 47e9 5F5F5549 		.ascii	"__UINTPTR_MAX__ 4294967295U\000"
 10903      4E545054 
 10903      525F4D41 
 10903      585F5F20 
 10903      34323934 
 10904              	.LASF698:
 10905 4805 4D445F53 		.ascii	"MD_SFI2C (0x0 << 8)\000"
 10905      46493243 
 10905      20283078 
 10905      30203C3C 
 10905      20382900 
 10906              	.LASF125:
 10907 4819 5F5F464C 		.ascii	"__FLT_DIG__ 6\000"
 10907      545F4449 
 10907      475F5F20 
 10907      3600
 10908              	.LASF35:
 10909 4827 5F5F5549 		.ascii	"__UINTMAX_TYPE__ long long unsigned int\000"
 10909      4E544D41 
 10909      585F5459 
 10909      50455F5F 
 10909      206C6F6E 
 10910              	.LASF439:
 10911 484f 494E545F 		.ascii	"INT_FAST16_MAX (__INT_FAST16_MAX__)\000"
 10911      46415354 
ARM GAS  /var/folders/9j/_txx49hn253_s3mnzkyxlj8m0000gp/T//ccgYRR5b.s 			page 259


 10911      31365F4D 
 10911      41582028 
 10911      5F5F494E 
 10912              	.LASF121:
 10913 4873 5F5F464C 		.ascii	"__FLT_EVAL_METHOD__ 0\000"
 10913      545F4556 
 10913      414C5F4D 
 10913      4554484F 
 10913      445F5F20 
 10914              	.LASF838:
 10915 4889 55415254 		.ascii	"UART_SYNCCTRL_CSCEN (1 << 4)\000"
 10915      5F53594E 
 10915      43435452 
 10915      4C5F4353 
 10915      43454E20 
 10916              	.LASF785:
 10917 48a6 55415254 		.ascii	"UART_LSR_RDR (1 << 0)\000"
 10917      5F4C5352 
 10917      5F524452 
 10917      20283120 
 10917      3C3C2030 
 10918              	.LASF808:
 10919 48bc 55415254 		.ascii	"UART_ACR_ABEOINT_CLR (1 << 8)\000"
 10919      5F414352 
 10919      5F414245 
 10919      4F494E54 
 10919      5F434C52 
 10920              	.LASF384:
 10921 48da 5F5F494E 		.ascii	"__INT16 \"h\"\000"
 10921      54313620 
 10921      22682200 
 10922              	.LASF117:
 10923 48e6 5F5F494E 		.ascii	"__INTPTR_MAX__ 2147483647\000"
 10923      54505452 
 10923      5F4D4158 
 10923      5F5F2032 
 10923      31343734 
 10924              	.LASF881:
 10925 4900 4144435F 		.ascii	"ADC_CR_BITACC(n) ((((n) & 0x7) << 17))\000"
 10925      43525F42 
 10925      49544143 
 10925      43286E29 
 10925      20282828 
 10926              	.LASF1180:
 10927 4927 75436C6B 		.ascii	"uClk\000"
 10927      00
 10928              	.LASF277:
 10929 492c 5F5F5551 		.ascii	"__UQQ_FBIT__ 8\000"
 10929      515F4642 
 10929      49545F5F 
 10929      203800
 10930              	.LASF574:
 10931 493b 53797354 		.ascii	"SysTick_VAL_CURRENT_Msk (0xFFFFFFUL << SysTick_VAL_"
 10931      69636B5F 
 10931      56414C5F 
 10931      43555252 
 10931      454E545F 
ARM GAS  /var/folders/9j/_txx49hn253_s3mnzkyxlj8m0000gp/T//ccgYRR5b.s 			page 260


 10932 496e 43555252 		.ascii	"CURRENT_Pos)\000"
 10932      454E545F 
 10932      506F7329 
 10932      00
 10933              	.LASF174:
 10934 497b 5F5F4445 		.ascii	"__DEC64_MIN_EXP__ (-382)\000"
 10934      4336345F 
 10934      4D494E5F 
 10934      4558505F 
 10934      5F20282D 
 10935              	.LASF1058:
 10936 4994 53595341 		.ascii	"SYSAHBCLKDIV\000"
 10936      4842434C 
 10936      4B444956 
 10936      00
 10937              	.LASF924:
 10938 49a1 4932435F 		.ascii	"I2C_I2STAT_M_TX_START ((0x08))\000"
 10938      49325354 
 10938      41545F4D 
 10938      5F54585F 
 10938      53544152 
 10939              	.LASF732:
 10940 49c0 55415254 		.ascii	"UART_IER_THREINT (1 << 1)\000"
 10940      5F494552 
 10940      5F544852 
 10940      45494E54 
 10940      20283120 
 10941              	.LASF378:
 10942 49da 63686172 		.ascii	"char +0\000"
 10942      202B3000 
 10943              	.LASF210:
 10944 49e2 5F5F4C46 		.ascii	"__LFRACT_MAX__ 0X7FFFFFFFP-31LR\000"
 10944      52414354 
 10944      5F4D4158 
 10944      5F5F2030 
 10944      58374646 
 10945              	.LASF322:
 10946 4a02 5F5F5349 		.ascii	"__SIZEOF_PTRDIFF_T__ 4\000"
 10946      5A454F46 
 10946      5F505452 
 10946      44494646 
 10946      5F545F5F 
 10947              	.LASF489:
 10948 4a19 4D494E28 		.ascii	"MIN(a,b) (((a) < (b)) ? (a) : (b))\000"
 10948      612C6229 
 10948      20282828 
 10948      6129203C 
 10948      20286229 
 10949              	.LASF0:
 10950 4a3c 5F5F5354 		.ascii	"__STDC__ 1\000"
 10950      44435F5F 
 10950      203100
 10951              	.LASF904:
 10952 4a47 4932435F 		.ascii	"I2C_STA_STO_RECV 0x20\000"
 10952      5354415F 
 10952      53544F5F 
 10952      52454356 
ARM GAS  /var/folders/9j/_txx49hn253_s3mnzkyxlj8m0000gp/T//ccgYRR5b.s 			page 261


 10952      20307832 
 10953              	.LASF1096:
 10954 4a5d 5044534C 		.ascii	"PDSLEEPCFG\000"
 10954      45455043 
 10954      464700
 10955              	.LASF362:
 10956 4a68 5F5F5F69 		.ascii	"___int_least8_t_defined 1\000"
 10956      6E745F6C 
 10956      65617374 
 10956      385F745F 
 10956      64656669 
 10957              	.LASF1181:
 10958 4a82 6476616C 		.ascii	"dval\000"
 10958      00
 10959              	.LASF28:
 10960 4a87 5F5F464C 		.ascii	"__FLOAT_WORD_ORDER__ __ORDER_LITTLE_ENDIAN__\000"
 10960      4F41545F 
 10960      574F5244 
 10960      5F4F5244 
 10960      45525F5F 
 10961              	.LASF107:
 10962 4ab4 5F5F5549 		.ascii	"__UINT_LEAST64_MAX__ 18446744073709551615ULL\000"
 10962      4E545F4C 
 10962      45415354 
 10962      36345F4D 
 10962      41585F5F 
 10963              	.LASF43:
 10964 4ae1 5F5F5549 		.ascii	"__UINT8_TYPE__ unsigned char\000"
 10964      4E54385F 
 10964      54595045 
 10964      5F5F2075 
 10964      6E736967 
 10965              	.LASF915:
 10966 4afe 4932435F 		.ascii	"I2C_CON_AA (1UL << 2)\000"
 10966      434F4E5F 
 10966      41412028 
 10966      31554C20 
 10966      3C3C2032 
 10967              	.LASF849:
 10968 4b14 5353505F 		.ascii	"SSP_CR0_DSS(n) ((uint32_t) ((n) & 0xF))\000"
 10968      4352305F 
 10968      44535328 
 10968      6E292028 
 10968      2875696E 
 10969              	.LASF404:
 10970 4b3c 5F5F696E 		.ascii	"__int_fast8_t_defined 1\000"
 10970      745F6661 
 10970      7374385F 
 10970      745F6465 
 10970      66696E65 
 10971              	.LASF940:
 10972 4b54 4932435F 		.ascii	"I2C_I2STAT_S_RX_GENCALL_ACK ((0x70))\000"
 10972      49325354 
 10972      41545F53 
 10972      5F52585F 
 10972      47454E43 
 10973              	.LASF705:
ARM GAS  /var/folders/9j/_txx49hn253_s3mnzkyxlj8m0000gp/T//ccgYRR5b.s 			page 262


 10974 4b79 46554E43 		.ascii	"FUNC3 0x3\000"
 10974      33203078 
 10974      3300
 10975              	.LASF863:
 10976 4b83 5353505F 		.ascii	"SSP_CR1_SO_DISABLE ((uint32_t) (1 << 3))\000"
 10976      4352315F 
 10976      534F5F44 
 10976      49534142 
 10976      4C452028 
 10977              	.LASF663:
 10978 4bac 53595343 		.ascii	"SYSCTL_POWERDOWN_SYSPLL_PD (1 << 7)\000"
 10978      544C5F50 
 10978      4F574552 
 10978      444F574E 
 10978      5F535953 
 10979              	.LASF1089:
 10980 4bd0 53544152 		.ascii	"STARTAPRP0\000"
 10980      54415052 
 10980      503000
 10981              	.LASF180:
 10982 4bdb 5F5F4445 		.ascii	"__DEC128_MANT_DIG__ 34\000"
 10982      43313238 
 10982      5F4D414E 
 10982      545F4449 
 10982      475F5F20 
 10983              	.LASF83:
 10984 4bf2 5F5F5349 		.ascii	"__SIG_ATOMIC_MAX__ 2147483647\000"
 10984      475F4154 
 10984      4F4D4943 
 10984      5F4D4158 
 10984      5F5F2032 
 10985              	.LASF919:
 10986 4c10 4932435F 		.ascii	"I2C_CON_I2EN (1UL << 6)\000"
 10986      434F4E5F 
 10986      4932454E 
 10986      20283155 
 10986      4C203C3C 
 10987              	.LASF472:
 10988 4c28 74727565 		.ascii	"true 1\000"
 10988      203100
 10989              	.LASF671:
 10990 4c2f 494F434F 		.ascii	"IOCON_FUNC4 0x4\000"
 10990      4E5F4655 
 10990      4E433420 
 10990      30783400 
 10991              	.LASF297:
 10992 4c3f 5F5F5553 		.ascii	"__USA_FBIT__ 16\000"
 10992      415F4642 
 10992      49545F5F 
 10992      20313600 
 10993              	.LASF715:
 10994 4c4f 54494D45 		.ascii	"TIMER_RESET ((uint32_t) (1 << 1))\000"
 10994      525F5245 
 10994      53455420 
 10994      28287569 
 10994      6E743332 
 10995              	.LASF582:
ARM GAS  /var/folders/9j/_txx49hn253_s3mnzkyxlj8m0000gp/T//ccgYRR5b.s 			page 263


 10996 4c71 53797354 		.ascii	"SysTick_BASE (SCS_BASE + 0x0010UL)\000"
 10996      69636B5F 
 10996      42415345 
 10996      20285343 
 10996      535F4241 
 10997              	.LASF771:
 10998 4c94 55415254 		.ascii	"UART_LCR_PARITY_DIS (0 << 3)\000"
 10998      5F4C4352 
 10998      5F504152 
 10998      4954595F 
 10998      44495320 
 10999              	.LASF657:
 11000 4cb1 53595343 		.ascii	"SYSCTL_POWERDOWN_IRC_PD (1 << 1)\000"
 11000      544C5F50 
 11000      4F574552 
 11000      444F574E 
 11000      5F495243 
 11001              	.LASF816:
 11002 4cd2 55415254 		.ascii	"UART_RS485CTRL_OINV_1 (1 << 5)\000"
 11002      5F525334 
 11002      38354354 
 11002      524C5F4F 
 11002      494E565F 
 11003              	.LASF308:
 11004 4cf1 5F5F4743 		.ascii	"__GCC_ATOMIC_CHAR_LOCK_FREE 1\000"
 11004      435F4154 
 11004      4F4D4943 
 11004      5F434841 
 11004      525F4C4F 
 11005              	.LASF1054:
 11006 4d0f 55534250 		.ascii	"USBPLLCLKUEN\000"
 11006      4C4C434C 
 11006      4B55454E 
 11006      00
 11007              	.LASF208:
 11008 4d1c 5F5F4C46 		.ascii	"__LFRACT_IBIT__ 0\000"
 11008      52414354 
 11008      5F494249 
 11008      545F5F20 
 11008      3000
 11009              	.LASF211:
 11010 4d2e 5F5F4C46 		.ascii	"__LFRACT_EPSILON__ 0x1P-31LR\000"
 11010      52414354 
 11010      5F455053 
 11010      494C4F4E 
 11010      5F5F2030 
 11011              	.LASF559:
 11012 4d4b 5343425F 		.ascii	"SCB_CCR_UNALIGN_TRP_Pos 3\000"
 11012      4343525F 
 11012      554E414C 
 11012      49474E5F 
 11012      5452505F 
 11013              	.LASF323:
 11014 4d65 5F5F4152 		.ascii	"__ARM_SIZEOF_MINIMAL_ENUM 1\000"
 11014      4D5F5349 
 11014      5A454F46 
 11014      5F4D494E 
ARM GAS  /var/folders/9j/_txx49hn253_s3mnzkyxlj8m0000gp/T//ccgYRR5b.s 			page 264


 11014      494D414C 
 11015              	.LASF93:
 11016 4d81 5F5F494E 		.ascii	"__INT_LEAST8_MAX__ 127\000"
 11016      545F4C45 
 11016      41535438 
 11016      5F4D4158 
 11016      5F5F2031 
 11017              	.LASF562:
 11018 4d98 5343425F 		.ascii	"SCB_SHCSR_SVCALLPENDED_Msk (1UL << SCB_SHCSR_SVCALL"
 11018      53484353 
 11018      525F5356 
 11018      43414C4C 
 11018      50454E44 
 11019 4dcb 50454E44 		.ascii	"PENDED_Pos)\000"
 11019      45445F50 
 11019      6F732900 
 11020              	.LASF1148:
 11021 4dd7 52696E67 		.ascii	"RingBuffer_IsEmpty\000"
 11021      42756666 
 11021      65725F49 
 11021      73456D70 
 11021      747900
 11022              	.LASF326:
 11023 4dea 5F5F6172 		.ascii	"__arm__ 1\000"
 11023      6D5F5F20 
 11023      3100
 11024              	.LASF676:
 11025 4df4 494F434F 		.ascii	"IOCON_MODE_PULLDOWN (0x1 << 3)\000"
 11025      4E5F4D4F 
 11025      44455F50 
 11025      554C4C44 
 11025      4F574E20 
 11026              	.LASF1012:
 11027 4e13 4F445F45 		.ascii	"OD_EXP_RW 0x30\000"
 11027      58505F52 
 11027      57203078 
 11027      333000
 11028              	.LASF603:
 11029 4e22 4C50435F 		.ascii	"LPC_SSP0_BASE 0x40040000\000"
 11029      53535030 
 11029      5F424153 
 11029      45203078 
 11029      34303034 
 11030              	.LASF381:
 11031 4e3b 6C6F6E67 		.ascii	"long +4\000"
 11031      202B3400 
 11032              	.LASF948:
 11033 4e43 4932435F 		.ascii	"I2C_I2STAT_S_TX_ARB_LOST_M_SLA ((0xB0))\000"
 11033      49325354 
 11033      41545F53 
 11033      5F54585F 
 11033      4152425F 
 11034              	.LASF941:
 11035 4e6b 4932435F 		.ascii	"I2C_I2STAT_S_RX_ARB_LOST_M_GENCALL ((0x78))\000"
 11035      49325354 
 11035      41545F53 
 11035      5F52585F 
ARM GAS  /var/folders/9j/_txx49hn253_s3mnzkyxlj8m0000gp/T//ccgYRR5b.s 			page 265


 11035      4152425F 
 11036              	.LASF493:
 11037 4e97 5F5F434D 		.ascii	"__CMSIS_H_ \000"
 11037      5349535F 
 11037      485F2000 
 11038              	.LASF1009:
 11039 4ea3 4F445F4E 		.ascii	"OD_NONE 0x00\000"
 11039      4F4E4520 
 11039      30783030 
 11039      00
 11040              	.LASF417:
 11041 4eb0 494E5431 		.ascii	"INT16_MIN (-__INT16_MAX__ - 1)\000"
 11041      365F4D49 
 11041      4E20282D 
 11041      5F5F494E 
 11041      5431365F 
 11042              	.LASF1188:
 11043 4ecf 43686970 		.ascii	"Chip_UART_RXIntHandlerRB\000"
 11043      5F554152 
 11043      545F5258 
 11043      496E7448 
 11043      616E646C 
 11044              	.LASF921:
 11045 4ee8 4932435F 		.ascii	"I2C_STAT_CODE_ERROR ((0xFF))\000"
 11045      53544154 
 11045      5F434F44 
 11045      455F4552 
 11045      524F5220 
 11046              	.LASF750:
 11047 4f05 55415254 		.ascii	"UART_IIR_INTID_THRE (1 << 1)\000"
 11047      5F494952 
 11047      5F494E54 
 11047      49445F54 
 11047      48524520 
 11048              	.LASF166:
 11049 4f22 5F5F4445 		.ascii	"__DEC32_MANT_DIG__ 7\000"
 11049      4333325F 
 11049      4D414E54 
 11049      5F444947 
 11049      5F5F2037 
 11050              	.LASF444:
 11051 4f37 494E545F 		.ascii	"INT_FAST64_MIN (-__INT_FAST64_MAX__ - 1)\000"
 11051      46415354 
 11051      36345F4D 
 11051      494E2028 
 11051      2D5F5F49 
 11052              	.LASF351:
 11053 4f60 5F4D4143 		.ascii	"_MACHINE__DEFAULT_TYPES_H \000"
 11053      48494E45 
 11053      5F5F4445 
 11053      4641554C 
 11053      545F5459 
 11054              	.LASF23:
 11055 4f7b 5F5F4249 		.ascii	"__BIGGEST_ALIGNMENT__ 8\000"
 11055      47474553 
 11055      545F414C 
 11055      49474E4D 
ARM GAS  /var/folders/9j/_txx49hn253_s3mnzkyxlj8m0000gp/T//ccgYRR5b.s 			page 266


 11055      454E545F 
 11056              	.LASF950:
 11057 4f93 4932435F 		.ascii	"I2C_I2STAT_S_TX_DAT_NACK ((0xC0))\000"
 11057      49325354 
 11057      41545F53 
 11057      5F54585F 
 11057      4441545F 
 11058              	.LASF234:
 11059 4fb5 5F5F5553 		.ascii	"__USACCUM_MIN__ 0.0UHK\000"
 11059      41434355 
 11059      4D5F4D49 
 11059      4E5F5F20 
 11059      302E3055 
 11060              	.LASF551:
 11061 4fcc 5343425F 		.ascii	"SCB_SCR_SEVONPEND_Pos 4\000"
 11061      5343525F 
 11061      5345564F 
 11061      4E50454E 
 11061      445F506F 
 11062              	.LASF679:
 11063 4fe4 494F434F 		.ascii	"IOCON_HYS_EN (0x1 << 5)\000"
 11063      4E5F4859 
 11063      535F454E 
 11063      20283078 
 11063      31203C3C 
 11064              	.LASF1127:
 11065 4ffc 52494E47 		.ascii	"RINGBUFF_T\000"
 11065      42554646 
 11065      5F5400
 11066              	.LASF876:
 11067 5007 5F5F4C50 		.ascii	"__LPC_ERROR_H__ \000"
 11067      435F4552 
 11067      524F525F 
 11067      485F5F20 
 11067      00
 11068              	.LASF394:
 11069 5018 5F5F4C45 		.ascii	"__LEAST64 \"ll\"\000"
 11069      41535436 
 11069      3420226C 
 11069      6C2200
 11070              	.LASF1057:
 11071 5027 4D41494E 		.ascii	"MAINCLKUEN\000"
 11071      434C4B55 
 11071      454E00
 11072              	.LASF977:
 11073 5032 4932435F 		.ascii	"I2C_MONITOR_CFG_SCL_OUTPUT I2C_I2MMCTRL_ENA_SCL\000"
 11073      4D4F4E49 
 11073      544F525F 
 11073      4346475F 
 11073      53434C5F 
 11074              	.LASF929:
 11075 5062 4932435F 		.ascii	"I2C_I2STAT_M_TX_DAT_NACK ((0x30))\000"
 11075      49325354 
 11075      41545F4D 
 11075      5F54585F 
 11075      4441545F 
 11076              	.LASF859:
ARM GAS  /var/folders/9j/_txx49hn253_s3mnzkyxlj8m0000gp/T//ccgYRR5b.s 			page 267


 11077 5084 5353505F 		.ascii	"SSP_CR1_LBM_EN ((uint32_t) (1 << 0))\000"
 11077      4352315F 
 11077      4C424D5F 
 11077      454E2028 
 11077      2875696E 
 11078              	.LASF533:
 11079 50a9 5343425F 		.ascii	"SCB_ICSR_ISRPREEMPT_Pos 23\000"
 11079      49435352 
 11079      5F495352 
 11079      50524545 
 11079      4D50545F 
 11080              	.LASF523:
 11081 50c4 5343425F 		.ascii	"SCB_ICSR_NMIPENDSET_Pos 31\000"
 11081      49435352 
 11081      5F4E4D49 
 11081      50454E44 
 11081      5345545F 
 11082              	.LASF1007:
 11083 50df 53444F5F 		.ascii	"SDO_ABORT_LOCAL 0x08000021UL\000"
 11083      41424F52 
 11083      545F4C4F 
 11083      43414C20 
 11083      30783038 
 11084              	.LASF723:
 11085 50fc 5F5F5249 		.ascii	"__RING_BUFFER_H_ \000"
 11085      4E475F42 
 11085      55464645 
 11085      525F485F 
 11085      2000
 11086              	.LASF330:
 11087 510e 5F5F4152 		.ascii	"__ARM_ARCH_ISA_THUMB 1\000"
 11087      4D5F4152 
 11087      43485F49 
 11087      53415F54 
 11087      48554D42 
 11088              	.LASF1165:
 11089 5125 43686970 		.ascii	"Chip_UART_SendBlocking\000"
 11089      5F554152 
 11089      545F5365 
 11089      6E64426C 
 11089      6F636B69 
 11090              	.LASF499:
 11091 513c 5F5F434D 		.ascii	"__CM0_CMSIS_VERSION_MAIN (0x03)\000"
 11091      305F434D 
 11091      5349535F 
 11091      56455253 
 11091      494F4E5F 
 11092              	.LASF109:
 11093 515c 5F5F494E 		.ascii	"__INT_FAST8_MAX__ 2147483647\000"
 11093      545F4641 
 11093      5354385F 
 11093      4D41585F 
 11093      5F203231 
 11094              	.LASF375:
 11095 5179 6C6F6E67 		.ascii	"long\000"
 11095      00
 11096              	.LASF1045:
ARM GAS  /var/folders/9j/_txx49hn253_s3mnzkyxlj8m0000gp/T//ccgYRR5b.s 			page 268


 11097 517e 5359534F 		.ascii	"SYSOSCCTRL\000"
 11097      53434354 
 11097      524C00
 11098              	.LASF374:
 11099 5189 73686F72 		.ascii	"short\000"
 11099      7400
 11100              	.LASF916:
 11101 518f 4932435F 		.ascii	"I2C_CON_SI (1UL << 3)\000"
 11101      434F4E5F 
 11101      53492028 
 11101      31554C20 
 11101      3C3C2033 
 11102              	.LASF203:
 11103 51a5 5F5F5546 		.ascii	"__UFRACT_IBIT__ 0\000"
 11103      52414354 
 11103      5F494249 
 11103      545F5F20 
 11103      3000
 11104              	.LASF912:
 11105 51b7 4932435F 		.ascii	"I2C_I2CONCLR_STOC ((1 << 4))\000"
 11105      4932434F 
 11105      4E434C52 
 11105      5F53544F 
 11105      43202828 
 11106              	.LASF581:
 11107 51d4 5343535F 		.ascii	"SCS_BASE (0xE000E000UL)\000"
 11107      42415345 
 11107      20283078 
 11107      45303030 
 11107      45303030 
 11108              	.LASF94:
 11109 51ec 5F5F494E 		.ascii	"__INT8_C(c) c\000"
 11109      54385F43 
 11109      28632920 
 11109      6300
 11110              	.LASF25:
 11111 51fa 5F5F4F52 		.ascii	"__ORDER_BIG_ENDIAN__ 4321\000"
 11111      4445525F 
 11111      4249475F 
 11111      454E4449 
 11111      414E5F5F 
 11112              	.LASF709:
 11113 5214 46554E43 		.ascii	"FUNC7 0x7\000"
 11113      37203078 
 11113      3700
 11114              	.LASF497:
 11115 521e 5F5F5665 		.ascii	"__Vendor_SysTickConfig 0\000"
 11115      6E646F72 
 11115      5F537973 
 11115      5469636B 
 11115      436F6E66 
 11116              	.LASF727:
 11117 5237 55415254 		.ascii	"UART_LOAD_DLL(div) ((div) & 0xFF)\000"
 11117      5F4C4F41 
 11117      445F444C 
 11117      4C286469 
 11117      76292028 
ARM GAS  /var/folders/9j/_txx49hn253_s3mnzkyxlj8m0000gp/T//ccgYRR5b.s 			page 269


 11118              	.LASF1010:
 11119 5259 4F445F45 		.ascii	"OD_EXP_RO 0x10\000"
 11119      58505F52 
 11119      4F203078 
 11119      313000
 11120              	.LASF317:
 11121 5268 5F5F4743 		.ascii	"__GCC_ATOMIC_POINTER_LOCK_FREE 1\000"
 11121      435F4154 
 11121      4F4D4943 
 11121      5F504F49 
 11121      4E544552 
 11122              	.LASF140:
 11123 5289 5F5F4442 		.ascii	"__DBL_MIN_EXP__ (-1021)\000"
 11123      4C5F4D49 
 11123      4E5F4558 
 11123      505F5F20 
 11123      282D3130 
 11124              	.LASF483:
 11125 52a1 4E554C4C 		.ascii	"NULL ((void *) 0)\000"
 11125      20282876 
 11125      6F696420 
 11125      2A292030 
 11125      2900
 11126              	.LASF968:
 11127 52b3 4932435F 		.ascii	"I2C_OK 0x00\000"
 11127      4F4B2030 
 11127      78303000 
 11128              	.LASF1169:
 11129 52bf 64697668 		.ascii	"divh\000"
 11129      00
 11130              	.LASF173:
 11131 52c4 5F5F4445 		.ascii	"__DEC64_MANT_DIG__ 16\000"
 11131      4336345F 
 11131      4D414E54 
 11131      5F444947 
 11131      5F5F2031 
 11132              	.LASF87:
 11133 52da 5F5F494E 		.ascii	"__INT32_MAX__ 2147483647L\000"
 11133      5433325F 
 11133      4D41585F 
 11133      5F203231 
 11133      34373438 
 11134              	.LASF1170:
 11135 52f4 6469766C 		.ascii	"divl\000"
 11135      00
 11136              	.LASF1105:
 11137 52f9 53595343 		.ascii	"SYSCTL_CLOCK_FLASHREG\000"
 11137      544C5F43 
 11137      4C4F434B 
 11137      5F464C41 
 11137      53485245 
 11138              	.LASF801:
 11139 530f 55415254 		.ascii	"UART_MSR_DSR (1 << 5)\000"
 11139      5F4D5352 
 11139      5F445352 
 11139      20283120 
 11139      3C3C2035 
ARM GAS  /var/folders/9j/_txx49hn253_s3mnzkyxlj8m0000gp/T//ccgYRR5b.s 			page 270


 11140              	.LASF176:
 11141 5325 5F5F4445 		.ascii	"__DEC64_MIN__ 1E-383DD\000"
 11141      4336345F 
 11141      4D494E5F 
 11141      5F203145 
 11141      2D333833 
 11142              	.LASF937:
 11143 533c 4932435F 		.ascii	"I2C_I2STAT_M_RX_DAT_NACK ((0x58))\000"
 11143      49325354 
 11143      41545F4D 
 11143      5F52585F 
 11143      4441545F 
 11144              	.LASF468:
 11145 535e 55494E54 		.ascii	"UINTMAX_C(x) __UINTMAX_C(x)\000"
 11145      4D41585F 
 11145      43287829 
 11145      205F5F55 
 11145      494E544D 
 11146              	.LASF1194:
 11147 537a 4F736352 		.ascii	"OscRateIn\000"
 11147      61746549 
 11147      6E00
 11148              	.LASF366:
 11149 5384 5F5F4558 		.ascii	"__EXP\000"
 11149      5000
 11150              	.LASF681:
 11151 538a 494F434F 		.ascii	"IOCON_ADMODE_EN (0x0 << 7)\000"
 11151      4E5F4144 
 11151      4D4F4445 
 11151      5F454E20 
 11151      28307830 
 11152              	.LASF361:
 11153 53a5 5F5F5F69 		.ascii	"___int64_t_defined 1\000"
 11153      6E743634 
 11153      5F745F64 
 11153      6566696E 
 11153      65642031 
 11154              	.LASF163:
 11155 53ba 5F5F4C44 		.ascii	"__LDBL_HAS_DENORM__ 1\000"
 11155      424C5F48 
 11155      41535F44 
 11155      454E4F52 
 11155      4D5F5F20 
 11156              	.LASF573:
 11157 53d0 53797354 		.ascii	"SysTick_VAL_CURRENT_Pos 0\000"
 11157      69636B5F 
 11157      56414C5F 
 11157      43555252 
 11157      454E545F 
 11158              	.LASF729:
 11159 53ea 55415254 		.ascii	"UART_LOAD_DLM(div) (((div) >> 8) & 0xFF)\000"
 11159      5F4C4F41 
 11159      445F444C 
 11159      4D286469 
 11159      76292028 
 11160              	.LASF731:
 11161 5413 55415254 		.ascii	"UART_IER_RBRINT (1 << 0)\000"
ARM GAS  /var/folders/9j/_txx49hn253_s3mnzkyxlj8m0000gp/T//ccgYRR5b.s 			page 271


 11161      5F494552 
 11161      5F524252 
 11161      494E5420 
 11161      2831203C 
 11162              	.LASF1128:
 11163 542c 53594E43 		.ascii	"SYNCCTRL\000"
 11163      4354524C 
 11163      00
 11164              	.LASF108:
 11165 5435 5F5F5549 		.ascii	"__UINT64_C(c) c ## ULL\000"
 11165      4E543634 
 11165      5F432863 
 11165      29206320 
 11165      23232055 
 11166              	.LASF347:
 11167 544c 43414E5F 		.ascii	"CAN_ARCHITECTURE_ARM 1\000"
 11167      41524348 
 11167      49544543 
 11167      54555245 
 11167      5F41524D 
 11168              	.LASF49:
 11169 5463 5F5F494E 		.ascii	"__INT_LEAST32_TYPE__ long int\000"
 11169      545F4C45 
 11169      41535433 
 11169      325F5459 
 11169      50455F5F 
 11170              	.LASF1115:
 11171 5481 53595343 		.ascii	"SYSCTL_CLOCK_ADC\000"
 11171      544C5F43 
 11171      4C4F434B 
 11171      5F414443 
 11171      00
 11172              	.LASF697:
 11173 5492 4D445F45 		.ascii	"MD_ENFIL (0x1 << 8)\000"
 11173      4E46494C 
 11173      20283078 
 11173      31203C3C 
 11173      20382900 
 11174              	.LASF1002:
 11175 54a6 53444F5F 		.ascii	"SDO_ABORT_ACCINCOMP 0x06040047UL\000"
 11175      41424F52 
 11175      545F4143 
 11175      43494E43 
 11175      4F4D5020 
 11176              	.LASF1134:
 11177 54c7 52533438 		.ascii	"RS485CTRL\000"
 11177      35435452 
 11177      4C00
 11178              	.LASF198:
 11179 54d1 5F5F4652 		.ascii	"__FRACT_IBIT__ 0\000"
 11179      4143545F 
 11179      49424954 
 11179      5F5F2030 
 11179      00
 11180              	.LASF901:
 11181 54e2 5245545F 		.ascii	"RET_SLAVE_RX 5\000"
 11181      534C4156 
ARM GAS  /var/folders/9j/_txx49hn253_s3mnzkyxlj8m0000gp/T//ccgYRR5b.s 			page 272


 11181      455F5258 
 11181      203500
 11182              	.LASF998:
 11183 54f1 53444F5F 		.ascii	"SDO_ABORT_WRITEONLY 0x06010001UL\000"
 11183      41424F52 
 11183      545F5752 
 11183      4954454F 
 11183      4E4C5920 
 11184              	.LASF844:
 11185 5512 57574454 		.ascii	"WWDT_WDMOD_WDRESET ((uint32_t) (1 << 1))\000"
 11185      5F57444D 
 11185      4F445F57 
 11185      44524553 
 11185      45542028 
 11186              	.LASF24:
 11187 553b 5F5F4F52 		.ascii	"__ORDER_LITTLE_ENDIAN__ 1234\000"
 11187      4445525F 
 11187      4C495454 
 11187      4C455F45 
 11187      4E444941 
 11188              	.LASF962:
 11189 5558 4932435F 		.ascii	"I2C_I2MASK_MASK(n) ((n & 0xFE))\000"
 11189      49324D41 
 11189      534B5F4D 
 11189      41534B28 
 11189      6E292028 
 11190              	.LASF1033:
 11191 5578 6C6F6E67 		.ascii	"long long unsigned int\000"
 11191      206C6F6E 
 11191      6720756E 
 11191      7369676E 
 11191      65642069 
 11192              	.LASF434:
 11193 558f 55494E54 		.ascii	"UINT_LEAST64_MAX (__UINT_LEAST64_MAX__)\000"
 11193      5F4C4541 
 11193      53543634 
 11193      5F4D4158 
 11193      20285F5F 
 11194              	.LASF253:
 11195 55b7 5F5F554C 		.ascii	"__ULACCUM_IBIT__ 32\000"
 11195      41434355 
 11195      4D5F4942 
 11195      49545F5F 
 11195      20333200 
 11196              	.LASF167:
 11197 55cb 5F5F4445 		.ascii	"__DEC32_MIN_EXP__ (-94)\000"
 11197      4333325F 
 11197      4D494E5F 
 11197      4558505F 
 11197      5F20282D 
 11198              	.LASF1116:
 11199 55e3 53595343 		.ascii	"SYSCTL_CLOCK_RESERVED14\000"
 11199      544C5F43 
 11199      4C4F434B 
 11199      5F524553 
 11199      45525645 
 11200              	.LASF31:
ARM GAS  /var/folders/9j/_txx49hn253_s3mnzkyxlj8m0000gp/T//ccgYRR5b.s 			page 273


 11201 55fb 5F5F5054 		.ascii	"__PTRDIFF_TYPE__ int\000"
 11201      52444946 
 11201      465F5459 
 11201      50455F5F 
 11201      20696E74 
 11202              	.LASF328:
 11203 5610 5F5F4150 		.ascii	"__APCS_32__ 1\000"
 11203      43535F33 
 11203      325F5F20 
 11203      3100
 11204              	.LASF1140:
 11205 561e 43686970 		.ascii	"Chip_Clock_EnablePeriphClock\000"
 11205      5F436C6F 
 11205      636B5F45 
 11205      6E61626C 
 11205      65506572 
 11206              	.LASF734:
 11207 563b 55415254 		.ascii	"UART_IER_MSINT (1 << 3)\000"
 11207      5F494552 
 11207      5F4D5349 
 11207      4E542028 
 11207      31203C3C 
 11208              	.LASF228:
 11209 5653 5F5F5341 		.ascii	"__SACCUM_IBIT__ 8\000"
 11209      4343554D 
 11209      5F494249 
 11209      545F5F20 
 11209      3800
 11210              	.LASF273:
 11211 5665 5F5F4451 		.ascii	"__DQ_FBIT__ 63\000"
 11211      5F464249 
 11211      545F5F20 
 11211      363300
 11212              	.LASF1114:
 11213 5674 53595343 		.ascii	"SYSCTL_CLOCK_UART0\000"
 11213      544C5F43 
 11213      4C4F434B 
 11213      5F554152 
 11213      543000
 11214              	.LASF1107:
 11215 5687 53595343 		.ascii	"SYSCTL_CLOCK_I2C\000"
 11215      544C5F43 
 11215      4C4F434B 
 11215      5F493243 
 11215      00
 11216              	.LASF61:
 11217 5698 5F5F5549 		.ascii	"__UINT_FAST32_TYPE__ unsigned int\000"
 11217      4E545F46 
 11217      41535433 
 11217      325F5459 
 11217      50455F5F 
 11218              	.LASF56:
 11219 56ba 5F5F494E 		.ascii	"__INT_FAST16_TYPE__ int\000"
 11219      545F4641 
 11219      53543136 
 11219      5F545950 
 11219      455F5F20 
ARM GAS  /var/folders/9j/_txx49hn253_s3mnzkyxlj8m0000gp/T//ccgYRR5b.s 			page 274


 11220              	.LASF652:
 11221 56d2 53595343 		.ascii	"SYSCTL_SLPWAKE_ADC_PD (1 << 4)\000"
 11221      544C5F53 
 11221      4C505741 
 11221      4B455F41 
 11221      44435F50 
 11222              	.LASF1018:
 11223 56f1 43414E5F 		.ascii	"CAN_SDOREQ_HANDLED_NOSEND 2\000"
 11223      53444F52 
 11223      45515F48 
 11223      414E444C 
 11223      45445F4E 
 11224              	.LASF229:
 11225 570d 5F5F5341 		.ascii	"__SACCUM_MIN__ (-0X1P7HK-0X1P7HK)\000"
 11225      4343554D 
 11225      5F4D494E 
 11225      5F5F2028 
 11225      2D305831 
 11226              	.LASF215:
 11227 572f 5F5F554C 		.ascii	"__ULFRACT_MAX__ 0XFFFFFFFFP-32ULR\000"
 11227      46524143 
 11227      545F4D41 
 11227      585F5F20 
 11227      30584646 
 11228              	.LASF52:
 11229 5751 5F5F5549 		.ascii	"__UINT_LEAST16_TYPE__ short unsigned int\000"
 11229      4E545F4C 
 11229      45415354 
 11229      31365F54 
 11229      5950455F 
 11230              	.LASF897:
 11231 577a 4144435F 		.ascii	"ADC_SAMPLE_RATE_CONFIG_MASK (ADC_CR_CLKDIV(0xFF) | "
 11231      53414D50 
 11231      4C455F52 
 11231      4154455F 
 11231      434F4E46 
 11232 57ad 4144435F 		.ascii	"ADC_CR_BITACC(0x07))\000"
 11232      43525F42 
 11232      49544143 
 11232      43283078 
 11232      30372929 
 11233              	.LASF1079:
 11234 57c2 52455345 		.ascii	"RESERVED10\000"
 11234      52564544 
 11234      313000
 11235              	.LASF1082:
 11236 57cd 52455345 		.ascii	"RESERVED11\000"
 11236      52564544 
 11236      313100
 11237              	.LASF1088:
 11238 57d8 52455345 		.ascii	"RESERVED12\000"
 11238      52564544 
 11238      313200
 11239              	.LASF1093:
 11240 57e3 52455345 		.ascii	"RESERVED13\000"
 11240      52564544 
 11240      313300
ARM GAS  /var/folders/9j/_txx49hn253_s3mnzkyxlj8m0000gp/T//ccgYRR5b.s 			page 275


 11241              	.LASF1095:
 11242 57ee 52455345 		.ascii	"RESERVED14\000"
 11242      52564544 
 11242      313400
 11243              	.LASF1099:
 11244 57f9 52455345 		.ascii	"RESERVED15\000"
 11244      52564544 
 11244      313500
 11245              	.LASF878:
 11246 5804 5F5F4144 		.ascii	"__ADC_11XX_H_ \000"
 11246      435F3131 
 11246      58585F48 
 11246      5F2000
 11247              	.LASF103:
 11248 5813 5F5F5549 		.ascii	"__UINT_LEAST16_MAX__ 65535\000"
 11248      4E545F4C 
 11248      45415354 
 11248      31365F4D 
 11248      41585F5F 
 11249              	.LASF285:
 11250 582e 5F5F5554 		.ascii	"__UTQ_FBIT__ 128\000"
 11250      515F4642 
 11250      49545F5F 
 11250      20313238 
 11250      00
 11251              	.LASF718:
 11252 583f 54494D45 		.ascii	"TIMER_STOP_ON_MATCH(n) (_BIT((((n) * 3) + 2)))\000"
 11252      525F5354 
 11252      4F505F4F 
 11252      4E5F4D41 
 11252      54434828 
 11253              	.LASF972:
 11254 586e 4932435F 		.ascii	"I2C_SEND_END 0x08\000"
 11254      53454E44 
 11254      5F454E44 
 11254      20307830 
 11254      3800
 11255              	.LASF965:
 11256 5880 4932435F 		.ascii	"I2C_SETUP_STATUS_ARBF (1 << 8)\000"
 11256      53455455 
 11256      505F5354 
 11256      41545553 
 11256      5F415242 
 11257              	.LASF261:
 11258 589f 5F5F4C4C 		.ascii	"__LLACCUM_EPSILON__ 0x1P-31LLK\000"
 11258      41434355 
 11258      4D5F4550 
 11258      53494C4F 
 11258      4E5F5F20 
 11259              	.LASF13:
 11260 58be 5F5F4649 		.ascii	"__FINITE_MATH_ONLY__ 0\000"
 11260      4E495445 
 11260      5F4D4154 
 11260      485F4F4E 
 11260      4C595F5F 
 11261              	.LASF738:
 11262 58d5 55415254 		.ascii	"UART_IER_BITMASK (0x307)\000"
ARM GAS  /var/folders/9j/_txx49hn253_s3mnzkyxlj8m0000gp/T//ccgYRR5b.s 			page 276


 11262      5F494552 
 11262      5F424954 
 11262      4D41534B 
 11262      20283078 
 11263              	.LASF369:
 11264 58ee 5F5F6861 		.ascii	"__have_longlong64 1\000"
 11264      76655F6C 
 11264      6F6E676C 
 11264      6F6E6736 
 11264      34203100 
 11265              	.LASF1150:
 11266 5902 6E756D42 		.ascii	"numBytes\000"
 11266      79746573 
 11266      00
 11267              	.LASF1060:
 11268 590b 53595341 		.ascii	"SYSAHBCLKCTRL\000"
 11268      4842434C 
 11268      4B435452 
 11268      4C00
 11269              	.LASF491:
 11270 5919 5F5F5359 		.ascii	"__SYS_CONFIG_H_ \000"
 11270      535F434F 
 11270      4E464947 
 11270      5F485F20 
 11270      00
 11271              	.LASF624:
 11272 592a 4C50435F 		.ascii	"LPC_FMC ((LPC_FMC_T *) LPC_FLASH_BASE)\000"
 11272      464D4320 
 11272      28284C50 
 11272      435F464D 
 11272      435F5420 
 11273              	.LASF1047:
 11274 5951 49524343 		.ascii	"IRCCTRL\000"
 11274      54524C00 
 11275              	.LASF834:
 11276 5959 55415254 		.ascii	"UART_SYNCCTRL_SYNC (1 << 0)\000"
 11276      5F53594E 
 11276      43435452 
 11276      4C5F5359 
 11276      4E432028 
 11277              	.LASF327:
 11278 5975 5F5F4152 		.ascii	"__ARM_ARCH 6\000"
 11278      4D5F4152 
 11278      43482036 
 11278      00
 11279              	.LASF837:
 11280 5982 55415254 		.ascii	"UART_SYNCCTRL_TSBYPASS (1 << 3)\000"
 11280      5F53594E 
 11280      43435452 
 11280      4C5F5453 
 11280      42595041 
 11281              	.LASF969:
 11282 59a2 4932435F 		.ascii	"I2C_BYTE_SENT 0x01\000"
 11282      42595445 
 11282      5F53454E 
 11282      54203078 
 11282      303100
ARM GAS  /var/folders/9j/_txx49hn253_s3mnzkyxlj8m0000gp/T//ccgYRR5b.s 			page 277


 11283              	.LASF255:
 11284 59b5 5F5F554C 		.ascii	"__ULACCUM_MAX__ 0XFFFFFFFFFFFFFFFFP-32ULK\000"
 11284      41434355 
 11284      4D5F4D41 
 11284      585F5F20 
 11284      30584646 
 11285              	.LASF606:
 11286 59df 4C50435F 		.ascii	"LPC_USB0_BASE 0x40080000\000"
 11286      55534230 
 11286      5F424153 
 11286      45203078 
 11286      34303038 
 11287              	.LASF1173:
 11288 59f8 43686970 		.ascii	"Chip_UART_SendRB\000"
 11288      5F554152 
 11288      545F5365 
 11288      6E645242 
 11288      00
 11289              	.LASF214:
 11290 5a09 5F5F554C 		.ascii	"__ULFRACT_MIN__ 0.0ULR\000"
 11290      46524143 
 11290      545F4D49 
 11290      4E5F5F20 
 11290      302E3055 
 11291              	.LASF1097:
 11292 5a20 50445741 		.ascii	"PDWAKECFG\000"
 11292      4B454346 
 11292      4700
 11293              	.LASF274:
 11294 5a2a 5F5F4451 		.ascii	"__DQ_IBIT__ 0\000"
 11294      5F494249 
 11294      545F5F20 
 11294      3000
 11295              	.LASF1087:
 11296 5a38 55534243 		.ascii	"USBCLKST\000"
 11296      4C4B5354 
 11296      00
 11297              	.LASF1039:
 11298 5a41 50524553 		.ascii	"PRESETCTRL\000"
 11298      45544354 
 11298      524C00
 11299              	.LASF655:
 11300 5a4c 53595343 		.ascii	"SYSCTL_SLPWAKE_SYSPLL_PD (1 << 7)\000"
 11300      544C5F53 
 11300      4C505741 
 11300      4B455F53 
 11300      5953504C 
 11301              	.LASF682:
 11302 5a6e 494F434F 		.ascii	"IOCON_DIGMODE_EN (0x1 << 7)\000"
 11302      4E5F4449 
 11302      474D4F44 
 11302      455F454E 
 11302      20283078 
 11303              	.LASF515:
 11304 5a8a 5343425F 		.ascii	"SCB_CPUID_VARIANT_Pos 20\000"
 11304      43505549 
 11304      445F5641 
ARM GAS  /var/folders/9j/_txx49hn253_s3mnzkyxlj8m0000gp/T//ccgYRR5b.s 			page 278


 11304      5249414E 
 11304      545F506F 
 11305              	.LASF964:
 11306 5aa3 4932435F 		.ascii	"I2C_I2SCLL_BITMASK ((0xFFFF))\000"
 11306      49325343 
 11306      4C4C5F42 
 11306      49544D41 
 11306      534B2028 
 11307              	.LASF647:
 11308 5ac1 53595343 		.ascii	"SYSCTL_DEEPSLP_WDTOSC_PD (1 << 6)\000"
 11308      544C5F44 
 11308      45455053 
 11308      4C505F57 
 11308      44544F53 
 11309              	.LASF747:
 11310 5ae3 55415254 		.ascii	"UART_IIR_INTID_RLS (3 << 1)\000"
 11310      5F494952 
 11310      5F494E54 
 11310      49445F52 
 11310      4C532028 
 11311              	.LASF99:
 11312 5aff 5F5F494E 		.ascii	"__INT_LEAST64_MAX__ 9223372036854775807LL\000"
 11312      545F4C45 
 11312      41535436 
 11312      345F4D41 
 11312      585F5F20 
 11313              	.LASF741:
 11314 5b29 55415254 		.ascii	"UART_IIR_INTSTAT_PEND (1 << 0)\000"
 11314      5F494952 
 11314      5F494E54 
 11314      53544154 
 11314      5F50454E 
 11315              	.LASF589:
 11316 5b48 5F534850 		.ascii	"_SHP_IDX(IRQn) ( ((((uint32_t)(IRQn) & 0x0F)-8) >> "
 11316      5F494458 
 11316      28495251 
 11316      6E292028 
 11316      20282828 
 11317 5b7b 32292029 		.ascii	"2) )\000"
 11317      00
 11318              	.LASF616:
 11319 5b80 4C50435F 		.ascii	"LPC_WWDT ((LPC_WWDT_T *) LPC_WWDT_BASE)\000"
 11319      57574454 
 11319      2028284C 
 11319      50435F57 
 11319      5744545F 
 11320              	.LASF568:
 11321 5ba8 53797354 		.ascii	"SysTick_CTRL_TICKINT_Msk (1UL << SysTick_CTRL_TICKI"
 11321      69636B5F 
 11321      4354524C 
 11321      5F544943 
 11321      4B494E54 
 11322 5bdb 4E545F50 		.ascii	"NT_Pos)\000"
 11322      6F732900 
 11323              	.LASF802:
 11324 5be3 55415254 		.ascii	"UART_MSR_RI (1 << 6)\000"
 11324      5F4D5352 
ARM GAS  /var/folders/9j/_txx49hn253_s3mnzkyxlj8m0000gp/T//ccgYRR5b.s 			page 279


 11324      5F524920 
 11324      2831203C 
 11324      3C203629 
 11325              	.LASF335:
 11326 5bf8 5F5F4152 		.ascii	"__ARM_FP 12\000"
 11326      4D5F4650 
 11326      20313200 
 11327              	.LASF78:
 11328 5c04 5F5F5349 		.ascii	"__SIZE_MAX__ 4294967295U\000"
 11328      5A455F4D 
 11328      41585F5F 
 11328      20343239 
 11328      34393637 
 11329              	.LASF585:
 11330 5c1d 53434220 		.ascii	"SCB ((SCB_Type *) SCB_BASE )\000"
 11330      28285343 
 11330      425F5479 
 11330      7065202A 
 11330      29205343 
 11331              	.LASF286:
 11332 5c3a 5F5F5554 		.ascii	"__UTQ_IBIT__ 0\000"
 11332      515F4942 
 11332      49545F5F 
 11332      203000
 11333              	.LASF289:
 11334 5c49 5F5F5341 		.ascii	"__SA_FBIT__ 15\000"
 11334      5F464249 
 11334      545F5F20 
 11334      313500
 11335              	.LASF221:
 11336 5c58 5F5F4C4C 		.ascii	"__LLFRACT_EPSILON__ 0x1P-63LLR\000"
 11336      46524143 
 11336      545F4550 
 11336      53494C4F 
 11336      4E5F5F20 
 11337              	.LASF830:
 11338 5c77 55415254 		.ascii	"UART_FDR_MULVAL(n) ((n << 4) & 0xF0)\000"
 11338      5F464452 
 11338      5F4D554C 
 11338      56414C28 
 11338      6E292028 
 11339              	.LASF704:
 11340 5c9c 46554E43 		.ascii	"FUNC2 0x2\000"
 11340      32203078 
 11340      3200
 11341              	.LASF1070:
 11342 5ca6 57445443 		.ascii	"WDTCLKSEL\000"
 11342      4C4B5345 
 11342      4C00
 11343              	.LASF609:
 11344 5cb0 4C50435F 		.ascii	"LPC_GPIO_PORT0_BASE 0x50000000\000"
 11344      4750494F 
 11344      5F504F52 
 11344      54305F42 
 11344      41534520 
 11345              	.LASF807:
 11346 5ccf 55415254 		.ascii	"UART_ACR_AUTO_RESTART (1 << 2)\000"
ARM GAS  /var/folders/9j/_txx49hn253_s3mnzkyxlj8m0000gp/T//ccgYRR5b.s 			page 280


 11346      5F414352 
 11346      5F415554 
 11346      4F5F5245 
 11346      53544152 
 11347              	.LASF342:
 11348 5cee 5F5F454C 		.ascii	"__ELF__ 1\000"
 11348      465F5F20 
 11348      3100
 11349              	.LASF423:
 11350 5cf8 494E5433 		.ascii	"INT32_MIN (-__INT32_MAX__ - 1)\000"
 11350      325F4D49 
 11350      4E20282D 
 11350      5F5F494E 
 11350      5433325F 
 11351              	.LASF332:
 11352 5d17 5F5F5448 		.ascii	"__THUMBEL__ 1\000"
 11352      554D4245 
 11352      4C5F5F20 
 11352      3100
 11353              	.LASF670:
 11354 5d25 494F434F 		.ascii	"IOCON_FUNC3 0x3\000"
 11354      4E5F4655 
 11354      4E433320 
 11354      30783300 
 11355              	.LASF1133:
 11356 5d35 53434943 		.ascii	"SCICTRL\000"
 11356      54524C00 
 11357              	.LASF1159:
 11358 5d3d 43686970 		.ascii	"Chip_UART_IntDisable\000"
 11358      5F554152 
 11358      545F496E 
 11358      74446973 
 11358      61626C65 
 11359              	.LASF331:
 11360 5d52 5F5F4152 		.ascii	"__ARMEL__ 1\000"
 11360      4D454C5F 
 11360      5F203100 
 11361              	.LASF888:
 11362 5d5e 4144435F 		.ascii	"ADC_CR_START_MASK ((7UL << 24))\000"
 11362      43525F53 
 11362      54415254 
 11362      5F4D4153 
 11362      4B202828 
 11363              	.LASF594:
 11364 5d7e 4C50435F 		.ascii	"LPC_TIMER16_0_BASE 0x4000C000\000"
 11364      54494D45 
 11364      5231365F 
 11364      305F4241 
 11364      53452030 
 11365              	.LASF1186:
 11366 5d9c 52696E67 		.ascii	"RingBuffer_Pop\000"
 11366      42756666 
 11366      65725F50 
 11366      6F7000
 11367              	.LASF466:
 11368 5dab 55494E54 		.ascii	"UINT64_C(x) __UINT64_C(x)\000"
 11368      36345F43 
ARM GAS  /var/folders/9j/_txx49hn253_s3mnzkyxlj8m0000gp/T//ccgYRR5b.s 			page 281


 11368      28782920 
 11368      5F5F5549 
 11368      4E543634 
 11369              	.LASF257:
 11370 5dc5 5F5F4C4C 		.ascii	"__LLACCUM_FBIT__ 31\000"
 11370      41434355 
 11370      4D5F4642 
 11370      49545F5F 
 11370      20333100 
 11371              	.LASF81:
 11372 5dd9 5F5F5549 		.ascii	"__UINTMAX_MAX__ 18446744073709551615ULL\000"
 11372      4E544D41 
 11372      585F4D41 
 11372      585F5F20 
 11372      31383434 
 11373              	.LASF129:
 11374 5e01 5F5F464C 		.ascii	"__FLT_MAX_10_EXP__ 38\000"
 11374      545F4D41 
 11374      585F3130 
 11374      5F455850 
 11374      5F5F2033 
 11375              	.LASF416:
 11376 5e17 55494E54 		.ascii	"UINT_LEAST8_MAX (__UINT_LEAST8_MAX__)\000"
 11376      5F4C4541 
 11376      5354385F 
 11376      4D415820 
 11376      285F5F55 
 11377              	.LASF282:
 11378 5e3d 5F5F5553 		.ascii	"__USQ_IBIT__ 0\000"
 11378      515F4942 
 11378      49545F5F 
 11378      203000
 11379              	.LASF53:
 11380 5e4c 5F5F5549 		.ascii	"__UINT_LEAST32_TYPE__ long unsigned int\000"
 11380      4E545F4C 
 11380      45415354 
 11380      33325F54 
 11380      5950455F 
 11381              	.LASF280:
 11382 5e74 5F5F5548 		.ascii	"__UHQ_IBIT__ 0\000"
 11382      515F4942 
 11382      49545F5F 
 11382      203000
 11383              	.LASF3:
 11384 5e83 5F5F474E 		.ascii	"__GNUC_MINOR__ 9\000"
 11384      55435F4D 
 11384      494E4F52 
 11384      5F5F2039 
 11384      00
 11385              	.LASF34:
 11386 5e94 5F5F494E 		.ascii	"__INTMAX_TYPE__ long long int\000"
 11386      544D4158 
 11386      5F545950 
 11386      455F5F20 
 11386      6C6F6E67 
 11387              	.LASF165:
 11388 5eb2 5F5F4C44 		.ascii	"__LDBL_HAS_QUIET_NAN__ 1\000"
ARM GAS  /var/folders/9j/_txx49hn253_s3mnzkyxlj8m0000gp/T//ccgYRR5b.s 			page 282


 11388      424C5F48 
 11388      41535F51 
 11388      55494554 
 11388      5F4E414E 
 11389              	.LASF97:
 11390 5ecb 5F5F494E 		.ascii	"__INT_LEAST32_MAX__ 2147483647L\000"
 11390      545F4C45 
 11390      41535433 
 11390      325F4D41 
 11390      585F5F20 
 11391              	.LASF306:
 11392 5eeb 5F5F4348 		.ascii	"__CHAR_UNSIGNED__ 1\000"
 11392      41525F55 
 11392      4E534947 
 11392      4E45445F 
 11392      5F203100 
 11393              	.LASF644:
 11394 5eff 53595343 		.ascii	"SYSCTL_RST_SYSRST (1 << 4)\000"
 11394      544C5F52 
 11394      53545F53 
 11394      59535253 
 11394      54202831 
 11395              	.LASF665:
 11396 5f1a 53595343 		.ascii	"SYSCTL_IRC_FREQ (12000000)\000"
 11396      544C5F49 
 11396      52435F46 
 11396      52455120 
 11396      28313230 
 11397              	.LASF677:
 11398 5f35 494F434F 		.ascii	"IOCON_MODE_PULLUP (0x2 << 3)\000"
 11398      4E5F4D4F 
 11398      44455F50 
 11398      554C4C55 
 11398      50202830 
 11399              	.LASF763:
 11400 5f52 55415254 		.ascii	"UART_LCR_WLEN5 (0 << 0)\000"
 11400      5F4C4352 
 11400      5F574C45 
 11400      4E352028 
 11400      30203C3C 
 11401              	.LASF690:
 11402 5f6a 4D445F50 		.ascii	"MD_PUP (0x2 << 3)\000"
 11402      55502028 
 11402      30783220 
 11402      3C3C2033 
 11402      2900
 11403              	.LASF364:
 11404 5f7c 5F5F5F69 		.ascii	"___int_least32_t_defined 1\000"
 11404      6E745F6C 
 11404      65617374 
 11404      33325F74 
 11404      5F646566 
 11405              	.LASF236:
 11406 5f97 5F5F5553 		.ascii	"__USACCUM_EPSILON__ 0x1P-8UHK\000"
 11406      41434355 
 11406      4D5F4550 
 11406      53494C4F 
ARM GAS  /var/folders/9j/_txx49hn253_s3mnzkyxlj8m0000gp/T//ccgYRR5b.s 			page 283


 11406      4E5F5F20 
 11407              	.LASF151:
 11408 5fb5 5F5F4442 		.ascii	"__DBL_HAS_QUIET_NAN__ 1\000"
 11408      4C5F4841 
 11408      535F5155 
 11408      4945545F 
 11408      4E414E5F 
 11409              	.LASF477:
 11410 5fcd 5F424954 		.ascii	"_BIT\000"
 11410      00
 11411              	.LASF463:
 11412 5fd2 494E5433 		.ascii	"INT32_C(x) __INT32_C(x)\000"
 11412      325F4328 
 11412      7829205F 
 11412      5F494E54 
 11412      33325F43 
 11413              	.LASF440:
 11414 5fea 55494E54 		.ascii	"UINT_FAST16_MAX (__UINT_FAST16_MAX__)\000"
 11414      5F464153 
 11414      5431365F 
 11414      4D415820 
 11414      285F5F55 
 11415              	.LASF220:
 11416 6010 5F5F4C4C 		.ascii	"__LLFRACT_MAX__ 0X7FFFFFFFFFFFFFFFP-63LLR\000"
 11416      46524143 
 11416      545F4D41 
 11416      585F5F20 
 11416      30583746 
 11417              	.LASF572:
 11418 603a 53797354 		.ascii	"SysTick_LOAD_RELOAD_Msk (0xFFFFFFUL << SysTick_LOAD"
 11418      69636B5F 
 11418      4C4F4144 
 11418      5F52454C 
 11418      4F41445F 
 11419 606d 5F52454C 		.ascii	"_RELOAD_Pos)\000"
 11419      4F41445F 
 11419      506F7329 
 11419      00
 11420              	.LASF428:
 11421 607a 55494E54 		.ascii	"UINT_LEAST32_MAX (__UINT_LEAST32_MAX__)\000"
 11421      5F4C4541 
 11421      53543332 
 11421      5F4D4158 
 11421      20285F5F 
 11422              	.LASF766:
 11423 60a2 55415254 		.ascii	"UART_LCR_WLEN8 (3 << 0)\000"
 11423      5F4C4352 
 11423      5F574C45 
 11423      4E382028 
 11423      33203C3C 
 11424              	.LASF739:
 11425 60ba 55415254 		.ascii	"UART1_IER_BITMASK (0x30F)\000"
 11425      315F4945 
 11425      525F4249 
 11425      544D4153 
 11425      4B202830 
 11426              	.LASF1124:
ARM GAS  /var/folders/9j/_txx49hn253_s3mnzkyxlj8m0000gp/T//ccgYRR5b.s 			page 284


 11427 60d4 6974656D 		.ascii	"itemSz\000"
 11427      537A00
 11428              	.LASF77:
 11429 60db 5F5F5054 		.ascii	"__PTRDIFF_MAX__ 2147483647\000"
 11429      52444946 
 11429      465F4D41 
 11429      585F5F20 
 11429      32313437 
 11430              	.LASF526:
 11431 60f6 5343425F 		.ascii	"SCB_ICSR_PENDSVSET_Msk (1UL << SCB_ICSR_PENDSVSET_P"
 11431      49435352 
 11431      5F50454E 
 11431      44535653 
 11431      45545F4D 
 11432 6129 6F732900 		.ascii	"os)\000"
 11433              	.LASF575:
 11434 612d 53797354 		.ascii	"SysTick_CALIB_NOREF_Pos 31\000"
 11434      69636B5F 
 11434      43414C49 
 11434      425F4E4F 
 11434      5245465F 
 11435              	.LASF230:
 11436 6148 5F5F5341 		.ascii	"__SACCUM_MAX__ 0X7FFFP-7HK\000"
 11436      4343554D 
 11436      5F4D4158 
 11436      5F5F2030 
 11436      58374646 
 11437              	.LASF63:
 11438 6163 5F5F494E 		.ascii	"__INTPTR_TYPE__ int\000"
 11438      54505452 
 11438      5F545950 
 11438      455F5F20 
 11438      696E7400 
 11439              	.LASF36:
 11440 6177 5F5F4348 		.ascii	"__CHAR16_TYPE__ short unsigned int\000"
 11440      41523136 
 11440      5F545950 
 11440      455F5F20 
 11440      73686F72 
 11441              	.LASF64:
 11442 619a 5F5F5549 		.ascii	"__UINTPTR_TYPE__ unsigned int\000"
 11442      4E545054 
 11442      525F5459 
 11442      50455F5F 
 11442      20756E73 
 11443              	.LASF570:
 11444 61b8 53797354 		.ascii	"SysTick_CTRL_ENABLE_Msk (1UL << SysTick_CTRL_ENABLE"
 11444      69636B5F 
 11444      4354524C 
 11444      5F454E41 
 11444      424C455F 
 11445 61eb 5F506F73 		.ascii	"_Pos)\000"
 11445      2900
 11446              	.LASF303:
 11447 61f1 5F5F5245 		.ascii	"__REGISTER_PREFIX__ \000"
 11447      47495354 
 11447      45525F50 
ARM GAS  /var/folders/9j/_txx49hn253_s3mnzkyxlj8m0000gp/T//ccgYRR5b.s 			page 285


 11447      52454649 
 11447      585F5F20 
 11448              	.LASF186:
 11449 6206 5F5F4445 		.ascii	"__DEC128_SUBNORMAL_MIN__ 0.000000000000000000000000"
 11449      43313238 
 11449      5F535542 
 11449      4E4F524D 
 11449      414C5F4D 
 11450 6239 30303030 		.ascii	"000000001E-6143DL\000"
 11450      30303030 
 11450      31452D36 
 11450      31343344 
 11450      4C00
 11451              	.LASF1048:
 11452 624b 4C464F53 		.ascii	"LFOSCCTRL\000"
 11452      43435452 
 11452      4C00
 11453              	.LASF216:
 11454 6255 5F5F554C 		.ascii	"__ULFRACT_EPSILON__ 0x1P-32ULR\000"
 11454      46524143 
 11454      545F4550 
 11454      53494C4F 
 11454      4E5F5F20 
 11455              	.LASF1017:
 11456 6274 43414E5F 		.ascii	"CAN_SDOREQ_HANDLED_SEND 1\000"
 11456      53444F52 
 11456      45515F48 
 11456      414E444C 
 11456      45445F53 
 11457              	.LASF338:
 11458 628e 5F5F4152 		.ascii	"__ARM_ARCH_6M__ 1\000"
 11458      4D5F4152 
 11458      43485F36 
 11458      4D5F5F20 
 11458      3100
 11459              	.LASF21:
 11460 62a0 5F5F5349 		.ascii	"__SIZEOF_SIZE_T__ 4\000"
 11460      5A454F46 
 11460      5F53495A 
 11460      455F545F 
 11460      5F203400 
 11461              	.LASF788:
 11462 62b4 55415254 		.ascii	"UART_LSR_FE (1 << 3)\000"
 11462      5F4C5352 
 11462      5F464520 
 11462      2831203C 
 11462      3C203329 
 11463              	.LASF842:
 11464 62c9 57574454 		.ascii	"WWDT_WDMOD_BITMASK ((uint32_t) 0x1F)\000"
 11464      5F57444D 
 11464      4F445F42 
 11464      49544D41 
 11464      534B2028 
 11465              	.LASF46:
 11466 62ee 5F5F5549 		.ascii	"__UINT64_TYPE__ long long unsigned int\000"
 11466      4E543634 
 11466      5F545950 
ARM GAS  /var/folders/9j/_txx49hn253_s3mnzkyxlj8m0000gp/T//ccgYRR5b.s 			page 286


 11466      455F5F20 
 11466      6C6F6E67 
 11467              	.LASF183:
 11468 6315 5F5F4445 		.ascii	"__DEC128_MIN__ 1E-6143DL\000"
 11468      43313238 
 11468      5F4D494E 
 11468      5F5F2031 
 11468      452D3631 
 11469              	.LASF100:
 11470 632e 5F5F494E 		.ascii	"__INT64_C(c) c ## LL\000"
 11470      5436345F 
 11470      43286329 
 11470      20632023 
 11470      23204C4C 
 11471              	.LASF248:
 11472 6343 5F5F4C41 		.ascii	"__LACCUM_IBIT__ 32\000"
 11472      4343554D 
 11472      5F494249 
 11472      545F5F20 
 11472      333200
 11473              	.LASF1100:
 11474 6356 44455649 		.ascii	"DEVICEID\000"
 11474      43454944 
 11474      00
 11475              	.LASF426:
 11476 635f 494E545F 		.ascii	"INT_LEAST32_MIN (-__INT_LEAST32_MAX__ - 1)\000"
 11476      4C454153 
 11476      5433325F 
 11476      4D494E20 
 11476      282D5F5F 
 11477              	.LASF684:
 11478 638a 494F434F 		.ascii	"IOCON_STDI2C_EN (0x1 << 8)\000"
 11478      4E5F5354 
 11478      44493243 
 11478      5F454E20 
 11478      28307831 
 11479              	.LASF469:
 11480 63a5 5F474343 		.ascii	"_GCC_WRAP_STDINT_H \000"
 11480      5F575241 
 11480      505F5354 
 11480      44494E54 
 11480      5F482000 
 11481              	.LASF960:
 11482 63b9 4932435F 		.ascii	"I2C_I2ADR_GC ((1 << 0))\000"
 11482      49324144 
 11482      525F4743 
 11482      20282831 
 11482      203C3C20 
 11483              	.LASF1074:
 11484 63d1 434C4B4F 		.ascii	"CLKOUTSEL\000"
 11484      55545345 
 11484      4C00
 11485              	.LASF160:
 11486 63db 5F5F4C44 		.ascii	"__LDBL_MIN__ 2.2250738585072014e-308L\000"
 11486      424C5F4D 
 11486      494E5F5F 
 11486      20322E32 
ARM GAS  /var/folders/9j/_txx49hn253_s3mnzkyxlj8m0000gp/T//ccgYRR5b.s 			page 287


 11486      32353037 
 11487              	.LASF354:
 11488 6401 5F5F4E45 		.ascii	"__NEWLIB_MINOR__ 2\000"
 11488      574C4942 
 11488      5F4D494E 
 11488      4F525F5F 
 11488      203200
 11489              	.LASF238:
 11490 6414 5F5F4143 		.ascii	"__ACCUM_IBIT__ 16\000"
 11490      43554D5F 
 11490      49424954 
 11490      5F5F2031 
 11490      3600
 11491              	.LASF988:
 11492 6426 43414E5F 		.ascii	"CAN_ERROR_BIT0 0x00000080UL\000"
 11492      4552524F 
 11492      525F4249 
 11492      54302030 
 11492      78303030 
 11493              	.LASF90:
 11494 6442 5F5F5549 		.ascii	"__UINT16_MAX__ 65535\000"
 11494      4E543136 
 11494      5F4D4158 
 11494      5F5F2036 
 11494      35353335 
 11495              	.LASF806:
 11496 6457 55415254 		.ascii	"UART_ACR_MODE (1 << 1)\000"
 11496      5F414352 
 11496      5F4D4F44 
 11496      45202831 
 11496      203C3C20 
 11497              	.LASF1026:
 11498 646e 73686F72 		.ascii	"short int\000"
 11498      7420696E 
 11498      7400
 11499              	.LASF685:
 11500 6478 494F434F 		.ascii	"IOCON_FASTI2C_EN (0x2 << 8)\000"
 11500      4E5F4641 
 11500      53544932 
 11500      435F454E 
 11500      20283078 
 11501              	.LASF561:
 11502 6494 5343425F 		.ascii	"SCB_SHCSR_SVCALLPENDED_Pos 15\000"
 11502      53484353 
 11502      525F5356 
 11502      43414C4C 
 11502      50454E44 
 11503              	.LASF675:
 11504 64b2 494F434F 		.ascii	"IOCON_MODE_INACT (0x0 << 3)\000"
 11504      4E5F4D4F 
 11504      44455F49 
 11504      4E414354 
 11504      20283078 
 11505              	.LASF755:
 11506 64ce 55415254 		.ascii	"UART_FCR_DMAMODE_SEL (1 << 3)\000"
 11506      5F464352 
 11506      5F444D41 
ARM GAS  /var/folders/9j/_txx49hn253_s3mnzkyxlj8m0000gp/T//ccgYRR5b.s 			page 288


 11506      4D4F4445 
 11506      5F53454C 
 11507              	.LASF202:
 11508 64ec 5F5F5546 		.ascii	"__UFRACT_FBIT__ 16\000"
 11508      52414354 
 11508      5F464249 
 11508      545F5F20 
 11508      313600
 11509              	.LASF104:
 11510 64ff 5F5F5549 		.ascii	"__UINT16_C(c) c\000"
 11510      4E543136 
 11510      5F432863 
 11510      29206300 
 11511              	.LASF686:
 11512 650f 494F434F 		.ascii	"IOCON_FILT_DIS (0x1 << 8)\000"
 11512      4E5F4649 
 11512      4C545F44 
 11512      49532028 
 11512      30783120 
 11513              	.LASF300:
 11514 6529 5F5F5544 		.ascii	"__UDA_IBIT__ 32\000"
 11514      415F4942 
 11514      49545F5F 
 11514      20333200 
 11515              	.LASF392:
 11516 6539 5F5F4C45 		.ascii	"__LEAST16 \"h\"\000"
 11516      41535431 
 11516      36202268 
 11516      2200
 11517              	.LASF409:
 11518 6547 494E5450 		.ascii	"INTPTR_MAX (__INTPTR_MAX__)\000"
 11518      54525F4D 
 11518      41582028 
 11518      5F5F494E 
 11518      54505452 
 11519              	.LASF429:
 11520 6563 494E5436 		.ascii	"INT64_MIN (-__INT64_MAX__ - 1)\000"
 11520      345F4D49 
 11520      4E20282D 
 11520      5F5F494E 
 11520      5436345F 
 11521              	.LASF6:
 11522 6582 5F5F4154 		.ascii	"__ATOMIC_RELAXED 0\000"
 11522      4F4D4943 
 11522      5F52454C 
 11522      41584544 
 11522      203000
 11523              	.LASF753:
 11524 6595 55415254 		.ascii	"UART_FCR_RX_RS (1 << 1)\000"
 11524      5F464352 
 11524      5F52585F 
 11524      52532028 
 11524      31203C3C 
 11525              	.LASF638:
 11526 65ad 5F5F464D 		.ascii	"__FMC_11XX_H_ \000"
 11526      435F3131 
 11526      58585F48 
ARM GAS  /var/folders/9j/_txx49hn253_s3mnzkyxlj8m0000gp/T//ccgYRR5b.s 			page 289


 11526      5F2000
 11527              	.LASF735:
 11528 65bc 55415254 		.ascii	"UART_IER_CTSINT (1 << 7)\000"
 11528      5F494552 
 11528      5F435453 
 11528      494E5420 
 11528      2831203C 
 11529              	.LASF150:
 11530 65d5 5F5F4442 		.ascii	"__DBL_HAS_INFINITY__ 1\000"
 11530      4C5F4841 
 11530      535F494E 
 11530      46494E49 
 11530      54595F5F 
 11531              	.LASF634:
 11532 65ec 504D555F 		.ascii	"PMU_PCON_PM_SLEEP (0x0)\000"
 11532      50434F4E 
 11532      5F504D5F 
 11532      534C4545 
 11532      50202830 
 11533              	.LASF446:
 11534 6604 55494E54 		.ascii	"UINT_FAST64_MAX (__UINT_FAST64_MAX__)\000"
 11534      5F464153 
 11534      5436345F 
 11534      4D415820 
 11534      285F5F55 
 11535              	.LASF1191:
 11536 662a 2E2E2F6C 		.ascii	"../lpc11cx4-library/lpc_chip_11cxx_lib/src/uart_11x"
 11536      70633131 
 11536      6378342D 
 11536      6C696272 
 11536      6172792F 
 11537 665d 782E6300 		.ascii	"x.c\000"
 11538              	.LASF431:
 11539 6661 55494E54 		.ascii	"UINT64_MAX (__UINT64_MAX__)\000"
 11539      36345F4D 
 11539      41582028 
 11539      5F5F5549 
 11539      4E543634 
 11540              	.LASF554:
 11541 667d 5343425F 		.ascii	"SCB_SCR_SLEEPDEEP_Msk (1UL << SCB_SCR_SLEEPDEEP_Pos"
 11541      5343525F 
 11541      534C4545 
 11541      50444545 
 11541      505F4D73 
 11542 66b0 2900     		.ascii	")\000"
 11543              	.LASF773:
 11544 66b2 55415254 		.ascii	"UART_LCR_PARITY_EVEN (1 << 4)\000"
 11544      5F4C4352 
 11544      5F504152 
 11544      4954595F 
 11544      4556454E 
 11545              	.LASF1090:
 11546 66d0 53544152 		.ascii	"STARTERP0\000"
 11546      54455250 
 11546      3000
 11547              	.LASF1094:
 11548 66da 53544152 		.ascii	"STARTERP1\000"
ARM GAS  /var/folders/9j/_txx49hn253_s3mnzkyxlj8m0000gp/T//ccgYRR5b.s 			page 290


 11548      54455250 
 11548      3100
 11549              	.LASF512:
 11550 66e4 5F5F494F 		.ascii	"__IO volatile\000"
 11550      20766F6C 
 11550      6174696C 
 11550      6500
 11551              	.LASF689:
 11552 66f2 4D445F50 		.ascii	"MD_PDN (0x1 << 3)\000"
 11552      444E2028 
 11552      30783120 
 11552      3C3C2033 
 11552      2900
 11553              	.LASF730:
 11554 6704 55415254 		.ascii	"UART_DLM_MASKBIT (0xFF)\000"
 11554      5F444C4D 
 11554      5F4D4153 
 11554      4B424954 
 11554      20283078 
 11555              	.LASF903:
 11556 671c 5245545F 		.ascii	"RET_SLAVE_BUSY 0\000"
 11556      534C4156 
 11556      455F4255 
 11556      53592030 
 11556      00
 11557              	.LASF18:
 11558 672d 5F5F5349 		.ascii	"__SIZEOF_FLOAT__ 4\000"
 11558      5A454F46 
 11558      5F464C4F 
 11558      41545F5F 
 11558      203400
 11559              	.LASF460:
 11560 6740 55494E54 		.ascii	"UINT8_C(x) __UINT8_C(x)\000"
 11560      385F4328 
 11560      7829205F 
 11560      5F55494E 
 11560      54385F43 
 11561              	.LASF69:
 11562 6758 5F5F5348 		.ascii	"__SHRT_MAX__ 32767\000"
 11562      52545F4D 
 11562      41585F5F 
 11562      20333237 
 11562      363700
 11563              	.LASF586:
 11564 676b 53797354 		.ascii	"SysTick ((SysTick_Type *) SysTick_BASE )\000"
 11564      69636B20 
 11564      28285379 
 11564      73546963 
 11564      6B5F5479 
 11565              	.LASF144:
 11566 6794 5F5F4442 		.ascii	"__DBL_DECIMAL_DIG__ 17\000"
 11566      4C5F4445 
 11566      43494D41 
 11566      4C5F4449 
 11566      475F5F20 
 11567              	.LASF527:
 11568 67ab 5343425F 		.ascii	"SCB_ICSR_PENDSVCLR_Pos 27\000"
ARM GAS  /var/folders/9j/_txx49hn253_s3mnzkyxlj8m0000gp/T//ccgYRR5b.s 			page 291


 11568      49435352 
 11568      5F50454E 
 11568      44535643 
 11568      4C525F50 
 11569              	.LASF370:
 11570 67c5 5F5F6861 		.ascii	"__have_long32 1\000"
 11570      76655F6C 
 11570      6F6E6733 
 11570      32203100 
 11571              	.LASF414:
 11572 67d5 494E545F 		.ascii	"INT_LEAST8_MIN (-__INT_LEAST8_MAX__ - 1)\000"
 11572      4C454153 
 11572      54385F4D 
 11572      494E2028 
 11572      2D5F5F49 
 11573              	.LASF105:
 11574 67fe 5F5F5549 		.ascii	"__UINT_LEAST32_MAX__ 4294967295UL\000"
 11574      4E545F4C 
 11574      45415354 
 11574      33325F4D 
 11574      41585F5F 
 11575              	.LASF252:
 11576 6820 5F5F554C 		.ascii	"__ULACCUM_FBIT__ 32\000"
 11576      41434355 
 11576      4D5F4642 
 11576      49545F5F 
 11576      20333200 
 11577              	.LASF545:
 11578 6834 5343425F 		.ascii	"SCB_AIRCR_ENDIANESS_Pos 15\000"
 11578      41495243 
 11578      525F454E 
 11578      4449414E 
 11578      4553535F 
 11579              	.LASF654:
 11580 684f 53595343 		.ascii	"SYSCTL_SLPWAKE_WDTOSC_PD (1 << 6)\000"
 11580      544C5F53 
 11580      4C505741 
 11580      4B455F57 
 11580      44544F53 
 11581              	.LASF660:
 11582 6871 53595343 		.ascii	"SYSCTL_POWERDOWN_ADC_PD (1 << 4)\000"
 11582      544C5F50 
 11582      4F574552 
 11582      444F574E 
 11582      5F414443 
 11583              	.LASF399:
 11584 6892 5F5F696E 		.ascii	"__int64_t_defined 1\000"
 11584      7436345F 
 11584      745F6465 
 11584      66696E65 
 11584      64203100 
 11585              	.LASF571:
 11586 68a6 53797354 		.ascii	"SysTick_LOAD_RELOAD_Pos 0\000"
 11586      69636B5F 
 11586      4C4F4144 
 11586      5F52454C 
 11586      4F41445F 
ARM GAS  /var/folders/9j/_txx49hn253_s3mnzkyxlj8m0000gp/T//ccgYRR5b.s 			page 292


 11587              	.LASF1171:
 11588 68c0 636C6B69 		.ascii	"clkin\000"
 11588      6E00
 11589              	.LASF831:
 11590 68c6 55415254 		.ascii	"UART_FDR_BITMASK (0xFF)\000"
 11590      5F464452 
 11590      5F424954 
 11590      4D41534B 
 11590      20283078 
 11591              	.LASF608:
 11592 68de 4C50435F 		.ascii	"LPC_SSP1_BASE 0x40058000\000"
 11592      53535031 
 11592      5F424153 
 11592      45203078 
 11592      34303035 
 11593              	.LASF387:
 11594 68f7 5F5F4641 		.ascii	"__FAST8 \000"
 11594      53543820 
 11594      00
 11595              	.LASF1084:
 11596 6900 4E4D4953 		.ascii	"NMISRC\000"
 11596      524300
 11597              	.LASF71:
 11598 6907 5F5F4C4F 		.ascii	"__LONG_MAX__ 2147483647L\000"
 11598      4E475F4D 
 11598      41585F5F 
 11598      20323134 
 11598      37343833 
 11599              	.LASF267:
 11600 6920 5F5F5151 		.ascii	"__QQ_FBIT__ 7\000"
 11600      5F464249 
 11600      545F5F20 
 11600      3700
 11601              	.LASF974:
 11602 692e 4932435F 		.ascii	"I2C_ERR (0x10000000)\000"
 11602      45525220 
 11602      28307831 
 11602      30303030 
 11602      30303029 
 11603              	.LASF316:
 11604 6943 5F5F4743 		.ascii	"__GCC_ATOMIC_TEST_AND_SET_TRUEVAL 1\000"
 11604      435F4154 
 11604      4F4D4943 
 11604      5F544553 
 11604      545F414E 
 11605              	.LASF490:
 11606 6967 494E4C49 		.ascii	"INLINE inline\000"
 11606      4E452069 
 11606      6E6C696E 
 11606      6500
 11607              	.LASF557:
 11608 6975 5343425F 		.ascii	"SCB_CCR_STKALIGN_Pos 9\000"
 11608      4343525F 
 11608      53544B41 
 11608      4C49474E 
 11608      5F506F73 
 11609              	.LASF899:
ARM GAS  /var/folders/9j/_txx49hn253_s3mnzkyxlj8m0000gp/T//ccgYRR5b.s 			page 293


 11610 698c 5F5F4932 		.ascii	"__I2C_11XX_H_ \000"
 11610      435F3131 
 11610      58585F48 
 11610      5F2000
 11611              	.LASF1144:
 11612 699b 43686970 		.ascii	"Chip_UART_ConfigData\000"
 11612      5F554152 
 11612      545F436F 
 11612      6E666967 
 11612      44617461 
 11613              	.LASF356:
 11614 69b0 5F5F474E 		.ascii	"__GNUC_PREREQ__(ma,mi) __GNUC_PREREQ(ma, mi)\000"
 11614      55435F50 
 11614      52455245 
 11614      515F5F28 
 11614      6D612C6D 
 11615              	.LASF1168:
 11616 69dd 62617564 		.ascii	"baudrate\000"
 11616      72617465 
 11616      00
 11617              	.LASF302:
 11618 69e6 5F5F5554 		.ascii	"__UTA_IBIT__ 64\000"
 11618      415F4942 
 11618      49545F5F 
 11618      20363400 
 11619              	.LASF263:
 11620 69f6 5F5F554C 		.ascii	"__ULLACCUM_IBIT__ 32\000"
 11620      4C414343 
 11620      554D5F49 
 11620      4249545F 
 11620      5F203332 
 11621              	.LASF506:
 11622 6a0b 5F5F4650 		.ascii	"__FPU_USED 0\000"
 11622      555F5553 
 11622      45442030 
 11622      00
 11623              	.LASF748:
 11624 6a18 55415254 		.ascii	"UART_IIR_INTID_RDA (2 << 1)\000"
 11624      5F494952 
 11624      5F494E54 
 11624      49445F52 
 11624      44412028 
 11625              	.LASF226:
 11626 6a34 5F5F554C 		.ascii	"__ULLFRACT_EPSILON__ 0x1P-64ULLR\000"
 11626      4C465241 
 11626      43545F45 
 11626      5053494C 
 11626      4F4E5F5F 
 11627              	.LASF1072:
 11628 6a55 57445443 		.ascii	"WDTCLKDIV\000"
 11628      4C4B4449 
 11628      5600
 11629              	.LASF500:
 11630 6a5f 5F5F434D 		.ascii	"__CM0_CMSIS_VERSION_SUB (0x01)\000"
 11630      305F434D 
 11630      5349535F 
 11630      56455253 
ARM GAS  /var/folders/9j/_txx49hn253_s3mnzkyxlj8m0000gp/T//ccgYRR5b.s 			page 294


 11630      494F4E5F 
 11631              	.LASF321:
 11632 6a7e 5F5F5349 		.ascii	"__SIZEOF_WINT_T__ 4\000"
 11632      5A454F46 
 11632      5F57494E 
 11632      545F545F 
 11632      5F203400 
 11633              	.LASF637:
 11634 6a92 504D555F 		.ascii	"PMU_PCON_DPDFLAG (1 << 11)\000"
 11634      50434F4E 
 11634      5F445044 
 11634      464C4147 
 11634      20283120 
 11635              	.LASF564:
 11636 6aad 53797354 		.ascii	"SysTick_CTRL_COUNTFLAG_Msk (1UL << SysTick_CTRL_COU"
 11636      69636B5F 
 11636      4354524C 
 11636      5F434F55 
 11636      4E54464C 
 11637 6ae0 4E54464C 		.ascii	"NTFLAG_Pos)\000"
 11637      41475F50 
 11637      6F732900 
 11638              	.LASF219:
 11639 6aec 5F5F4C4C 		.ascii	"__LLFRACT_MIN__ (-0.5LLR-0.5LLR)\000"
 11639      46524143 
 11639      545F4D49 
 11639      4E5F5F20 
 11639      282D302E 
 11640              	.LASF1042:
 11641 6b0d 55534250 		.ascii	"USBPLLCTRL\000"
 11641      4C4C4354 
 11641      524C00
 11642              	.LASF1091:
 11643 6b18 53544152 		.ascii	"STARTRSRP0CLR\000"
 11643      54525352 
 11643      5030434C 
 11643      5200
 11644              	.LASF1041:
 11645 6b26 53595350 		.ascii	"SYSPLLSTAT\000"
 11645      4C4C5354 
 11645      415400
 11646              	.LASF249:
 11647 6b31 5F5F4C41 		.ascii	"__LACCUM_MIN__ (-0X1P31LK-0X1P31LK)\000"
 11647      4343554D 
 11647      5F4D494E 
 11647      5F5F2028 
 11647      2D305831 
 11648              	.LASF613:
 11649 6b55 4941505F 		.ascii	"IAP_ENTRY_LOCATION 0X1FFF1FF1\000"
 11649      454E5452 
 11649      595F4C4F 
 11649      43415449 
 11649      4F4E2030 
 11650              	.LASF340:
 11651 6b73 5F5F4152 		.ascii	"__ARM_EABI__ 1\000"
 11651      4D5F4541 
 11651      42495F5F 
ARM GAS  /var/folders/9j/_txx49hn253_s3mnzkyxlj8m0000gp/T//ccgYRR5b.s 			page 295


 11651      203100
 11652              	.LASF1190:
 11653 6b82 474E5520 		.ascii	"GNU C 4.9.3 20150529 (release) [ARM/embedded-4_9-br"
 11653      4320342E 
 11653      392E3320 
 11653      32303135 
 11653      30353239 
 11654 6bb5 616E6368 		.ascii	"anch revision 227977] -mcpu=cortex-m0 -mthumb -g -g"
 11654      20726576 
 11654      6973696F 
 11654      6E203232 
 11654      37393737 
 11655 6be8 67646233 		.ascii	"gdb3 -O2 -std=gnu90 -ffunction-sections -fdata-sect"
 11655      202D4F32 
 11655      202D7374 
 11655      643D676E 
 11655      75393020 
 11656 6c1b 696F6E73 		.ascii	"ions\000"
 11656      00
 11657              	.LASF148:
 11658 6c20 5F5F4442 		.ascii	"__DBL_DENORM_MIN__ ((double)4.9406564584124654e-324"
 11658      4C5F4445 
 11658      4E4F524D 
 11658      5F4D494E 
 11658      5F5F2028 
 11659 6c53 4C2900   		.ascii	"L)\000"
 11660              	.LASF1156:
 11661 6c56 43686970 		.ascii	"Chip_UART_EnableDivisorAccess\000"
 11661      5F554152 
 11661      545F456E 
 11661      61626C65 
 11661      44697669 
 11662              	.LASF1062:
 11663 6c74 53535030 		.ascii	"SSP0CLKDIV\000"
 11663      434C4B44 
 11663      495600
 11664              	.LASF191:
 11665 6c7f 5F5F5346 		.ascii	"__SFRACT_EPSILON__ 0x1P-7HR\000"
 11665      52414354 
 11665      5F455053 
 11665      494C4F4E 
 11665      5F5F2030 
 11666              	.LASF1166:
 11667 6c9b 43686970 		.ascii	"Chip_UART_ReadBlocking\000"
 11667      5F554152 
 11667      545F5265 
 11667      6164426C 
 11667      6F636B69 
 11668              	.LASF599:
 11669 6cb2 4C50435F 		.ascii	"LPC_DAC_BASE 0x40024000\000"
 11669      4441435F 
 11669      42415345 
 11669      20307834 
 11669      30303234 
 11670              	.LASF385:
 11671 6cca 5F5F494E 		.ascii	"__INT32 \"l\"\000"
 11671      54333220 
ARM GAS  /var/folders/9j/_txx49hn253_s3mnzkyxlj8m0000gp/T//ccgYRR5b.s 			page 296


 11671      226C2200 
 11672              	.LASF541:
 11673 6cd6 5343425F 		.ascii	"SCB_AIRCR_VECTKEY_Pos 16\000"
 11673      41495243 
 11673      525F5645 
 11673      43544B45 
 11673      595F506F 
 11674              	.LASF482:
 11675 6cef 5F424954 		.ascii	"_BITMASK(field_width) ( _BIT(field_width) - 1)\000"
 11675      4D41534B 
 11675      28666965 
 11675      6C645F77 
 11675      69647468 
 11676              	.LASF643:
 11677 6d1e 53595343 		.ascii	"SYSCTL_RST_BOD (1 << 3)\000"
 11677      544C5F52 
 11677      53545F42 
 11677      4F442028 
 11677      31203C3C 
 11678              	.LASF639:
 11679 6d36 5F5F5359 		.ascii	"__SYSCTL_11XX_H_ \000"
 11679      5343544C 
 11679      5F313158 
 11679      585F485F 
 11679      2000
 11680              	.LASF45:
 11681 6d48 5F5F5549 		.ascii	"__UINT32_TYPE__ long unsigned int\000"
 11681      4E543332 
 11681      5F545950 
 11681      455F5F20 
 11681      6C6F6E67 
 11682              	.LASF814:
 11683 6d6a 55415254 		.ascii	"UART_RS485CTRL_SEL_DTR (1 << 3)\000"
 11683      5F525334 
 11683      38354354 
 11683      524C5F53 
 11683      454C5F44 
 11684              	.LASF345:
 11685 6d8a 434F5245 		.ascii	"CORE_M0 1\000"
 11685      5F4D3020 
 11685      3100
 11686              	.LASF856:
 11687 6d94 5353505F 		.ascii	"SSP_CR0_CPHA_SECOND ((uint32_t) (1 << 7))\000"
 11687      4352305F 
 11687      43504841 
 11687      5F534543 
 11687      4F4E4420 
 11688              	.LASF710:
 11689 6dbe 5F5F5449 		.ascii	"__TIMER_11XX_H_ \000"
 11689      4D45525F 
 11689      31315858 
 11689      5F485F20 
 11689      00
 11690              	.LASF702:
 11691 6dcf 46554E43 		.ascii	"FUNC0 0x0\000"
 11691      30203078 
 11691      3000
ARM GAS  /var/folders/9j/_txx49hn253_s3mnzkyxlj8m0000gp/T//ccgYRR5b.s 			page 297


 11692              	.LASF995:
 11693 6dd9 53444F5F 		.ascii	"SDO_ABORT_SDOTIMEOUT 0x05040000UL\000"
 11693      41424F52 
 11693      545F5344 
 11693      4F54494D 
 11693      454F5554 
 11694              	.LASF797:
 11695 6dfb 55415254 		.ascii	"UART_MSR_DELTA_DSR (1 << 1)\000"
 11695      5F4D5352 
 11695      5F44454C 
 11695      54415F44 
 11695      53522028 
 11696              	.LASF224:
 11697 6e17 5F5F554C 		.ascii	"__ULLFRACT_MIN__ 0.0ULLR\000"
 11697      4C465241 
 11697      43545F4D 
 11697      494E5F5F 
 11697      20302E30 
 11698              	.LASF648:
 11699 6e30 53595343 		.ascii	"SYSCTL_SLPWAKE_IRCOUT_PD (1 << 0)\000"
 11699      544C5F53 
 11699      4C505741 
 11699      4B455F49 
 11699      52434F55 
 11700              	.LASF617:
 11701 6e52 4C50435F 		.ascii	"LPC_USART ((LPC_USART_T *) LPC_USART_BASE)\000"
 11701      55534152 
 11701      54202828 
 11701      4C50435F 
 11701      55534152 
 11702              	.LASF284:
 11703 6e7d 5F5F5544 		.ascii	"__UDQ_IBIT__ 0\000"
 11703      515F4942 
 11703      49545F5F 
 11703      203000
 11704              	.LASF14:
 11705 6e8c 5F5F5349 		.ascii	"__SIZEOF_INT__ 4\000"
 11705      5A454F46 
 11705      5F494E54 
 11705      5F5F2034 
 11705      00
 11706              	.LASF218:
 11707 6e9d 5F5F4C4C 		.ascii	"__LLFRACT_IBIT__ 0\000"
 11707      46524143 
 11707      545F4942 
 11707      49545F5F 
 11707      203000
 11708              	.LASF462:
 11709 6eb0 55494E54 		.ascii	"UINT16_C(x) __UINT16_C(x)\000"
 11709      31365F43 
 11709      28782920 
 11709      5F5F5549 
 11709      4E543136 
 11710              	.LASF951:
 11711 6eca 4932435F 		.ascii	"I2C_I2STAT_S_TX_LAST_DAT_ACK ((0xC8))\000"
 11711      49325354 
 11711      41545F53 
ARM GAS  /var/folders/9j/_txx49hn253_s3mnzkyxlj8m0000gp/T//ccgYRR5b.s 			page 298


 11711      5F54585F 
 11711      4C415354 
 11712              	.LASF1109:
 11713 6ef0 53595343 		.ascii	"SYSCTL_CLOCK_CT16B0\000"
 11713      544C5F43 
 11713      4C4F434B 
 11713      5F435431 
 11713      36423000 
 11714              	.LASF1035:
 11715 6f04 75696E74 		.ascii	"uint32_t\000"
 11715      33325F74 
 11715      00
 11716              	.LASF825:
 11717 6f0d 55415254 		.ascii	"UART_SCICTRL_NACKDIS (1 << 1)\000"
 11717      5F534349 
 11717      4354524C 
 11717      5F4E4143 
 11717      4B444953 
 11718              	.LASF367:
 11719 6f2b 5F535953 		.ascii	"_SYS__INTSUP_H \000"
 11719      5F5F494E 
 11719      54535550 
 11719      5F482000 
 11720              	.LASF1092:
 11721 6f3b 53544152 		.ascii	"STARTSRP0\000"
 11721      54535250 
 11721      3000
 11722              	.LASF231:
 11723 6f45 5F5F5341 		.ascii	"__SACCUM_EPSILON__ 0x1P-7HK\000"
 11723      4343554D 
 11723      5F455053 
 11723      494C4F4E 
 11723      5F5F2030 
 11724              	.LASF636:
 11725 6f61 504D555F 		.ascii	"PMU_PCON_SLEEPFLAG (1 << 8)\000"
 11725      50434F4E 
 11725      5F534C45 
 11725      4550464C 
 11725      41472028 
 11726              	.LASF703:
 11727 6f7d 46554E43 		.ascii	"FUNC1 0x1\000"
 11727      31203078 
 11727      3100
 11728              	.LASF445:
 11729 6f87 494E545F 		.ascii	"INT_FAST64_MAX (__INT_FAST64_MAX__)\000"
 11729      46415354 
 11729      36345F4D 
 11729      41582028 
 11729      5F5F494E 
 11730              	.LASF728:
 11731 6fab 55415254 		.ascii	"UART_DLL_MASKBIT (0xFF)\000"
 11731      5F444C4C 
 11731      5F4D4153 
 11731      4B424954 
 11731      20283078 
 11732              	.LASF496:
 11733 6fc3 5F5F4E56 		.ascii	"__NVIC_PRIO_BITS 2\000"
ARM GAS  /var/folders/9j/_txx49hn253_s3mnzkyxlj8m0000gp/T//ccgYRR5b.s 			page 299


 11733      49435F50 
 11733      52494F5F 
 11733      42495453 
 11733      203200
 11734              	.LASF880:
 11735 6fd6 4144435F 		.ascii	"ADC_DR_RESULT(n) ((((n) >> 6) & 0x3FF))\000"
 11735      44525F52 
 11735      4553554C 
 11735      54286E29 
 11735      20282828 
 11736              	.LASF60:
 11737 6ffe 5F5F5549 		.ascii	"__UINT_FAST16_TYPE__ unsigned int\000"
 11737      4E545F46 
 11737      41535431 
 11737      365F5459 
 11737      50455F5F 
 11738              	.LASF578:
 11739 7020 53797354 		.ascii	"SysTick_CALIB_SKEW_Msk (1UL << SysTick_CALIB_SKEW_P"
 11739      69636B5F 
 11739      43414C49 
 11739      425F534B 
 11739      45575F4D 
 11740 7053 6F732900 		.ascii	"os)\000"
 11741              	.LASF296:
 11742 7057 5F5F5548 		.ascii	"__UHA_IBIT__ 8\000"
 11742      415F4942 
 11742      49545F5F 
 11742      203800
 11743              	.LASF963:
 11744 7066 4932435F 		.ascii	"I2C_I2SCLH_BITMASK ((0xFFFF))\000"
 11744      49325343 
 11744      4C485F42 
 11744      49544D41 
 11744      534B2028 
 11745              	.LASF241:
 11746 7084 5F5F4143 		.ascii	"__ACCUM_EPSILON__ 0x1P-15K\000"
 11746      43554D5F 
 11746      45505349 
 11746      4C4F4E5F 
 11746      5F203078 
 11747              	.LASF256:
 11748 709f 5F5F554C 		.ascii	"__ULACCUM_EPSILON__ 0x1P-32ULK\000"
 11748      41434355 
 11748      4D5F4550 
 11748      53494C4F 
 11748      4E5F5F20 
 11749              	.LASF153:
 11750 70be 5F5F4C44 		.ascii	"__LDBL_DIG__ 15\000"
 11750      424C5F44 
 11750      49475F5F 
 11750      20313500 
 11751              	.LASF1046:
 11752 70ce 5744544F 		.ascii	"WDTOSCCTRL\000"
 11752      53434354 
 11752      524C00
 11753              	.LASF786:
 11754 70d9 55415254 		.ascii	"UART_LSR_OE (1 << 1)\000"
ARM GAS  /var/folders/9j/_txx49hn253_s3mnzkyxlj8m0000gp/T//ccgYRR5b.s 			page 300


 11754      5F4C5352 
 11754      5F4F4520 
 11754      2831203C 
 11754      3C203129 
 11755              	.LASF956:
 11756 70ee 4932435F 		.ascii	"I2C_I2MMCTRL_ENA_SCL ((1 << 1))\000"
 11756      49324D4D 
 11756      4354524C 
 11756      5F454E41 
 11756      5F53434C 
 11757              	.LASF1076:
 11758 710e 434C4B4F 		.ascii	"CLKOUTDIV\000"
 11758      55544449 
 11758      5600
 11759              	.LASF76:
 11760 7118 5F5F5749 		.ascii	"__WINT_MIN__ 0U\000"
 11760      4E545F4D 
 11760      494E5F5F 
 11760      20305500 
 11761              	.LASF678:
 11762 7128 494F434F 		.ascii	"IOCON_MODE_REPEATER (0x3 << 3)\000"
 11762      4E5F4D4F 
 11762      44455F52 
 11762      45504541 
 11762      54455220 
 11763              	.LASF1153:
 11764 7147 43686970 		.ascii	"Chip_UART_Send\000"
 11764      5F554152 
 11764      545F5365 
 11764      6E6400
 11765              	.LASF178:
 11766 7156 5F5F4445 		.ascii	"__DEC64_EPSILON__ 1E-15DD\000"
 11766      4336345F 
 11766      45505349 
 11766      4C4F4E5F 
 11766      5F203145 
 11767              	.LASF724:
 11768 7170 52425F56 		.ascii	"RB_VHEAD(rb) ((volatile uint32_t)(rb->head))\000"
 11768      48454144 
 11768      28726229 
 11768      20282876 
 11768      6F6C6174 
 11769              	.LASF48:
 11770 719d 5F5F494E 		.ascii	"__INT_LEAST16_TYPE__ short int\000"
 11770      545F4C45 
 11770      41535431 
 11770      365F5459 
 11770      50455F5F 
 11771              	.LASF1064:
 11772 71bc 53535031 		.ascii	"SSP1CLKDIV\000"
 11772      434C4B44 
 11772      495600
 11773              	.LASF649:
 11774 71c7 53595343 		.ascii	"SYSCTL_SLPWAKE_IRC_PD (1 << 1)\000"
 11774      544C5F53 
 11774      4C505741 
 11774      4B455F49 
ARM GAS  /var/folders/9j/_txx49hn253_s3mnzkyxlj8m0000gp/T//ccgYRR5b.s 			page 301


 11774      52435F50 
 11775              	.LASF145:
 11776 71e6 5F5F4442 		.ascii	"__DBL_MAX__ ((double)1.7976931348623157e+308L)\000"
 11776      4C5F4D41 
 11776      585F5F20 
 11776      2828646F 
 11776      75626C65 
 11777              	.LASF1027:
 11778 7215 73686F72 		.ascii	"short unsigned int\000"
 11778      7420756E 
 11778      7369676E 
 11778      65642069 
 11778      6E7400
 11779              	.LASF217:
 11780 7228 5F5F4C4C 		.ascii	"__LLFRACT_FBIT__ 63\000"
 11780      46524143 
 11780      545F4642 
 11780      49545F5F 
 11780      20363300 
 11781              	.LASF514:
 11782 723c 5343425F 		.ascii	"SCB_CPUID_IMPLEMENTER_Msk (0xFFUL << SCB_CPUID_IMPL"
 11782      43505549 
 11782      445F494D 
 11782      504C454D 
 11782      454E5445 
 11783 726f 454D454E 		.ascii	"EMENTER_Pos)\000"
 11783      5445525F 
 11783      506F7329 
 11783      00
 11784              	.LASF329:
 11785 727c 5F5F7468 		.ascii	"__thumb__ 1\000"
 11785      756D625F 
 11785      5F203100 
 11786              	.LASF887:
 11787 7288 4144435F 		.ascii	"ADC_CR_PDN ((1UL << 21))\000"
 11787      43525F50 
 11787      444E2028 
 11787      2831554C 
 11787      203C3C20 
 11788              	.LASF114:
 11789 72a1 5F5F5549 		.ascii	"__UINT_FAST16_MAX__ 4294967295U\000"
 11789      4E545F46 
 11789      41535431 
 11789      365F4D41 
 11789      585F5F20 
 11790              	.LASF840:
 11791 72c1 55415254 		.ascii	"UART_SYNCCTRL_CCCLR (1 << 6)\000"
 11791      5F53594E 
 11791      43435452 
 11791      4C5F4343 
 11791      434C5220 
 11792              	.LASF269:
 11793 72de 5F5F4851 		.ascii	"__HQ_FBIT__ 15\000"
 11793      5F464249 
 11793      545F5F20 
 11793      313500
 11794              	.LASF474:
ARM GAS  /var/folders/9j/_txx49hn253_s3mnzkyxlj8m0000gp/T//ccgYRR5b.s 			page 302


 11795 72ed 5F5F626F 		.ascii	"__bool_true_false_are_defined 1\000"
 11795      6F6C5F74 
 11795      7275655F 
 11795      66616C73 
 11795      655F6172 
 11796              	.LASF939:
 11797 730d 4932435F 		.ascii	"I2C_I2STAT_S_RX_ARB_LOST_M_SLA ((0x68))\000"
 11797      49325354 
 11797      41545F53 
 11797      5F52585F 
 11797      4152425F 
 11798              	.LASF382:
 11799 7335 5F494E54 		.ascii	"_INT32_EQ_LONG \000"
 11799      33325F45 
 11799      515F4C4F 
 11799      4E472000 
 11800              	.LASF549:
 11801 7345 5343425F 		.ascii	"SCB_AIRCR_VECTCLRACTIVE_Pos 1\000"
 11801      41495243 
 11801      525F5645 
 11801      4354434C 
 11801      52414354 
 11802              	.LASF959:
 11803 7363 49324441 		.ascii	"I2DATA_BUFFER_BITMASK ((0xFF))\000"
 11803      54415F42 
 11803      55464645 
 11803      525F4249 
 11803      544D4153 
 11804              	.LASF5:
 11805 7382 5F5F5645 		.ascii	"__VERSION__ \"4.9.3 20150529 (release) [ARM/embedde"
 11805      5253494F 
 11805      4E5F5F20 
 11805      22342E39 
 11805      2E332032 
 11806 73b4 642D345F 		.ascii	"d-4_9-branch revision 227977]\"\000"
 11806      392D6272 
 11806      616E6368 
 11806      20726576 
 11806      6973696F 
 11807              	.LASF494:
 11808 73d3 5F5F434D 		.ascii	"__CMSIS_11CXX_H_ \000"
 11808      5349535F 
 11808      31314358 
 11808      585F485F 
 11808      2000
 11809              	.LASF1000:
 11810 73e5 53444F5F 		.ascii	"SDO_ABORT_NOT_EXISTS 0x06020000UL\000"
 11810      41424F52 
 11810      545F4E4F 
 11810      545F4558 
 11810      49535453 
 11811              	.LASF591:
 11812 7407 4C50435F 		.ascii	"LPC_I2C_BASE 0x40000000\000"
 11812      4932435F 
 11812      42415345 
 11812      20307834 
 11812      30303030 
ARM GAS  /var/folders/9j/_txx49hn253_s3mnzkyxlj8m0000gp/T//ccgYRR5b.s 			page 303


 11813              	.LASF820:
 11814 741f 55415254 		.ascii	"UART_ICR_FIXPULSE_EN (1 << 2)\000"
 11814      5F494352 
 11814      5F464958 
 11814      50554C53 
 11814      455F454E 
 11815              	.LASF413:
 11816 743d 55494E54 		.ascii	"UINT8_MAX (__UINT8_MAX__)\000"
 11816      385F4D41 
 11816      5820285F 
 11816      5F55494E 
 11816      54385F4D 
 11817              	.LASF188:
 11818 7457 5F5F5346 		.ascii	"__SFRACT_IBIT__ 0\000"
 11818      52414354 
 11818      5F494249 
 11818      545F5F20 
 11818      3000
 11819              	.LASF397:
 11820 7469 5F5F696E 		.ascii	"__int16_t_defined 1\000"
 11820      7431365F 
 11820      745F6465 
 11820      66696E65 
 11820      64203100 
 11821              	.LASF437:
 11822 747d 55494E54 		.ascii	"UINT_FAST8_MAX (__UINT_FAST8_MAX__)\000"
 11822      5F464153 
 11822      54385F4D 
 11822      41582028 
 11822      5F5F5549 
 11823              	.LASF400:
 11824 74a1 5F5F696E 		.ascii	"__int_least8_t_defined 1\000"
 11824      745F6C65 
 11824      61737438 
 11824      5F745F64 
 11824      6566696E 
 11825              	.LASF846:
 11826 74ba 57574454 		.ascii	"WWDT_WDMOD_WDINT ((uint32_t) (1 << 3))\000"
 11826      5F57444D 
 11826      4F445F57 
 11826      44494E54 
 11826      20282875 
 11827              	.LASF910:
 11828 74e1 4932435F 		.ascii	"I2C_I2CONCLR_AAC ((1 << 2))\000"
 11828      4932434F 
 11828      4E434C52 
 11828      5F414143 
 11828      20282831 
 11829              	.LASF1175:
 11830 74fd 43686970 		.ascii	"Chip_UART_ReadRB\000"
 11830      5F554152 
 11830      545F5265 
 11830      61645242 
 11830      00
 11831              	.LASF595:
 11832 750e 4C50435F 		.ascii	"LPC_TIMER16_1_BASE 0x40010000\000"
 11832      54494D45 
ARM GAS  /var/folders/9j/_txx49hn253_s3mnzkyxlj8m0000gp/T//ccgYRR5b.s 			page 304


 11832      5231365F 
 11832      315F4241 
 11832      53452030 
 11833              	.LASF947:
 11834 752c 4932435F 		.ascii	"I2C_I2STAT_S_TX_SLAR_ACK ((0xA8))\000"
 11834      49325354 
 11834      41545F53 
 11834      5F54585F 
 11834      534C4152 
 11835              	.LASF1081:
 11836 754e 53595354 		.ascii	"SYSTCKCAL\000"
 11836      434B4341 
 11836      4C00
 11837              	.LASF20:
 11838 7558 5F5F5349 		.ascii	"__SIZEOF_LONG_DOUBLE__ 8\000"
 11838      5A454F46 
 11838      5F4C4F4E 
 11838      475F444F 
 11838      55424C45 
 11839              	.LASF865:
 11840 7571 5353505F 		.ascii	"SSP_CPSR_BITMASK ((uint32_t) (0xFF))\000"
 11840      43505352 
 11840      5F424954 
 11840      4D41534B 
 11840      20282875 
 11841              	.LASF30:
 11842 7596 5F5F5349 		.ascii	"__SIZE_TYPE__ unsigned int\000"
 11842      5A455F54 
 11842      5950455F 
 11842      5F20756E 
 11842      7369676E 
 11843              	.LASF943:
 11844 75b1 4932435F 		.ascii	"I2C_I2STAT_S_RX_PRE_SLA_DAT_NACK ((0x88))\000"
 11844      49325354 
 11844      41545F53 
 11844      5F52585F 
 11844      5052455F 
 11845              	.LASF839:
 11846 75db 55415254 		.ascii	"UART_SYNCCTRL_STARTSTOPDISABLE (1 << 5)\000"
 11846      5F53594E 
 11846      43435452 
 11846      4C5F5354 
 11846      41525453 
 11847              	.LASF1066:
 11848 7603 55534243 		.ascii	"USBCLKSEL\000"
 11848      4C4B5345 
 11848      4C00
 11849              	.LASF1006:
 11850 760d 53444F5F 		.ascii	"SDO_ABORT_TRANSFER 0x08000020UL\000"
 11850      41424F52 
 11850      545F5452 
 11850      414E5346 
 11850      45522030 
 11851              	.LASF190:
 11852 762d 5F5F5346 		.ascii	"__SFRACT_MAX__ 0X7FP-7HR\000"
 11852      52414354 
 11852      5F4D4158 
ARM GAS  /var/folders/9j/_txx49hn253_s3mnzkyxlj8m0000gp/T//ccgYRR5b.s 			page 305


 11852      5F5F2030 
 11852      58374650 
 11853              	.LASF721:
 11854 7646 54494D45 		.ascii	"TIMER_INT_ON_CAP(n) (_BIT((((n) * 3) + 2)))\000"
 11854      525F494E 
 11854      545F4F4E 
 11854      5F434150 
 11854      286E2920 
 11855              	.LASF983:
 11856 7672 43414E5F 		.ascii	"CAN_ERROR_BOFF 0x00000004UL\000"
 11856      4552524F 
 11856      525F424F 
 11856      46462030 
 11856      78303030 
 11857              	.LASF864:
 11858 768e 5353505F 		.ascii	"SSP_CR1_BITMASK ((uint32_t) (0x0F))\000"
 11858      4352315F 
 11858      4249544D 
 11858      41534B20 
 11858      28287569 
 11859              	.LASF896:
 11860 76b2 4144435F 		.ascii	"ADC_CR_EDGE ((1UL << 27))\000"
 11860      43525F45 
 11860      44474520 
 11860      28283155 
 11860      4C203C3C 
 11861              	.LASF96:
 11862 76cc 5F5F494E 		.ascii	"__INT16_C(c) c\000"
 11862      5431365F 
 11862      43286329 
 11862      206300
 11863              	.LASF1147:
 11864 76db 43686970 		.ascii	"Chip_UART_SendByte\000"
 11864      5F554152 
 11864      545F5365 
 11864      6E644279 
 11864      746500
 11865              	.LASF954:
 11866 76ee 4932435F 		.ascii	"I2C_I2DAT_IDLE_CHAR (0xFF)\000"
 11866      49324441 
 11866      545F4944 
 11866      4C455F43 
 11866      48415220 
 11867              	.LASF379:
 11868 7709 73686F72 		.ascii	"short +1\000"
 11868      74202B31 
 11868      00
 11869              	.LASF993:
 11870 7712 43414E5F 		.ascii	"CAN_MSGOBJ_RTR 0x40000000UL\000"
 11870      4D53474F 
 11870      424A5F52 
 11870      54522030 
 11870      78343030 
 11871              	.LASF552:
 11872 772e 5343425F 		.ascii	"SCB_SCR_SEVONPEND_Msk (1UL << SCB_SCR_SEVONPEND_Pos"
 11872      5343525F 
 11872      5345564F 
ARM GAS  /var/folders/9j/_txx49hn253_s3mnzkyxlj8m0000gp/T//ccgYRR5b.s 			page 306


 11872      4E50454E 
 11872      445F4D73 
 11873 7761 2900     		.ascii	")\000"
 11874              	.LASF746:
 11875 7763 55415254 		.ascii	"UART_IIR_INTID_MASK (7 << 1)\000"
 11875      5F494952 
 11875      5F494E54 
 11875      49445F4D 
 11875      41534B20 
 11876              	.LASF10:
 11877 7780 5F5F4154 		.ascii	"__ATOMIC_ACQ_REL 4\000"
 11877      4F4D4943 
 11877      5F414351 
 11877      5F52454C 
 11877      203400
 11878              	.LASF41:
 11879 7793 5F5F494E 		.ascii	"__INT32_TYPE__ long int\000"
 11879      5433325F 
 11879      54595045 
 11879      5F5F206C 
 11879      6F6E6720 
 11880              	.LASF348:
 11881 77ab 5F5F4348 		.ascii	"__CHIP_H_ \000"
 11881      49505F48 
 11881      5F2000
 11882              	.LASF141:
 11883 77b6 5F5F4442 		.ascii	"__DBL_MIN_10_EXP__ (-307)\000"
 11883      4C5F4D49 
 11883      4E5F3130 
 11883      5F455850 
 11883      5F5F2028 
 11884              	.LASF1122:
 11885 77d0 64617461 		.ascii	"data\000"
 11885      00
 11886              	.LASF544:
 11887 77d5 5343425F 		.ascii	"SCB_AIRCR_VECTKEYSTAT_Msk (0xFFFFUL << SCB_AIRCR_VE"
 11887      41495243 
 11887      525F5645 
 11887      43544B45 
 11887      59535441 
 11888 7808 43544B45 		.ascii	"CTKEYSTAT_Pos)\000"
 11888      59535441 
 11888      545F506F 
 11888      732900
 11889              	.LASF448:
 11890 7817 494E544D 		.ascii	"INTMAX_MIN (-INTMAX_MAX - 1)\000"
 11890      41585F4D 
 11890      494E2028 
 11890      2D494E54 
 11890      4D41585F 
 11891              	.LASF584:
 11892 7834 5343425F 		.ascii	"SCB_BASE (SCS_BASE + 0x0D00UL)\000"
 11892      42415345 
 11892      20285343 
 11892      535F4241 
 11892      5345202B 
 11893              	.LASF1143:
ARM GAS  /var/folders/9j/_txx49hn253_s3mnzkyxlj8m0000gp/T//ccgYRR5b.s 			page 307


 11894 7853 70554152 		.ascii	"pUART\000"
 11894      5400
 11895              	.LASF623:
 11896 7859 4C50435F 		.ascii	"LPC_PMU ((LPC_PMU_T *) LPC_PMU_BASE)\000"
 11896      504D5520 
 11896      28284C50 
 11896      435F504D 
 11896      555F5420 
 11897              	.LASF504:
 11898 787e 5F5F494E 		.ascii	"__INLINE inline\000"
 11898      4C494E45 
 11898      20696E6C 
 11898      696E6500 
 11899              	.LASF89:
 11900 788e 5F5F5549 		.ascii	"__UINT8_MAX__ 255\000"
 11900      4E54385F 
 11900      4D41585F 
 11900      5F203235 
 11900      3500
 11901              	.LASF803:
 11902 78a0 55415254 		.ascii	"UART_MSR_DCD (1 << 7)\000"
 11902      5F4D5352 
 11902      5F444344 
 11902      20283120 
 11902      3C3C2037 
 11903              	.LASF115:
 11904 78b6 5F5F5549 		.ascii	"__UINT_FAST32_MAX__ 4294967295U\000"
 11904      4E545F46 
 11904      41535433 
 11904      325F4D41 
 11904      585F5F20 
 11905              	.LASF101:
 11906 78d6 5F5F5549 		.ascii	"__UINT_LEAST8_MAX__ 255\000"
 11906      4E545F4C 
 11906      45415354 
 11906      385F4D41 
 11906      585F5F20 
 11907              	.LASF1119:
 11908 78ee 53595343 		.ascii	"SYSCTL_CLOCK_CAN\000"
 11908      544C5F43 
 11908      4C4F434B 
 11908      5F43414E 
 11908      00
 11909              	.LASF138:
 11910 78ff 5F5F4442 		.ascii	"__DBL_MANT_DIG__ 53\000"
 11910      4C5F4D41 
 11910      4E545F44 
 11910      49475F5F 
 11910      20353300 
 11911              	.LASF1154:
 11912 7913 43686970 		.ascii	"Chip_UART_Read\000"
 11912      5F554152 
 11912      545F5265 
 11912      616400
 11913              	.LASF768:
 11914 7922 55415254 		.ascii	"UART_LCR_SBS_1BIT (0 << 2)\000"
 11914      5F4C4352 
ARM GAS  /var/folders/9j/_txx49hn253_s3mnzkyxlj8m0000gp/T//ccgYRR5b.s 			page 308


 11914      5F534253 
 11914      5F314249 
 11914      54202830 
 11915              	.LASF204:
 11916 793d 5F5F5546 		.ascii	"__UFRACT_MIN__ 0.0UR\000"
 11916      52414354 
 11916      5F4D494E 
 11916      5F5F2030 
 11916      2E305552 
 11917              	.LASF50:
 11918 7952 5F5F494E 		.ascii	"__INT_LEAST64_TYPE__ long long int\000"
 11918      545F4C45 
 11918      41535436 
 11918      345F5459 
 11918      50455F5F 
 11919              	.LASF744:
 11920 7975 55415254 		.ascii	"UART_IIR_ABTO_INT (1 << 9)\000"
 11920      5F494952 
 11920      5F414254 
 11920      4F5F494E 
 11920      54202831 
 11921              	.LASF885:
 11922 7990 4144435F 		.ascii	"ADC_CR_CLKDIV(n) ((((n) & 0xFF) << 8))\000"
 11922      43525F43 
 11922      4C4B4449 
 11922      56286E29 
 11922      20282828 
 11923              	.LASF920:
 11924 79b7 4932435F 		.ascii	"I2C_STAT_CODE_BITMASK ((0xF8))\000"
 11924      53544154 
 11924      5F434F44 
 11924      455F4249 
 11924      544D4153 
 11925              	.LASF227:
 11926 79d6 5F5F5341 		.ascii	"__SACCUM_FBIT__ 7\000"
 11926      4343554D 
 11926      5F464249 
 11926      545F5F20 
 11926      3700
 11927              	.LASF264:
 11928 79e8 5F5F554C 		.ascii	"__ULLACCUM_MIN__ 0.0ULLK\000"
 11928      4C414343 
 11928      554D5F4D 
 11928      494E5F5F 
 11928      20302E30 
 11929              	.LASF800:
 11930 7a01 55415254 		.ascii	"UART_MSR_CTS (1 << 4)\000"
 11930      5F4D5352 
 11930      5F435453 
 11930      20283120 
 11930      3C3C2034 
 11931              	.LASF966:
 11932 7a17 4932435F 		.ascii	"I2C_SETUP_STATUS_NOACKF (1 << 9)\000"
 11932      53455455 
 11932      505F5354 
 11932      41545553 
 11932      5F4E4F41 
ARM GAS  /var/folders/9j/_txx49hn253_s3mnzkyxlj8m0000gp/T//ccgYRR5b.s 			page 309


 11933              		.ident	"GCC: (GNU Tools for ARM Embedded Processors) 4.9.3 20150529 (release) [ARM/embedded-4_9-br
ARM GAS  /var/folders/9j/_txx49hn253_s3mnzkyxlj8m0000gp/T//ccgYRR5b.s 			page 310


DEFINED SYMBOLS
                            *ABS*:0000000000000000 uart_11xx.c
/var/folders/9j/_txx49hn253_s3mnzkyxlj8m0000gp/T//ccgYRR5b.s:72     .text.Chip_UART_Init:0000000000000000 $t
/var/folders/9j/_txx49hn253_s3mnzkyxlj8m0000gp/T//ccgYRR5b.s:77     .text.Chip_UART_Init:0000000000000000 Chip_UART_Init
/var/folders/9j/_txx49hn253_s3mnzkyxlj8m0000gp/T//ccgYRR5b.s:147    .text.Chip_UART_Init:0000000000000024 $d
/var/folders/9j/_txx49hn253_s3mnzkyxlj8m0000gp/T//ccgYRR5b.s:152    .text.Chip_UART_DeInit:0000000000000000 $t
/var/folders/9j/_txx49hn253_s3mnzkyxlj8m0000gp/T//ccgYRR5b.s:157    .text.Chip_UART_DeInit:0000000000000000 Chip_UART_DeInit
/var/folders/9j/_txx49hn253_s3mnzkyxlj8m0000gp/T//ccgYRR5b.s:186    .text.Chip_UART_DeInit:0000000000000010 $d
/var/folders/9j/_txx49hn253_s3mnzkyxlj8m0000gp/T//ccgYRR5b.s:192    .text.Chip_UART_Send:0000000000000000 $t
/var/folders/9j/_txx49hn253_s3mnzkyxlj8m0000gp/T//ccgYRR5b.s:197    .text.Chip_UART_Send:0000000000000000 Chip_UART_Send
/var/folders/9j/_txx49hn253_s3mnzkyxlj8m0000gp/T//ccgYRR5b.s:279    .text.Chip_UART_SendBlocking:0000000000000000 $t
/var/folders/9j/_txx49hn253_s3mnzkyxlj8m0000gp/T//ccgYRR5b.s:284    .text.Chip_UART_SendBlocking:0000000000000000 Chip_UART_SendBlocking
/var/folders/9j/_txx49hn253_s3mnzkyxlj8m0000gp/T//ccgYRR5b.s:370    .text.Chip_UART_Read:0000000000000000 $t
/var/folders/9j/_txx49hn253_s3mnzkyxlj8m0000gp/T//ccgYRR5b.s:375    .text.Chip_UART_Read:0000000000000000 Chip_UART_Read
/var/folders/9j/_txx49hn253_s3mnzkyxlj8m0000gp/T//ccgYRR5b.s:451    .text.Chip_UART_ReadBlocking:0000000000000000 $t
/var/folders/9j/_txx49hn253_s3mnzkyxlj8m0000gp/T//ccgYRR5b.s:456    .text.Chip_UART_ReadBlocking:0000000000000000 Chip_UART_ReadBlocking
/var/folders/9j/_txx49hn253_s3mnzkyxlj8m0000gp/T//ccgYRR5b.s:538    .text.Chip_UART_SetBaud:0000000000000000 $t
/var/folders/9j/_txx49hn253_s3mnzkyxlj8m0000gp/T//ccgYRR5b.s:543    .text.Chip_UART_SetBaud:0000000000000000 Chip_UART_SetBaud
/var/folders/9j/_txx49hn253_s3mnzkyxlj8m0000gp/T//ccgYRR5b.s:644    .text.Chip_UART_RXIntHandlerRB:0000000000000000 $t
/var/folders/9j/_txx49hn253_s3mnzkyxlj8m0000gp/T//ccgYRR5b.s:649    .text.Chip_UART_RXIntHandlerRB:0000000000000000 Chip_UART_RXIntHandlerRB
/var/folders/9j/_txx49hn253_s3mnzkyxlj8m0000gp/T//ccgYRR5b.s:721    .text.Chip_UART_TXIntHandlerRB:0000000000000000 $t
/var/folders/9j/_txx49hn253_s3mnzkyxlj8m0000gp/T//ccgYRR5b.s:726    .text.Chip_UART_TXIntHandlerRB:0000000000000000 Chip_UART_TXIntHandlerRB
/var/folders/9j/_txx49hn253_s3mnzkyxlj8m0000gp/T//ccgYRR5b.s:795    .text.Chip_UART_SendRB:0000000000000000 $t
/var/folders/9j/_txx49hn253_s3mnzkyxlj8m0000gp/T//ccgYRR5b.s:800    .text.Chip_UART_SendRB:0000000000000000 Chip_UART_SendRB
/var/folders/9j/_txx49hn253_s3mnzkyxlj8m0000gp/T//ccgYRR5b.s:907    .text.Chip_UART_ReadRB:0000000000000000 $t
/var/folders/9j/_txx49hn253_s3mnzkyxlj8m0000gp/T//ccgYRR5b.s:912    .text.Chip_UART_ReadRB:0000000000000000 Chip_UART_ReadRB
/var/folders/9j/_txx49hn253_s3mnzkyxlj8m0000gp/T//ccgYRR5b.s:937    .text.Chip_UART_IRQRBHandler:0000000000000000 $t
/var/folders/9j/_txx49hn253_s3mnzkyxlj8m0000gp/T//ccgYRR5b.s:942    .text.Chip_UART_IRQRBHandler:0000000000000000 Chip_UART_IRQRBHandler
/var/folders/9j/_txx49hn253_s3mnzkyxlj8m0000gp/T//ccgYRR5b.s:1052   .text.Chip_UART_SetBaudFDR:0000000000000000 $t
/var/folders/9j/_txx49hn253_s3mnzkyxlj8m0000gp/T//ccgYRR5b.s:1057   .text.Chip_UART_SetBaudFDR:0000000000000000 Chip_UART_SetBaudFDR
                     .debug_frame:0000000000000010 $d
                           .group:0000000000000000 wm4.0.5c92e6baa7608753a1db66ee6c2bbf90
                           .group:0000000000000000 wm4.features.h.22.2e382148a0560adabf236cddd4e880f4
                           .group:0000000000000000 wm4._default_types.h.15.933e8edd27a65e0b69af4a865eb623d2
                           .group:0000000000000000 wm4._intsup.h.10.35a45952db64d30146faa63a55c20c1c
                           .group:0000000000000000 wm4._stdint.h.10.f76354baea1c7088202064e6f3d4f5e3
                           .group:0000000000000000 wm4.stdint.h.23.373a9d32a9e4c2e88fd347156532d281
                           .group:0000000000000000 wm4.stdbool.h.29.1c9ee6859ce8145f7838a4f2549ccec2
                           .group:0000000000000000 wm4.lpc_types.h.63.860ba57581a002825766a7c2ac00d549
                           .group:0000000000000000 wm4.sys_config.h.31.9f234e9c90333d233c7e647ebe63e928
                           .group:0000000000000000 wm4.cmsis_11cxx.h.33.407e9bbb5d170cd1552d3f7dc3fd5c42
                           .group:0000000000000000 wm4.core_cm0.h.32.192d13cfa8b31e63c86621de62eb153f
                           .group:0000000000000000 wm4.core_cm0.h.120.f4257ea7d0bce0cbabffe223e23b2fd4
                           .group:0000000000000000 wm4.chip.h.116.857da603c399e979152c31968de4baae
                           .group:0000000000000000 wm4.pmu_11xx.h.33.1d6b708881441cb98d19b8bab3caa180
                           .group:0000000000000000 wm4.sysctl_11xx.h.33.ae61a1181e608f8409883008e291930c
                           .group:0000000000000000 wm4.clock_11xx.h.33.23290a9e2ed919e3a6958d25130bc848
                           .group:0000000000000000 wm4.iocon_11xx.h.33.25e2b3cde122df23fb07b984cb4f3a93
                           .group:0000000000000000 wm4.timer_11xx.h.33.c92f50a9325789ee6a8ffd6248980d70
                           .group:0000000000000000 wm4.ring_buffer.h.33.2f271415f1f27d60350fb4738c5cbee6
                           .group:0000000000000000 wm4.uart_11xx.h.98.fe68b709973730a4fba3f3ce60c5c312
                           .group:0000000000000000 wm4.wwdt_11xx.h.33.5768344983cb842df69cc91ea86cabb0
                           .group:0000000000000000 wm4.ssp_11xx.h.33.af054d3d65f4cb0c078be40bb872ec37
                           .group:0000000000000000 wm4.error.h.38.ae74fe1dd9d19c80c505f1fda144fce8
                           .group:0000000000000000 wm4.adc_11xx.h.33.6ce7433ac6b30df70a6993d01dbd513f
                           .group:0000000000000000 wm4.i2c_11xx.h.33.2b506d1350e00a8c26e8bf006a5f9390
                           .group:0000000000000000 wm4.ccand_11xx.h.33.99627f4b529fecdc77b0877ab6fe5266
ARM GAS  /var/folders/9j/_txx49hn253_s3mnzkyxlj8m0000gp/T//ccgYRR5b.s 			page 311



UNDEFINED SYMBOLS
__aeabi_uidiv
Chip_Clock_GetMainClockRate
RingBuffer_Insert
RingBuffer_Pop
RingBuffer_InsertMult
RingBuffer_PopMult
__aeabi_uidivmod
