ARM GAS  /var/folders/9j/_txx49hn253_s3mnzkyxlj8m0000gp/T//cc5rAUlf.s 			page 1


   1              		.cpu cortex-m0
   2              		.fpu softvfp
   3              		.eabi_attribute 20, 1	@ Tag_ABI_FP_denormal
   4              		.eabi_attribute 21, 1	@ Tag_ABI_FP_exceptions
   5              		.eabi_attribute 23, 3	@ Tag_ABI_FP_number_model
   6              		.eabi_attribute 24, 1	@ Tag_ABI_align8_needed
   7              		.eabi_attribute 25, 1	@ Tag_ABI_align8_preserved
   8              		.eabi_attribute 26, 1	@ Tag_ABI_enum_size
   9              		.eabi_attribute 30, 2	@ Tag_ABI_optimization_goals
  10              		.eabi_attribute 34, 0	@ Tag_CPU_unaligned_access
  11              		.eabi_attribute 18, 4	@ Tag_ABI_PCS_wchar_t
  12              		.file	"util.c"
  13              	@ GNU C (GNU Tools for ARM Embedded Processors) version 4.9.3 20150529 (release) [ARM/embedded-4_9-
  14              	@	compiled by GNU C version 4.2.1 (Based on Apple Inc. build 5658) (LLVM build 2336.9.00), GMP vers
  15              	@ GGC heuristics: --param ggc-min-expand=100 --param ggc-min-heapsize=131072
  16              	@ options passed:  -I . -I inc/
  17              	@ -I ../lpc11cx4-library/lpc_chip_11cxx_lib/inc
  18              	@ -I ../lpc11cx4-library/evt_lib/inc/ -I ../MY17/lib/MY17_Can_Library
  19              	@ -imultilib armv6-m
  20              	@ -iprefix /usr/local/Cellar/gcc-arm-none-eabi/20150925/bin/../lib/gcc/arm-none-eabi/4.9.3/
  21              	@ -isysroot /usr/local/Cellar/gcc-arm-none-eabi/20150925/bin/../arm-none-eabi
  22              	@ -MD bin/util.d -MF bin/util.d -MP -MQ bin/util.o -D__USES_INITFINI__
  23              	@ -D UART_BAUD=115200 -D CORE_M0 -D DEBUG_ENABLE -D CAN_ARCHITECTURE_ARM
  24              	@ ../lpc11cx4-library/evt_lib/src/util.c -mcpu=cortex-m0 -mthumb
  25              	@ -auxbase-strip bin/util.o -g -ggdb3 -O2 -Wall -Wstrict-prototypes -Wextra
  26              	@ -std=gnu90 -ffunction-sections -fdata-sections -fdiagnostics-color=always
  27              	@ -fverbose-asm
  28              	@ options enabled:  -faggressive-loop-optimizations -fauto-inc-dec
  29              	@ -fbranch-count-reg -fcaller-saves -fcombine-stack-adjustments -fcommon
  30              	@ -fcompare-elim -fcprop-registers -fcrossjumping -fcse-follow-jumps
  31              	@ -fdata-sections -fdefer-pop -fdelete-null-pointer-checks -fdevirtualize
  32              	@ -fdevirtualize-speculatively -fdwarf2-cfi-asm -fearly-inlining
  33              	@ -feliminate-unused-debug-types -fexpensive-optimizations
  34              	@ -fforward-propagate -ffunction-cse -ffunction-sections -fgcse -fgcse-lm
  35              	@ -fgnu-runtime -fgnu-unique -fguess-branch-probability
  36              	@ -fhoist-adjacent-loads -fident -fif-conversion -fif-conversion2
  37              	@ -findirect-inlining -finline -finline-atomics
  38              	@ -finline-functions-called-once -finline-small-functions -fipa-cp
  39              	@ -fipa-profile -fipa-pure-const -fipa-reference -fipa-sra
  40              	@ -fira-hoist-pressure -fira-share-save-slots -fira-share-spill-slots
  41              	@ -fisolate-erroneous-paths-dereference -fivopts -fkeep-static-consts
  42              	@ -fleading-underscore -flifetime-dse -fmath-errno -fmerge-constants
  43              	@ -fmerge-debug-strings -fmove-loop-invariants -fomit-frame-pointer
  44              	@ -foptimize-sibling-calls -foptimize-strlen -fpartial-inlining -fpeephole
  45              	@ -fpeephole2 -fprefetch-loop-arrays -freg-struct-return -freorder-blocks
  46              	@ -freorder-functions -frerun-cse-after-loop
  47              	@ -fsched-critical-path-heuristic -fsched-dep-count-heuristic
  48              	@ -fsched-group-heuristic -fsched-interblock -fsched-last-insn-heuristic
  49              	@ -fsched-pressure -fsched-rank-heuristic -fsched-spec
  50              	@ -fsched-spec-insn-heuristic -fsched-stalled-insns-dep -fschedule-insns2
  51              	@ -fsection-anchors -fshow-column -fshrink-wrap -fsigned-zeros
  52              	@ -fsplit-ivs-in-unroller -fsplit-wide-types -fstrict-aliasing
  53              	@ -fstrict-overflow -fstrict-volatile-bitfields -fsync-libcalls
  54              	@ -fthread-jumps -ftoplevel-reorder -ftrapping-math -ftree-bit-ccp
  55              	@ -ftree-builtin-call-dce -ftree-ccp -ftree-ch -ftree-coalesce-vars
  56              	@ -ftree-copy-prop -ftree-copyrename -ftree-cselim -ftree-dce
  57              	@ -ftree-dominator-opts -ftree-dse -ftree-forwprop -ftree-fre
ARM GAS  /var/folders/9j/_txx49hn253_s3mnzkyxlj8m0000gp/T//cc5rAUlf.s 			page 2


  58              	@ -ftree-loop-if-convert -ftree-loop-im -ftree-loop-ivcanon
  59              	@ -ftree-loop-optimize -ftree-parallelize-loops= -ftree-phiprop -ftree-pre
  60              	@ -ftree-pta -ftree-reassoc -ftree-scev-cprop -ftree-sink -ftree-slsr
  61              	@ -ftree-sra -ftree-switch-conversion -ftree-tail-merge -ftree-ter
  62              	@ -ftree-vrp -funit-at-a-time -fvar-tracking -fvar-tracking-assignments
  63              	@ -fverbose-asm -fzero-initialized-in-bss -mlittle-endian -mlra
  64              	@ -mpic-data-is-text-relative -msched-prolog -mthumb
  65              	@ -mvectorize-with-neon-quad
  66              	
  67              		.text
  68              	.Ltext0:
  69              		.cfi_sections	.debug_frame
  70              		.section	.text.__reverse,"ax",%progbits
  71              		.align	2
  72              		.global	__reverse
  73              		.code	16
  74              		.thumb_func
  75              		.type	__reverse, %function
  76              	__reverse:
  77              	.LFB0:
  78              		.file 1 "../lpc11cx4-library/evt_lib/src/util.c"
   1:../lpc11cx4-library/evt_lib/src/util.c **** #include "util.h"
   2:../lpc11cx4-library/evt_lib/src/util.c **** 
   3:../lpc11cx4-library/evt_lib/src/util.c **** void __reverse(char* begin,char* end) {
  79              		.loc 1 3 0
  80              		.cfi_startproc
  81              	.LVL0:
  82 0000 06E0     		b	.L7	@
  83              	.L5:
   4:../lpc11cx4-library/evt_lib/src/util.c **** 	char temp;
   5:../lpc11cx4-library/evt_lib/src/util.c **** 
   6:../lpc11cx4-library/evt_lib/src/util.c **** 	while (end  >begin)
   7:../lpc11cx4-library/evt_lib/src/util.c **** 	{
   8:../lpc11cx4-library/evt_lib/src/util.c **** 		temp = *end;
   9:../lpc11cx4-library/evt_lib/src/util.c **** 		*end-- = *begin;
  84              		.loc 1 9 0
  85 0002 0378     		ldrb	r3, [r0]	@ D.4185, MEM[base: begin_14, offset: 0B]
   8:../lpc11cx4-library/evt_lib/src/util.c **** 		*end-- = *begin;
  86              		.loc 1 8 0
  87 0004 0A78     		ldrb	r2, [r1]	@ temp, MEM[base: end_17, offset: 0B]
  88              	.LVL1:
  10:../lpc11cx4-library/evt_lib/src/util.c **** 		*begin++ = temp;
  89              		.loc 1 10 0
  90 0006 0130     		add	r0, r0, #1	@ begin,
  91              	.LVL2:
   9:../lpc11cx4-library/evt_lib/src/util.c **** 		*begin++ = temp;
  92              		.loc 1 9 0
  93 0008 0139     		sub	r1, r1, #1	@ end,
  94              	.LVL3:
  95 000a 4B70     		strb	r3, [r1, #1]	@ D.4185, MEM[base: end_8, offset: 1B]
  96 000c 431E     		sub	r3, r0, #1	@ D.4186, begin,
  97              		.loc 1 10 0
  98 000e 1A70     		strb	r2, [r3]	@ temp, MEM[base: _19, offset: 0B]
  99              	.LVL4:
 100              	.L7:
   6:../lpc11cx4-library/evt_lib/src/util.c **** 	{
 101              		.loc 1 6 0
ARM GAS  /var/folders/9j/_txx49hn253_s3mnzkyxlj8m0000gp/T//cc5rAUlf.s 			page 3


 102 0010 8142     		cmp	r1, r0	@ end, begin
 103 0012 F6D8     		bhi	.L5	@,
  11:../lpc11cx4-library/evt_lib/src/util.c **** 	}
  12:../lpc11cx4-library/evt_lib/src/util.c **** }
 104              		.loc 1 12 0
 105              		@ sp needed	@
 106 0014 7047     		bx	lr
 107              		.cfi_endproc
 108              	.LFE0:
 109              		.size	__reverse, .-__reverse
 110 0016 C046     		.text
 111              	.Letext0:
 112              		.section	.debug_info,"",%progbits
 113              	.Ldebug_info0:
 114 0000 C3000000 		.4byte	0xc3
 115 0004 0400     		.2byte	0x4
 116 0006 00000000 		.4byte	.Ldebug_abbrev0
 117 000a 04       		.byte	0x4
 118 000b 01       		.uleb128 0x1
 119 000c 2C280000 		.4byte	.LASF503
 120 0010 01       		.byte	0x1
 121 0011 600D0000 		.4byte	.LASF504
 122 0015 38040000 		.4byte	.LASF505
 123 0019 00000000 		.4byte	.Ldebug_ranges0+0
 124 001d 00000000 		.4byte	0
 125 0021 00000000 		.4byte	.Ldebug_line0
 126 0025 00000000 		.4byte	.Ldebug_macro0
 127 0029 02       		.uleb128 0x2
 128 002a 01       		.byte	0x1
 129 002b 06       		.byte	0x6
 130 002c DA090000 		.4byte	.LASF492
 131 0030 02       		.uleb128 0x2
 132 0031 01       		.byte	0x1
 133 0032 08       		.byte	0x8
 134 0033 FE290000 		.4byte	.LASF493
 135 0037 02       		.uleb128 0x2
 136 0038 02       		.byte	0x2
 137 0039 05       		.byte	0x5
 138 003a 4D210000 		.4byte	.LASF494
 139 003e 02       		.uleb128 0x2
 140 003f 02       		.byte	0x2
 141 0040 07       		.byte	0x7
 142 0041 4D2E0000 		.4byte	.LASF495
 143 0045 02       		.uleb128 0x2
 144 0046 04       		.byte	0x4
 145 0047 05       		.byte	0x5
 146 0048 EF210000 		.4byte	.LASF496
 147 004c 02       		.uleb128 0x2
 148 004d 04       		.byte	0x4
 149 004e 07       		.byte	0x7
 150 004f CE260000 		.4byte	.LASF497
 151 0053 02       		.uleb128 0x2
 152 0054 08       		.byte	0x8
 153 0055 05       		.byte	0x5
 154 0056 6E180000 		.4byte	.LASF498
 155 005a 02       		.uleb128 0x2
 156 005b 08       		.byte	0x8
ARM GAS  /var/folders/9j/_txx49hn253_s3mnzkyxlj8m0000gp/T//cc5rAUlf.s 			page 4


 157 005c 07       		.byte	0x7
 158 005d 650C0000 		.4byte	.LASF499
 159 0061 03       		.uleb128 0x3
 160 0062 04       		.byte	0x4
 161 0063 05       		.byte	0x5
 162 0064 696E7400 		.ascii	"int\000"
 163 0068 02       		.uleb128 0x2
 164 0069 04       		.byte	0x4
 165 006a 07       		.byte	0x7
 166 006b DA030000 		.4byte	.LASF500
 167 006f 02       		.uleb128 0x2
 168 0070 01       		.byte	0x1
 169 0071 08       		.byte	0x8
 170 0072 A9200000 		.4byte	.LASF373
 171 0076 02       		.uleb128 0x2
 172 0077 01       		.byte	0x1
 173 0078 02       		.byte	0x2
 174 0079 371E0000 		.4byte	.LASF501
 175 007d 04       		.uleb128 0x4
 176 007e 17170000 		.4byte	.LASF506
 177 0082 01       		.byte	0x1
 178 0083 03       		.byte	0x3
 179 0084 00000000 		.4byte	.LFB0
 180 0088 16000000 		.4byte	.LFE0-.LFB0
 181 008c 01       		.uleb128 0x1
 182 008d 9C       		.byte	0x9c
 183 008e C0000000 		.4byte	0xc0
 184 0092 05       		.uleb128 0x5
 185 0093 602E0000 		.4byte	.LASF502
 186 0097 01       		.byte	0x1
 187 0098 03       		.byte	0x3
 188 0099 C0000000 		.4byte	0xc0
 189 009d 00000000 		.4byte	.LLST0
 190 00a1 06       		.uleb128 0x6
 191 00a2 656E6400 		.ascii	"end\000"
 192 00a6 01       		.byte	0x1
 193 00a7 03       		.byte	0x3
 194 00a8 C0000000 		.4byte	0xc0
 195 00ac 2B000000 		.4byte	.LLST1
 196 00b0 07       		.uleb128 0x7
 197 00b1 D9010000 		.4byte	.LASF507
 198 00b5 01       		.byte	0x1
 199 00b6 04       		.byte	0x4
 200 00b7 6F000000 		.4byte	0x6f
 201 00bb 49000000 		.4byte	.LLST2
 202 00bf 00       		.byte	0
 203 00c0 08       		.uleb128 0x8
 204 00c1 04       		.byte	0x4
 205 00c2 6F000000 		.4byte	0x6f
 206 00c6 00       		.byte	0
 207              		.section	.debug_abbrev,"",%progbits
 208              	.Ldebug_abbrev0:
 209 0000 01       		.uleb128 0x1
 210 0001 11       		.uleb128 0x11
 211 0002 01       		.byte	0x1
 212 0003 25       		.uleb128 0x25
 213 0004 0E       		.uleb128 0xe
ARM GAS  /var/folders/9j/_txx49hn253_s3mnzkyxlj8m0000gp/T//cc5rAUlf.s 			page 5


 214 0005 13       		.uleb128 0x13
 215 0006 0B       		.uleb128 0xb
 216 0007 03       		.uleb128 0x3
 217 0008 0E       		.uleb128 0xe
 218 0009 1B       		.uleb128 0x1b
 219 000a 0E       		.uleb128 0xe
 220 000b 55       		.uleb128 0x55
 221 000c 17       		.uleb128 0x17
 222 000d 11       		.uleb128 0x11
 223 000e 01       		.uleb128 0x1
 224 000f 10       		.uleb128 0x10
 225 0010 17       		.uleb128 0x17
 226 0011 9942     		.uleb128 0x2119
 227 0013 17       		.uleb128 0x17
 228 0014 00       		.byte	0
 229 0015 00       		.byte	0
 230 0016 02       		.uleb128 0x2
 231 0017 24       		.uleb128 0x24
 232 0018 00       		.byte	0
 233 0019 0B       		.uleb128 0xb
 234 001a 0B       		.uleb128 0xb
 235 001b 3E       		.uleb128 0x3e
 236 001c 0B       		.uleb128 0xb
 237 001d 03       		.uleb128 0x3
 238 001e 0E       		.uleb128 0xe
 239 001f 00       		.byte	0
 240 0020 00       		.byte	0
 241 0021 03       		.uleb128 0x3
 242 0022 24       		.uleb128 0x24
 243 0023 00       		.byte	0
 244 0024 0B       		.uleb128 0xb
 245 0025 0B       		.uleb128 0xb
 246 0026 3E       		.uleb128 0x3e
 247 0027 0B       		.uleb128 0xb
 248 0028 03       		.uleb128 0x3
 249 0029 08       		.uleb128 0x8
 250 002a 00       		.byte	0
 251 002b 00       		.byte	0
 252 002c 04       		.uleb128 0x4
 253 002d 2E       		.uleb128 0x2e
 254 002e 01       		.byte	0x1
 255 002f 3F       		.uleb128 0x3f
 256 0030 19       		.uleb128 0x19
 257 0031 03       		.uleb128 0x3
 258 0032 0E       		.uleb128 0xe
 259 0033 3A       		.uleb128 0x3a
 260 0034 0B       		.uleb128 0xb
 261 0035 3B       		.uleb128 0x3b
 262 0036 0B       		.uleb128 0xb
 263 0037 27       		.uleb128 0x27
 264 0038 19       		.uleb128 0x19
 265 0039 11       		.uleb128 0x11
 266 003a 01       		.uleb128 0x1
 267 003b 12       		.uleb128 0x12
 268 003c 06       		.uleb128 0x6
 269 003d 40       		.uleb128 0x40
 270 003e 18       		.uleb128 0x18
ARM GAS  /var/folders/9j/_txx49hn253_s3mnzkyxlj8m0000gp/T//cc5rAUlf.s 			page 6


 271 003f 9742     		.uleb128 0x2117
 272 0041 19       		.uleb128 0x19
 273 0042 01       		.uleb128 0x1
 274 0043 13       		.uleb128 0x13
 275 0044 00       		.byte	0
 276 0045 00       		.byte	0
 277 0046 05       		.uleb128 0x5
 278 0047 05       		.uleb128 0x5
 279 0048 00       		.byte	0
 280 0049 03       		.uleb128 0x3
 281 004a 0E       		.uleb128 0xe
 282 004b 3A       		.uleb128 0x3a
 283 004c 0B       		.uleb128 0xb
 284 004d 3B       		.uleb128 0x3b
 285 004e 0B       		.uleb128 0xb
 286 004f 49       		.uleb128 0x49
 287 0050 13       		.uleb128 0x13
 288 0051 02       		.uleb128 0x2
 289 0052 17       		.uleb128 0x17
 290 0053 00       		.byte	0
 291 0054 00       		.byte	0
 292 0055 06       		.uleb128 0x6
 293 0056 05       		.uleb128 0x5
 294 0057 00       		.byte	0
 295 0058 03       		.uleb128 0x3
 296 0059 08       		.uleb128 0x8
 297 005a 3A       		.uleb128 0x3a
 298 005b 0B       		.uleb128 0xb
 299 005c 3B       		.uleb128 0x3b
 300 005d 0B       		.uleb128 0xb
 301 005e 49       		.uleb128 0x49
 302 005f 13       		.uleb128 0x13
 303 0060 02       		.uleb128 0x2
 304 0061 17       		.uleb128 0x17
 305 0062 00       		.byte	0
 306 0063 00       		.byte	0
 307 0064 07       		.uleb128 0x7
 308 0065 34       		.uleb128 0x34
 309 0066 00       		.byte	0
 310 0067 03       		.uleb128 0x3
 311 0068 0E       		.uleb128 0xe
 312 0069 3A       		.uleb128 0x3a
 313 006a 0B       		.uleb128 0xb
 314 006b 3B       		.uleb128 0x3b
 315 006c 0B       		.uleb128 0xb
 316 006d 49       		.uleb128 0x49
 317 006e 13       		.uleb128 0x13
 318 006f 02       		.uleb128 0x2
 319 0070 17       		.uleb128 0x17
 320 0071 00       		.byte	0
 321 0072 00       		.byte	0
 322 0073 08       		.uleb128 0x8
 323 0074 0F       		.uleb128 0xf
 324 0075 00       		.byte	0
 325 0076 0B       		.uleb128 0xb
 326 0077 0B       		.uleb128 0xb
 327 0078 49       		.uleb128 0x49
ARM GAS  /var/folders/9j/_txx49hn253_s3mnzkyxlj8m0000gp/T//cc5rAUlf.s 			page 7


 328 0079 13       		.uleb128 0x13
 329 007a 00       		.byte	0
 330 007b 00       		.byte	0
 331 007c 00       		.byte	0
 332              		.section	.debug_loc,"",%progbits
 333              	.Ldebug_loc0:
 334              	.LLST0:
 335 0000 00000000 		.4byte	.LVL0
 336 0004 08000000 		.4byte	.LVL2
 337 0008 0100     		.2byte	0x1
 338 000a 50       		.byte	0x50
 339 000b 08000000 		.4byte	.LVL2
 340 000f 0A000000 		.4byte	.LVL3
 341 0013 0300     		.2byte	0x3
 342 0015 70       		.byte	0x70
 343 0016 7F       		.sleb128 -1
 344 0017 9F       		.byte	0x9f
 345 0018 0A000000 		.4byte	.LVL3
 346 001c 16000000 		.4byte	.LFE0
 347 0020 0100     		.2byte	0x1
 348 0022 50       		.byte	0x50
 349 0023 00000000 		.4byte	0
 350 0027 00000000 		.4byte	0
 351              	.LLST1:
 352 002b 00000000 		.4byte	.LVL0
 353 002f 0A000000 		.4byte	.LVL3
 354 0033 0100     		.2byte	0x1
 355 0035 51       		.byte	0x51
 356 0036 0A000000 		.4byte	.LVL3
 357 003a 16000000 		.4byte	.LFE0
 358 003e 0100     		.2byte	0x1
 359 0040 51       		.byte	0x51
 360 0041 00000000 		.4byte	0
 361 0045 00000000 		.4byte	0
 362              	.LLST2:
 363 0049 06000000 		.4byte	.LVL1
 364 004d 10000000 		.4byte	.LVL4
 365 0051 0100     		.2byte	0x1
 366 0053 52       		.byte	0x52
 367 0054 00000000 		.4byte	0
 368 0058 00000000 		.4byte	0
 369              		.section	.debug_aranges,"",%progbits
 370 0000 1C000000 		.4byte	0x1c
 371 0004 0200     		.2byte	0x2
 372 0006 00000000 		.4byte	.Ldebug_info0
 373 000a 04       		.byte	0x4
 374 000b 00       		.byte	0
 375 000c 0000     		.2byte	0
 376 000e 0000     		.2byte	0
 377 0010 00000000 		.4byte	.LFB0
 378 0014 16000000 		.4byte	.LFE0-.LFB0
 379 0018 00000000 		.4byte	0
 380 001c 00000000 		.4byte	0
 381              		.section	.debug_ranges,"",%progbits
 382              	.Ldebug_ranges0:
 383 0000 00000000 		.4byte	.LFB0
 384 0004 16000000 		.4byte	.LFE0
ARM GAS  /var/folders/9j/_txx49hn253_s3mnzkyxlj8m0000gp/T//cc5rAUlf.s 			page 8


 385 0008 00000000 		.4byte	0
 386 000c 00000000 		.4byte	0
 387              		.section	.debug_macro,"",%progbits
 388              	.Ldebug_macro0:
 389 0000 0400     		.2byte	0x4
 390 0002 02       		.byte	0x2
 391 0003 00000000 		.4byte	.Ldebug_line0
 392 0007 07       		.byte	0x7
 393 0008 00000000 		.4byte	.Ldebug_macro1
 394 000c 03       		.byte	0x3
 395 000d 00       		.uleb128 0
 396 000e 01       		.uleb128 0x1
 397              		.file 2 "../lpc11cx4-library/evt_lib/inc/util.h"
 398 000f 03       		.byte	0x3
 399 0010 01       		.uleb128 0x1
 400 0011 02       		.uleb128 0x2
 401 0012 05       		.byte	0x5
 402 0013 02       		.uleb128 0x2
 403 0014 E5100000 		.4byte	.LASF348
 404              		.file 3 "../lpc11cx4-library/lpc_chip_11cxx_lib/inc/lpc_types.h"
 405 0018 03       		.byte	0x3
 406 0019 04       		.uleb128 0x4
 407 001a 03       		.uleb128 0x3
 408 001b 05       		.byte	0x5
 409 001c 21       		.uleb128 0x21
 410 001d BE260000 		.4byte	.LASF349
 411              		.file 4 "/usr/local/Cellar/gcc-arm-none-eabi/20150925/lib/gcc/arm-none-eabi/4.9.3/include/stdint.h
 412 0021 03       		.byte	0x3
 413 0022 23       		.uleb128 0x23
 414 0023 04       		.uleb128 0x4
 415              		.file 5 "/usr/local/Cellar/gcc-arm-none-eabi/20150925/arm-none-eabi/include/stdint.h"
 416 0024 03       		.byte	0x3
 417 0025 09       		.uleb128 0x9
 418 0026 05       		.uleb128 0x5
 419 0027 05       		.byte	0x5
 420 0028 0A       		.uleb128 0xa
 421 0029 3F100000 		.4byte	.LASF350
 422              		.file 6 "/usr/local/Cellar/gcc-arm-none-eabi/20150925/arm-none-eabi/include/machine/_default_types
 423 002d 03       		.byte	0x3
 424 002e 0C       		.uleb128 0xc
 425 002f 06       		.uleb128 0x6
 426 0030 05       		.byte	0x5
 427 0031 06       		.uleb128 0x6
 428 0032 EF170000 		.4byte	.LASF351
 429              		.file 7 "/usr/local/Cellar/gcc-arm-none-eabi/20150925/arm-none-eabi/include/sys/features.h"
 430 0036 03       		.byte	0x3
 431 0037 08       		.uleb128 0x8
 432 0038 07       		.uleb128 0x7
 433 0039 07       		.byte	0x7
 434 003a 00000000 		.4byte	.Ldebug_macro2
 435 003e 04       		.byte	0x4
 436 003f 07       		.byte	0x7
 437 0040 00000000 		.4byte	.Ldebug_macro3
 438 0044 04       		.byte	0x4
 439              		.file 8 "/usr/local/Cellar/gcc-arm-none-eabi/20150925/arm-none-eabi/include/sys/_intsup.h"
 440 0045 03       		.byte	0x3
 441 0046 0D       		.uleb128 0xd
ARM GAS  /var/folders/9j/_txx49hn253_s3mnzkyxlj8m0000gp/T//cc5rAUlf.s 			page 9


 442 0047 08       		.uleb128 0x8
 443 0048 07       		.byte	0x7
 444 0049 00000000 		.4byte	.Ldebug_macro4
 445 004d 04       		.byte	0x4
 446              		.file 9 "/usr/local/Cellar/gcc-arm-none-eabi/20150925/arm-none-eabi/include/sys/_stdint.h"
 447 004e 03       		.byte	0x3
 448 004f 0E       		.uleb128 0xe
 449 0050 09       		.uleb128 0x9
 450 0051 07       		.byte	0x7
 451 0052 00000000 		.4byte	.Ldebug_macro5
 452 0056 04       		.byte	0x4
 453 0057 07       		.byte	0x7
 454 0058 00000000 		.4byte	.Ldebug_macro6
 455 005c 04       		.byte	0x4
 456 005d 05       		.byte	0x5
 457 005e 0D       		.uleb128 0xd
 458 005f 160A0000 		.4byte	.LASF469
 459 0063 04       		.byte	0x4
 460              		.file 10 "/usr/local/Cellar/gcc-arm-none-eabi/20150925/lib/gcc/arm-none-eabi/4.9.3/include/stdbool
 461 0064 03       		.byte	0x3
 462 0065 24       		.uleb128 0x24
 463 0066 0A       		.uleb128 0xa
 464 0067 07       		.byte	0x7
 465 0068 00000000 		.4byte	.Ldebug_macro7
 466 006c 04       		.byte	0x4
 467 006d 07       		.byte	0x7
 468 006e 00000000 		.4byte	.Ldebug_macro8
 469 0072 04       		.byte	0x4
 470 0073 05       		.byte	0x5
 471 0074 05       		.uleb128 0x5
 472 0075 451A0000 		.4byte	.LASF491
 473 0079 04       		.byte	0x4
 474 007a 04       		.byte	0x4
 475 007b 00       		.byte	0
 476              		.section	.debug_macro,"G",%progbits,wm4.0.5c92e6baa7608753a1db66ee6c2bbf90,comdat
 477              	.Ldebug_macro1:
 478 0000 0400     		.2byte	0x4
 479 0002 00       		.byte	0
 480 0003 05       		.byte	0x5
 481 0004 00       		.uleb128 0
 482 0005 F51A0000 		.4byte	.LASF0
 483 0009 05       		.byte	0x5
 484 000a 00       		.uleb128 0
 485 000b BB270000 		.4byte	.LASF1
 486 000f 05       		.byte	0x5
 487 0010 00       		.uleb128 0
 488 0011 C1040000 		.4byte	.LASF2
 489 0015 05       		.byte	0x5
 490 0016 00       		.uleb128 0
 491 0017 D4120000 		.4byte	.LASF3
 492 001b 05       		.byte	0x5
 493 001c 00       		.uleb128 0
 494 001d 9E1C0000 		.4byte	.LASF4
 495 0021 05       		.byte	0x5
 496 0022 00       		.uleb128 0
 497 0023 3D0B0000 		.4byte	.LASF5
 498 0027 05       		.byte	0x5
ARM GAS  /var/folders/9j/_txx49hn253_s3mnzkyxlj8m0000gp/T//cc5rAUlf.s 			page 10


 499 0028 00       		.uleb128 0
 500 0029 24080000 		.4byte	.LASF6
 501 002d 05       		.byte	0x5
 502 002e 00       		.uleb128 0
 503 002f 4F060000 		.4byte	.LASF7
 504 0033 05       		.byte	0x5
 505 0034 00       		.uleb128 0
 506 0035 721A0000 		.4byte	.LASF8
 507 0039 05       		.byte	0x5
 508 003a 00       		.uleb128 0
 509 003b 93050000 		.4byte	.LASF9
 510 003f 05       		.byte	0x5
 511 0040 00       		.uleb128 0
 512 0041 72300000 		.4byte	.LASF10
 513 0045 05       		.byte	0x5
 514 0046 00       		.uleb128 0
 515 0047 671B0000 		.4byte	.LASF11
 516 004b 05       		.byte	0x5
 517 004c 00       		.uleb128 0
 518 004d 15060000 		.4byte	.LASF12
 519 0051 05       		.byte	0x5
 520 0052 00       		.uleb128 0
 521 0053 01190000 		.4byte	.LASF13
 522 0057 05       		.byte	0x5
 523 0058 00       		.uleb128 0
 524 0059 E92C0000 		.4byte	.LASF14
 525 005d 05       		.byte	0x5
 526 005e 00       		.uleb128 0
 527 005f 141B0000 		.4byte	.LASF15
 528 0063 05       		.byte	0x5
 529 0064 00       		.uleb128 0
 530 0065 5C240000 		.4byte	.LASF16
 531 0069 05       		.byte	0x5
 532 006a 00       		.uleb128 0
 533 006b 89060000 		.4byte	.LASF17
 534 006f 05       		.byte	0x5
 535 0070 00       		.uleb128 0
 536 0071 4A100000 		.4byte	.LASF18
 537 0075 05       		.byte	0x5
 538 0076 00       		.uleb128 0
 539 0077 721C0000 		.4byte	.LASF19
 540 007b 05       		.byte	0x5
 541 007c 00       		.uleb128 0
 542 007d A8040000 		.4byte	.LASF20
 543 0081 05       		.byte	0x5
 544 0082 00       		.uleb128 0
 545 0083 62040000 		.4byte	.LASF21
 546 0087 05       		.byte	0x5
 547 0088 00       		.uleb128 0
 548 0089 69270000 		.4byte	.LASF22
 549 008d 05       		.byte	0x5
 550 008e 00       		.uleb128 0
 551 008f 6E110000 		.4byte	.LASF23
 552 0093 05       		.byte	0x5
 553 0094 00       		.uleb128 0
 554 0095 860F0000 		.4byte	.LASF24
 555 0099 05       		.byte	0x5
ARM GAS  /var/folders/9j/_txx49hn253_s3mnzkyxlj8m0000gp/T//cc5rAUlf.s 			page 11


 556 009a 00       		.uleb128 0
 557 009b CC040000 		.4byte	.LASF25
 558 009f 05       		.byte	0x5
 559 00a0 00       		.uleb128 0
 560 00a1 81200000 		.4byte	.LASF26
 561 00a5 05       		.byte	0x5
 562 00a6 00       		.uleb128 0
 563 00a7 F4060000 		.4byte	.LASF27
 564 00ab 05       		.byte	0x5
 565 00ac 00       		.uleb128 0
 566 00ad 611E0000 		.4byte	.LASF28
 567 00b1 05       		.byte	0x5
 568 00b2 00       		.uleb128 0
 569 00b3 9E250000 		.4byte	.LASF29
 570 00b7 05       		.byte	0x5
 571 00b8 00       		.uleb128 0
 572 00b9 7F2B0000 		.4byte	.LASF30
 573 00bd 05       		.byte	0x5
 574 00be 00       		.uleb128 0
 575 00bf B12F0000 		.4byte	.LASF31
 576 00c3 05       		.byte	0x5
 577 00c4 00       		.uleb128 0
 578 00c5 121C0000 		.4byte	.LASF32
 579 00c9 05       		.byte	0x5
 580 00ca 00       		.uleb128 0
 581 00cb BD1B0000 		.4byte	.LASF33
 582 00cf 05       		.byte	0x5
 583 00d0 00       		.uleb128 0
 584 00d1 FA2C0000 		.4byte	.LASF34
 585 00d5 05       		.byte	0x5
 586 00d6 00       		.uleb128 0
 587 00d7 242A0000 		.4byte	.LASF35
 588 00db 05       		.byte	0x5
 589 00dc 00       		.uleb128 0
 590 00dd 76040000 		.4byte	.LASF36
 591 00e1 05       		.byte	0x5
 592 00e2 00       		.uleb128 0
 593 00e3 491F0000 		.4byte	.LASF37
 594 00e7 05       		.byte	0x5
 595 00e8 00       		.uleb128 0
 596 00e9 36310000 		.4byte	.LASF38
 597 00ed 05       		.byte	0x5
 598 00ee 00       		.uleb128 0
 599 00ef 9E220000 		.4byte	.LASF39
 600 00f3 05       		.byte	0x5
 601 00f4 00       		.uleb128 0
 602 00f5 D3050000 		.4byte	.LASF40
 603 00f9 05       		.byte	0x5
 604 00fa 00       		.uleb128 0
 605 00fb 9D210000 		.4byte	.LASF41
 606 00ff 05       		.byte	0x5
 607 0100 00       		.uleb128 0
 608 0101 6B130000 		.4byte	.LASF42
 609 0105 05       		.byte	0x5
 610 0106 00       		.uleb128 0
 611 0107 73240000 		.4byte	.LASF43
 612 010b 05       		.byte	0x5
ARM GAS  /var/folders/9j/_txx49hn253_s3mnzkyxlj8m0000gp/T//cc5rAUlf.s 			page 12


 613 010c 00       		.uleb128 0
 614 010d B1120000 		.4byte	.LASF44
 615 0111 05       		.byte	0x5
 616 0112 00       		.uleb128 0
 617 0113 61250000 		.4byte	.LASF45
 618 0117 05       		.byte	0x5
 619 0118 00       		.uleb128 0
 620 0119 DC2D0000 		.4byte	.LASF46
 621 011d 05       		.byte	0x5
 622 011e 00       		.uleb128 0
 623 011f 3D130000 		.4byte	.LASF47
 624 0123 05       		.byte	0x5
 625 0124 00       		.uleb128 0
 626 0125 F8160000 		.4byte	.LASF48
 627 0129 05       		.byte	0x5
 628 012a 00       		.uleb128 0
 629 012b CA0C0000 		.4byte	.LASF49
 630 012f 05       		.byte	0x5
 631 0130 00       		.uleb128 0
 632 0131 22250000 		.4byte	.LASF50
 633 0135 05       		.byte	0x5
 634 0136 00       		.uleb128 0
 635 0137 79070000 		.4byte	.LASF51
 636 013b 05       		.byte	0x5
 637 013c 00       		.uleb128 0
 638 013d 982E0000 		.4byte	.LASF52
 639 0141 05       		.byte	0x5
 640 0142 00       		.uleb128 0
 641 0143 9E1F0000 		.4byte	.LASF53
 642 0147 05       		.byte	0x5
 643 0148 00       		.uleb128 0
 644 0149 58050000 		.4byte	.LASF54
 645 014d 05       		.byte	0x5
 646 014e 00       		.uleb128 0
 647 014f FF0D0000 		.4byte	.LASF55
 648 0153 05       		.byte	0x5
 649 0154 00       		.uleb128 0
 650 0155 76120000 		.4byte	.LASF56
 651 0159 05       		.byte	0x5
 652 015a 00       		.uleb128 0
 653 015b A72C0000 		.4byte	.LASF57
 654 015f 05       		.byte	0x5
 655 0160 00       		.uleb128 0
 656 0161 AA090000 		.4byte	.LASF58
 657 0165 05       		.byte	0x5
 658 0166 00       		.uleb128 0
 659 0167 88150000 		.4byte	.LASF59
 660 016b 05       		.byte	0x5
 661 016c 00       		.uleb128 0
 662 016d 3C0E0000 		.4byte	.LASF60
 663 0171 05       		.byte	0x5
 664 0172 00       		.uleb128 0
 665 0173 142B0000 		.4byte	.LASF61
 666 0177 05       		.byte	0x5
 667 0178 00       		.uleb128 0
 668 0179 D2290000 		.4byte	.LASF62
 669 017d 05       		.byte	0x5
ARM GAS  /var/folders/9j/_txx49hn253_s3mnzkyxlj8m0000gp/T//cc5rAUlf.s 			page 13


 670 017e 00       		.uleb128 0
 671 017f 752A0000 		.4byte	.LASF63
 672 0183 05       		.byte	0x5
 673 0184 00       		.uleb128 0
 674 0185 3C0A0000 		.4byte	.LASF64
 675 0189 05       		.byte	0x5
 676 018a 00       		.uleb128 0
 677 018b CA280000 		.4byte	.LASF65
 678 018f 05       		.byte	0x5
 679 0190 00       		.uleb128 0
 680 0191 85080000 		.4byte	.LASF66
 681 0195 05       		.byte	0x5
 682 0196 00       		.uleb128 0
 683 0197 11120000 		.4byte	.LASF67
 684 019b 05       		.byte	0x5
 685 019c 00       		.uleb128 0
 686 019d 07210000 		.4byte	.LASF68
 687 01a1 05       		.byte	0x5
 688 01a2 00       		.uleb128 0
 689 01a3 74190000 		.4byte	.LASF69
 690 01a7 05       		.byte	0x5
 691 01a8 00       		.uleb128 0
 692 01a9 24060000 		.4byte	.LASF70
 693 01ad 05       		.byte	0x5
 694 01ae 00       		.uleb128 0
 695 01af E42B0000 		.4byte	.LASF71
 696 01b3 05       		.byte	0x5
 697 01b4 00       		.uleb128 0
 698 01b5 1B000000 		.4byte	.LASF72
 699 01b9 05       		.byte	0x5
 700 01ba 00       		.uleb128 0
 701 01bb 74000000 		.4byte	.LASF73
 702 01bf 05       		.byte	0x5
 703 01c0 00       		.uleb128 0
 704 01c1 7F2C0000 		.4byte	.LASF74
 705 01c5 05       		.byte	0x5
 706 01c6 00       		.uleb128 0
 707 01c7 DF200000 		.4byte	.LASF75
 708 01cb 05       		.byte	0x5
 709 01cc 00       		.uleb128 0
 710 01cd EF1C0000 		.4byte	.LASF76
 711 01d1 05       		.byte	0x5
 712 01d2 00       		.uleb128 0
 713 01d3 00000000 		.4byte	.LASF77
 714 01d7 05       		.byte	0x5
 715 01d8 00       		.uleb128 0
 716 01d9 A6050000 		.4byte	.LASF78
 717 01dd 05       		.byte	0x5
 718 01de 00       		.uleb128 0
 719 01df E3270000 		.4byte	.LASF79
 720 01e3 05       		.byte	0x5
 721 01e4 00       		.uleb128 0
 722 01e5 282D0000 		.4byte	.LASF80
 723 01e9 05       		.byte	0x5
 724 01ea 00       		.uleb128 0
 725 01eb 78270000 		.4byte	.LASF81
 726 01ef 05       		.byte	0x5
ARM GAS  /var/folders/9j/_txx49hn253_s3mnzkyxlj8m0000gp/T//cc5rAUlf.s 			page 14


 727 01f0 00       		.uleb128 0
 728 01f1 C4060000 		.4byte	.LASF82
 729 01f5 05       		.byte	0x5
 730 01f6 00       		.uleb128 0
 731 01f7 10260000 		.4byte	.LASF83
 732 01fb 05       		.byte	0x5
 733 01fc 00       		.uleb128 0
 734 01fd D31E0000 		.4byte	.LASF84
 735 0201 05       		.byte	0x5
 736 0202 00       		.uleb128 0
 737 0203 3D010000 		.4byte	.LASF85
 738 0207 05       		.byte	0x5
 739 0208 00       		.uleb128 0
 740 0209 5A180000 		.4byte	.LASF86
 741 020d 05       		.byte	0x5
 742 020e 00       		.uleb128 0
 743 020f 88010000 		.4byte	.LASF87
 744 0213 05       		.byte	0x5
 745 0214 00       		.uleb128 0
 746 0215 B9230000 		.4byte	.LASF88
 747 0219 05       		.byte	0x5
 748 021a 00       		.uleb128 0
 749 021b 11200000 		.4byte	.LASF89
 750 021f 05       		.byte	0x5
 751 0220 00       		.uleb128 0
 752 0221 54270000 		.4byte	.LASF90
 753 0225 05       		.byte	0x5
 754 0226 00       		.uleb128 0
 755 0227 F9140000 		.4byte	.LASF91
 756 022b 05       		.byte	0x5
 757 022c 00       		.uleb128 0
 758 022d 83090000 		.4byte	.LASF92
 759 0231 05       		.byte	0x5
 760 0232 00       		.uleb128 0
 761 0233 26010000 		.4byte	.LASF93
 762 0237 05       		.byte	0x5
 763 0238 00       		.uleb128 0
 764 0239 CC090000 		.4byte	.LASF94
 765 023d 05       		.byte	0x5
 766 023e 00       		.uleb128 0
 767 023f 99110000 		.4byte	.LASF95
 768 0243 05       		.byte	0x5
 769 0244 00       		.uleb128 0
 770 0245 62060000 		.4byte	.LASF96
 771 0249 05       		.byte	0x5
 772 024a 00       		.uleb128 0
 773 024b A9160000 		.4byte	.LASF97
 774 024f 05       		.byte	0x5
 775 0250 00       		.uleb128 0
 776 0251 7E2F0000 		.4byte	.LASF98
 777 0255 05       		.byte	0x5
 778 0256 00       		.uleb128 0
 779 0257 64020000 		.4byte	.LASF99
 780 025b 05       		.byte	0x5
 781 025c 00       		.uleb128 0
 782 025d CE240000 		.4byte	.LASF100
 783 0261 05       		.byte	0x5
ARM GAS  /var/folders/9j/_txx49hn253_s3mnzkyxlj8m0000gp/T//cc5rAUlf.s 			page 15


 784 0262 00       		.uleb128 0
 785 0263 1B070000 		.4byte	.LASF101
 786 0267 05       		.byte	0x5
 787 0268 00       		.uleb128 0
 788 0269 79010000 		.4byte	.LASF102
 789 026d 05       		.byte	0x5
 790 026e 00       		.uleb128 0
 791 026f D4170000 		.4byte	.LASF103
 792 0273 05       		.byte	0x5
 793 0274 00       		.uleb128 0
 794 0275 28040000 		.4byte	.LASF104
 795 0279 05       		.byte	0x5
 796 027a 00       		.uleb128 0
 797 027b 9F190000 		.4byte	.LASF105
 798 027f 05       		.byte	0x5
 799 0280 00       		.uleb128 0
 800 0281 5D100000 		.4byte	.LASF106
 801 0285 05       		.byte	0x5
 802 0286 00       		.uleb128 0
 803 0287 A00D0000 		.4byte	.LASF107
 804 028b 05       		.byte	0x5
 805 028c 00       		.uleb128 0
 806 028d 4F260000 		.4byte	.LASF108
 807 0291 05       		.byte	0x5
 808 0292 00       		.uleb128 0
 809 0293 622B0000 		.4byte	.LASF109
 810 0297 05       		.byte	0x5
 811 0298 00       		.uleb128 0
 812 0299 B4290000 		.4byte	.LASF110
 813 029d 05       		.byte	0x5
 814 029e 00       		.uleb128 0
 815 029f E80C0000 		.4byte	.LASF111
 816 02a3 05       		.byte	0x5
 817 02a4 00       		.uleb128 0
 818 02a5 FF280000 		.4byte	.LASF112
 819 02a9 05       		.byte	0x5
 820 02aa 00       		.uleb128 0
 821 02ab 54090000 		.4byte	.LASF113
 822 02af 05       		.byte	0x5
 823 02b0 00       		.uleb128 0
 824 02b1 1B240000 		.4byte	.LASF114
 825 02b5 05       		.byte	0x5
 826 02b6 00       		.uleb128 0
 827 02b7 2D210000 		.4byte	.LASF115
 828 02bb 05       		.byte	0x5
 829 02bc 00       		.uleb128 0
 830 02bd 21230000 		.4byte	.LASF116
 831 02c1 05       		.byte	0x5
 832 02c2 00       		.uleb128 0
 833 02c3 D81B0000 		.4byte	.LASF117
 834 02c7 05       		.byte	0x5
 835 02c8 00       		.uleb128 0
 836 02c9 E0260000 		.4byte	.LASF118
 837 02cd 05       		.byte	0x5
 838 02ce 00       		.uleb128 0
 839 02cf DD310000 		.4byte	.LASF119
 840 02d3 05       		.byte	0x5
ARM GAS  /var/folders/9j/_txx49hn253_s3mnzkyxlj8m0000gp/T//cc5rAUlf.s 			page 16


 841 02d4 00       		.uleb128 0
 842 02d5 CA1D0000 		.4byte	.LASF120
 843 02d9 05       		.byte	0x5
 844 02da 00       		.uleb128 0
 845 02db 6D150000 		.4byte	.LASF121
 846 02df 05       		.byte	0x5
 847 02e0 00       		.uleb128 0
 848 02e1 B6140000 		.4byte	.LASF122
 849 02e5 05       		.byte	0x5
 850 02e6 00       		.uleb128 0
 851 02e7 522B0000 		.4byte	.LASF123
 852 02eb 05       		.byte	0x5
 853 02ec 00       		.uleb128 0
 854 02ed 34140000 		.4byte	.LASF124
 855 02f1 05       		.byte	0x5
 856 02f2 00       		.uleb128 0
 857 02f3 A30A0000 		.4byte	.LASF125
 858 02f7 05       		.byte	0x5
 859 02f8 00       		.uleb128 0
 860 02f9 022F0000 		.4byte	.LASF126
 861 02fd 05       		.byte	0x5
 862 02fe 00       		.uleb128 0
 863 02ff 662C0000 		.4byte	.LASF127
 864 0303 05       		.byte	0x5
 865 0304 00       		.uleb128 0
 866 0305 71290000 		.4byte	.LASF128
 867 0309 05       		.byte	0x5
 868 030a 00       		.uleb128 0
 869 030b 88130000 		.4byte	.LASF129
 870 030f 05       		.byte	0x5
 871 0310 00       		.uleb128 0
 872 0311 AE200000 		.4byte	.LASF130
 873 0315 05       		.byte	0x5
 874 0316 00       		.uleb128 0
 875 0317 06020000 		.4byte	.LASF131
 876 031b 05       		.byte	0x5
 877 031c 00       		.uleb128 0
 878 031d 3D1E0000 		.4byte	.LASF132
 879 0321 05       		.byte	0x5
 880 0322 00       		.uleb128 0
 881 0323 E3240000 		.4byte	.LASF133
 882 0327 05       		.byte	0x5
 883 0328 00       		.uleb128 0
 884 0329 350D0000 		.4byte	.LASF134
 885 032d 05       		.byte	0x5
 886 032e 00       		.uleb128 0
 887 032f 15150000 		.4byte	.LASF135
 888 0333 05       		.byte	0x5
 889 0334 00       		.uleb128 0
 890 0335 1E090000 		.4byte	.LASF136
 891 0339 05       		.byte	0x5
 892 033a 00       		.uleb128 0
 893 033b D12C0000 		.4byte	.LASF137
 894 033f 05       		.byte	0x5
 895 0340 00       		.uleb128 0
 896 0341 44050000 		.4byte	.LASF138
 897 0345 05       		.byte	0x5
ARM GAS  /var/folders/9j/_txx49hn253_s3mnzkyxlj8m0000gp/T//cc5rAUlf.s 			page 17


 898 0346 00       		.uleb128 0
 899 0347 21170000 		.4byte	.LASF139
 900 034b 05       		.byte	0x5
 901 034c 00       		.uleb128 0
 902 034d 2A020000 		.4byte	.LASF140
 903 0351 05       		.byte	0x5
 904 0352 00       		.uleb128 0
 905 0353 CC140000 		.4byte	.LASF141
 906 0357 05       		.byte	0x5
 907 0358 00       		.uleb128 0
 908 0359 261B0000 		.4byte	.LASF142
 909 035d 05       		.byte	0x5
 910 035e 00       		.uleb128 0
 911 035f 362E0000 		.4byte	.LASF143
 912 0363 05       		.byte	0x5
 913 0364 00       		.uleb128 0
 914 0365 00320000 		.4byte	.LASF144
 915 0369 05       		.byte	0x5
 916 036a 00       		.uleb128 0
 917 036b 6B030000 		.4byte	.LASF145
 918 036f 05       		.byte	0x5
 919 0370 00       		.uleb128 0
 920 0371 AF2B0000 		.4byte	.LASF146
 921 0375 05       		.byte	0x5
 922 0376 00       		.uleb128 0
 923 0377 B10A0000 		.4byte	.LASF147
 924 037b 05       		.byte	0x5
 925 037c 00       		.uleb128 0
 926 037d A62D0000 		.4byte	.LASF148
 927 0381 05       		.byte	0x5
 928 0382 00       		.uleb128 0
 929 0383 C62F0000 		.4byte	.LASF149
 930 0387 05       		.byte	0x5
 931 0388 00       		.uleb128 0
 932 0389 902C0000 		.4byte	.LASF150
 933 038d 05       		.byte	0x5
 934 038e 00       		.uleb128 0
 935 038f 8B140000 		.4byte	.LASF151
 936 0393 05       		.byte	0x5
 937 0394 00       		.uleb128 0
 938 0395 3D190000 		.4byte	.LASF152
 939 0399 05       		.byte	0x5
 940 039a 00       		.uleb128 0
 941 039b 05060000 		.4byte	.LASF153
 942 039f 05       		.byte	0x5
 943 03a0 00       		.uleb128 0
 944 03a1 F41D0000 		.4byte	.LASF154
 945 03a5 05       		.byte	0x5
 946 03a6 00       		.uleb128 0
 947 03a7 83250000 		.4byte	.LASF155
 948 03ab 05       		.byte	0x5
 949 03ac 00       		.uleb128 0
 950 03ad 0C220000 		.4byte	.LASF156
 951 03b1 05       		.byte	0x5
 952 03b2 00       		.uleb128 0
 953 03b3 1F1F0000 		.4byte	.LASF157
 954 03b7 05       		.byte	0x5
ARM GAS  /var/folders/9j/_txx49hn253_s3mnzkyxlj8m0000gp/T//cc5rAUlf.s 			page 18


 955 03b8 00       		.uleb128 0
 956 03b9 6B2F0000 		.4byte	.LASF158
 957 03bd 05       		.byte	0x5
 958 03be 00       		.uleb128 0
 959 03bf DB180000 		.4byte	.LASF159
 960 03c3 05       		.byte	0x5
 961 03c4 00       		.uleb128 0
 962 03c5 7D1D0000 		.4byte	.LASF160
 963 03c9 05       		.byte	0x5
 964 03ca 00       		.uleb128 0
 965 03cb 4C2A0000 		.4byte	.LASF161
 966 03cf 05       		.byte	0x5
 967 03d0 00       		.uleb128 0
 968 03d1 590F0000 		.4byte	.LASF162
 969 03d5 05       		.byte	0x5
 970 03d6 00       		.uleb128 0
 971 03d7 90310000 		.4byte	.LASF163
 972 03db 05       		.byte	0x5
 973 03dc 00       		.uleb128 0
 974 03dd B21D0000 		.4byte	.LASF164
 975 03e1 05       		.byte	0x5
 976 03e2 00       		.uleb128 0
 977 03e3 85220000 		.4byte	.LASF165
 978 03e7 05       		.byte	0x5
 979 03e8 00       		.uleb128 0
 980 03e9 BE1E0000 		.4byte	.LASF166
 981 03ed 05       		.byte	0x5
 982 03ee 00       		.uleb128 0
 983 03ef 0C2A0000 		.4byte	.LASF167
 984 03f3 05       		.byte	0x5
 985 03f4 00       		.uleb128 0
 986 03f5 73100000 		.4byte	.LASF168
 987 03f9 05       		.byte	0x5
 988 03fa 00       		.uleb128 0
 989 03fb 270B0000 		.4byte	.LASF169
 990 03ff 05       		.byte	0x5
 991 0400 00       		.uleb128 0
 992 0401 C9160000 		.4byte	.LASF170
 993 0405 05       		.byte	0x5
 994 0406 00       		.uleb128 0
 995 0407 EC050000 		.4byte	.LASF171
 996 040b 05       		.byte	0x5
 997 040c 00       		.uleb128 0
 998 040d 1E1A0000 		.4byte	.LASF172
 999 0411 05       		.byte	0x5
 1000 0412 00       		.uleb128 0
 1001 0413 C7310000 		.4byte	.LASF173
 1002 0417 05       		.byte	0x5
 1003 0418 00       		.uleb128 0
 1004 0419 DC150000 		.4byte	.LASF174
 1005 041d 05       		.byte	0x5
 1006 041e 00       		.uleb128 0
 1007 041f 77210000 		.4byte	.LASF175
 1008 0423 05       		.byte	0x5
 1009 0424 00       		.uleb128 0
 1010 0425 E2300000 		.4byte	.LASF176
 1011 0429 05       		.byte	0x5
ARM GAS  /var/folders/9j/_txx49hn253_s3mnzkyxlj8m0000gp/T//cc5rAUlf.s 			page 19


 1012 042a 00       		.uleb128 0
 1013 042b CC0E0000 		.4byte	.LASF177
 1014 042f 05       		.byte	0x5
 1015 0430 00       		.uleb128 0
 1016 0431 0C010000 		.4byte	.LASF178
 1017 0435 05       		.byte	0x5
 1018 0436 00       		.uleb128 0
 1019 0437 43000000 		.4byte	.LASF179
 1020 043b 05       		.byte	0x5
 1021 043c 00       		.uleb128 0
 1022 043d 10100000 		.4byte	.LASF180
 1023 0441 05       		.byte	0x5
 1024 0442 00       		.uleb128 0
 1025 0443 900C0000 		.4byte	.LASF181
 1026 0447 05       		.byte	0x5
 1027 0448 00       		.uleb128 0
 1028 0449 5A220000 		.4byte	.LASF182
 1029 044d 05       		.byte	0x5
 1030 044e 00       		.uleb128 0
 1031 044f 12050000 		.4byte	.LASF183
 1032 0453 05       		.byte	0x5
 1033 0454 00       		.uleb128 0
 1034 0455 192F0000 		.4byte	.LASF184
 1035 0459 05       		.byte	0x5
 1036 045a 00       		.uleb128 0
 1037 045b C4200000 		.4byte	.LASF185
 1038 045f 05       		.byte	0x5
 1039 0460 00       		.uleb128 0
 1040 0461 C1070000 		.4byte	.LASF186
 1041 0465 05       		.byte	0x5
 1042 0466 00       		.uleb128 0
 1043 0467 371F0000 		.4byte	.LASF187
 1044 046b 05       		.byte	0x5
 1045 046c 00       		.uleb128 0
 1046 046d 4A240000 		.4byte	.LASF188
 1047 0471 05       		.byte	0x5
 1048 0472 00       		.uleb128 0
 1049 0473 BA0F0000 		.4byte	.LASF189
 1050 0477 05       		.byte	0x5
 1051 0478 00       		.uleb128 0
 1052 0479 2C0C0000 		.4byte	.LASF190
 1053 047d 05       		.byte	0x5
 1054 047e 00       		.uleb128 0
 1055 047f 83260000 		.4byte	.LASF191
 1056 0483 05       		.byte	0x5
 1057 0484 00       		.uleb128 0
 1058 0485 E9230000 		.4byte	.LASF192
 1059 0489 05       		.byte	0x5
 1060 048a 00       		.uleb128 0
 1061 048b D92A0000 		.4byte	.LASF193
 1062 048f 05       		.byte	0x5
 1063 0490 00       		.uleb128 0
 1064 0491 9A030000 		.4byte	.LASF194
 1065 0495 05       		.byte	0x5
 1066 0496 00       		.uleb128 0
 1067 0497 B3110000 		.4byte	.LASF195
 1068 049b 05       		.byte	0x5
ARM GAS  /var/folders/9j/_txx49hn253_s3mnzkyxlj8m0000gp/T//cc5rAUlf.s 			page 20


 1069 049c 00       		.uleb128 0
 1070 049d 03230000 		.4byte	.LASF196
 1071 04a1 05       		.byte	0x5
 1072 04a2 00       		.uleb128 0
 1073 04a3 40150000 		.4byte	.LASF197
 1074 04a7 05       		.byte	0x5
 1075 04a8 00       		.uleb128 0
 1076 04a9 6C1D0000 		.4byte	.LASF198
 1077 04ad 05       		.byte	0x5
 1078 04ae 00       		.uleb128 0
 1079 04af F20E0000 		.4byte	.LASF199
 1080 04b3 05       		.byte	0x5
 1081 04b4 00       		.uleb128 0
 1082 04b5 D51C0000 		.4byte	.LASF200
 1083 04b9 05       		.byte	0x5
 1084 04ba 00       		.uleb128 0
 1085 04bb A0270000 		.4byte	.LASF201
 1086 04bf 05       		.byte	0x5
 1087 04c0 00       		.uleb128 0
 1088 04c1 0B1A0000 		.4byte	.LASF202
 1089 04c5 05       		.byte	0x5
 1090 04c6 00       		.uleb128 0
 1091 04c7 AC1E0000 		.4byte	.LASF203
 1092 04cb 05       		.byte	0x5
 1093 04cc 00       		.uleb128 0
 1094 04cd 311D0000 		.4byte	.LASF204
 1095 04d1 05       		.byte	0x5
 1096 04d2 00       		.uleb128 0
 1097 04d3 100C0000 		.4byte	.LASF205
 1098 04d7 05       		.byte	0x5
 1099 04d8 00       		.uleb128 0
 1100 04d9 5E170000 		.4byte	.LASF206
 1101 04dd 05       		.byte	0x5
 1102 04de 00       		.uleb128 0
 1103 04df E5160000 		.4byte	.LASF207
 1104 04e3 05       		.byte	0x5
 1105 04e4 00       		.uleb128 0
 1106 04e5 33070000 		.4byte	.LASF208
 1107 04e9 05       		.byte	0x5
 1108 04ea 00       		.uleb128 0
 1109 04eb 8E020000 		.4byte	.LASF209
 1110 04ef 05       		.byte	0x5
 1111 04f0 00       		.uleb128 0
 1112 04f1 52300000 		.4byte	.LASF210
 1113 04f5 05       		.byte	0x5
 1114 04f6 00       		.uleb128 0
 1115 04f7 E20D0000 		.4byte	.LASF211
 1116 04fb 05       		.byte	0x5
 1117 04fc 00       		.uleb128 0
 1118 04fd FE1B0000 		.4byte	.LASF212
 1119 0501 05       		.byte	0x5
 1120 0502 00       		.uleb128 0
 1121 0503 060D0000 		.4byte	.LASF213
 1122 0507 05       		.byte	0x5
 1123 0508 00       		.uleb128 0
 1124 0509 1D140000 		.4byte	.LASF214
 1125 050d 05       		.byte	0x5
ARM GAS  /var/folders/9j/_txx49hn253_s3mnzkyxlj8m0000gp/T//cc5rAUlf.s 			page 21


 1126 050e 00       		.uleb128 0
 1127 050f DB2F0000 		.4byte	.LASF215
 1128 0513 05       		.byte	0x5
 1129 0514 00       		.uleb128 0
 1130 0515 AB0C0000 		.4byte	.LASF216
 1131 0519 05       		.byte	0x5
 1132 051a 00       		.uleb128 0
 1133 051b 23160000 		.4byte	.LASF217
 1134 051f 05       		.byte	0x5
 1135 0520 00       		.uleb128 0
 1136 0521 E80F0000 		.4byte	.LASF218
 1137 0525 05       		.byte	0x5
 1138 0526 00       		.uleb128 0
 1139 0527 4E310000 		.4byte	.LASF219
 1140 052b 05       		.byte	0x5
 1141 052c 00       		.uleb128 0
 1142 052d 790A0000 		.4byte	.LASF220
 1143 0531 05       		.byte	0x5
 1144 0532 00       		.uleb128 0
 1145 0533 001F0000 		.4byte	.LASF221
 1146 0537 05       		.byte	0x5
 1147 0538 00       		.uleb128 0
 1148 0539 0D1E0000 		.4byte	.LASF222
 1149 053d 05       		.byte	0x5
 1150 053e 00       		.uleb128 0
 1151 053f 06080000 		.4byte	.LASF223
 1152 0543 05       		.byte	0x5
 1153 0544 00       		.uleb128 0
 1154 0545 870D0000 		.4byte	.LASF224
 1155 0549 05       		.byte	0x5
 1156 054a 00       		.uleb128 0
 1157 054b E6040000 		.4byte	.LASF225
 1158 054f 05       		.byte	0x5
 1159 0550 00       		.uleb128 0
 1160 0551 6F310000 		.4byte	.LASF226
 1161 0555 05       		.byte	0x5
 1162 0556 00       		.uleb128 0
 1163 0557 780E0000 		.4byte	.LASF227
 1164 055b 05       		.byte	0x5
 1165 055c 00       		.uleb128 0
 1166 055d BF2C0000 		.4byte	.LASF228
 1167 0561 05       		.byte	0x5
 1168 0562 00       		.uleb128 0
 1169 0563 EE250000 		.4byte	.LASF229
 1170 0567 05       		.byte	0x5
 1171 0568 00       		.uleb128 0
 1172 0569 18190000 		.4byte	.LASF230
 1173 056d 05       		.byte	0x5
 1174 056e 00       		.uleb128 0
 1175 056f 45120000 		.4byte	.LASF231
 1176 0573 05       		.byte	0x5
 1177 0574 00       		.uleb128 0
 1178 0575 31220000 		.4byte	.LASF232
 1179 0579 05       		.byte	0x5
 1180 057a 00       		.uleb128 0
 1181 057b E6140000 		.4byte	.LASF233
 1182 057f 05       		.byte	0x5
ARM GAS  /var/folders/9j/_txx49hn253_s3mnzkyxlj8m0000gp/T//cc5rAUlf.s 			page 22


 1183 0580 00       		.uleb128 0
 1184 0581 9C2A0000 		.4byte	.LASF234
 1185 0585 05       		.byte	0x5
 1186 0586 00       		.uleb128 0
 1187 0587 D51F0000 		.4byte	.LASF235
 1188 058b 05       		.byte	0x5
 1189 058c 00       		.uleb128 0
 1190 058d 980B0000 		.4byte	.LASF236
 1191 0591 05       		.byte	0x5
 1192 0592 00       		.uleb128 0
 1193 0593 A9150000 		.4byte	.LASF237
 1194 0597 05       		.byte	0x5
 1195 0598 00       		.uleb128 0
 1196 0599 470F0000 		.4byte	.LASF238
 1197 059d 05       		.byte	0x5
 1198 059e 00       		.uleb128 0
 1199 059f 511C0000 		.4byte	.LASF239
 1200 05a3 05       		.byte	0x5
 1201 05a4 00       		.uleb128 0
 1202 05a5 8E1E0000 		.4byte	.LASF240
 1203 05a9 05       		.byte	0x5
 1204 05aa 00       		.uleb128 0
 1205 05ab 7C180000 		.4byte	.LASF241
 1206 05af 05       		.byte	0x5
 1207 05b0 00       		.uleb128 0
 1208 05b1 ED310000 		.4byte	.LASF242
 1209 05b5 05       		.byte	0x5
 1210 05b6 00       		.uleb128 0
 1211 05b7 A3140000 		.4byte	.LASF243
 1212 05bb 05       		.byte	0x5
 1213 05bc 00       		.uleb128 0
 1214 05bd CD0D0000 		.4byte	.LASF244
 1215 05c1 05       		.byte	0x5
 1216 05c2 00       		.uleb128 0
 1217 05c3 57210000 		.4byte	.LASF245
 1218 05c7 05       		.byte	0x5
 1219 05c8 00       		.uleb128 0
 1220 05c9 2A0F0000 		.4byte	.LASF246
 1221 05cd 05       		.byte	0x5
 1222 05ce 00       		.uleb128 0
 1223 05cf 4B170000 		.4byte	.LASF247
 1224 05d3 05       		.byte	0x5
 1225 05d4 00       		.uleb128 0
 1226 05d5 86110000 		.4byte	.LASF248
 1227 05d9 05       		.byte	0x5
 1228 05da 00       		.uleb128 0
 1229 05db B7080000 		.4byte	.LASF249
 1230 05df 05       		.byte	0x5
 1231 05e0 00       		.uleb128 0
 1232 05e1 59200000 		.4byte	.LASF250
 1233 05e5 05       		.byte	0x5
 1234 05e6 00       		.uleb128 0
 1235 05e7 66260000 		.4byte	.LASF251
 1236 05eb 05       		.byte	0x5
 1237 05ec 00       		.uleb128 0
 1238 05ed FF1C0000 		.4byte	.LASF252
 1239 05f1 05       		.byte	0x5
ARM GAS  /var/folders/9j/_txx49hn253_s3mnzkyxlj8m0000gp/T//cc5rAUlf.s 			page 23


 1240 05f2 00       		.uleb128 0
 1241 05f3 F5150000 		.4byte	.LASF253
 1242 05f7 05       		.byte	0x5
 1243 05f8 00       		.uleb128 0
 1244 05f9 07090000 		.4byte	.LASF254
 1245 05fd 05       		.byte	0x5
 1246 05fe 00       		.uleb128 0
 1247 05ff E60B0000 		.4byte	.LASF255
 1248 0603 05       		.byte	0x5
 1249 0604 00       		.uleb128 0
 1250 0605 F21F0000 		.4byte	.LASF256
 1251 0609 05       		.byte	0x5
 1252 060a 00       		.uleb128 0
 1253 060b CE300000 		.4byte	.LASF257
 1254 060f 05       		.byte	0x5
 1255 0610 00       		.uleb128 0
 1256 0611 3B060000 		.4byte	.LASF258
 1257 0615 05       		.byte	0x5
 1258 0616 00       		.uleb128 0
 1259 0617 EA110000 		.4byte	.LASF259
 1260 061b 05       		.byte	0x5
 1261 061c 00       		.uleb128 0
 1262 061d A8130000 		.4byte	.LASF260
 1263 0621 05       		.byte	0x5
 1264 0622 00       		.uleb128 0
 1265 0623 D2130000 		.4byte	.LASF261
 1266 0627 05       		.byte	0x5
 1267 0628 00       		.uleb128 0
 1268 0629 9A2B0000 		.4byte	.LASF262
 1269 062d 05       		.byte	0x5
 1270 062e 00       		.uleb128 0
 1271 062f A4230000 		.4byte	.LASF263
 1272 0633 05       		.byte	0x5
 1273 0634 00       		.uleb128 0
 1274 0635 FD090000 		.4byte	.LASF264
 1275 0639 05       		.byte	0x5
 1276 063a 00       		.uleb128 0
 1277 063b DB080000 		.4byte	.LASF265
 1278 063f 05       		.byte	0x5
 1279 0640 00       		.uleb128 0
 1280 0641 A6310000 		.4byte	.LASF266
 1281 0645 05       		.byte	0x5
 1282 0646 00       		.uleb128 0
 1283 0647 44300000 		.4byte	.LASF267
 1284 064b 05       		.byte	0x5
 1285 064c 00       		.uleb128 0
 1286 064d A2010000 		.4byte	.LASF268
 1287 0651 05       		.byte	0x5
 1288 0652 00       		.uleb128 0
 1289 0653 0C240000 		.4byte	.LASF269
 1290 0657 05       		.byte	0x5
 1291 0658 00       		.uleb128 0
 1292 0659 771F0000 		.4byte	.LASF270
 1293 065d 05       		.byte	0x5
 1294 065e 00       		.uleb128 0
 1295 065f 22220000 		.4byte	.LASF271
 1296 0663 05       		.byte	0x5
ARM GAS  /var/folders/9j/_txx49hn253_s3mnzkyxlj8m0000gp/T//cc5rAUlf.s 			page 24


 1297 0664 00       		.uleb128 0
 1298 0665 9B200000 		.4byte	.LASF272
 1299 0669 05       		.byte	0x5
 1300 066a 00       		.uleb128 0
 1301 066b C61F0000 		.4byte	.LASF273
 1302 066f 05       		.byte	0x5
 1303 0670 00       		.uleb128 0
 1304 0671 442B0000 		.4byte	.LASF274
 1305 0675 05       		.byte	0x5
 1306 0676 00       		.uleb128 0
 1307 0677 F3220000 		.4byte	.LASF275
 1308 067b 05       		.byte	0x5
 1309 067c 00       		.uleb128 0
 1310 067d 52190000 		.4byte	.LASF276
 1311 0681 05       		.byte	0x5
 1312 0682 00       		.uleb128 0
 1313 0683 F8200000 		.4byte	.LASF277
 1314 0687 05       		.byte	0x5
 1315 0688 00       		.uleb128 0
 1316 0689 9F260000 		.4byte	.LASF278
 1317 068d 05       		.byte	0x5
 1318 068e 00       		.uleb128 0
 1319 068f 8D210000 		.4byte	.LASF279
 1320 0693 05       		.byte	0x5
 1321 0694 00       		.uleb128 0
 1322 0695 03130000 		.4byte	.LASF280
 1323 0699 05       		.byte	0x5
 1324 069a 00       		.uleb128 0
 1325 069b AE260000 		.4byte	.LASF281
 1326 069f 05       		.byte	0x5
 1327 06a0 00       		.uleb128 0
 1328 06a1 55140000 		.4byte	.LASF282
 1329 06a5 05       		.byte	0x5
 1330 06a6 00       		.uleb128 0
 1331 06a7 FC230000 		.4byte	.LASF283
 1332 06ab 05       		.byte	0x5
 1333 06ac 00       		.uleb128 0
 1334 06ad B0010000 		.4byte	.LASF284
 1335 06b1 05       		.byte	0x5
 1336 06b2 00       		.uleb128 0
 1337 06b3 49180000 		.4byte	.LASF285
 1338 06b7 05       		.byte	0x5
 1339 06b8 00       		.uleb128 0
 1340 06b9 190D0000 		.4byte	.LASF286
 1341 06bd 05       		.byte	0x5
 1342 06be 00       		.uleb128 0
 1343 06bf E0250000 		.4byte	.LASF287
 1344 06c3 05       		.byte	0x5
 1345 06c4 00       		.uleb128 0
 1346 06c5 0A180000 		.4byte	.LASF288
 1347 06c9 05       		.byte	0x5
 1348 06ca 00       		.uleb128 0
 1349 06cb 36120000 		.4byte	.LASF289
 1350 06cf 05       		.byte	0x5
 1351 06d0 00       		.uleb128 0
 1352 06d1 6A0A0000 		.4byte	.LASF290
 1353 06d5 05       		.byte	0x5
ARM GAS  /var/folders/9j/_txx49hn253_s3mnzkyxlj8m0000gp/T//cc5rAUlf.s 			page 25


 1354 06d6 00       		.uleb128 0
 1355 06d7 E80A0000 		.4byte	.LASF291
 1356 06db 05       		.byte	0x5
 1357 06dc 00       		.uleb128 0
 1358 06dd 5F110000 		.4byte	.LASF292
 1359 06e1 05       		.byte	0x5
 1360 06e2 00       		.uleb128 0
 1361 06e3 A31D0000 		.4byte	.LASF293
 1362 06e7 05       		.byte	0x5
 1363 06e8 00       		.uleb128 0
 1364 06e9 662E0000 		.4byte	.LASF294
 1365 06ed 05       		.byte	0x5
 1366 06ee 00       		.uleb128 0
 1367 06ef 60190000 		.4byte	.LASF295
 1368 06f3 05       		.byte	0x5
 1369 06f4 00       		.uleb128 0
 1370 06f5 3B240000 		.4byte	.LASF296
 1371 06f9 05       		.byte	0x5
 1372 06fa 00       		.uleb128 0
 1373 06fb 37160000 		.4byte	.LASF297
 1374 06ff 05       		.byte	0x5
 1375 0700 00       		.uleb128 0
 1376 0701 D80F0000 		.4byte	.LASF298
 1377 0705 05       		.byte	0x5
 1378 0706 00       		.uleb128 0
 1379 0707 9C300000 		.4byte	.LASF299
 1380 070b 05       		.byte	0x5
 1381 070c 00       		.uleb128 0
 1382 070d 73090000 		.4byte	.LASF300
 1383 0711 05       		.byte	0x5
 1384 0712 00       		.uleb128 0
 1385 0713 34050000 		.4byte	.LASF301
 1386 0717 05       		.byte	0x5
 1387 0718 00       		.uleb128 0
 1388 0719 17300000 		.4byte	.LASF302
 1389 071d 05       		.byte	0x5
 1390 071e 00       		.uleb128 0
 1391 071f AF060000 		.4byte	.LASF303
 1392 0723 05       		.byte	0x5
 1393 0724 00       		.uleb128 0
 1394 0725 B8220000 		.4byte	.LASF304
 1395 0729 05       		.byte	0x5
 1396 072a 00       		.uleb128 0
 1397 072b 44220000 		.4byte	.LASF305
 1398 072f 05       		.byte	0x5
 1399 0730 00       		.uleb128 0
 1400 0731 BF050000 		.4byte	.LASF306
 1401 0735 05       		.byte	0x5
 1402 0736 00       		.uleb128 0
 1403 0737 BD180000 		.4byte	.LASF307
 1404 073b 05       		.byte	0x5
 1405 073c 00       		.uleb128 0
 1406 073d E5120000 		.4byte	.LASF308
 1407 0741 05       		.byte	0x5
 1408 0742 00       		.uleb128 0
 1409 0743 42020000 		.4byte	.LASF309
 1410 0747 05       		.byte	0x5
ARM GAS  /var/folders/9j/_txx49hn253_s3mnzkyxlj8m0000gp/T//cc5rAUlf.s 			page 26


 1411 0748 00       		.uleb128 0
 1412 0749 FC260000 		.4byte	.LASF310
 1413 074d 05       		.byte	0x5
 1414 074e 00       		.uleb128 0
 1415 074f BB150000 		.4byte	.LASF311
 1416 0753 05       		.byte	0x5
 1417 0754 00       		.uleb128 0
 1418 0755 FD2B0000 		.4byte	.LASF312
 1419 0759 05       		.byte	0x5
 1420 075a 00       		.uleb128 0
 1421 075b 0D0F0000 		.4byte	.LASF313
 1422 075f 05       		.byte	0x5
 1423 0760 00       		.uleb128 0
 1424 0761 7B170000 		.4byte	.LASF314
 1425 0765 05       		.byte	0x5
 1426 0766 00       		.uleb128 0
 1427 0767 52290000 		.4byte	.LASF315
 1428 076b 05       		.byte	0x5
 1429 076c 00       		.uleb128 0
 1430 076d CB190000 		.4byte	.LASF316
 1431 0771 05       		.byte	0x5
 1432 0772 00       		.uleb128 0
 1433 0773 2E260000 		.4byte	.LASF317
 1434 0777 05       		.byte	0x5
 1435 0778 00       		.uleb128 0
 1436 0779 EF190000 		.4byte	.LASF318
 1437 077d 05       		.byte	0x5
 1438 077e 00       		.uleb128 0
 1439 077f 1A310000 		.4byte	.LASF319
 1440 0783 05       		.byte	0x5
 1441 0784 00       		.uleb128 0
 1442 0785 221E0000 		.4byte	.LASF320
 1443 0789 05       		.byte	0x5
 1444 078a 00       		.uleb128 0
 1445 078b 03030000 		.4byte	.LASF321
 1446 078f 05       		.byte	0x5
 1447 0790 00       		.uleb128 0
 1448 0791 A30F0000 		.4byte	.LASF322
 1449 0795 05       		.byte	0x5
 1450 0796 00       		.uleb128 0
 1451 0797 F70A0000 		.4byte	.LASF323
 1452 079b 05       		.byte	0x5
 1453 079c 00       		.uleb128 0
 1454 079d AC020000 		.4byte	.LASF324
 1455 07a1 05       		.byte	0x5
 1456 07a2 00       		.uleb128 0
 1457 07a3 A80E0000 		.4byte	.LASF325
 1458 07a7 05       		.byte	0x5
 1459 07a8 00       		.uleb128 0
 1460 07a9 33190000 		.4byte	.LASF326
 1461 07ad 05       		.byte	0x5
 1462 07ae 00       		.uleb128 0
 1463 07af 6C070000 		.4byte	.LASF327
 1464 07b3 05       		.byte	0x5
 1465 07b4 00       		.uleb128 0
 1466 07b5 5F2D0000 		.4byte	.LASF328
 1467 07b9 05       		.byte	0x5
ARM GAS  /var/folders/9j/_txx49hn253_s3mnzkyxlj8m0000gp/T//cc5rAUlf.s 			page 27


 1468 07ba 00       		.uleb128 0
 1469 07bb 72220000 		.4byte	.LASF329
 1470 07bf 05       		.byte	0x5
 1471 07c0 00       		.uleb128 0
 1472 07c1 18180000 		.4byte	.LASF330
 1473 07c5 05       		.byte	0x5
 1474 07c6 00       		.uleb128 0
 1475 07c7 48090000 		.4byte	.LASF331
 1476 07cb 05       		.byte	0x5
 1477 07cc 00       		.uleb128 0
 1478 07cd 17110000 		.4byte	.LASF332
 1479 07d1 05       		.byte	0x5
 1480 07d2 00       		.uleb128 0
 1481 07d3 F2280000 		.4byte	.LASF333
 1482 07d7 05       		.byte	0x5
 1483 07d8 00       		.uleb128 0
 1484 07d9 C1250000 		.4byte	.LASF334
 1485 07dd 05       		.byte	0x5
 1486 07de 00       		.uleb128 0
 1487 07df 97180000 		.4byte	.LASF335
 1488 07e3 05       		.byte	0x5
 1489 07e4 00       		.uleb128 0
 1490 07e5 4D230000 		.4byte	.LASF336
 1491 07e9 05       		.byte	0x5
 1492 07ea 00       		.uleb128 0
 1493 07eb 2A150000 		.4byte	.LASF337
 1494 07ef 05       		.byte	0x5
 1495 07f0 00       		.uleb128 0
 1496 07f1 CE250000 		.4byte	.LASF338
 1497 07f5 05       		.byte	0x5
 1498 07f6 00       		.uleb128 0
 1499 07f7 6B1F0000 		.4byte	.LASF339
 1500 07fb 05       		.byte	0x5
 1501 07fc 00       		.uleb128 0
 1502 07fd 450C0000 		.4byte	.LASF340
 1503 0801 05       		.byte	0x5
 1504 0802 00       		.uleb128 0
 1505 0803 B41C0000 		.4byte	.LASF341
 1506 0807 05       		.byte	0x5
 1507 0808 00       		.uleb128 0
 1508 0809 C1190000 		.4byte	.LASF342
 1509 080d 05       		.byte	0x5
 1510 080e 00       		.uleb128 0
 1511 080f 130B0000 		.4byte	.LASF343
 1512 0813 05       		.byte	0x5
 1513 0814 00       		.uleb128 0
 1514 0815 670E0000 		.4byte	.LASF344
 1515 0819 05       		.byte	0x5
 1516 081a 00       		.uleb128 0
 1517 081b 752E0000 		.4byte	.LASF345
 1518 081f 05       		.byte	0x5
 1519 0820 00       		.uleb128 0
 1520 0821 99040000 		.4byte	.LASF346
 1521 0825 05       		.byte	0x5
 1522 0826 00       		.uleb128 0
 1523 0827 85300000 		.4byte	.LASF347
 1524 082b 00       		.byte	0
ARM GAS  /var/folders/9j/_txx49hn253_s3mnzkyxlj8m0000gp/T//cc5rAUlf.s 			page 28


 1525              		.section	.debug_macro,"G",%progbits,wm4.features.h.22.2e382148a0560adabf236cddd4e880f4,comdat
 1526              	.Ldebug_macro2:
 1527 0000 0400     		.2byte	0x4
 1528 0002 00       		.byte	0
 1529 0003 05       		.byte	0x5
 1530 0004 16       		.uleb128 0x16
 1531 0005 540C0000 		.4byte	.LASF352
 1532 0009 05       		.byte	0x5
 1533 000a 1F       		.uleb128 0x1f
 1534 000b 280D0000 		.4byte	.LASF353
 1535 000f 05       		.byte	0x5
 1536 0010 20       		.uleb128 0x20
 1537 0011 35090000 		.4byte	.LASF354
 1538 0015 05       		.byte	0x5
 1539 0016 25       		.uleb128 0x25
 1540 0017 17030000 		.4byte	.LASF355
 1541 001b 05       		.byte	0x5
 1542 001c 2C       		.uleb128 0x2c
 1543 001d 23200000 		.4byte	.LASF356
 1544 0021 00       		.byte	0
 1545              		.section	.debug_macro,"G",%progbits,wm4._default_types.h.15.933e8edd27a65e0b69af4a865eb623d2,comda
 1546              	.Ldebug_macro3:
 1547 0000 0400     		.2byte	0x4
 1548 0002 00       		.byte	0
 1549 0003 05       		.byte	0x5
 1550 0004 0F       		.uleb128 0xf
 1551 0005 8E000000 		.4byte	.LASF357
 1552 0009 05       		.byte	0x5
 1553 000a 21       		.uleb128 0x21
 1554 000b B60B0000 		.4byte	.LASF358
 1555 000f 05       		.byte	0x5
 1556 0010 2F       		.uleb128 0x2f
 1557 0011 D5110000 		.4byte	.LASF359
 1558 0015 05       		.byte	0x5
 1559 0016 45       		.uleb128 0x45
 1560 0017 61120000 		.4byte	.LASF360
 1561 001b 05       		.byte	0x5
 1562 001c 5F       		.uleb128 0x5f
 1563 001d FB0F0000 		.4byte	.LASF361
 1564 0021 05       		.byte	0x5
 1565 0022 7E       		.uleb128 0x7e
 1566 0023 1C2C0000 		.4byte	.LASF362
 1567 0027 05       		.byte	0x5
 1568 0028 9801     		.uleb128 0x98
 1569 002a 8E160000 		.4byte	.LASF363
 1570 002e 05       		.byte	0x5
 1571 002f AE01     		.uleb128 0xae
 1572 0031 30170000 		.4byte	.LASF364
 1573 0035 05       		.byte	0x5
 1574 0036 C001     		.uleb128 0xc0
 1575 0038 52150000 		.4byte	.LASF365
 1576 003c 06       		.byte	0x6
 1577 003d D601     		.uleb128 0xd6
 1578 003f DE2B0000 		.4byte	.LASF366
 1579 0043 00       		.byte	0
 1580              		.section	.debug_macro,"G",%progbits,wm4._intsup.h.10.35a45952db64d30146faa63a55c20c1c,comdat
 1581              	.Ldebug_macro4:
ARM GAS  /var/folders/9j/_txx49hn253_s3mnzkyxlj8m0000gp/T//cc5rAUlf.s 			page 29


 1582 0000 0400     		.2byte	0x4
 1583 0002 00       		.byte	0
 1584 0003 05       		.byte	0x5
 1585 0004 0A       		.uleb128 0xa
 1586 0005 44270000 		.4byte	.LASF367
 1587 0009 05       		.byte	0x5
 1588 000a 10       		.uleb128 0x10
 1589 000b 28290000 		.4byte	.LASF368
 1590 000f 05       		.byte	0x5
 1591 0010 1A       		.uleb128 0x1a
 1592 0011 001B0000 		.4byte	.LASF369
 1593 0015 05       		.byte	0x5
 1594 0016 21       		.uleb128 0x21
 1595 0017 DF000000 		.4byte	.LASF370
 1596 001b 06       		.byte	0x6
 1597 001c 37       		.uleb128 0x37
 1598 001d 7E220000 		.4byte	.LASF371
 1599 0021 06       		.byte	0x6
 1600 0022 38       		.uleb128 0x38
 1601 0023 B8070000 		.4byte	.LASF372
 1602 0027 06       		.byte	0x6
 1603 0028 39       		.uleb128 0x39
 1604 0029 A9200000 		.4byte	.LASF373
 1605 002d 06       		.byte	0x6
 1606 002e 3A       		.uleb128 0x3a
 1607 002f F1130000 		.4byte	.LASF374
 1608 0033 02       		.byte	0x2
 1609 0034 3B       		.uleb128 0x3b
 1610 0035 696E7400 		.ascii	"int\000"
 1611 0039 06       		.byte	0x6
 1612 003a 3C       		.uleb128 0x3c
 1613 003b E30A0000 		.4byte	.LASF375
 1614 003f 05       		.byte	0x5
 1615 0040 3D       		.uleb128 0x3d
 1616 0041 8E0B0000 		.4byte	.LASF376
 1617 0045 05       		.byte	0x5
 1618 0046 3E       		.uleb128 0x3e
 1619 0047 5A2C0000 		.4byte	.LASF377
 1620 004b 05       		.byte	0x5
 1621 004c 3F       		.uleb128 0x3f
 1622 004d E6090000 		.4byte	.LASF378
 1623 0051 05       		.byte	0x5
 1624 0052 40       		.uleb128 0x40
 1625 0053 2B050000 		.4byte	.LASF379
 1626 0057 05       		.byte	0x5
 1627 0058 41       		.uleb128 0x41
 1628 0059 2A0A0000 		.4byte	.LASF380
 1629 005d 05       		.byte	0x5
 1630 005e 42       		.uleb128 0x42
 1631 005f F9300000 		.4byte	.LASF381
 1632 0063 05       		.byte	0x5
 1633 0064 4D       		.uleb128 0x4d
 1634 0065 182D0000 		.4byte	.LASF382
 1635 0069 05       		.byte	0x5
 1636 006a 55       		.uleb128 0x55
 1637 006b 461D0000 		.4byte	.LASF383
 1638 006f 05       		.byte	0x5
ARM GAS  /var/folders/9j/_txx49hn253_s3mnzkyxlj8m0000gp/T//cc5rAUlf.s 			page 30


 1639 0070 60       		.uleb128 0x60
 1640 0071 DD230000 		.4byte	.LASF384
 1641 0075 05       		.byte	0x5
 1642 0076 6B       		.uleb128 0x6b
 1643 0077 F21B0000 		.4byte	.LASF385
 1644 007b 05       		.byte	0x5
 1645 007c 74       		.uleb128 0x74
 1646 007d 48140000 		.4byte	.LASF386
 1647 0081 05       		.byte	0x5
 1648 0082 7B       		.uleb128 0x7b
 1649 0083 50200000 		.4byte	.LASF387
 1650 0087 05       		.byte	0x5
 1651 0088 8401     		.uleb128 0x84
 1652 008a 9E130000 		.4byte	.LASF388
 1653 008e 05       		.byte	0x5
 1654 008f 8B01     		.uleb128 0x8b
 1655 0091 1A080000 		.4byte	.LASF389
 1656 0095 05       		.byte	0x5
 1657 0096 9601     		.uleb128 0x96
 1658 0098 5D130000 		.4byte	.LASF390
 1659 009c 05       		.byte	0x5
 1660 009d 9A01     		.uleb128 0x9a
 1661 009f 85050000 		.4byte	.LASF391
 1662 00a3 05       		.byte	0x5
 1663 00a4 A501     		.uleb128 0xa5
 1664 00a6 28120000 		.4byte	.LASF392
 1665 00aa 05       		.byte	0x5
 1666 00ab B001     		.uleb128 0xb0
 1667 00ad 362B0000 		.4byte	.LASF393
 1668 00b1 05       		.byte	0x5
 1669 00b2 B901     		.uleb128 0xb9
 1670 00b4 EE090000 		.4byte	.LASF394
 1671 00b8 06       		.byte	0x6
 1672 00b9 BB01     		.uleb128 0xbb
 1673 00bb 7E220000 		.4byte	.LASF371
 1674 00bf 06       		.byte	0x6
 1675 00c0 BC01     		.uleb128 0xbc
 1676 00c2 B8070000 		.4byte	.LASF372
 1677 00c6 06       		.byte	0x6
 1678 00c7 BD01     		.uleb128 0xbd
 1679 00c9 A9200000 		.4byte	.LASF373
 1680 00cd 06       		.byte	0x6
 1681 00ce BE01     		.uleb128 0xbe
 1682 00d0 F1130000 		.4byte	.LASF374
 1683 00d4 02       		.byte	0x2
 1684 00d5 BF01     		.uleb128 0xbf
 1685 00d7 696E7400 		.ascii	"int\000"
 1686 00db 06       		.byte	0x6
 1687 00dc C001     		.uleb128 0xc0
 1688 00de E30A0000 		.4byte	.LASF375
 1689 00e2 00       		.byte	0
 1690              		.section	.debug_macro,"G",%progbits,wm4._stdint.h.10.f76354baea1c7088202064e6f3d4f5e3,comdat
 1691              	.Ldebug_macro5:
 1692 0000 0400     		.2byte	0x4
 1693 0002 00       		.byte	0
 1694 0003 05       		.byte	0x5
 1695 0004 0A       		.uleb128 0xa
ARM GAS  /var/folders/9j/_txx49hn253_s3mnzkyxlj8m0000gp/T//cc5rAUlf.s 			page 31


 1696 0005 5A0A0000 		.4byte	.LASF395
 1697 0009 05       		.byte	0x5
 1698 000a 15       		.uleb128 0x15
 1699 000b 9C060000 		.4byte	.LASF396
 1700 000f 05       		.byte	0x5
 1701 0010 1B       		.uleb128 0x1b
 1702 0011 19210000 		.4byte	.LASF397
 1703 0015 05       		.byte	0x5
 1704 0016 21       		.uleb128 0x21
 1705 0017 F8210000 		.4byte	.LASF398
 1706 001b 05       		.byte	0x5
 1707 001c 27       		.uleb128 0x27
 1708 001d 25110000 		.4byte	.LASF399
 1709 0021 00       		.byte	0
 1710              		.section	.debug_macro,"G",%progbits,wm4.stdint.h.23.373a9d32a9e4c2e88fd347156532d281,comdat
 1711              	.Ldebug_macro6:
 1712 0000 0400     		.2byte	0x4
 1713 0002 00       		.byte	0
 1714 0003 05       		.byte	0x5
 1715 0004 17       		.uleb128 0x17
 1716 0005 01310000 		.4byte	.LASF400
 1717 0009 05       		.byte	0x5
 1718 000a 1D       		.uleb128 0x1d
 1719 000b 851A0000 		.4byte	.LASF401
 1720 000f 05       		.byte	0x5
 1721 0010 23       		.uleb128 0x23
 1722 0011 7A1B0000 		.4byte	.LASF402
 1723 0015 05       		.byte	0x5
 1724 0016 29       		.uleb128 0x29
 1725 0017 A3180000 		.4byte	.LASF403
 1726 001b 05       		.byte	0x5
 1727 001c 35       		.uleb128 0x35
 1728 001d A3000000 		.4byte	.LASF404
 1729 0021 05       		.byte	0x5
 1730 0022 3F       		.uleb128 0x3f
 1731 0023 851F0000 		.4byte	.LASF405
 1732 0027 05       		.byte	0x5
 1733 0028 49       		.uleb128 0x49
 1734 0029 DC1A0000 		.4byte	.LASF406
 1735 002d 05       		.byte	0x5
 1736 002e 53       		.uleb128 0x53
 1737 002f 7F2E0000 		.4byte	.LASF407
 1738 0033 05       		.byte	0x5
 1739 0034 9301     		.uleb128 0x93
 1740 0036 3E2D0000 		.4byte	.LASF408
 1741 003a 05       		.byte	0x5
 1742 003b 9401     		.uleb128 0x94
 1743 003d 9C070000 		.4byte	.LASF409
 1744 0041 05       		.byte	0x5
 1745 0042 9501     		.uleb128 0x95
 1746 0044 131D0000 		.4byte	.LASF410
 1747 0048 05       		.byte	0x5
 1748 0049 AB01     		.uleb128 0xab
 1749 004b 27300000 		.4byte	.LASF411
 1750 004f 05       		.byte	0x5
 1751 0050 AC01     		.uleb128 0xac
 1752 0052 861C0000 		.4byte	.LASF412
ARM GAS  /var/folders/9j/_txx49hn253_s3mnzkyxlj8m0000gp/T//cc5rAUlf.s 			page 32


 1753 0056 05       		.byte	0x5
 1754 0057 AD01     		.uleb128 0xad
 1755 0059 FD2F0000 		.4byte	.LASF413
 1756 005d 05       		.byte	0x5
 1757 005e B501     		.uleb128 0xb5
 1758 0060 E7030000 		.4byte	.LASF414
 1759 0064 05       		.byte	0x5
 1760 0065 B601     		.uleb128 0xb6
 1761 0067 BB000000 		.4byte	.LASF415
 1762 006b 05       		.byte	0x5
 1763 006c B701     		.uleb128 0xb7
 1764 006e C3020000 		.4byte	.LASF416
 1765 0072 05       		.byte	0x5
 1766 0073 C101     		.uleb128 0xc1
 1767 0075 922F0000 		.4byte	.LASF417
 1768 0079 05       		.byte	0x5
 1769 007a C201     		.uleb128 0xc2
 1770 007c E9020000 		.4byte	.LASF418
 1771 0080 05       		.byte	0x5
 1772 0081 C301     		.uleb128 0xc3
 1773 0083 FB100000 		.4byte	.LASF419
 1774 0087 05       		.byte	0x5
 1775 0088 CB01     		.uleb128 0xcb
 1776 008a 12130000 		.4byte	.LASF420
 1777 008e 05       		.byte	0x5
 1778 008f CC01     		.uleb128 0xcc
 1779 0091 160E0000 		.4byte	.LASF421
 1780 0095 05       		.byte	0x5
 1781 0096 CD01     		.uleb128 0xcd
 1782 0098 EC2A0000 		.4byte	.LASF422
 1783 009c 05       		.byte	0x5
 1784 009d D701     		.uleb128 0xd7
 1785 009f BD1A0000 		.4byte	.LASF423
 1786 00a3 05       		.byte	0x5
 1787 00a4 D801     		.uleb128 0xd8
 1788 00a6 B4300000 		.4byte	.LASF424
 1789 00aa 05       		.byte	0x5
 1790 00ab D901     		.uleb128 0xd9
 1791 00ad CA0B0000 		.4byte	.LASF425
 1792 00b1 05       		.byte	0x5
 1793 00b2 E701     		.uleb128 0xe7
 1794 00b4 47160000 		.4byte	.LASF426
 1795 00b8 05       		.byte	0x5
 1796 00b9 E801     		.uleb128 0xe8
 1797 00bb 39110000 		.4byte	.LASF427
 1798 00bf 05       		.byte	0x5
 1799 00c0 E901     		.uleb128 0xe9
 1800 00c2 DE010000 		.4byte	.LASF428
 1801 00c6 05       		.byte	0x5
 1802 00c7 F901     		.uleb128 0xf9
 1803 00c9 6D2D0000 		.4byte	.LASF429
 1804 00cd 05       		.byte	0x5
 1805 00ce FA01     		.uleb128 0xfa
 1806 00d0 B4240000 		.4byte	.LASF430
 1807 00d4 05       		.byte	0x5
 1808 00d5 FB01     		.uleb128 0xfb
 1809 00d7 72160000 		.4byte	.LASF431
ARM GAS  /var/folders/9j/_txx49hn253_s3mnzkyxlj8m0000gp/T//cc5rAUlf.s 			page 33


 1810 00db 05       		.byte	0x5
 1811 00dc 8902     		.uleb128 0x109
 1812 00de 4E010000 		.4byte	.LASF432
 1813 00e2 05       		.byte	0x5
 1814 00e3 8A02     		.uleb128 0x10a
 1815 00e5 F7130000 		.4byte	.LASF433
 1816 00e9 05       		.byte	0x5
 1817 00ea 8B02     		.uleb128 0x10b
 1818 00ec 37080000 		.4byte	.LASF434
 1819 00f0 05       		.byte	0x5
 1820 00f1 9902     		.uleb128 0x119
 1821 00f3 64140000 		.4byte	.LASF435
 1822 00f7 05       		.byte	0x5
 1823 00f8 9A02     		.uleb128 0x11a
 1824 00fa C12E0000 		.4byte	.LASF436
 1825 00fe 05       		.byte	0x5
 1826 00ff 9B02     		.uleb128 0x11b
 1827 0101 08280000 		.4byte	.LASF437
 1828 0105 05       		.byte	0x5
 1829 0106 A902     		.uleb128 0x129
 1830 0108 941B0000 		.4byte	.LASF438
 1831 010c 05       		.byte	0x5
 1832 010d AA02     		.uleb128 0x12a
 1833 010f 90240000 		.4byte	.LASF439
 1834 0113 05       		.byte	0x5
 1835 0114 AB02     		.uleb128 0x12b
 1836 0116 5F080000 		.4byte	.LASF440
 1837 011a 05       		.byte	0x5
 1838 011b B902     		.uleb128 0x139
 1839 011d BC100000 		.4byte	.LASF441
 1840 0121 05       		.byte	0x5
 1841 0122 BA02     		.uleb128 0x13a
 1842 0124 362C0000 		.4byte	.LASF442
 1843 0128 05       		.byte	0x5
 1844 0129 BB02     		.uleb128 0x13b
 1845 012b 1E270000 		.4byte	.LASF443
 1846 012f 05       		.byte	0x5
 1847 0130 C902     		.uleb128 0x149
 1848 0132 B1030000 		.4byte	.LASF444
 1849 0136 05       		.byte	0x5
 1850 0137 CA02     		.uleb128 0x14a
 1851 0139 CF220000 		.4byte	.LASF445
 1852 013d 05       		.byte	0x5
 1853 013e CB02     		.uleb128 0x14b
 1854 0140 B32A0000 		.4byte	.LASF446
 1855 0144 05       		.byte	0x5
 1856 0145 D902     		.uleb128 0x159
 1857 0147 032E0000 		.4byte	.LASF447
 1858 014b 05       		.byte	0x5
 1859 014c DA02     		.uleb128 0x15a
 1860 014e EF000000 		.4byte	.LASF448
 1861 0152 05       		.byte	0x5
 1862 0153 E202     		.uleb128 0x162
 1863 0155 8A0E0000 		.4byte	.LASF449
 1864 0159 05       		.byte	0x5
 1865 015a EA02     		.uleb128 0x16a
 1866 015c 0A250000 		.4byte	.LASF450
ARM GAS  /var/folders/9j/_txx49hn253_s3mnzkyxlj8m0000gp/T//cc5rAUlf.s 			page 34


 1867 0160 05       		.byte	0x5
 1868 0161 F002     		.uleb128 0x170
 1869 0163 3B1B0000 		.4byte	.LASF451
 1870 0167 05       		.byte	0x5
 1871 0168 F102     		.uleb128 0x171
 1872 016a 45070000 		.4byte	.LASF452
 1873 016e 05       		.byte	0x5
 1874 016f F502     		.uleb128 0x175
 1875 0171 9F1A0000 		.4byte	.LASF453
 1876 0175 05       		.byte	0x5
 1877 0176 F902     		.uleb128 0x179
 1878 0178 E32E0000 		.4byte	.LASF454
 1879 017c 05       		.byte	0x5
 1880 017d FE02     		.uleb128 0x17e
 1881 017f D5210000 		.4byte	.LASF455
 1882 0183 05       		.byte	0x5
 1883 0184 8903     		.uleb128 0x189
 1884 0186 09160000 		.4byte	.LASF456
 1885 018a 05       		.byte	0x5
 1886 018b 9303     		.uleb128 0x193
 1887 018d 532F0000 		.4byte	.LASF457
 1888 0191 05       		.byte	0x5
 1889 0192 9803     		.uleb128 0x198
 1890 0194 10040000 		.4byte	.LASF458
 1891 0198 05       		.byte	0x5
 1892 0199 9F03     		.uleb128 0x19f
 1893 019b CD270000 		.4byte	.LASF459
 1894 019f 05       		.byte	0x5
 1895 01a0 A003     		.uleb128 0x1a0
 1896 01a2 87190000 		.4byte	.LASF460
 1897 01a6 05       		.byte	0x5
 1898 01a7 AB03     		.uleb128 0x1ab
 1899 01a9 27100000 		.4byte	.LASF461
 1900 01ad 05       		.byte	0x5
 1901 01ae AC03     		.uleb128 0x1ac
 1902 01b0 2F180000 		.4byte	.LASF462
 1903 01b4 05       		.byte	0x5
 1904 01b5 B703     		.uleb128 0x1b7
 1905 01b7 DC060000 		.4byte	.LASF463
 1906 01bb 05       		.byte	0x5
 1907 01bc B803     		.uleb128 0x1b8
 1908 01be 521D0000 		.4byte	.LASF464
 1909 01c2 05       		.byte	0x5
 1910 01c3 C403     		.uleb128 0x1c4
 1911 01c5 71060000 		.4byte	.LASF465
 1912 01c9 05       		.byte	0x5
 1913 01ca C503     		.uleb128 0x1c5
 1914 01cc BF010000 		.4byte	.LASF466
 1915 01d0 05       		.byte	0x5
 1916 01d1 D403     		.uleb128 0x1d4
 1917 01d3 8C2D0000 		.4byte	.LASF467
 1918 01d7 05       		.byte	0x5
 1919 01d8 D503     		.uleb128 0x1d5
 1920 01da 45250000 		.4byte	.LASF468
 1921 01de 00       		.byte	0
 1922              		.section	.debug_macro,"G",%progbits,wm4.stdbool.h.29.1c9ee6859ce8145f7838a4f2549ccec2,comdat
 1923              	.Ldebug_macro7:
ARM GAS  /var/folders/9j/_txx49hn253_s3mnzkyxlj8m0000gp/T//cc5rAUlf.s 			page 35


 1924 0000 0400     		.2byte	0x4
 1925 0002 00       		.byte	0
 1926 0003 05       		.byte	0x5
 1927 0004 1D       		.uleb128 0x1d
 1928 0005 EF100000 		.4byte	.LASF470
 1929 0009 05       		.byte	0x5
 1930 000a 21       		.uleb128 0x21
 1931 000b 310A0000 		.4byte	.LASF471
 1932 000f 05       		.byte	0x5
 1933 0010 22       		.uleb128 0x22
 1934 0011 CE110000 		.4byte	.LASF472
 1935 0015 05       		.byte	0x5
 1936 0016 23       		.uleb128 0x23
 1937 0017 AC300000 		.4byte	.LASF473
 1938 001b 05       		.byte	0x5
 1939 001c 30       		.uleb128 0x30
 1940 001d B5210000 		.4byte	.LASF474
 1941 0021 00       		.byte	0
 1942              		.section	.debug_macro,"G",%progbits,wm4.lpc_types.h.63.860ba57581a002825766a7c2ac00d549,comdat
 1943              	.Ldebug_macro8:
 1944 0000 0400     		.2byte	0x4
 1945 0002 00       		.byte	0
 1946 0003 05       		.byte	0x5
 1947 0004 3F       		.uleb128 0x3f
 1948 0005 99170000 		.4byte	.LASF475
 1949 0009 05       		.byte	0x5
 1950 000a 45       		.uleb128 0x45
 1951 000b 5D230000 		.4byte	.LASF476
 1952 000f 06       		.byte	0x6
 1953 0010 66       		.uleb128 0x66
 1954 0011 83150000 		.4byte	.LASF477
 1955 0015 05       		.byte	0x5
 1956 0016 68       		.uleb128 0x68
 1957 0017 892A0000 		.4byte	.LASF478
 1958 001b 06       		.byte	0x6
 1959 001c 6E       		.uleb128 0x6e
 1960 001d 6F190000 		.4byte	.LASF479
 1961 0021 05       		.byte	0x5
 1962 0022 70       		.uleb128 0x70
 1963 0023 1F2E0000 		.4byte	.LASF480
 1964 0027 06       		.byte	0x6
 1965 0028 7F       		.uleb128 0x7f
 1966 0029 5E0E0000 		.4byte	.LASF481
 1967 002d 05       		.byte	0x5
 1968 002e 8101     		.uleb128 0x81
 1969 0030 85290000 		.4byte	.LASF482
 1970 0034 05       		.byte	0x5
 1971 0035 8501     		.uleb128 0x85
 1972 0037 E21D0000 		.4byte	.LASF483
 1973 003b 05       		.byte	0x5
 1974 003c 8901     		.uleb128 0x89
 1975 003e 88100000 		.4byte	.LASF484
 1976 0042 05       		.byte	0x5
 1977 0043 8C01     		.uleb128 0x8c
 1978 0045 44290000 		.4byte	.LASF485
 1979 0049 05       		.byte	0x5
 1980 004a 8E01     		.uleb128 0x8e
ARM GAS  /var/folders/9j/_txx49hn253_s3mnzkyxlj8m0000gp/T//cc5rAUlf.s 			page 36


 1981 004c B3250000 		.4byte	.LASF486
 1982 0050 05       		.byte	0x5
 1983 0051 9101     		.uleb128 0x91
 1984 0053 7C0C0000 		.4byte	.LASF487
 1985 0057 05       		.byte	0x5
 1986 0058 9401     		.uleb128 0x94
 1987 005a 2E1C0000 		.4byte	.LASF488
 1988 005e 05       		.byte	0x5
 1989 005f 9701     		.uleb128 0x97
 1990 0061 8E120000 		.4byte	.LASF489
 1991 0065 05       		.byte	0x5
 1992 0066 D001     		.uleb128 0xd0
 1993 0068 BE0E0000 		.4byte	.LASF490
 1994 006c 00       		.byte	0
 1995              		.section	.debug_line,"",%progbits
 1996              	.Ldebug_line0:
 1997 0000 42020000 		.section	.debug_str,"MS",%progbits,1
 1997      02002802 
 1997      00000201 
 1997      FB0E0D00 
 1997      01010101 
 1998              	.LASF77:
 1999 0000 5F5F5054 		.ascii	"__PTRDIFF_MAX__ 2147483647\000"
 1999      52444946 
 1999      465F4D41 
 1999      585F5F20 
 1999      32313437 
 2000              	.LASF72:
 2001 001b 5F5F4C4F 		.ascii	"__LONG_LONG_MAX__ 9223372036854775807LL\000"
 2001      4E475F4C 
 2001      4F4E475F 
 2001      4D41585F 
 2001      5F203932 
 2002              	.LASF179:
 2003 0043 5F5F4445 		.ascii	"__DEC64_SUBNORMAL_MIN__ 0.000000000000001E-383DD\000"
 2003      4336345F 
 2003      5355424E 
 2003      4F524D41 
 2003      4C5F4D49 
 2004              	.LASF73:
 2005 0074 5F5F5743 		.ascii	"__WCHAR_MAX__ 4294967295U\000"
 2005      4841525F 
 2005      4D41585F 
 2005      5F203432 
 2005      39343936 
 2006              	.LASF357:
 2007 008e 5F5F4558 		.ascii	"__EXP(x) __ ##x ##__\000"
 2007      50287829 
 2007      205F5F20 
 2007      23237820 
 2007      23235F5F 
 2008              	.LASF404:
 2009 00a3 5F5F696E 		.ascii	"__int_fast8_t_defined 1\000"
 2009      745F6661 
 2009      7374385F 
 2009      745F6465 
 2009      66696E65 
ARM GAS  /var/folders/9j/_txx49hn253_s3mnzkyxlj8m0000gp/T//cc5rAUlf.s 			page 37


 2010              	.LASF415:
 2011 00bb 494E545F 		.ascii	"INT_LEAST8_MAX (__INT_LEAST8_MAX__)\000"
 2011      4C454153 
 2011      54385F4D 
 2011      41582028 
 2011      5F5F494E 
 2012              	.LASF370:
 2013 00df 5F5F6861 		.ascii	"__have_long32 1\000"
 2013      76655F6C 
 2013      6F6E6733 
 2013      32203100 
 2014              	.LASF448:
 2015 00ef 494E544D 		.ascii	"INTMAX_MIN (-INTMAX_MAX - 1)\000"
 2015      41585F4D 
 2015      494E2028 
 2015      2D494E54 
 2015      4D41585F 
 2016              	.LASF178:
 2017 010c 5F5F4445 		.ascii	"__DEC64_EPSILON__ 1E-15DD\000"
 2017      4336345F 
 2017      45505349 
 2017      4C4F4E5F 
 2017      5F203145 
 2018              	.LASF93:
 2019 0126 5F5F494E 		.ascii	"__INT_LEAST8_MAX__ 127\000"
 2019      545F4C45 
 2019      41535438 
 2019      5F4D4158 
 2019      5F5F2031 
 2020              	.LASF85:
 2021 013d 5F5F494E 		.ascii	"__INT8_MAX__ 127\000"
 2021      54385F4D 
 2021      41585F5F 
 2021      20313237 
 2021      00
 2022              	.LASF432:
 2023 014e 494E545F 		.ascii	"INT_LEAST64_MIN (-__INT_LEAST64_MAX__ - 1)\000"
 2023      4C454153 
 2023      5436345F 
 2023      4D494E20 
 2023      282D5F5F 
 2024              	.LASF102:
 2025 0179 5F5F5549 		.ascii	"__UINT8_C(c) c\000"
 2025      4E54385F 
 2025      43286329 
 2025      206300
 2026              	.LASF87:
 2027 0188 5F5F494E 		.ascii	"__INT32_MAX__ 2147483647L\000"
 2027      5433325F 
 2027      4D41585F 
 2027      5F203231 
 2027      34373438 
 2028              	.LASF268:
 2029 01a2 5F5F5151 		.ascii	"__QQ_IBIT__ 0\000"
 2029      5F494249 
 2029      545F5F20 
 2029      3000
ARM GAS  /var/folders/9j/_txx49hn253_s3mnzkyxlj8m0000gp/T//cc5rAUlf.s 			page 38


 2030              	.LASF284:
 2031 01b0 5F5F5544 		.ascii	"__UDQ_IBIT__ 0\000"
 2031      515F4942 
 2031      49545F5F 
 2031      203000
 2032              	.LASF466:
 2033 01bf 55494E54 		.ascii	"UINT64_C(x) __UINT64_C(x)\000"
 2033      36345F43 
 2033      28782920 
 2033      5F5F5549 
 2033      4E543634 
 2034              	.LASF507:
 2035 01d9 74656D70 		.ascii	"temp\000"
 2035      00
 2036              	.LASF428:
 2037 01de 55494E54 		.ascii	"UINT_LEAST32_MAX (__UINT_LEAST32_MAX__)\000"
 2037      5F4C4541 
 2037      53543332 
 2037      5F4D4158 
 2037      20285F5F 
 2038              	.LASF131:
 2039 0206 5F5F464C 		.ascii	"__FLT_MAX__ 3.4028234663852886e+38F\000"
 2039      545F4D41 
 2039      585F5F20 
 2039      332E3430 
 2039      32383233 
 2040              	.LASF140:
 2041 022a 5F5F4442 		.ascii	"__DBL_MIN_EXP__ (-1021)\000"
 2041      4C5F4D49 
 2041      4E5F4558 
 2041      505F5F20 
 2041      282D3130 
 2042              	.LASF309:
 2043 0242 5F5F4743 		.ascii	"__GCC_ATOMIC_CHAR16_T_LOCK_FREE 1\000"
 2043      435F4154 
 2043      4F4D4943 
 2043      5F434841 
 2043      5231365F 
 2044              	.LASF99:
 2045 0264 5F5F494E 		.ascii	"__INT_LEAST64_MAX__ 9223372036854775807LL\000"
 2045      545F4C45 
 2045      41535436 
 2045      345F4D41 
 2045      585F5F20 
 2046              	.LASF209:
 2047 028e 5F5F4C46 		.ascii	"__LFRACT_MIN__ (-0.5LR-0.5LR)\000"
 2047      52414354 
 2047      5F4D494E 
 2047      5F5F2028 
 2047      2D302E35 
 2048              	.LASF324:
 2049 02ac 5F5F4152 		.ascii	"__ARM_SIZEOF_WCHAR_T 4\000"
 2049      4D5F5349 
 2049      5A454F46 
 2049      5F574348 
 2049      41525F54 
 2050              	.LASF416:
ARM GAS  /var/folders/9j/_txx49hn253_s3mnzkyxlj8m0000gp/T//cc5rAUlf.s 			page 39


 2051 02c3 55494E54 		.ascii	"UINT_LEAST8_MAX (__UINT_LEAST8_MAX__)\000"
 2051      5F4C4541 
 2051      5354385F 
 2051      4D415820 
 2051      285F5F55 
 2052              	.LASF418:
 2053 02e9 494E5431 		.ascii	"INT16_MAX (__INT16_MAX__)\000"
 2053      365F4D41 
 2053      5820285F 
 2053      5F494E54 
 2053      31365F4D 
 2054              	.LASF321:
 2055 0303 5F5F5349 		.ascii	"__SIZEOF_WINT_T__ 4\000"
 2055      5A454F46 
 2055      5F57494E 
 2055      545F545F 
 2055      5F203400 
 2056              	.LASF355:
 2057 0317 5F5F474E 		.ascii	"__GNUC_PREREQ(maj,min) ((__GNUC__ << 16) + __GNUC_M"
 2057      55435F50 
 2057      52455245 
 2057      51286D61 
 2057      6A2C6D69 
 2058 034a 494E4F52 		.ascii	"INOR__ >= ((maj) << 16) + (min))\000"
 2058      5F5F203E 
 2058      3D202828 
 2058      6D616A29 
 2058      203C3C20 
 2059              	.LASF145:
 2060 036b 5F5F4442 		.ascii	"__DBL_MAX__ ((double)1.7976931348623157e+308L)\000"
 2060      4C5F4D41 
 2060      585F5F20 
 2060      2828646F 
 2060      75626C65 
 2061              	.LASF194:
 2062 039a 5F5F5553 		.ascii	"__USFRACT_MIN__ 0.0UHR\000"
 2062      46524143 
 2062      545F4D49 
 2062      4E5F5F20 
 2062      302E3055 
 2063              	.LASF444:
 2064 03b1 494E545F 		.ascii	"INT_FAST64_MIN (-__INT_FAST64_MAX__ - 1)\000"
 2064      46415354 
 2064      36345F4D 
 2064      494E2028 
 2064      2D5F5F49 
 2065              	.LASF500:
 2066 03da 756E7369 		.ascii	"unsigned int\000"
 2066      676E6564 
 2066      20696E74 
 2066      00
 2067              	.LASF414:
 2068 03e7 494E545F 		.ascii	"INT_LEAST8_MIN (-__INT_LEAST8_MAX__ - 1)\000"
 2068      4C454153 
 2068      54385F4D 
 2068      494E2028 
 2068      2D5F5F49 
ARM GAS  /var/folders/9j/_txx49hn253_s3mnzkyxlj8m0000gp/T//cc5rAUlf.s 			page 40


 2069              	.LASF458:
 2070 0410 57494E54 		.ascii	"WINT_MIN (__WINT_MIN__)\000"
 2070      5F4D494E 
 2070      20285F5F 
 2070      57494E54 
 2070      5F4D494E 
 2071              	.LASF104:
 2072 0428 5F5F5549 		.ascii	"__UINT16_C(c) c\000"
 2072      4E543136 
 2072      5F432863 
 2072      29206300 
 2073              	.LASF505:
 2074 0438 2F557365 		.ascii	"/Users/aheifetz/FSAE/ARM/PIO1_0_fail_demo\000"
 2074      72732F61 
 2074      68656966 
 2074      65747A2F 
 2074      46534145 
 2075              	.LASF21:
 2076 0462 5F5F5349 		.ascii	"__SIZEOF_SIZE_T__ 4\000"
 2076      5A454F46 
 2076      5F53495A 
 2076      455F545F 
 2076      5F203400 
 2077              	.LASF36:
 2078 0476 5F5F4348 		.ascii	"__CHAR16_TYPE__ short unsigned int\000"
 2078      41523136 
 2078      5F545950 
 2078      455F5F20 
 2078      73686F72 
 2079              	.LASF346:
 2080 0499 44454255 		.ascii	"DEBUG_ENABLE 1\000"
 2080      475F454E 
 2080      41424C45 
 2080      203100
 2081              	.LASF20:
 2082 04a8 5F5F5349 		.ascii	"__SIZEOF_LONG_DOUBLE__ 8\000"
 2082      5A454F46 
 2082      5F4C4F4E 
 2082      475F444F 
 2082      55424C45 
 2083              	.LASF2:
 2084 04c1 5F5F474E 		.ascii	"__GNUC__ 4\000"
 2084      55435F5F 
 2084      203400
 2085              	.LASF25:
 2086 04cc 5F5F4F52 		.ascii	"__ORDER_BIG_ENDIAN__ 4321\000"
 2086      4445525F 
 2086      4249475F 
 2086      454E4449 
 2086      414E5F5F 
 2087              	.LASF225:
 2088 04e6 5F5F554C 		.ascii	"__ULLFRACT_MAX__ 0XFFFFFFFFFFFFFFFFP-64ULLR\000"
 2088      4C465241 
 2088      43545F4D 
 2088      41585F5F 
 2088      20305846 
 2089              	.LASF183:
ARM GAS  /var/folders/9j/_txx49hn253_s3mnzkyxlj8m0000gp/T//cc5rAUlf.s 			page 41


 2090 0512 5F5F4445 		.ascii	"__DEC128_MIN__ 1E-6143DL\000"
 2090      43313238 
 2090      5F4D494E 
 2090      5F5F2031 
 2090      452D3631 
 2091              	.LASF379:
 2092 052b 73686F72 		.ascii	"short +1\000"
 2092      74202B31 
 2092      00
 2093              	.LASF301:
 2094 0534 5F5F5554 		.ascii	"__UTA_FBIT__ 64\000"
 2094      415F4642 
 2094      49545F5F 
 2094      20363400 
 2095              	.LASF138:
 2096 0544 5F5F4442 		.ascii	"__DBL_MANT_DIG__ 53\000"
 2096      4C5F4D41 
 2096      4E545F44 
 2096      49475F5F 
 2096      20353300 
 2097              	.LASF54:
 2098 0558 5F5F5549 		.ascii	"__UINT_LEAST64_TYPE__ long long unsigned int\000"
 2098      4E545F4C 
 2098      45415354 
 2098      36345F54 
 2098      5950455F 
 2099              	.LASF391:
 2100 0585 5F5F4C45 		.ascii	"__LEAST8 \"hh\"\000"
 2100      41535438 
 2100      20226868 
 2100      2200
 2101              	.LASF9:
 2102 0593 5F5F4154 		.ascii	"__ATOMIC_RELEASE 3\000"
 2102      4F4D4943 
 2102      5F52454C 
 2102      45415345 
 2102      203300
 2103              	.LASF78:
 2104 05a6 5F5F5349 		.ascii	"__SIZE_MAX__ 4294967295U\000"
 2104      5A455F4D 
 2104      41585F5F 
 2104      20343239 
 2104      34393637 
 2105              	.LASF306:
 2106 05bf 5F5F4348 		.ascii	"__CHAR_UNSIGNED__ 1\000"
 2106      41525F55 
 2106      4E534947 
 2106      4E45445F 
 2106      5F203100 
 2107              	.LASF40:
 2108 05d3 5F5F494E 		.ascii	"__INT16_TYPE__ short int\000"
 2108      5431365F 
 2108      54595045 
 2108      5F5F2073 
 2108      686F7274 
 2109              	.LASF171:
 2110 05ec 5F5F4445 		.ascii	"__DEC32_EPSILON__ 1E-6DF\000"
ARM GAS  /var/folders/9j/_txx49hn253_s3mnzkyxlj8m0000gp/T//cc5rAUlf.s 			page 42


 2110      4333325F 
 2110      45505349 
 2110      4C4F4E5F 
 2110      5F203145 
 2111              	.LASF153:
 2112 0605 5F5F4C44 		.ascii	"__LDBL_DIG__ 15\000"
 2112      424C5F44 
 2112      49475F5F 
 2112      20313500 
 2113              	.LASF12:
 2114 0615 5F5F4F50 		.ascii	"__OPTIMIZE__ 1\000"
 2114      54494D49 
 2114      5A455F5F 
 2114      203100
 2115              	.LASF70:
 2116 0624 5F5F494E 		.ascii	"__INT_MAX__ 2147483647\000"
 2116      545F4D41 
 2116      585F5F20 
 2116      32313437 
 2116      34383336 
 2117              	.LASF258:
 2118 063b 5F5F4C4C 		.ascii	"__LLACCUM_IBIT__ 32\000"
 2118      41434355 
 2118      4D5F4942 
 2118      49545F5F 
 2118      20333200 
 2119              	.LASF7:
 2120 064f 5F5F4154 		.ascii	"__ATOMIC_SEQ_CST 5\000"
 2120      4F4D4943 
 2120      5F534551 
 2120      5F435354 
 2120      203500
 2121              	.LASF96:
 2122 0662 5F5F494E 		.ascii	"__INT16_C(c) c\000"
 2122      5431365F 
 2122      43286329 
 2122      206300
 2123              	.LASF465:
 2124 0671 494E5436 		.ascii	"INT64_C(x) __INT64_C(x)\000"
 2124      345F4328 
 2124      7829205F 
 2124      5F494E54 
 2124      36345F43 
 2125              	.LASF17:
 2126 0689 5F5F5349 		.ascii	"__SIZEOF_SHORT__ 2\000"
 2126      5A454F46 
 2126      5F53484F 
 2126      52545F5F 
 2126      203200
 2127              	.LASF396:
 2128 069c 5F5F696E 		.ascii	"__int8_t_defined 1\000"
 2128      74385F74 
 2128      5F646566 
 2128      696E6564 
 2128      203100
 2129              	.LASF303:
 2130 06af 5F5F5245 		.ascii	"__REGISTER_PREFIX__ \000"
ARM GAS  /var/folders/9j/_txx49hn253_s3mnzkyxlj8m0000gp/T//cc5rAUlf.s 			page 43


 2130      47495354 
 2130      45525F50 
 2130      52454649 
 2130      585F5F20 
 2131              	.LASF82:
 2132 06c4 5F5F5549 		.ascii	"__UINTMAX_C(c) c ## ULL\000"
 2132      4E544D41 
 2132      585F4328 
 2132      63292063 
 2132      20232320 
 2133              	.LASF463:
 2134 06dc 494E5433 		.ascii	"INT32_C(x) __INT32_C(x)\000"
 2134      325F4328 
 2134      7829205F 
 2134      5F494E54 
 2134      33325F43 
 2135              	.LASF27:
 2136 06f4 5F5F4259 		.ascii	"__BYTE_ORDER__ __ORDER_LITTLE_ENDIAN__\000"
 2136      54455F4F 
 2136      52444552 
 2136      5F5F205F 
 2136      5F4F5244 
 2137              	.LASF101:
 2138 071b 5F5F5549 		.ascii	"__UINT_LEAST8_MAX__ 255\000"
 2138      4E545F4C 
 2138      45415354 
 2138      385F4D41 
 2138      585F5F20 
 2139              	.LASF208:
 2140 0733 5F5F4C46 		.ascii	"__LFRACT_IBIT__ 0\000"
 2140      52414354 
 2140      5F494249 
 2140      545F5F20 
 2140      3000
 2141              	.LASF452:
 2142 0745 5349475F 		.ascii	"SIG_ATOMIC_MAX (__STDINT_EXP(INT_MAX))\000"
 2142      41544F4D 
 2142      49435F4D 
 2142      41582028 
 2142      5F5F5354 
 2143              	.LASF327:
 2144 076c 5F5F4152 		.ascii	"__ARM_ARCH 6\000"
 2144      4D5F4152 
 2144      43482036 
 2144      00
 2145              	.LASF51:
 2146 0779 5F5F5549 		.ascii	"__UINT_LEAST8_TYPE__ unsigned char\000"
 2146      4E545F4C 
 2146      45415354 
 2146      385F5459 
 2146      50455F5F 
 2147              	.LASF409:
 2148 079c 494E5450 		.ascii	"INTPTR_MAX (__INTPTR_MAX__)\000"
 2148      54525F4D 
 2148      41582028 
 2148      5F5F494E 
 2148      54505452 
ARM GAS  /var/folders/9j/_txx49hn253_s3mnzkyxlj8m0000gp/T//cc5rAUlf.s 			page 44


 2149              	.LASF372:
 2150 07b8 756E7369 		.ascii	"unsigned\000"
 2150      676E6564 
 2150      00
 2151              	.LASF186:
 2152 07c1 5F5F4445 		.ascii	"__DEC128_SUBNORMAL_MIN__ 0.000000000000000000000000"
 2152      43313238 
 2152      5F535542 
 2152      4E4F524D 
 2152      414C5F4D 
 2153 07f4 30303030 		.ascii	"000000001E-6143DL\000"
 2153      30303030 
 2153      31452D36 
 2153      31343344 
 2153      4C00
 2154              	.LASF223:
 2155 0806 5F5F554C 		.ascii	"__ULLFRACT_IBIT__ 0\000"
 2155      4C465241 
 2155      43545F49 
 2155      4249545F 
 2155      5F203000 
 2156              	.LASF389:
 2157 081a 5F5F4641 		.ascii	"__FAST32 \000"
 2157      53543332 
 2157      2000
 2158              	.LASF6:
 2159 0824 5F5F4154 		.ascii	"__ATOMIC_RELAXED 0\000"
 2159      4F4D4943 
 2159      5F52454C 
 2159      41584544 
 2159      203000
 2160              	.LASF434:
 2161 0837 55494E54 		.ascii	"UINT_LEAST64_MAX (__UINT_LEAST64_MAX__)\000"
 2161      5F4C4541 
 2161      53543634 
 2161      5F4D4158 
 2161      20285F5F 
 2162              	.LASF440:
 2163 085f 55494E54 		.ascii	"UINT_FAST16_MAX (__UINT_FAST16_MAX__)\000"
 2163      5F464153 
 2163      5431365F 
 2163      4D415820 
 2163      285F5F55 
 2164              	.LASF66:
 2165 0885 5F5F6861 		.ascii	"__has_include_next(STR) __has_include_next__(STR)\000"
 2165      735F696E 
 2165      636C7564 
 2165      655F6E65 
 2165      78742853 
 2166              	.LASF249:
 2167 08b7 5F5F4C41 		.ascii	"__LACCUM_MIN__ (-0X1P31LK-0X1P31LK)\000"
 2167      4343554D 
 2167      5F4D494E 
 2167      5F5F2028 
 2167      2D305831 
 2168              	.LASF265:
 2169 08db 5F5F554C 		.ascii	"__ULLACCUM_MAX__ 0XFFFFFFFFFFFFFFFFP-32ULLK\000"
ARM GAS  /var/folders/9j/_txx49hn253_s3mnzkyxlj8m0000gp/T//cc5rAUlf.s 			page 45


 2169      4C414343 
 2169      554D5F4D 
 2169      41585F5F 
 2169      20305846 
 2170              	.LASF254:
 2171 0907 5F5F554C 		.ascii	"__ULACCUM_MIN__ 0.0ULK\000"
 2171      41434355 
 2171      4D5F4D49 
 2171      4E5F5F20 
 2171      302E3055 
 2172              	.LASF136:
 2173 091e 5F5F464C 		.ascii	"__FLT_HAS_INFINITY__ 1\000"
 2173      545F4841 
 2173      535F494E 
 2173      46494E49 
 2173      54595F5F 
 2174              	.LASF354:
 2175 0935 5F5F4E45 		.ascii	"__NEWLIB_MINOR__ 2\000"
 2175      574C4942 
 2175      5F4D494E 
 2175      4F525F5F 
 2175      203200
 2176              	.LASF331:
 2177 0948 5F5F4152 		.ascii	"__ARMEL__ 1\000"
 2177      4D454C5F 
 2177      5F203100 
 2178              	.LASF113:
 2179 0954 5F5F5549 		.ascii	"__UINT_FAST8_MAX__ 4294967295U\000"
 2179      4E545F46 
 2179      41535438 
 2179      5F4D4158 
 2179      5F5F2034 
 2180              	.LASF300:
 2181 0973 5F5F5544 		.ascii	"__UDA_IBIT__ 32\000"
 2181      415F4942 
 2181      49545F5F 
 2181      20333200 
 2182              	.LASF92:
 2183 0983 5F5F5549 		.ascii	"__UINT64_MAX__ 18446744073709551615ULL\000"
 2183      4E543634 
 2183      5F4D4158 
 2183      5F5F2031 
 2183      38343436 
 2184              	.LASF58:
 2185 09aa 5F5F494E 		.ascii	"__INT_FAST64_TYPE__ long long int\000"
 2185      545F4641 
 2185      53543634 
 2185      5F545950 
 2185      455F5F20 
 2186              	.LASF94:
 2187 09cc 5F5F494E 		.ascii	"__INT8_C(c) c\000"
 2187      54385F43 
 2187      28632920 
 2187      6300
 2188              	.LASF492:
 2189 09da 7369676E 		.ascii	"signed char\000"
 2189      65642063 
ARM GAS  /var/folders/9j/_txx49hn253_s3mnzkyxlj8m0000gp/T//cc5rAUlf.s 			page 46


 2189      68617200 
 2190              	.LASF378:
 2191 09e6 63686172 		.ascii	"char +0\000"
 2191      202B3000 
 2192              	.LASF394:
 2193 09ee 5F5F4C45 		.ascii	"__LEAST64 \"ll\"\000"
 2193      41535436 
 2193      3420226C 
 2193      6C2200
 2194              	.LASF264:
 2195 09fd 5F5F554C 		.ascii	"__ULLACCUM_MIN__ 0.0ULLK\000"
 2195      4C414343 
 2195      554D5F4D 
 2195      494E5F5F 
 2195      20302E30 
 2196              	.LASF469:
 2197 0a16 5F474343 		.ascii	"_GCC_WRAP_STDINT_H \000"
 2197      5F575241 
 2197      505F5354 
 2197      44494E54 
 2197      5F482000 
 2198              	.LASF380:
 2199 0a2a 696E7420 		.ascii	"int +2\000"
 2199      2B3200
 2200              	.LASF471:
 2201 0a31 626F6F6C 		.ascii	"bool _Bool\000"
 2201      205F426F 
 2201      6F6C00
 2202              	.LASF64:
 2203 0a3c 5F5F5549 		.ascii	"__UINTPTR_TYPE__ unsigned int\000"
 2203      4E545054 
 2203      525F5459 
 2203      50455F5F 
 2203      20756E73 
 2204              	.LASF395:
 2205 0a5a 5F535953 		.ascii	"_SYS__STDINT_H \000"
 2205      5F5F5354 
 2205      44494E54 
 2205      5F482000 
 2206              	.LASF290:
 2207 0a6a 5F5F5341 		.ascii	"__SA_IBIT__ 16\000"
 2207      5F494249 
 2207      545F5F20 
 2207      313600
 2208              	.LASF220:
 2209 0a79 5F5F4C4C 		.ascii	"__LLFRACT_MAX__ 0X7FFFFFFFFFFFFFFFP-63LLR\000"
 2209      46524143 
 2209      545F4D41 
 2209      585F5F20 
 2209      30583746 
 2210              	.LASF125:
 2211 0aa3 5F5F464C 		.ascii	"__FLT_DIG__ 6\000"
 2211      545F4449 
 2211      475F5F20 
 2211      3600
 2212              	.LASF147:
 2213 0ab1 5F5F4442 		.ascii	"__DBL_EPSILON__ ((double)2.2204460492503131e-16L)\000"
ARM GAS  /var/folders/9j/_txx49hn253_s3mnzkyxlj8m0000gp/T//cc5rAUlf.s 			page 47


 2213      4C5F4550 
 2213      53494C4F 
 2213      4E5F5F20 
 2213      2828646F 
 2214              	.LASF375:
 2215 0ae3 6C6F6E67 		.ascii	"long\000"
 2215      00
 2216              	.LASF291:
 2217 0ae8 5F5F4441 		.ascii	"__DA_FBIT__ 31\000"
 2217      5F464249 
 2217      545F5F20 
 2217      333100
 2218              	.LASF323:
 2219 0af7 5F5F4152 		.ascii	"__ARM_SIZEOF_MINIMAL_ENUM 1\000"
 2219      4D5F5349 
 2219      5A454F46 
 2219      5F4D494E 
 2219      494D414C 
 2220              	.LASF343:
 2221 0b13 5F5F5553 		.ascii	"__USES_INITFINI__ 1\000"
 2221      45535F49 
 2221      4E495446 
 2221      494E495F 
 2221      5F203100 
 2222              	.LASF169:
 2223 0b27 5F5F4445 		.ascii	"__DEC32_MIN__ 1E-95DF\000"
 2223      4333325F 
 2223      4D494E5F 
 2223      5F203145 
 2223      2D393544 
 2224              	.LASF5:
 2225 0b3d 5F5F5645 		.ascii	"__VERSION__ \"4.9.3 20150529 (release) [ARM/embedde"
 2225      5253494F 
 2225      4E5F5F20 
 2225      22342E39 
 2225      2E332032 
 2226 0b6f 642D345F 		.ascii	"d-4_9-branch revision 227977]\"\000"
 2226      392D6272 
 2226      616E6368 
 2226      20726576 
 2226      6973696F 
 2227              	.LASF376:
 2228 0b8e 7369676E 		.ascii	"signed +0\000"
 2228      6564202B 
 2228      3000
 2229              	.LASF236:
 2230 0b98 5F5F5553 		.ascii	"__USACCUM_EPSILON__ 0x1P-8UHK\000"
 2230      41434355 
 2230      4D5F4550 
 2230      53494C4F 
 2230      4E5F5F20 
 2231              	.LASF358:
 2232 0bb6 5F5F5F69 		.ascii	"___int8_t_defined 1\000"
 2232      6E74385F 
 2232      745F6465 
 2232      66696E65 
 2232      64203100 
ARM GAS  /var/folders/9j/_txx49hn253_s3mnzkyxlj8m0000gp/T//cc5rAUlf.s 			page 48


 2233              	.LASF425:
 2234 0bca 55494E54 		.ascii	"UINT32_MAX (__UINT32_MAX__)\000"
 2234      33325F4D 
 2234      41582028 
 2234      5F5F5549 
 2234      4E543332 
 2235              	.LASF255:
 2236 0be6 5F5F554C 		.ascii	"__ULACCUM_MAX__ 0XFFFFFFFFFFFFFFFFP-32ULK\000"
 2236      41434355 
 2236      4D5F4D41 
 2236      585F5F20 
 2236      30584646 
 2237              	.LASF205:
 2238 0c10 5F5F5546 		.ascii	"__UFRACT_MAX__ 0XFFFFP-16UR\000"
 2238      52414354 
 2238      5F4D4158 
 2238      5F5F2030 
 2238      58464646 
 2239              	.LASF190:
 2240 0c2c 5F5F5346 		.ascii	"__SFRACT_MAX__ 0X7FP-7HR\000"
 2240      52414354 
 2240      5F4D4158 
 2240      5F5F2030 
 2240      58374650 
 2241              	.LASF340:
 2242 0c45 5F5F4152 		.ascii	"__ARM_EABI__ 1\000"
 2242      4D5F4541 
 2242      42495F5F 
 2242      203100
 2243              	.LASF352:
 2244 0c54 5F535953 		.ascii	"_SYS_FEATURES_H \000"
 2244      5F464541 
 2244      54555245 
 2244      535F4820 
 2244      00
 2245              	.LASF499:
 2246 0c65 6C6F6E67 		.ascii	"long long unsigned int\000"
 2246      206C6F6E 
 2246      6720756E 
 2246      7369676E 
 2246      65642069 
 2247              	.LASF487:
 2248 0c7c 554E5553 		.ascii	"UNUSED(x) (void)(x)\000"
 2248      45442878 
 2248      29202876 
 2248      6F696429 
 2248      28782900 
 2249              	.LASF181:
 2250 0c90 5F5F4445 		.ascii	"__DEC128_MIN_EXP__ (-6142)\000"
 2250      43313238 
 2250      5F4D494E 
 2250      5F455850 
 2250      5F5F2028 
 2251              	.LASF216:
 2252 0cab 5F5F554C 		.ascii	"__ULFRACT_EPSILON__ 0x1P-32ULR\000"
 2252      46524143 
 2252      545F4550 
ARM GAS  /var/folders/9j/_txx49hn253_s3mnzkyxlj8m0000gp/T//cc5rAUlf.s 			page 49


 2252      53494C4F 
 2252      4E5F5F20 
 2253              	.LASF49:
 2254 0cca 5F5F494E 		.ascii	"__INT_LEAST32_TYPE__ long int\000"
 2254      545F4C45 
 2254      41535433 
 2254      325F5459 
 2254      50455F5F 
 2255              	.LASF111:
 2256 0ce8 5F5F494E 		.ascii	"__INT_FAST32_MAX__ 2147483647\000"
 2256      545F4641 
 2256      53543332 
 2256      5F4D4158 
 2256      5F5F2032 
 2257              	.LASF213:
 2258 0d06 5F5F554C 		.ascii	"__ULFRACT_IBIT__ 0\000"
 2258      46524143 
 2258      545F4942 
 2258      49545F5F 
 2258      203000
 2259              	.LASF286:
 2260 0d19 5F5F5554 		.ascii	"__UTQ_IBIT__ 0\000"
 2260      515F4942 
 2260      49545F5F 
 2260      203000
 2261              	.LASF353:
 2262 0d28 5F5F4E45 		.ascii	"__NEWLIB__ 2\000"
 2262      574C4942 
 2262      5F5F2032 
 2262      00
 2263              	.LASF134:
 2264 0d35 5F5F464C 		.ascii	"__FLT_DENORM_MIN__ 1.4012984643248171e-45F\000"
 2264      545F4445 
 2264      4E4F524D 
 2264      5F4D494E 
 2264      5F5F2031 
 2265              	.LASF504:
 2266 0d60 2E2E2F6C 		.ascii	"../lpc11cx4-library/evt_lib/src/util.c\000"
 2266      70633131 
 2266      6378342D 
 2266      6C696272 
 2266      6172792F 
 2267              	.LASF224:
 2268 0d87 5F5F554C 		.ascii	"__ULLFRACT_MIN__ 0.0ULLR\000"
 2268      4C465241 
 2268      43545F4D 
 2268      494E5F5F 
 2268      20302E30 
 2269              	.LASF107:
 2270 0da0 5F5F5549 		.ascii	"__UINT_LEAST64_MAX__ 18446744073709551615ULL\000"
 2270      4E545F4C 
 2270      45415354 
 2270      36345F4D 
 2270      41585F5F 
 2271              	.LASF244:
 2272 0dcd 5F5F5541 		.ascii	"__UACCUM_MIN__ 0.0UK\000"
 2272      4343554D 
ARM GAS  /var/folders/9j/_txx49hn253_s3mnzkyxlj8m0000gp/T//cc5rAUlf.s 			page 50


 2272      5F4D494E 
 2272      5F5F2030 
 2272      2E30554B 
 2273              	.LASF211:
 2274 0de2 5F5F4C46 		.ascii	"__LFRACT_EPSILON__ 0x1P-31LR\000"
 2274      52414354 
 2274      5F455053 
 2274      494C4F4E 
 2274      5F5F2030 
 2275              	.LASF55:
 2276 0dff 5F5F494E 		.ascii	"__INT_FAST8_TYPE__ int\000"
 2276      545F4641 
 2276      5354385F 
 2276      54595045 
 2276      5F5F2069 
 2277              	.LASF421:
 2278 0e16 494E545F 		.ascii	"INT_LEAST16_MAX (__INT_LEAST16_MAX__)\000"
 2278      4C454153 
 2278      5431365F 
 2278      4D415820 
 2278      285F5F49 
 2279              	.LASF60:
 2280 0e3c 5F5F5549 		.ascii	"__UINT_FAST16_TYPE__ unsigned int\000"
 2280      4E545F46 
 2280      41535431 
 2280      365F5459 
 2280      50455F5F 
 2281              	.LASF481:
 2282 0e5e 5F424954 		.ascii	"_BITMASK\000"
 2282      4D41534B 
 2282      00
 2283              	.LASF344:
 2284 0e67 55415254 		.ascii	"UART_BAUD 115200\000"
 2284      5F424155 
 2284      44203131 
 2284      35323030 
 2284      00
 2285              	.LASF227:
 2286 0e78 5F5F5341 		.ascii	"__SACCUM_FBIT__ 7\000"
 2286      4343554D 
 2286      5F464249 
 2286      545F5F20 
 2286      3700
 2287              	.LASF449:
 2288 0e8a 55494E54 		.ascii	"UINTMAX_MAX (__UINTMAX_MAX__)\000"
 2288      4D41585F 
 2288      4D415820 
 2288      285F5F55 
 2288      494E544D 
 2289              	.LASF325:
 2290 0ea8 5F5F4152 		.ascii	"__ARM_ARCH_PROFILE 77\000"
 2290      4D5F4152 
 2290      43485F50 
 2290      524F4649 
 2290      4C452037 
 2291              	.LASF490:
 2292 0ebe 494E4C49 		.ascii	"INLINE inline\000"
ARM GAS  /var/folders/9j/_txx49hn253_s3mnzkyxlj8m0000gp/T//cc5rAUlf.s 			page 51


 2292      4E452069 
 2292      6E6C696E 
 2292      6500
 2293              	.LASF177:
 2294 0ecc 5F5F4445 		.ascii	"__DEC64_MAX__ 9.999999999999999E384DD\000"
 2294      4336345F 
 2294      4D41585F 
 2294      5F20392E 
 2294      39393939 
 2295              	.LASF199:
 2296 0ef2 5F5F4652 		.ascii	"__FRACT_MIN__ (-0.5R-0.5R)\000"
 2296      4143545F 
 2296      4D494E5F 
 2296      5F20282D 
 2296      302E3552 
 2297              	.LASF313:
 2298 0f0d 5F5F4743 		.ascii	"__GCC_ATOMIC_INT_LOCK_FREE 1\000"
 2298      435F4154 
 2298      4F4D4943 
 2298      5F494E54 
 2298      5F4C4F43 
 2299              	.LASF246:
 2300 0f2a 5F5F5541 		.ascii	"__UACCUM_EPSILON__ 0x1P-16UK\000"
 2300      4343554D 
 2300      5F455053 
 2300      494C4F4E 
 2300      5F5F2030 
 2301              	.LASF238:
 2302 0f47 5F5F4143 		.ascii	"__ACCUM_IBIT__ 16\000"
 2302      43554D5F 
 2302      49424954 
 2302      5F5F2031 
 2302      3600
 2303              	.LASF162:
 2304 0f59 5F5F4C44 		.ascii	"__LDBL_DENORM_MIN__ 4.9406564584124654e-324L\000"
 2304      424C5F44 
 2304      454E4F52 
 2304      4D5F4D49 
 2304      4E5F5F20 
 2305              	.LASF24:
 2306 0f86 5F5F4F52 		.ascii	"__ORDER_LITTLE_ENDIAN__ 1234\000"
 2306      4445525F 
 2306      4C495454 
 2306      4C455F45 
 2306      4E444941 
 2307              	.LASF322:
 2308 0fa3 5F5F5349 		.ascii	"__SIZEOF_PTRDIFF_T__ 4\000"
 2308      5A454F46 
 2308      5F505452 
 2308      44494646 
 2308      5F545F5F 
 2309              	.LASF189:
 2310 0fba 5F5F5346 		.ascii	"__SFRACT_MIN__ (-0.5HR-0.5HR)\000"
 2310      52414354 
 2310      5F4D494E 
 2310      5F5F2028 
 2310      2D302E35 
ARM GAS  /var/folders/9j/_txx49hn253_s3mnzkyxlj8m0000gp/T//cc5rAUlf.s 			page 52


 2311              	.LASF298:
 2312 0fd8 5F5F5553 		.ascii	"__USA_IBIT__ 16\000"
 2312      415F4942 
 2312      49545F5F 
 2312      20313600 
 2313              	.LASF218:
 2314 0fe8 5F5F4C4C 		.ascii	"__LLFRACT_IBIT__ 0\000"
 2314      46524143 
 2314      545F4942 
 2314      49545F5F 
 2314      203000
 2315              	.LASF361:
 2316 0ffb 5F5F5F69 		.ascii	"___int64_t_defined 1\000"
 2316      6E743634 
 2316      5F745F64 
 2316      6566696E 
 2316      65642031 
 2317              	.LASF180:
 2318 1010 5F5F4445 		.ascii	"__DEC128_MANT_DIG__ 34\000"
 2318      43313238 
 2318      5F4D414E 
 2318      545F4449 
 2318      475F5F20 
 2319              	.LASF461:
 2320 1027 494E5431 		.ascii	"INT16_C(x) __INT16_C(x)\000"
 2320      365F4328 
 2320      7829205F 
 2320      5F494E54 
 2320      31365F43 
 2321              	.LASF350:
 2322 103f 5F535444 		.ascii	"_STDINT_H \000"
 2322      494E545F 
 2322      482000
 2323              	.LASF18:
 2324 104a 5F5F5349 		.ascii	"__SIZEOF_FLOAT__ 4\000"
 2324      5A454F46 
 2324      5F464C4F 
 2324      41545F5F 
 2324      203400
 2325              	.LASF106:
 2326 105d 5F5F5549 		.ascii	"__UINT32_C(c) c ## UL\000"
 2326      4E543332 
 2326      5F432863 
 2326      29206320 
 2326      23232055 
 2327              	.LASF168:
 2328 1073 5F5F4445 		.ascii	"__DEC32_MAX_EXP__ 97\000"
 2328      4333325F 
 2328      4D41585F 
 2328      4558505F 
 2328      5F203937 
 2329              	.LASF484:
 2330 1088 4E454C45 		.ascii	"NELEMENTS(array) (sizeof(array) / sizeof(array[0]))"
 2330      4D454E54 
 2330      53286172 
 2330      72617929 
 2330      20287369 
ARM GAS  /var/folders/9j/_txx49hn253_s3mnzkyxlj8m0000gp/T//cc5rAUlf.s 			page 53


 2331 10bb 00       		.ascii	"\000"
 2332              	.LASF441:
 2333 10bc 494E545F 		.ascii	"INT_FAST32_MIN (-__INT_FAST32_MAX__ - 1)\000"
 2333      46415354 
 2333      33325F4D 
 2333      494E2028 
 2333      2D5F5F49 
 2334              	.LASF348:
 2335 10e5 5F555449 		.ascii	"_UTIL_H_ \000"
 2335      4C5F485F 
 2335      2000
 2336              	.LASF470:
 2337 10ef 5F535444 		.ascii	"_STDBOOL_H \000"
 2337      424F4F4C 
 2337      5F482000 
 2338              	.LASF419:
 2339 10fb 55494E54 		.ascii	"UINT16_MAX (__UINT16_MAX__)\000"
 2339      31365F4D 
 2339      41582028 
 2339      5F5F5549 
 2339      4E543136 
 2340              	.LASF332:
 2341 1117 5F5F5448 		.ascii	"__THUMBEL__ 1\000"
 2341      554D4245 
 2341      4C5F5F20 
 2341      3100
 2342              	.LASF399:
 2343 1125 5F5F696E 		.ascii	"__int64_t_defined 1\000"
 2343      7436345F 
 2343      745F6465 
 2343      66696E65 
 2343      64203100 
 2344              	.LASF427:
 2345 1139 494E545F 		.ascii	"INT_LEAST32_MAX (__INT_LEAST32_MAX__)\000"
 2345      4C454153 
 2345      5433325F 
 2345      4D415820 
 2345      285F5F49 
 2346              	.LASF292:
 2347 115f 5F5F4441 		.ascii	"__DA_IBIT__ 32\000"
 2347      5F494249 
 2347      545F5F20 
 2347      333200
 2348              	.LASF23:
 2349 116e 5F5F4249 		.ascii	"__BIGGEST_ALIGNMENT__ 8\000"
 2349      47474553 
 2349      545F414C 
 2349      49474E4D 
 2349      454E545F 
 2350              	.LASF248:
 2351 1186 5F5F4C41 		.ascii	"__LACCUM_IBIT__ 32\000"
 2351      4343554D 
 2351      5F494249 
 2351      545F5F20 
 2351      333200
 2352              	.LASF95:
 2353 1199 5F5F494E 		.ascii	"__INT_LEAST16_MAX__ 32767\000"
ARM GAS  /var/folders/9j/_txx49hn253_s3mnzkyxlj8m0000gp/T//cc5rAUlf.s 			page 54


 2353      545F4C45 
 2353      41535431 
 2353      365F4D41 
 2353      585F5F20 
 2354              	.LASF195:
 2355 11b3 5F5F5553 		.ascii	"__USFRACT_MAX__ 0XFFP-8UHR\000"
 2355      46524143 
 2355      545F4D41 
 2355      585F5F20 
 2355      30584646 
 2356              	.LASF472:
 2357 11ce 74727565 		.ascii	"true 1\000"
 2357      203100
 2358              	.LASF359:
 2359 11d5 5F5F5F69 		.ascii	"___int16_t_defined 1\000"
 2359      6E743136 
 2359      5F745F64 
 2359      6566696E 
 2359      65642031 
 2360              	.LASF259:
 2361 11ea 5F5F4C4C 		.ascii	"__LLACCUM_MIN__ (-0X1P31LLK-0X1P31LLK)\000"
 2361      41434355 
 2361      4D5F4D49 
 2361      4E5F5F20 
 2361      282D3058 
 2362              	.LASF67:
 2363 1211 5F5F4758 		.ascii	"__GXX_ABI_VERSION 1002\000"
 2363      585F4142 
 2363      495F5645 
 2363      5253494F 
 2363      4E203130 
 2364              	.LASF392:
 2365 1228 5F5F4C45 		.ascii	"__LEAST16 \"h\"\000"
 2365      41535431 
 2365      36202268 
 2365      2200
 2366              	.LASF289:
 2367 1236 5F5F5341 		.ascii	"__SA_FBIT__ 15\000"
 2367      5F464249 
 2367      545F5F20 
 2367      313500
 2368              	.LASF231:
 2369 1245 5F5F5341 		.ascii	"__SACCUM_EPSILON__ 0x1P-7HK\000"
 2369      4343554D 
 2369      5F455053 
 2369      494C4F4E 
 2369      5F5F2030 
 2370              	.LASF360:
 2371 1261 5F5F5F69 		.ascii	"___int32_t_defined 1\000"
 2371      6E743332 
 2371      5F745F64 
 2371      6566696E 
 2371      65642031 
 2372              	.LASF56:
 2373 1276 5F5F494E 		.ascii	"__INT_FAST16_TYPE__ int\000"
 2373      545F4641 
 2373      53543136 
ARM GAS  /var/folders/9j/_txx49hn253_s3mnzkyxlj8m0000gp/T//cc5rAUlf.s 			page 55


 2373      5F545950 
 2373      455F5F20 
 2374              	.LASF489:
 2375 128e 4D494E28 		.ascii	"MIN(a,b) (((a) < (b)) ? (a) : (b))\000"
 2375      612C6229 
 2375      20282828 
 2375      6129203C 
 2375      20286229 
 2376              	.LASF44:
 2377 12b1 5F5F5549 		.ascii	"__UINT16_TYPE__ short unsigned int\000"
 2377      4E543136 
 2377      5F545950 
 2377      455F5F20 
 2377      73686F72 
 2378              	.LASF3:
 2379 12d4 5F5F474E 		.ascii	"__GNUC_MINOR__ 9\000"
 2379      55435F4D 
 2379      494E4F52 
 2379      5F5F2039 
 2379      00
 2380              	.LASF308:
 2381 12e5 5F5F4743 		.ascii	"__GCC_ATOMIC_CHAR_LOCK_FREE 1\000"
 2381      435F4154 
 2381      4F4D4943 
 2381      5F434841 
 2381      525F4C4F 
 2382              	.LASF280:
 2383 1303 5F5F5548 		.ascii	"__UHQ_IBIT__ 0\000"
 2383      515F4942 
 2383      49545F5F 
 2383      203000
 2384              	.LASF420:
 2385 1312 494E545F 		.ascii	"INT_LEAST16_MIN (-__INT_LEAST16_MAX__ - 1)\000"
 2385      4C454153 
 2385      5431365F 
 2385      4D494E20 
 2385      282D5F5F 
 2386              	.LASF47:
 2387 133d 5F5F494E 		.ascii	"__INT_LEAST8_TYPE__ signed char\000"
 2387      545F4C45 
 2387      41535438 
 2387      5F545950 
 2387      455F5F20 
 2388              	.LASF390:
 2389 135d 5F5F4641 		.ascii	"__FAST64 \"ll\"\000"
 2389      53543634 
 2389      20226C6C 
 2389      2200
 2390              	.LASF42:
 2391 136b 5F5F494E 		.ascii	"__INT64_TYPE__ long long int\000"
 2391      5436345F 
 2391      54595045 
 2391      5F5F206C 
 2391      6F6E6720 
 2392              	.LASF129:
 2393 1388 5F5F464C 		.ascii	"__FLT_MAX_10_EXP__ 38\000"
 2393      545F4D41 
ARM GAS  /var/folders/9j/_txx49hn253_s3mnzkyxlj8m0000gp/T//cc5rAUlf.s 			page 56


 2393      585F3130 
 2393      5F455850 
 2393      5F5F2033 
 2394              	.LASF388:
 2395 139e 5F5F4641 		.ascii	"__FAST16 \000"
 2395      53543136 
 2395      2000
 2396              	.LASF260:
 2397 13a8 5F5F4C4C 		.ascii	"__LLACCUM_MAX__ 0X7FFFFFFFFFFFFFFFP-31LLK\000"
 2397      41434355 
 2397      4D5F4D41 
 2397      585F5F20 
 2397      30583746 
 2398              	.LASF261:
 2399 13d2 5F5F4C4C 		.ascii	"__LLACCUM_EPSILON__ 0x1P-31LLK\000"
 2399      41434355 
 2399      4D5F4550 
 2399      53494C4F 
 2399      4E5F5F20 
 2400              	.LASF374:
 2401 13f1 73686F72 		.ascii	"short\000"
 2401      7400
 2402              	.LASF433:
 2403 13f7 494E545F 		.ascii	"INT_LEAST64_MAX (__INT_LEAST64_MAX__)\000"
 2403      4C454153 
 2403      5436345F 
 2403      4D415820 
 2403      285F5F49 
 2404              	.LASF214:
 2405 141d 5F5F554C 		.ascii	"__ULFRACT_MIN__ 0.0ULR\000"
 2405      46524143 
 2405      545F4D49 
 2405      4E5F5F20 
 2405      302E3055 
 2406              	.LASF124:
 2407 1434 5F5F464C 		.ascii	"__FLT_MANT_DIG__ 24\000"
 2407      545F4D41 
 2407      4E545F44 
 2407      49475F5F 
 2407      20323400 
 2408              	.LASF386:
 2409 1448 5F5F494E 		.ascii	"__INT64 \"ll\"\000"
 2409      54363420 
 2409      226C6C22 
 2409      00
 2410              	.LASF282:
 2411 1455 5F5F5553 		.ascii	"__USQ_IBIT__ 0\000"
 2411      515F4942 
 2411      49545F5F 
 2411      203000
 2412              	.LASF435:
 2413 1464 494E545F 		.ascii	"INT_FAST8_MIN (-__INT_FAST8_MAX__ - 1)\000"
 2413      46415354 
 2413      385F4D49 
 2413      4E20282D 
 2413      5F5F494E 
 2414              	.LASF151:
ARM GAS  /var/folders/9j/_txx49hn253_s3mnzkyxlj8m0000gp/T//cc5rAUlf.s 			page 57


 2415 148b 5F5F4442 		.ascii	"__DBL_HAS_QUIET_NAN__ 1\000"
 2415      4C5F4841 
 2415      535F5155 
 2415      4945545F 
 2415      4E414E5F 
 2416              	.LASF243:
 2417 14a3 5F5F5541 		.ascii	"__UACCUM_IBIT__ 16\000"
 2417      4343554D 
 2417      5F494249 
 2417      545F5F20 
 2417      313600
 2418              	.LASF122:
 2419 14b6 5F5F4445 		.ascii	"__DEC_EVAL_METHOD__ 2\000"
 2419      435F4556 
 2419      414C5F4D 
 2419      4554484F 
 2419      445F5F20 
 2420              	.LASF141:
 2421 14cc 5F5F4442 		.ascii	"__DBL_MIN_10_EXP__ (-307)\000"
 2421      4C5F4D49 
 2421      4E5F3130 
 2421      5F455850 
 2421      5F5F2028 
 2422              	.LASF233:
 2423 14e6 5F5F5553 		.ascii	"__USACCUM_IBIT__ 8\000"
 2423      41434355 
 2423      4D5F4942 
 2423      49545F5F 
 2423      203800
 2424              	.LASF91:
 2425 14f9 5F5F5549 		.ascii	"__UINT32_MAX__ 4294967295UL\000"
 2425      4E543332 
 2425      5F4D4158 
 2425      5F5F2034 
 2425      32393439 
 2426              	.LASF135:
 2427 1515 5F5F464C 		.ascii	"__FLT_HAS_DENORM__ 1\000"
 2427      545F4841 
 2427      535F4445 
 2427      4E4F524D 
 2427      5F5F2031 
 2428              	.LASF337:
 2429 152a 5F5F5448 		.ascii	"__THUMB_INTERWORK__ 1\000"
 2429      554D425F 
 2429      494E5445 
 2429      52574F52 
 2429      4B5F5F20 
 2430              	.LASF197:
 2431 1540 5F5F4652 		.ascii	"__FRACT_FBIT__ 15\000"
 2431      4143545F 
 2431      46424954 
 2431      5F5F2031 
 2431      3500
 2432              	.LASF365:
 2433 1552 5F5F5F69 		.ascii	"___int_least64_t_defined 1\000"
 2433      6E745F6C 
 2433      65617374 
ARM GAS  /var/folders/9j/_txx49hn253_s3mnzkyxlj8m0000gp/T//cc5rAUlf.s 			page 58


 2433      36345F74 
 2433      5F646566 
 2434              	.LASF121:
 2435 156d 5F5F464C 		.ascii	"__FLT_EVAL_METHOD__ 0\000"
 2435      545F4556 
 2435      414C5F4D 
 2435      4554484F 
 2435      445F5F20 
 2436              	.LASF477:
 2437 1583 5F424954 		.ascii	"_BIT\000"
 2437      00
 2438              	.LASF59:
 2439 1588 5F5F5549 		.ascii	"__UINT_FAST8_TYPE__ unsigned int\000"
 2439      4E545F46 
 2439      41535438 
 2439      5F545950 
 2439      455F5F20 
 2440              	.LASF237:
 2441 15a9 5F5F4143 		.ascii	"__ACCUM_FBIT__ 15\000"
 2441      43554D5F 
 2441      46424954 
 2441      5F5F2031 
 2441      3500
 2442              	.LASF311:
 2443 15bb 5F5F4743 		.ascii	"__GCC_ATOMIC_WCHAR_T_LOCK_FREE 1\000"
 2443      435F4154 
 2443      4F4D4943 
 2443      5F574348 
 2443      41525F54 
 2444              	.LASF174:
 2445 15dc 5F5F4445 		.ascii	"__DEC64_MIN_EXP__ (-382)\000"
 2445      4336345F 
 2445      4D494E5F 
 2445      4558505F 
 2445      5F20282D 
 2446              	.LASF253:
 2447 15f5 5F5F554C 		.ascii	"__ULACCUM_IBIT__ 32\000"
 2447      41434355 
 2447      4D5F4942 
 2447      49545F5F 
 2447      20333200 
 2448              	.LASF456:
 2449 1609 57434841 		.ascii	"WCHAR_MAX (__WCHAR_MAX__)\000"
 2449      525F4D41 
 2449      5820285F 
 2449      5F574348 
 2449      41525F4D 
 2450              	.LASF217:
 2451 1623 5F5F4C4C 		.ascii	"__LLFRACT_FBIT__ 63\000"
 2451      46524143 
 2451      545F4642 
 2451      49545F5F 
 2451      20363300 
 2452              	.LASF297:
 2453 1637 5F5F5553 		.ascii	"__USA_FBIT__ 16\000"
 2453      415F4642 
 2453      49545F5F 
ARM GAS  /var/folders/9j/_txx49hn253_s3mnzkyxlj8m0000gp/T//cc5rAUlf.s 			page 59


 2453      20313600 
 2454              	.LASF426:
 2455 1647 494E545F 		.ascii	"INT_LEAST32_MIN (-__INT_LEAST32_MAX__ - 1)\000"
 2455      4C454153 
 2455      5433325F 
 2455      4D494E20 
 2455      282D5F5F 
 2456              	.LASF431:
 2457 1672 55494E54 		.ascii	"UINT64_MAX (__UINT64_MAX__)\000"
 2457      36345F4D 
 2457      41582028 
 2457      5F5F5549 
 2457      4E543634 
 2458              	.LASF363:
 2459 168e 5F5F5F69 		.ascii	"___int_least16_t_defined 1\000"
 2459      6E745F6C 
 2459      65617374 
 2459      31365F74 
 2459      5F646566 
 2460              	.LASF97:
 2461 16a9 5F5F494E 		.ascii	"__INT_LEAST32_MAX__ 2147483647L\000"
 2461      545F4C45 
 2461      41535433 
 2461      325F4D41 
 2461      585F5F20 
 2462              	.LASF170:
 2463 16c9 5F5F4445 		.ascii	"__DEC32_MAX__ 9.999999E96DF\000"
 2463      4333325F 
 2463      4D41585F 
 2463      5F20392E 
 2463      39393939 
 2464              	.LASF207:
 2465 16e5 5F5F4C46 		.ascii	"__LFRACT_FBIT__ 31\000"
 2465      52414354 
 2465      5F464249 
 2465      545F5F20 
 2465      333100
 2466              	.LASF48:
 2467 16f8 5F5F494E 		.ascii	"__INT_LEAST16_TYPE__ short int\000"
 2467      545F4C45 
 2467      41535431 
 2467      365F5459 
 2467      50455F5F 
 2468              	.LASF506:
 2469 1717 5F5F7265 		.ascii	"__reverse\000"
 2469      76657273 
 2469      6500
 2470              	.LASF139:
 2471 1721 5F5F4442 		.ascii	"__DBL_DIG__ 15\000"
 2471      4C5F4449 
 2471      475F5F20 
 2471      313500
 2472              	.LASF364:
 2473 1730 5F5F5F69 		.ascii	"___int_least32_t_defined 1\000"
 2473      6E745F6C 
 2473      65617374 
 2473      33325F74 
ARM GAS  /var/folders/9j/_txx49hn253_s3mnzkyxlj8m0000gp/T//cc5rAUlf.s 			page 60


 2473      5F646566 
 2474              	.LASF247:
 2475 174b 5F5F4C41 		.ascii	"__LACCUM_FBIT__ 31\000"
 2475      4343554D 
 2475      5F464249 
 2475      545F5F20 
 2475      333100
 2476              	.LASF206:
 2477 175e 5F5F5546 		.ascii	"__UFRACT_EPSILON__ 0x1P-16UR\000"
 2477      52414354 
 2477      5F455053 
 2477      494C4F4E 
 2477      5F5F2030 
 2478              	.LASF314:
 2479 177b 5F5F4743 		.ascii	"__GCC_ATOMIC_LONG_LOCK_FREE 1\000"
 2479      435F4154 
 2479      4F4D4943 
 2479      5F4C4F4E 
 2479      475F4C4F 
 2480              	.LASF475:
 2481 1799 50415241 		.ascii	"PARAM_SETSTATE(State) ((State == RESET) || (State ="
 2481      4D5F5345 
 2481      54535441 
 2481      54452853 
 2481      74617465 
 2482 17cc 3D205345 		.ascii	"= SET))\000"
 2482      54292900 
 2483              	.LASF103:
 2484 17d4 5F5F5549 		.ascii	"__UINT_LEAST16_MAX__ 65535\000"
 2484      4E545F4C 
 2484      45415354 
 2484      31365F4D 
 2484      41585F5F 
 2485              	.LASF351:
 2486 17ef 5F4D4143 		.ascii	"_MACHINE__DEFAULT_TYPES_H \000"
 2486      48494E45 
 2486      5F5F4445 
 2486      4641554C 
 2486      545F5459 
 2487              	.LASF288:
 2488 180a 5F5F4841 		.ascii	"__HA_IBIT__ 8\000"
 2488      5F494249 
 2488      545F5F20 
 2488      3800
 2489              	.LASF330:
 2490 1818 5F5F4152 		.ascii	"__ARM_ARCH_ISA_THUMB 1\000"
 2490      4D5F4152 
 2490      43485F49 
 2490      53415F54 
 2490      48554D42 
 2491              	.LASF462:
 2492 182f 55494E54 		.ascii	"UINT16_C(x) __UINT16_C(x)\000"
 2492      31365F43 
 2492      28782920 
 2492      5F5F5549 
 2492      4E543136 
 2493              	.LASF285:
ARM GAS  /var/folders/9j/_txx49hn253_s3mnzkyxlj8m0000gp/T//cc5rAUlf.s 			page 61


 2494 1849 5F5F5554 		.ascii	"__UTQ_FBIT__ 128\000"
 2494      515F4642 
 2494      49545F5F 
 2494      20313238 
 2494      00
 2495              	.LASF86:
 2496 185a 5F5F494E 		.ascii	"__INT16_MAX__ 32767\000"
 2496      5431365F 
 2496      4D41585F 
 2496      5F203332 
 2496      37363700 
 2497              	.LASF498:
 2498 186e 6C6F6E67 		.ascii	"long long int\000"
 2498      206C6F6E 
 2498      6720696E 
 2498      7400
 2499              	.LASF241:
 2500 187c 5F5F4143 		.ascii	"__ACCUM_EPSILON__ 0x1P-15K\000"
 2500      43554D5F 
 2500      45505349 
 2500      4C4F4E5F 
 2500      5F203078 
 2501              	.LASF335:
 2502 1897 5F5F4152 		.ascii	"__ARM_FP 12\000"
 2502      4D5F4650 
 2502      20313200 
 2503              	.LASF403:
 2504 18a3 5F5F696E 		.ascii	"__int_least64_t_defined 1\000"
 2504      745F6C65 
 2504      61737436 
 2504      345F745F 
 2504      64656669 
 2505              	.LASF307:
 2506 18bd 5F5F4743 		.ascii	"__GCC_ATOMIC_BOOL_LOCK_FREE 1\000"
 2506      435F4154 
 2506      4F4D4943 
 2506      5F424F4F 
 2506      4C5F4C4F 
 2507              	.LASF159:
 2508 18db 5F5F4C44 		.ascii	"__LDBL_MAX__ 1.7976931348623157e+308L\000"
 2508      424C5F4D 
 2508      41585F5F 
 2508      20312E37 
 2508      39373639 
 2509              	.LASF13:
 2510 1901 5F5F4649 		.ascii	"__FINITE_MATH_ONLY__ 0\000"
 2510      4E495445 
 2510      5F4D4154 
 2510      485F4F4E 
 2510      4C595F5F 
 2511              	.LASF230:
 2512 1918 5F5F5341 		.ascii	"__SACCUM_MAX__ 0X7FFFP-7HK\000"
 2512      4343554D 
 2512      5F4D4158 
 2512      5F5F2030 
 2512      58374646 
 2513              	.LASF326:
ARM GAS  /var/folders/9j/_txx49hn253_s3mnzkyxlj8m0000gp/T//cc5rAUlf.s 			page 62


 2514 1933 5F5F6172 		.ascii	"__arm__ 1\000"
 2514      6D5F5F20 
 2514      3100
 2515              	.LASF152:
 2516 193d 5F5F4C44 		.ascii	"__LDBL_MANT_DIG__ 53\000"
 2516      424C5F4D 
 2516      414E545F 
 2516      4449475F 
 2516      5F203533 
 2517              	.LASF276:
 2518 1952 5F5F5451 		.ascii	"__TQ_IBIT__ 0\000"
 2518      5F494249 
 2518      545F5F20 
 2518      3000
 2519              	.LASF295:
 2520 1960 5F5F5548 		.ascii	"__UHA_FBIT__ 8\000"
 2520      415F4642 
 2520      49545F5F 
 2520      203800
 2521              	.LASF479:
 2522 196f 5F534246 		.ascii	"_SBF\000"
 2522      00
 2523              	.LASF69:
 2524 1974 5F5F5348 		.ascii	"__SHRT_MAX__ 32767\000"
 2524      52545F4D 
 2524      41585F5F 
 2524      20333237 
 2524      363700
 2525              	.LASF460:
 2526 1987 55494E54 		.ascii	"UINT8_C(x) __UINT8_C(x)\000"
 2526      385F4328 
 2526      7829205F 
 2526      5F55494E 
 2526      54385F43 
 2527              	.LASF105:
 2528 199f 5F5F5549 		.ascii	"__UINT_LEAST32_MAX__ 4294967295UL\000"
 2528      4E545F4C 
 2528      45415354 
 2528      33325F4D 
 2528      41585F5F 
 2529              	.LASF342:
 2530 19c1 5F5F454C 		.ascii	"__ELF__ 1\000"
 2530      465F5F20 
 2530      3100
 2531              	.LASF316:
 2532 19cb 5F5F4743 		.ascii	"__GCC_ATOMIC_TEST_AND_SET_TRUEVAL 1\000"
 2532      435F4154 
 2532      4F4D4943 
 2532      5F544553 
 2532      545F414E 
 2533              	.LASF318:
 2534 19ef 5F5F4743 		.ascii	"__GCC_HAVE_DWARF2_CFI_ASM 1\000"
 2534      435F4841 
 2534      56455F44 
 2534      57415246 
 2534      325F4346 
 2535              	.LASF202:
ARM GAS  /var/folders/9j/_txx49hn253_s3mnzkyxlj8m0000gp/T//cc5rAUlf.s 			page 63


 2536 1a0b 5F5F5546 		.ascii	"__UFRACT_FBIT__ 16\000"
 2536      52414354 
 2536      5F464249 
 2536      545F5F20 
 2536      313600
 2537              	.LASF172:
 2538 1a1e 5F5F4445 		.ascii	"__DEC32_SUBNORMAL_MIN__ 0.000001E-95DF\000"
 2538      4333325F 
 2538      5355424E 
 2538      4F524D41 
 2538      4C5F4D49 
 2539              	.LASF491:
 2540 1a45 41525241 		.ascii	"ARRAY_SIZE(foo) (sizeof(foo)/sizeof(foo[0]))\000"
 2540      595F5349 
 2540      5A452866 
 2540      6F6F2920 
 2540      2873697A 
 2541              	.LASF8:
 2542 1a72 5F5F4154 		.ascii	"__ATOMIC_ACQUIRE 2\000"
 2542      4F4D4943 
 2542      5F414351 
 2542      55495245 
 2542      203200
 2543              	.LASF401:
 2544 1a85 5F5F696E 		.ascii	"__int_least16_t_defined 1\000"
 2544      745F6C65 
 2544      61737431 
 2544      365F745F 
 2544      64656669 
 2545              	.LASF453:
 2546 1a9f 50545244 		.ascii	"PTRDIFF_MAX (__PTRDIFF_MAX__)\000"
 2546      4946465F 
 2546      4D415820 
 2546      285F5F50 
 2546      54524449 
 2547              	.LASF423:
 2548 1abd 494E5433 		.ascii	"INT32_MIN (-__INT32_MAX__ - 1)\000"
 2548      325F4D49 
 2548      4E20282D 
 2548      5F5F494E 
 2548      5433325F 
 2549              	.LASF406:
 2550 1adc 5F5F696E 		.ascii	"__int_fast32_t_defined 1\000"
 2550      745F6661 
 2550      73743332 
 2550      5F745F64 
 2550      6566696E 
 2551              	.LASF0:
 2552 1af5 5F5F5354 		.ascii	"__STDC__ 1\000"
 2552      44435F5F 
 2552      203100
 2553              	.LASF369:
 2554 1b00 5F5F6861 		.ascii	"__have_longlong64 1\000"
 2554      76655F6C 
 2554      6F6E676C 
 2554      6F6E6736 
 2554      34203100 
ARM GAS  /var/folders/9j/_txx49hn253_s3mnzkyxlj8m0000gp/T//cc5rAUlf.s 			page 64


 2555              	.LASF15:
 2556 1b14 5F5F5349 		.ascii	"__SIZEOF_LONG__ 4\000"
 2556      5A454F46 
 2556      5F4C4F4E 
 2556      475F5F20 
 2556      3400
 2557              	.LASF142:
 2558 1b26 5F5F4442 		.ascii	"__DBL_MAX_EXP__ 1024\000"
 2558      4C5F4D41 
 2558      585F4558 
 2558      505F5F20 
 2558      31303234 
 2559              	.LASF451:
 2560 1b3b 5349475F 		.ascii	"SIG_ATOMIC_MIN (-__STDINT_EXP(INT_MAX) - 1)\000"
 2560      41544F4D 
 2560      49435F4D 
 2560      494E2028 
 2560      2D5F5F53 
 2561              	.LASF11:
 2562 1b67 5F5F4154 		.ascii	"__ATOMIC_CONSUME 1\000"
 2562      4F4D4943 
 2562      5F434F4E 
 2562      53554D45 
 2562      203100
 2563              	.LASF402:
 2564 1b7a 5F5F696E 		.ascii	"__int_least32_t_defined 1\000"
 2564      745F6C65 
 2564      61737433 
 2564      325F745F 
 2564      64656669 
 2565              	.LASF438:
 2566 1b94 494E545F 		.ascii	"INT_FAST16_MIN (-__INT_FAST16_MAX__ - 1)\000"
 2566      46415354 
 2566      31365F4D 
 2566      494E2028 
 2566      2D5F5F49 
 2567              	.LASF33:
 2568 1bbd 5F5F5749 		.ascii	"__WINT_TYPE__ unsigned int\000"
 2568      4E545F54 
 2568      5950455F 
 2568      5F20756E 
 2568      7369676E 
 2569              	.LASF117:
 2570 1bd8 5F5F494E 		.ascii	"__INTPTR_MAX__ 2147483647\000"
 2570      54505452 
 2570      5F4D4158 
 2570      5F5F2032 
 2570      31343734 
 2571              	.LASF385:
 2572 1bf2 5F5F494E 		.ascii	"__INT32 \"l\"\000"
 2572      54333220 
 2572      226C2200 
 2573              	.LASF212:
 2574 1bfe 5F5F554C 		.ascii	"__ULFRACT_FBIT__ 32\000"
 2574      46524143 
 2574      545F4642 
 2574      49545F5F 
ARM GAS  /var/folders/9j/_txx49hn253_s3mnzkyxlj8m0000gp/T//cc5rAUlf.s 			page 65


 2574      20333200 
 2575              	.LASF32:
 2576 1c12 5F5F5743 		.ascii	"__WCHAR_TYPE__ unsigned int\000"
 2576      4841525F 
 2576      54595045 
 2576      5F5F2075 
 2576      6E736967 
 2577              	.LASF488:
 2578 1c2e 4D415828 		.ascii	"MAX(a,b) (((a) > (b)) ? (a) : (b))\000"
 2578      612C6229 
 2578      20282828 
 2578      6129203E 
 2578      20286229 
 2579              	.LASF239:
 2580 1c51 5F5F4143 		.ascii	"__ACCUM_MIN__ (-0X1P15K-0X1P15K)\000"
 2580      43554D5F 
 2580      4D494E5F 
 2580      5F20282D 
 2580      30583150 
 2581              	.LASF19:
 2582 1c72 5F5F5349 		.ascii	"__SIZEOF_DOUBLE__ 8\000"
 2582      5A454F46 
 2582      5F444F55 
 2582      424C455F 
 2582      5F203800 
 2583              	.LASF412:
 2584 1c86 494E5438 		.ascii	"INT8_MAX (__INT8_MAX__)\000"
 2584      5F4D4158 
 2584      20285F5F 
 2584      494E5438 
 2584      5F4D4158 
 2585              	.LASF4:
 2586 1c9e 5F5F474E 		.ascii	"__GNUC_PATCHLEVEL__ 3\000"
 2586      55435F50 
 2586      41544348 
 2586      4C455645 
 2586      4C5F5F20 
 2587              	.LASF341:
 2588 1cb4 5F5F4758 		.ascii	"__GXX_TYPEINFO_EQUALITY_INLINE 0\000"
 2588      585F5459 
 2588      5045494E 
 2588      464F5F45 
 2588      5155414C 
 2589              	.LASF200:
 2590 1cd5 5F5F4652 		.ascii	"__FRACT_MAX__ 0X7FFFP-15R\000"
 2590      4143545F 
 2590      4D41585F 
 2590      5F203058 
 2590      37464646 
 2591              	.LASF76:
 2592 1cef 5F5F5749 		.ascii	"__WINT_MIN__ 0U\000"
 2592      4E545F4D 
 2592      494E5F5F 
 2592      20305500 
 2593              	.LASF252:
 2594 1cff 5F5F554C 		.ascii	"__ULACCUM_FBIT__ 32\000"
 2594      41434355 
ARM GAS  /var/folders/9j/_txx49hn253_s3mnzkyxlj8m0000gp/T//cc5rAUlf.s 			page 66


 2594      4D5F4642 
 2594      49545F5F 
 2594      20333200 
 2595              	.LASF410:
 2596 1d13 55494E54 		.ascii	"UINTPTR_MAX (__UINTPTR_MAX__)\000"
 2596      5054525F 
 2596      4D415820 
 2596      285F5F55 
 2596      494E5450 
 2597              	.LASF204:
 2598 1d31 5F5F5546 		.ascii	"__UFRACT_MIN__ 0.0UR\000"
 2598      52414354 
 2598      5F4D494E 
 2598      5F5F2030 
 2598      2E305552 
 2599              	.LASF383:
 2600 1d46 5F5F494E 		.ascii	"__INT8 \"hh\"\000"
 2600      54382022 
 2600      68682200 
 2601              	.LASF464:
 2602 1d52 55494E54 		.ascii	"UINT32_C(x) __UINT32_C(x)\000"
 2602      33325F43 
 2602      28782920 
 2602      5F5F5549 
 2602      4E543332 
 2603              	.LASF198:
 2604 1d6c 5F5F4652 		.ascii	"__FRACT_IBIT__ 0\000"
 2604      4143545F 
 2604      49424954 
 2604      5F5F2030 
 2604      00
 2605              	.LASF160:
 2606 1d7d 5F5F4C44 		.ascii	"__LDBL_MIN__ 2.2250738585072014e-308L\000"
 2606      424C5F4D 
 2606      494E5F5F 
 2606      20322E32 
 2606      32353037 
 2607              	.LASF293:
 2608 1da3 5F5F5441 		.ascii	"__TA_FBIT__ 63\000"
 2608      5F464249 
 2608      545F5F20 
 2608      363300
 2609              	.LASF164:
 2610 1db2 5F5F4C44 		.ascii	"__LDBL_HAS_INFINITY__ 1\000"
 2610      424C5F48 
 2610      41535F49 
 2610      4E46494E 
 2610      4954595F 
 2611              	.LASF120:
 2612 1dca 5F5F4743 		.ascii	"__GCC_IEC_559_COMPLEX 0\000"
 2612      435F4945 
 2612      435F3535 
 2612      395F434F 
 2612      4D504C45 
 2613              	.LASF483:
 2614 1de2 4E554C4C 		.ascii	"NULL ((void *) 0)\000"
 2614      20282876 
ARM GAS  /var/folders/9j/_txx49hn253_s3mnzkyxlj8m0000gp/T//cc5rAUlf.s 			page 67


 2614      6F696420 
 2614      2A292030 
 2614      2900
 2615              	.LASF154:
 2616 1df4 5F5F4C44 		.ascii	"__LDBL_MIN_EXP__ (-1021)\000"
 2616      424C5F4D 
 2616      494E5F45 
 2616      58505F5F 
 2616      20282D31 
 2617              	.LASF222:
 2618 1e0d 5F5F554C 		.ascii	"__ULLFRACT_FBIT__ 64\000"
 2618      4C465241 
 2618      43545F46 
 2618      4249545F 
 2618      5F203634 
 2619              	.LASF320:
 2620 1e22 5F5F5349 		.ascii	"__SIZEOF_WCHAR_T__ 4\000"
 2620      5A454F46 
 2620      5F574348 
 2620      41525F54 
 2620      5F5F2034 
 2621              	.LASF501:
 2622 1e37 5F426F6F 		.ascii	"_Bool\000"
 2622      6C00
 2623              	.LASF132:
 2624 1e3d 5F5F464C 		.ascii	"__FLT_MIN__ 1.1754943508222875e-38F\000"
 2624      545F4D49 
 2624      4E5F5F20 
 2624      312E3137 
 2624      35343934 
 2625              	.LASF28:
 2626 1e61 5F5F464C 		.ascii	"__FLOAT_WORD_ORDER__ __ORDER_LITTLE_ENDIAN__\000"
 2626      4F41545F 
 2626      574F5244 
 2626      5F4F5244 
 2626      45525F5F 
 2627              	.LASF240:
 2628 1e8e 5F5F4143 		.ascii	"__ACCUM_MAX__ 0X7FFFFFFFP-15K\000"
 2628      43554D5F 
 2628      4D41585F 
 2628      5F203058 
 2628      37464646 
 2629              	.LASF203:
 2630 1eac 5F5F5546 		.ascii	"__UFRACT_IBIT__ 0\000"
 2630      52414354 
 2630      5F494249 
 2630      545F5F20 
 2630      3000
 2631              	.LASF166:
 2632 1ebe 5F5F4445 		.ascii	"__DEC32_MANT_DIG__ 7\000"
 2632      4333325F 
 2632      4D414E54 
 2632      5F444947 
 2632      5F5F2037 
 2633              	.LASF84:
 2634 1ed3 5F5F5349 		.ascii	"__SIG_ATOMIC_MIN__ (-__SIG_ATOMIC_MAX__ - 1)\000"
 2634      475F4154 
ARM GAS  /var/folders/9j/_txx49hn253_s3mnzkyxlj8m0000gp/T//cc5rAUlf.s 			page 68


 2634      4F4D4943 
 2634      5F4D494E 
 2634      5F5F2028 
 2635              	.LASF221:
 2636 1f00 5F5F4C4C 		.ascii	"__LLFRACT_EPSILON__ 0x1P-63LLR\000"
 2636      46524143 
 2636      545F4550 
 2636      53494C4F 
 2636      4E5F5F20 
 2637              	.LASF157:
 2638 1f1f 5F5F4C44 		.ascii	"__LDBL_MAX_10_EXP__ 308\000"
 2638      424C5F4D 
 2638      41585F31 
 2638      305F4558 
 2638      505F5F20 
 2639              	.LASF187:
 2640 1f37 5F5F5346 		.ascii	"__SFRACT_FBIT__ 7\000"
 2640      52414354 
 2640      5F464249 
 2640      545F5F20 
 2640      3700
 2641              	.LASF37:
 2642 1f49 5F5F4348 		.ascii	"__CHAR32_TYPE__ long unsigned int\000"
 2642      41523332 
 2642      5F545950 
 2642      455F5F20 
 2642      6C6F6E67 
 2643              	.LASF339:
 2644 1f6b 5F5F4152 		.ascii	"__ARM_PCS 1\000"
 2644      4D5F5043 
 2644      53203100 
 2645              	.LASF270:
 2646 1f77 5F5F4851 		.ascii	"__HQ_IBIT__ 0\000"
 2646      5F494249 
 2646      545F5F20 
 2646      3000
 2647              	.LASF405:
 2648 1f85 5F5F696E 		.ascii	"__int_fast16_t_defined 1\000"
 2648      745F6661 
 2648      73743136 
 2648      5F745F64 
 2648      6566696E 
 2649              	.LASF53:
 2650 1f9e 5F5F5549 		.ascii	"__UINT_LEAST32_TYPE__ long unsigned int\000"
 2650      4E545F4C 
 2650      45415354 
 2650      33325F54 
 2650      5950455F 
 2651              	.LASF273:
 2652 1fc6 5F5F4451 		.ascii	"__DQ_FBIT__ 63\000"
 2652      5F464249 
 2652      545F5F20 
 2652      363300
 2653              	.LASF235:
 2654 1fd5 5F5F5553 		.ascii	"__USACCUM_MAX__ 0XFFFFP-8UHK\000"
 2654      41434355 
 2654      4D5F4D41 
ARM GAS  /var/folders/9j/_txx49hn253_s3mnzkyxlj8m0000gp/T//cc5rAUlf.s 			page 69


 2654      585F5F20 
 2654      30584646 
 2655              	.LASF256:
 2656 1ff2 5F5F554C 		.ascii	"__ULACCUM_EPSILON__ 0x1P-32ULK\000"
 2656      41434355 
 2656      4D5F4550 
 2656      53494C4F 
 2656      4E5F5F20 
 2657              	.LASF89:
 2658 2011 5F5F5549 		.ascii	"__UINT8_MAX__ 255\000"
 2658      4E54385F 
 2658      4D41585F 
 2658      5F203235 
 2658      3500
 2659              	.LASF356:
 2660 2023 5F5F474E 		.ascii	"__GNUC_PREREQ__(ma,mi) __GNUC_PREREQ(ma, mi)\000"
 2660      55435F50 
 2660      52455245 
 2660      515F5F28 
 2660      6D612C6D 
 2661              	.LASF387:
 2662 2050 5F5F4641 		.ascii	"__FAST8 \000"
 2662      53543820 
 2662      00
 2663              	.LASF250:
 2664 2059 5F5F4C41 		.ascii	"__LACCUM_MAX__ 0X7FFFFFFFFFFFFFFFP-31LK\000"
 2664      4343554D 
 2664      5F4D4158 
 2664      5F5F2030 
 2664      58374646 
 2665              	.LASF26:
 2666 2081 5F5F4F52 		.ascii	"__ORDER_PDP_ENDIAN__ 3412\000"
 2666      4445525F 
 2666      5044505F 
 2666      454E4449 
 2666      414E5F5F 
 2667              	.LASF272:
 2668 209b 5F5F5351 		.ascii	"__SQ_IBIT__ 0\000"
 2668      5F494249 
 2668      545F5F20 
 2668      3000
 2669              	.LASF373:
 2670 20a9 63686172 		.ascii	"char\000"
 2670      00
 2671              	.LASF130:
 2672 20ae 5F5F464C 		.ascii	"__FLT_DECIMAL_DIG__ 9\000"
 2672      545F4445 
 2672      43494D41 
 2672      4C5F4449 
 2672      475F5F20 
 2673              	.LASF185:
 2674 20c4 5F5F4445 		.ascii	"__DEC128_EPSILON__ 1E-33DL\000"
 2674      43313238 
 2674      5F455053 
 2674      494C4F4E 
 2674      5F5F2031 
 2675              	.LASF75:
ARM GAS  /var/folders/9j/_txx49hn253_s3mnzkyxlj8m0000gp/T//cc5rAUlf.s 			page 70


 2676 20df 5F5F5749 		.ascii	"__WINT_MAX__ 4294967295U\000"
 2676      4E545F4D 
 2676      41585F5F 
 2676      20343239 
 2676      34393637 
 2677              	.LASF277:
 2678 20f8 5F5F5551 		.ascii	"__UQQ_FBIT__ 8\000"
 2678      515F4642 
 2678      49545F5F 
 2678      203800
 2679              	.LASF68:
 2680 2107 5F5F5343 		.ascii	"__SCHAR_MAX__ 127\000"
 2680      4841525F 
 2680      4D41585F 
 2680      5F203132 
 2680      3700
 2681              	.LASF397:
 2682 2119 5F5F696E 		.ascii	"__int16_t_defined 1\000"
 2682      7431365F 
 2682      745F6465 
 2682      66696E65 
 2682      64203100 
 2683              	.LASF115:
 2684 212d 5F5F5549 		.ascii	"__UINT_FAST32_MAX__ 4294967295U\000"
 2684      4E545F46 
 2684      41535433 
 2684      325F4D41 
 2684      585F5F20 
 2685              	.LASF494:
 2686 214d 73686F72 		.ascii	"short int\000"
 2686      7420696E 
 2686      7400
 2687              	.LASF245:
 2688 2157 5F5F5541 		.ascii	"__UACCUM_MAX__ 0XFFFFFFFFP-16UK\000"
 2688      4343554D 
 2688      5F4D4158 
 2688      5F5F2030 
 2688      58464646 
 2689              	.LASF175:
 2690 2177 5F5F4445 		.ascii	"__DEC64_MAX_EXP__ 385\000"
 2690      4336345F 
 2690      4D41585F 
 2690      4558505F 
 2690      5F203338 
 2691              	.LASF279:
 2692 218d 5F5F5548 		.ascii	"__UHQ_FBIT__ 16\000"
 2692      515F4642 
 2692      49545F5F 
 2692      20313600 
 2693              	.LASF41:
 2694 219d 5F5F494E 		.ascii	"__INT32_TYPE__ long int\000"
 2694      5433325F 
 2694      54595045 
 2694      5F5F206C 
 2694      6F6E6720 
 2695              	.LASF474:
 2696 21b5 5F5F626F 		.ascii	"__bool_true_false_are_defined 1\000"
ARM GAS  /var/folders/9j/_txx49hn253_s3mnzkyxlj8m0000gp/T//cc5rAUlf.s 			page 71


 2696      6F6C5F74 
 2696      7275655F 
 2696      66616C73 
 2696      655F6172 
 2697              	.LASF455:
 2698 21d5 57434841 		.ascii	"WCHAR_MIN (__WCHAR_MIN__)\000"
 2698      525F4D49 
 2698      4E20285F 
 2698      5F574348 
 2698      41525F4D 
 2699              	.LASF496:
 2700 21ef 6C6F6E67 		.ascii	"long int\000"
 2700      20696E74 
 2700      00
 2701              	.LASF398:
 2702 21f8 5F5F696E 		.ascii	"__int32_t_defined 1\000"
 2702      7433325F 
 2702      745F6465 
 2702      66696E65 
 2702      64203100 
 2703              	.LASF156:
 2704 220c 5F5F4C44 		.ascii	"__LDBL_MAX_EXP__ 1024\000"
 2704      424C5F4D 
 2704      41585F45 
 2704      58505F5F 
 2704      20313032 
 2705              	.LASF271:
 2706 2222 5F5F5351 		.ascii	"__SQ_FBIT__ 31\000"
 2706      5F464249 
 2706      545F5F20 
 2706      333100
 2707              	.LASF232:
 2708 2231 5F5F5553 		.ascii	"__USACCUM_FBIT__ 8\000"
 2708      41434355 
 2708      4D5F4642 
 2708      49545F5F 
 2708      203800
 2709              	.LASF305:
 2710 2244 5F5F474E 		.ascii	"__GNUC_GNU_INLINE__ 1\000"
 2710      55435F47 
 2710      4E555F49 
 2710      4E4C494E 
 2710      455F5F20 
 2711              	.LASF182:
 2712 225a 5F5F4445 		.ascii	"__DEC128_MAX_EXP__ 6145\000"
 2712      43313238 
 2712      5F4D4158 
 2712      5F455850 
 2712      5F5F2036 
 2713              	.LASF329:
 2714 2272 5F5F7468 		.ascii	"__thumb__ 1\000"
 2714      756D625F 
 2714      5F203100 
 2715              	.LASF371:
 2716 227e 7369676E 		.ascii	"signed\000"
 2716      656400
 2717              	.LASF165:
ARM GAS  /var/folders/9j/_txx49hn253_s3mnzkyxlj8m0000gp/T//cc5rAUlf.s 			page 72


 2718 2285 5F5F4C44 		.ascii	"__LDBL_HAS_QUIET_NAN__ 1\000"
 2718      424C5F48 
 2718      41535F51 
 2718      55494554 
 2718      5F4E414E 
 2719              	.LASF39:
 2720 229e 5F5F494E 		.ascii	"__INT8_TYPE__ signed char\000"
 2720      54385F54 
 2720      5950455F 
 2720      5F207369 
 2720      676E6564 
 2721              	.LASF304:
 2722 22b8 5F5F5553 		.ascii	"__USER_LABEL_PREFIX__ \000"
 2722      45525F4C 
 2722      4142454C 
 2722      5F505245 
 2722      4649585F 
 2723              	.LASF445:
 2724 22cf 494E545F 		.ascii	"INT_FAST64_MAX (__INT_FAST64_MAX__)\000"
 2724      46415354 
 2724      36345F4D 
 2724      41582028 
 2724      5F5F494E 
 2725              	.LASF275:
 2726 22f3 5F5F5451 		.ascii	"__TQ_FBIT__ 127\000"
 2726      5F464249 
 2726      545F5F20 
 2726      31323700 
 2727              	.LASF196:
 2728 2303 5F5F5553 		.ascii	"__USFRACT_EPSILON__ 0x1P-8UHR\000"
 2728      46524143 
 2728      545F4550 
 2728      53494C4F 
 2728      4E5F5F20 
 2729              	.LASF116:
 2730 2321 5F5F5549 		.ascii	"__UINT_FAST64_MAX__ 18446744073709551615ULL\000"
 2730      4E545F46 
 2730      41535436 
 2730      345F4D41 
 2730      585F5F20 
 2731              	.LASF336:
 2732 234d 5F5F4152 		.ascii	"__ARM_NEON_FP 4\000"
 2732      4D5F4E45 
 2732      4F4E5F46 
 2732      50203400 
 2733              	.LASF476:
 2734 235d 50415241 		.ascii	"PARAM_FUNCTIONALSTATE(State) ((State == DISABLE) ||"
 2734      4D5F4655 
 2734      4E435449 
 2734      4F4E414C 
 2734      53544154 
 2735 2390 20285374 		.ascii	" (State == ENABLE))\000"
 2735      61746520 
 2735      3D3D2045 
 2735      4E41424C 
 2735      45292900 
 2736              	.LASF263:
ARM GAS  /var/folders/9j/_txx49hn253_s3mnzkyxlj8m0000gp/T//cc5rAUlf.s 			page 73


 2737 23a4 5F5F554C 		.ascii	"__ULLACCUM_IBIT__ 32\000"
 2737      4C414343 
 2737      554D5F49 
 2737      4249545F 
 2737      5F203332 
 2738              	.LASF88:
 2739 23b9 5F5F494E 		.ascii	"__INT64_MAX__ 9223372036854775807LL\000"
 2739      5436345F 
 2739      4D41585F 
 2739      5F203932 
 2739      32333337 
 2740              	.LASF384:
 2741 23dd 5F5F494E 		.ascii	"__INT16 \"h\"\000"
 2741      54313620 
 2741      22682200 
 2742              	.LASF192:
 2743 23e9 5F5F5553 		.ascii	"__USFRACT_FBIT__ 8\000"
 2743      46524143 
 2743      545F4642 
 2743      49545F5F 
 2743      203800
 2744              	.LASF283:
 2745 23fc 5F5F5544 		.ascii	"__UDQ_FBIT__ 64\000"
 2745      515F4642 
 2745      49545F5F 
 2745      20363400 
 2746              	.LASF269:
 2747 240c 5F5F4851 		.ascii	"__HQ_FBIT__ 15\000"
 2747      5F464249 
 2747      545F5F20 
 2747      313500
 2748              	.LASF114:
 2749 241b 5F5F5549 		.ascii	"__UINT_FAST16_MAX__ 4294967295U\000"
 2749      4E545F46 
 2749      41535431 
 2749      365F4D41 
 2749      585F5F20 
 2750              	.LASF296:
 2751 243b 5F5F5548 		.ascii	"__UHA_IBIT__ 8\000"
 2751      415F4942 
 2751      49545F5F 
 2751      203800
 2752              	.LASF188:
 2753 244a 5F5F5346 		.ascii	"__SFRACT_IBIT__ 0\000"
 2753      52414354 
 2753      5F494249 
 2753      545F5F20 
 2753      3000
 2754              	.LASF16:
 2755 245c 5F5F5349 		.ascii	"__SIZEOF_LONG_LONG__ 8\000"
 2755      5A454F46 
 2755      5F4C4F4E 
 2755      475F4C4F 
 2755      4E475F5F 
 2756              	.LASF43:
 2757 2473 5F5F5549 		.ascii	"__UINT8_TYPE__ unsigned char\000"
 2757      4E54385F 
ARM GAS  /var/folders/9j/_txx49hn253_s3mnzkyxlj8m0000gp/T//cc5rAUlf.s 			page 74


 2757      54595045 
 2757      5F5F2075 
 2757      6E736967 
 2758              	.LASF439:
 2759 2490 494E545F 		.ascii	"INT_FAST16_MAX (__INT_FAST16_MAX__)\000"
 2759      46415354 
 2759      31365F4D 
 2759      41582028 
 2759      5F5F494E 
 2760              	.LASF430:
 2761 24b4 494E5436 		.ascii	"INT64_MAX (__INT64_MAX__)\000"
 2761      345F4D41 
 2761      5820285F 
 2761      5F494E54 
 2761      36345F4D 
 2762              	.LASF100:
 2763 24ce 5F5F494E 		.ascii	"__INT64_C(c) c ## LL\000"
 2763      5436345F 
 2763      43286329 
 2763      20632023 
 2763      23204C4C 
 2764              	.LASF133:
 2765 24e3 5F5F464C 		.ascii	"__FLT_EPSILON__ 1.1920928955078125e-7F\000"
 2765      545F4550 
 2765      53494C4F 
 2765      4E5F5F20 
 2765      312E3139 
 2766              	.LASF450:
 2767 250a 53495A45 		.ascii	"SIZE_MAX (__SIZE_MAX__)\000"
 2767      5F4D4158 
 2767      20285F5F 
 2767      53495A45 
 2767      5F4D4158 
 2768              	.LASF50:
 2769 2522 5F5F494E 		.ascii	"__INT_LEAST64_TYPE__ long long int\000"
 2769      545F4C45 
 2769      41535436 
 2769      345F5459 
 2769      50455F5F 
 2770              	.LASF468:
 2771 2545 55494E54 		.ascii	"UINTMAX_C(x) __UINTMAX_C(x)\000"
 2771      4D41585F 
 2771      43287829 
 2771      205F5F55 
 2771      494E544D 
 2772              	.LASF45:
 2773 2561 5F5F5549 		.ascii	"__UINT32_TYPE__ long unsigned int\000"
 2773      4E543332 
 2773      5F545950 
 2773      455F5F20 
 2773      6C6F6E67 
 2774              	.LASF155:
 2775 2583 5F5F4C44 		.ascii	"__LDBL_MIN_10_EXP__ (-307)\000"
 2775      424C5F4D 
 2775      494E5F31 
 2775      305F4558 
 2775      505F5F20 
ARM GAS  /var/folders/9j/_txx49hn253_s3mnzkyxlj8m0000gp/T//cc5rAUlf.s 			page 75


 2776              	.LASF29:
 2777 259e 5F5F5349 		.ascii	"__SIZEOF_POINTER__ 4\000"
 2777      5A454F46 
 2777      5F504F49 
 2777      4E544552 
 2777      5F5F2034 
 2778              	.LASF486:
 2779 25b3 45585445 		.ascii	"EXTERN extern\000"
 2779      524E2065 
 2779      78746572 
 2779      6E00
 2780              	.LASF334:
 2781 25c1 5F5F5646 		.ascii	"__VFP_FP__ 1\000"
 2781      505F4650 
 2781      5F5F2031 
 2781      00
 2782              	.LASF338:
 2783 25ce 5F5F4152 		.ascii	"__ARM_ARCH_6M__ 1\000"
 2783      4D5F4152 
 2783      43485F36 
 2783      4D5F5F20 
 2783      3100
 2784              	.LASF287:
 2785 25e0 5F5F4841 		.ascii	"__HA_FBIT__ 7\000"
 2785      5F464249 
 2785      545F5F20 
 2785      3700
 2786              	.LASF229:
 2787 25ee 5F5F5341 		.ascii	"__SACCUM_MIN__ (-0X1P7HK-0X1P7HK)\000"
 2787      4343554D 
 2787      5F4D494E 
 2787      5F5F2028 
 2787      2D305831 
 2788              	.LASF83:
 2789 2610 5F5F5349 		.ascii	"__SIG_ATOMIC_MAX__ 2147483647\000"
 2789      475F4154 
 2789      4F4D4943 
 2789      5F4D4158 
 2789      5F5F2032 
 2790              	.LASF317:
 2791 262e 5F5F4743 		.ascii	"__GCC_ATOMIC_POINTER_LOCK_FREE 1\000"
 2791      435F4154 
 2791      4F4D4943 
 2791      5F504F49 
 2791      4E544552 
 2792              	.LASF108:
 2793 264f 5F5F5549 		.ascii	"__UINT64_C(c) c ## ULL\000"
 2793      4E543634 
 2793      5F432863 
 2793      29206320 
 2793      23232055 
 2794              	.LASF251:
 2795 2666 5F5F4C41 		.ascii	"__LACCUM_EPSILON__ 0x1P-31LK\000"
 2795      4343554D 
 2795      5F455053 
 2795      494C4F4E 
 2795      5F5F2030 
ARM GAS  /var/folders/9j/_txx49hn253_s3mnzkyxlj8m0000gp/T//cc5rAUlf.s 			page 76


 2796              	.LASF191:
 2797 2683 5F5F5346 		.ascii	"__SFRACT_EPSILON__ 0x1P-7HR\000"
 2797      52414354 
 2797      5F455053 
 2797      494C4F4E 
 2797      5F5F2030 
 2798              	.LASF278:
 2799 269f 5F5F5551 		.ascii	"__UQQ_IBIT__ 0\000"
 2799      515F4942 
 2799      49545F5F 
 2799      203000
 2800              	.LASF281:
 2801 26ae 5F5F5553 		.ascii	"__USQ_FBIT__ 32\000"
 2801      515F4642 
 2801      49545F5F 
 2801      20333200 
 2802              	.LASF349:
 2803 26be 5F5F4C50 		.ascii	"__LPC_TYPES_H_ \000"
 2803      435F5459 
 2803      5045535F 
 2803      485F2000 
 2804              	.LASF497:
 2805 26ce 6C6F6E67 		.ascii	"long unsigned int\000"
 2805      20756E73 
 2805      69676E65 
 2805      6420696E 
 2805      7400
 2806              	.LASF118:
 2807 26e0 5F5F5549 		.ascii	"__UINTPTR_MAX__ 4294967295U\000"
 2807      4E545054 
 2807      525F4D41 
 2807      585F5F20 
 2807      34323934 
 2808              	.LASF310:
 2809 26fc 5F5F4743 		.ascii	"__GCC_ATOMIC_CHAR32_T_LOCK_FREE 1\000"
 2809      435F4154 
 2809      4F4D4943 
 2809      5F434841 
 2809      5233325F 
 2810              	.LASF443:
 2811 271e 55494E54 		.ascii	"UINT_FAST32_MAX (__UINT_FAST32_MAX__)\000"
 2811      5F464153 
 2811      5433325F 
 2811      4D415820 
 2811      285F5F55 
 2812              	.LASF367:
 2813 2744 5F535953 		.ascii	"_SYS__INTSUP_H \000"
 2813      5F5F494E 
 2813      54535550 
 2813      5F482000 
 2814              	.LASF90:
 2815 2754 5F5F5549 		.ascii	"__UINT16_MAX__ 65535\000"
 2815      4E543136 
 2815      5F4D4158 
 2815      5F5F2036 
 2815      35353335 
 2816              	.LASF22:
ARM GAS  /var/folders/9j/_txx49hn253_s3mnzkyxlj8m0000gp/T//cc5rAUlf.s 			page 77


 2817 2769 5F5F4348 		.ascii	"__CHAR_BIT__ 8\000"
 2817      41525F42 
 2817      49545F5F 
 2817      203800
 2818              	.LASF81:
 2819 2778 5F5F5549 		.ascii	"__UINTMAX_MAX__ 18446744073709551615ULL\000"
 2819      4E544D41 
 2819      585F4D41 
 2819      585F5F20 
 2819      31383434 
 2820              	.LASF201:
 2821 27a0 5F5F4652 		.ascii	"__FRACT_EPSILON__ 0x1P-15R\000"
 2821      4143545F 
 2821      45505349 
 2821      4C4F4E5F 
 2821      5F203078 
 2822              	.LASF1:
 2823 27bb 5F5F5354 		.ascii	"__STDC_HOSTED__ 1\000"
 2823      44435F48 
 2823      4F535445 
 2823      445F5F20 
 2823      3100
 2824              	.LASF459:
 2825 27cd 494E5438 		.ascii	"INT8_C(x) __INT8_C(x)\000"
 2825      5F432878 
 2825      29205F5F 
 2825      494E5438 
 2825      5F432878 
 2826              	.LASF79:
 2827 27e3 5F5F494E 		.ascii	"__INTMAX_MAX__ 9223372036854775807LL\000"
 2827      544D4158 
 2827      5F4D4158 
 2827      5F5F2039 
 2827      32323333 
 2828              	.LASF437:
 2829 2808 55494E54 		.ascii	"UINT_FAST8_MAX (__UINT_FAST8_MAX__)\000"
 2829      5F464153 
 2829      54385F4D 
 2829      41582028 
 2829      5F5F5549 
 2830              	.LASF503:
 2831 282c 474E5520 		.ascii	"GNU C 4.9.3 20150529 (release) [ARM/embedded-4_9-br"
 2831      4320342E 
 2831      392E3320 
 2831      32303135 
 2831      30353239 
 2832 285f 616E6368 		.ascii	"anch revision 227977] -mcpu=cortex-m0 -mthumb -g -g"
 2832      20726576 
 2832      6973696F 
 2832      6E203232 
 2832      37393737 
 2833 2892 67646233 		.ascii	"gdb3 -O2 -std=gnu90 -ffunction-sections -fdata-sect"
 2833      202D4F32 
 2833      202D7374 
 2833      643D676E 
 2833      75393020 
 2834 28c5 696F6E73 		.ascii	"ions\000"
ARM GAS  /var/folders/9j/_txx49hn253_s3mnzkyxlj8m0000gp/T//cc5rAUlf.s 			page 78


 2834      00
 2835              	.LASF65:
 2836 28ca 5F5F6861 		.ascii	"__has_include(STR) __has_include__(STR)\000"
 2836      735F696E 
 2836      636C7564 
 2836      65285354 
 2836      5229205F 
 2837              	.LASF333:
 2838 28f2 5F5F534F 		.ascii	"__SOFTFP__ 1\000"
 2838      46544650 
 2838      5F5F2031 
 2838      00
 2839              	.LASF112:
 2840 28ff 5F5F494E 		.ascii	"__INT_FAST64_MAX__ 9223372036854775807LL\000"
 2840      545F4641 
 2840      53543634 
 2840      5F4D4158 
 2840      5F5F2039 
 2841              	.LASF368:
 2842 2928 5F5F5354 		.ascii	"__STDINT_EXP(x) __ ##x ##__\000"
 2842      44494E54 
 2842      5F455850 
 2842      28782920 
 2842      5F5F2023 
 2843              	.LASF485:
 2844 2944 53544154 		.ascii	"STATIC static\000"
 2844      49432073 
 2844      74617469 
 2844      6300
 2845              	.LASF315:
 2846 2952 5F5F4743 		.ascii	"__GCC_ATOMIC_LLONG_LOCK_FREE 1\000"
 2846      435F4154 
 2846      4F4D4943 
 2846      5F4C4C4F 
 2846      4E475F4C 
 2847              	.LASF128:
 2848 2971 5F5F464C 		.ascii	"__FLT_MAX_EXP__ 128\000"
 2848      545F4D41 
 2848      585F4558 
 2848      505F5F20 
 2848      31323800 
 2849              	.LASF482:
 2850 2985 5F424954 		.ascii	"_BITMASK(field_width) ( _BIT(field_width) - 1)\000"
 2850      4D41534B 
 2850      28666965 
 2850      6C645F77 
 2850      69647468 
 2851              	.LASF110:
 2852 29b4 5F5F494E 		.ascii	"__INT_FAST16_MAX__ 2147483647\000"
 2852      545F4641 
 2852      53543136 
 2852      5F4D4158 
 2852      5F5F2032 
 2853              	.LASF62:
 2854 29d2 5F5F5549 		.ascii	"__UINT_FAST64_TYPE__ long long unsigned int\000"
 2854      4E545F46 
 2854      41535436 
ARM GAS  /var/folders/9j/_txx49hn253_s3mnzkyxlj8m0000gp/T//cc5rAUlf.s 			page 79


 2854      345F5459 
 2854      50455F5F 
 2855              	.LASF493:
 2856 29fe 756E7369 		.ascii	"unsigned char\000"
 2856      676E6564 
 2856      20636861 
 2856      7200
 2857              	.LASF167:
 2858 2a0c 5F5F4445 		.ascii	"__DEC32_MIN_EXP__ (-94)\000"
 2858      4333325F 
 2858      4D494E5F 
 2858      4558505F 
 2858      5F20282D 
 2859              	.LASF35:
 2860 2a24 5F5F5549 		.ascii	"__UINTMAX_TYPE__ long long unsigned int\000"
 2860      4E544D41 
 2860      585F5459 
 2860      50455F5F 
 2860      206C6F6E 
 2861              	.LASF161:
 2862 2a4c 5F5F4C44 		.ascii	"__LDBL_EPSILON__ 2.2204460492503131e-16L\000"
 2862      424C5F45 
 2862      5053494C 
 2862      4F4E5F5F 
 2862      20322E32 
 2863              	.LASF63:
 2864 2a75 5F5F494E 		.ascii	"__INTPTR_TYPE__ int\000"
 2864      54505452 
 2864      5F545950 
 2864      455F5F20 
 2864      696E7400 
 2865              	.LASF478:
 2866 2a89 5F424954 		.ascii	"_BIT(n) (1 << (n))\000"
 2866      286E2920 
 2866      2831203C 
 2866      3C20286E 
 2866      292900
 2867              	.LASF234:
 2868 2a9c 5F5F5553 		.ascii	"__USACCUM_MIN__ 0.0UHK\000"
 2868      41434355 
 2868      4D5F4D49 
 2868      4E5F5F20 
 2868      302E3055 
 2869              	.LASF446:
 2870 2ab3 55494E54 		.ascii	"UINT_FAST64_MAX (__UINT_FAST64_MAX__)\000"
 2870      5F464153 
 2870      5436345F 
 2870      4D415820 
 2870      285F5F55 
 2871              	.LASF193:
 2872 2ad9 5F5F5553 		.ascii	"__USFRACT_IBIT__ 0\000"
 2872      46524143 
 2872      545F4942 
 2872      49545F5F 
 2872      203000
 2873              	.LASF422:
 2874 2aec 55494E54 		.ascii	"UINT_LEAST16_MAX (__UINT_LEAST16_MAX__)\000"
ARM GAS  /var/folders/9j/_txx49hn253_s3mnzkyxlj8m0000gp/T//cc5rAUlf.s 			page 80


 2874      5F4C4541 
 2874      53543136 
 2874      5F4D4158 
 2874      20285F5F 
 2875              	.LASF61:
 2876 2b14 5F5F5549 		.ascii	"__UINT_FAST32_TYPE__ unsigned int\000"
 2876      4E545F46 
 2876      41535433 
 2876      325F5459 
 2876      50455F5F 
 2877              	.LASF393:
 2878 2b36 5F5F4C45 		.ascii	"__LEAST32 \"l\"\000"
 2878      41535433 
 2878      3220226C 
 2878      2200
 2879              	.LASF274:
 2880 2b44 5F5F4451 		.ascii	"__DQ_IBIT__ 0\000"
 2880      5F494249 
 2880      545F5F20 
 2880      3000
 2881              	.LASF123:
 2882 2b52 5F5F464C 		.ascii	"__FLT_RADIX__ 2\000"
 2882      545F5241 
 2882      4449585F 
 2882      5F203200 
 2883              	.LASF109:
 2884 2b62 5F5F494E 		.ascii	"__INT_FAST8_MAX__ 2147483647\000"
 2884      545F4641 
 2884      5354385F 
 2884      4D41585F 
 2884      5F203231 
 2885              	.LASF30:
 2886 2b7f 5F5F5349 		.ascii	"__SIZE_TYPE__ unsigned int\000"
 2886      5A455F54 
 2886      5950455F 
 2886      5F20756E 
 2886      7369676E 
 2887              	.LASF262:
 2888 2b9a 5F5F554C 		.ascii	"__ULLACCUM_FBIT__ 32\000"
 2888      4C414343 
 2888      554D5F46 
 2888      4249545F 
 2888      5F203332 
 2889              	.LASF146:
 2890 2baf 5F5F4442 		.ascii	"__DBL_MIN__ ((double)2.2250738585072014e-308L)\000"
 2890      4C5F4D49 
 2890      4E5F5F20 
 2890      2828646F 
 2890      75626C65 
 2891              	.LASF366:
 2892 2bde 5F5F4558 		.ascii	"__EXP\000"
 2892      5000
 2893              	.LASF71:
 2894 2be4 5F5F4C4F 		.ascii	"__LONG_MAX__ 2147483647L\000"
 2894      4E475F4D 
 2894      41585F5F 
 2894      20323134 
ARM GAS  /var/folders/9j/_txx49hn253_s3mnzkyxlj8m0000gp/T//cc5rAUlf.s 			page 81


 2894      37343833 
 2895              	.LASF312:
 2896 2bfd 5F5F4743 		.ascii	"__GCC_ATOMIC_SHORT_LOCK_FREE 1\000"
 2896      435F4154 
 2896      4F4D4943 
 2896      5F53484F 
 2896      52545F4C 
 2897              	.LASF362:
 2898 2c1c 5F5F5F69 		.ascii	"___int_least8_t_defined 1\000"
 2898      6E745F6C 
 2898      65617374 
 2898      385F745F 
 2898      64656669 
 2899              	.LASF442:
 2900 2c36 494E545F 		.ascii	"INT_FAST32_MAX (__INT_FAST32_MAX__)\000"
 2900      46415354 
 2900      33325F4D 
 2900      41582028 
 2900      5F5F494E 
 2901              	.LASF377:
 2902 2c5a 756E7369 		.ascii	"unsigned +0\000"
 2902      676E6564 
 2902      202B3000 
 2903              	.LASF127:
 2904 2c66 5F5F464C 		.ascii	"__FLT_MIN_10_EXP__ (-37)\000"
 2904      545F4D49 
 2904      4E5F3130 
 2904      5F455850 
 2904      5F5F2028 
 2905              	.LASF74:
 2906 2c7f 5F5F5743 		.ascii	"__WCHAR_MIN__ 0U\000"
 2906      4841525F 
 2906      4D494E5F 
 2906      5F203055 
 2906      00
 2907              	.LASF150:
 2908 2c90 5F5F4442 		.ascii	"__DBL_HAS_INFINITY__ 1\000"
 2908      4C5F4841 
 2908      535F494E 
 2908      46494E49 
 2908      54595F5F 
 2909              	.LASF57:
 2910 2ca7 5F5F494E 		.ascii	"__INT_FAST32_TYPE__ int\000"
 2910      545F4641 
 2910      53543332 
 2910      5F545950 
 2910      455F5F20 
 2911              	.LASF228:
 2912 2cbf 5F5F5341 		.ascii	"__SACCUM_IBIT__ 8\000"
 2912      4343554D 
 2912      5F494249 
 2912      545F5F20 
 2912      3800
 2913              	.LASF137:
 2914 2cd1 5F5F464C 		.ascii	"__FLT_HAS_QUIET_NAN__ 1\000"
 2914      545F4841 
 2914      535F5155 
ARM GAS  /var/folders/9j/_txx49hn253_s3mnzkyxlj8m0000gp/T//cc5rAUlf.s 			page 82


 2914      4945545F 
 2914      4E414E5F 
 2915              	.LASF14:
 2916 2ce9 5F5F5349 		.ascii	"__SIZEOF_INT__ 4\000"
 2916      5A454F46 
 2916      5F494E54 
 2916      5F5F2034 
 2916      00
 2917              	.LASF34:
 2918 2cfa 5F5F494E 		.ascii	"__INTMAX_TYPE__ long long int\000"
 2918      544D4158 
 2918      5F545950 
 2918      455F5F20 
 2918      6C6F6E67 
 2919              	.LASF382:
 2920 2d18 5F494E54 		.ascii	"_INT32_EQ_LONG \000"
 2920      33325F45 
 2920      515F4C4F 
 2920      4E472000 
 2921              	.LASF80:
 2922 2d28 5F5F494E 		.ascii	"__INTMAX_C(c) c ## LL\000"
 2922      544D4158 
 2922      5F432863 
 2922      29206320 
 2922      2323204C 
 2923              	.LASF408:
 2924 2d3e 494E5450 		.ascii	"INTPTR_MIN (-__INTPTR_MAX__ - 1)\000"
 2924      54525F4D 
 2924      494E2028 
 2924      2D5F5F49 
 2924      4E545054 
 2925              	.LASF328:
 2926 2d5f 5F5F4150 		.ascii	"__APCS_32__ 1\000"
 2926      43535F33 
 2926      325F5F20 
 2926      3100
 2927              	.LASF429:
 2928 2d6d 494E5436 		.ascii	"INT64_MIN (-__INT64_MAX__ - 1)\000"
 2928      345F4D49 
 2928      4E20282D 
 2928      5F5F494E 
 2928      5436345F 
 2929              	.LASF467:
 2930 2d8c 494E544D 		.ascii	"INTMAX_C(x) __INTMAX_C(x)\000"
 2930      41585F43 
 2930      28782920 
 2930      5F5F494E 
 2930      544D4158 
 2931              	.LASF148:
 2932 2da6 5F5F4442 		.ascii	"__DBL_DENORM_MIN__ ((double)4.9406564584124654e-324"
 2932      4C5F4445 
 2932      4E4F524D 
 2932      5F4D494E 
 2932      5F5F2028 
 2933 2dd9 4C2900   		.ascii	"L)\000"
 2934              	.LASF46:
 2935 2ddc 5F5F5549 		.ascii	"__UINT64_TYPE__ long long unsigned int\000"
ARM GAS  /var/folders/9j/_txx49hn253_s3mnzkyxlj8m0000gp/T//cc5rAUlf.s 			page 83


 2935      4E543634 
 2935      5F545950 
 2935      455F5F20 
 2935      6C6F6E67 
 2936              	.LASF447:
 2937 2e03 494E544D 		.ascii	"INTMAX_MAX (__INTMAX_MAX__)\000"
 2937      41585F4D 
 2937      41582028 
 2937      5F5F494E 
 2937      544D4158 
 2938              	.LASF480:
 2939 2e1f 5F534246 		.ascii	"_SBF(f,v) ((v) << (f))\000"
 2939      28662C76 
 2939      29202828 
 2939      7629203C 
 2939      3C202866 
 2940              	.LASF143:
 2941 2e36 5F5F4442 		.ascii	"__DBL_MAX_10_EXP__ 308\000"
 2941      4C5F4D41 
 2941      585F3130 
 2941      5F455850 
 2941      5F5F2033 
 2942              	.LASF495:
 2943 2e4d 73686F72 		.ascii	"short unsigned int\000"
 2943      7420756E 
 2943      7369676E 
 2943      65642069 
 2943      6E7400
 2944              	.LASF502:
 2945 2e60 62656769 		.ascii	"begin\000"
 2945      6E00
 2946              	.LASF294:
 2947 2e66 5F5F5441 		.ascii	"__TA_IBIT__ 64\000"
 2947      5F494249 
 2947      545F5F20 
 2947      363400
 2948              	.LASF345:
 2949 2e75 434F5245 		.ascii	"CORE_M0 1\000"
 2949      5F4D3020 
 2949      3100
 2950              	.LASF407:
 2951 2e7f 5F5F696E 		.ascii	"__int_fast64_t_defined 1\000"
 2951      745F6661 
 2951      73743634 
 2951      5F745F64 
 2951      6566696E 
 2952              	.LASF52:
 2953 2e98 5F5F5549 		.ascii	"__UINT_LEAST16_TYPE__ short unsigned int\000"
 2953      4E545F4C 
 2953      45415354 
 2953      31365F54 
 2953      5950455F 
 2954              	.LASF436:
 2955 2ec1 494E545F 		.ascii	"INT_FAST8_MAX (__INT_FAST8_MAX__)\000"
 2955      46415354 
 2955      385F4D41 
 2955      5820285F 
ARM GAS  /var/folders/9j/_txx49hn253_s3mnzkyxlj8m0000gp/T//cc5rAUlf.s 			page 84


 2955      5F494E54 
 2956              	.LASF454:
 2957 2ee3 50545244 		.ascii	"PTRDIFF_MIN (-PTRDIFF_MAX - 1)\000"
 2957      4946465F 
 2957      4D494E20 
 2957      282D5054 
 2957      52444946 
 2958              	.LASF126:
 2959 2f02 5F5F464C 		.ascii	"__FLT_MIN_EXP__ (-125)\000"
 2959      545F4D49 
 2959      4E5F4558 
 2959      505F5F20 
 2959      282D3132 
 2960              	.LASF184:
 2961 2f19 5F5F4445 		.ascii	"__DEC128_MAX__ 9.999999999999999999999999999999999E"
 2961      43313238 
 2961      5F4D4158 
 2961      5F5F2039 
 2961      2E393939 
 2962 2f4c 36313434 		.ascii	"6144DL\000"
 2962      444C00
 2963              	.LASF457:
 2964 2f53 57494E54 		.ascii	"WINT_MAX (__WINT_MAX__)\000"
 2964      5F4D4158 
 2964      20285F5F 
 2964      57494E54 
 2964      5F4D4158 
 2965              	.LASF158:
 2966 2f6b 5F5F4445 		.ascii	"__DECIMAL_DIG__ 17\000"
 2966      43494D41 
 2966      4C5F4449 
 2966      475F5F20 
 2966      313700
 2967              	.LASF98:
 2968 2f7e 5F5F494E 		.ascii	"__INT32_C(c) c ## L\000"
 2968      5433325F 
 2968      43286329 
 2968      20632023 
 2968      23204C00 
 2969              	.LASF417:
 2970 2f92 494E5431 		.ascii	"INT16_MIN (-__INT16_MAX__ - 1)\000"
 2970      365F4D49 
 2970      4E20282D 
 2970      5F5F494E 
 2970      5431365F 
 2971              	.LASF31:
 2972 2fb1 5F5F5054 		.ascii	"__PTRDIFF_TYPE__ int\000"
 2972      52444946 
 2972      465F5459 
 2972      50455F5F 
 2972      20696E74 
 2973              	.LASF149:
 2974 2fc6 5F5F4442 		.ascii	"__DBL_HAS_DENORM__ 1\000"
 2974      4C5F4841 
 2974      535F4445 
 2974      4E4F524D 
 2974      5F5F2031 
ARM GAS  /var/folders/9j/_txx49hn253_s3mnzkyxlj8m0000gp/T//cc5rAUlf.s 			page 85


 2975              	.LASF215:
 2976 2fdb 5F5F554C 		.ascii	"__ULFRACT_MAX__ 0XFFFFFFFFP-32ULR\000"
 2976      46524143 
 2976      545F4D41 
 2976      585F5F20 
 2976      30584646 
 2977              	.LASF413:
 2978 2ffd 55494E54 		.ascii	"UINT8_MAX (__UINT8_MAX__)\000"
 2978      385F4D41 
 2978      5820285F 
 2978      5F55494E 
 2978      54385F4D 
 2979              	.LASF302:
 2980 3017 5F5F5554 		.ascii	"__UTA_IBIT__ 64\000"
 2980      415F4942 
 2980      49545F5F 
 2980      20363400 
 2981              	.LASF411:
 2982 3027 494E5438 		.ascii	"INT8_MIN (-__INT8_MAX__ - 1)\000"
 2982      5F4D494E 
 2982      20282D5F 
 2982      5F494E54 
 2982      385F4D41 
 2983              	.LASF267:
 2984 3044 5F5F5151 		.ascii	"__QQ_FBIT__ 7\000"
 2984      5F464249 
 2984      545F5F20 
 2984      3700
 2985              	.LASF210:
 2986 3052 5F5F4C46 		.ascii	"__LFRACT_MAX__ 0X7FFFFFFFP-31LR\000"
 2986      52414354 
 2986      5F4D4158 
 2986      5F5F2030 
 2986      58374646 
 2987              	.LASF10:
 2988 3072 5F5F4154 		.ascii	"__ATOMIC_ACQ_REL 4\000"
 2988      4F4D4943 
 2988      5F414351 
 2988      5F52454C 
 2988      203400
 2989              	.LASF347:
 2990 3085 43414E5F 		.ascii	"CAN_ARCHITECTURE_ARM 1\000"
 2990      41524348 
 2990      49544543 
 2990      54555245 
 2990      5F41524D 
 2991              	.LASF299:
 2992 309c 5F5F5544 		.ascii	"__UDA_FBIT__ 32\000"
 2992      415F4642 
 2992      49545F5F 
 2992      20333200 
 2993              	.LASF473:
 2994 30ac 66616C73 		.ascii	"false 0\000"
 2994      65203000 
 2995              	.LASF424:
 2996 30b4 494E5433 		.ascii	"INT32_MAX (__INT32_MAX__)\000"
 2996      325F4D41 
ARM GAS  /var/folders/9j/_txx49hn253_s3mnzkyxlj8m0000gp/T//cc5rAUlf.s 			page 86


 2996      5820285F 
 2996      5F494E54 
 2996      33325F4D 
 2997              	.LASF257:
 2998 30ce 5F5F4C4C 		.ascii	"__LLACCUM_FBIT__ 31\000"
 2998      41434355 
 2998      4D5F4642 
 2998      49545F5F 
 2998      20333100 
 2999              	.LASF176:
 3000 30e2 5F5F4445 		.ascii	"__DEC64_MIN__ 1E-383DD\000"
 3000      4336345F 
 3000      4D494E5F 
 3000      5F203145 
 3000      2D333833 
 3001              	.LASF381:
 3002 30f9 6C6F6E67 		.ascii	"long +4\000"
 3002      202B3400 
 3003              	.LASF400:
 3004 3101 5F5F696E 		.ascii	"__int_least8_t_defined 1\000"
 3004      745F6C65 
 3004      61737438 
 3004      5F745F64 
 3004      6566696E 
 3005              	.LASF319:
 3006 311a 5F5F5052 		.ascii	"__PRAGMA_REDEFINE_EXTNAME 1\000"
 3006      41474D41 
 3006      5F524544 
 3006      4546494E 
 3006      455F4558 
 3007              	.LASF38:
 3008 3136 5F5F5349 		.ascii	"__SIG_ATOMIC_TYPE__ int\000"
 3008      475F4154 
 3008      4F4D4943 
 3008      5F545950 
 3008      455F5F20 
 3009              	.LASF219:
 3010 314e 5F5F4C4C 		.ascii	"__LLFRACT_MIN__ (-0.5LLR-0.5LLR)\000"
 3010      46524143 
 3010      545F4D49 
 3010      4E5F5F20 
 3010      282D302E 
 3011              	.LASF226:
 3012 316f 5F5F554C 		.ascii	"__ULLFRACT_EPSILON__ 0x1P-64ULLR\000"
 3012      4C465241 
 3012      43545F45 
 3012      5053494C 
 3012      4F4E5F5F 
 3013              	.LASF163:
 3014 3190 5F5F4C44 		.ascii	"__LDBL_HAS_DENORM__ 1\000"
 3014      424C5F48 
 3014      41535F44 
 3014      454E4F52 
 3014      4D5F5F20 
 3015              	.LASF266:
 3016 31a6 5F5F554C 		.ascii	"__ULLACCUM_EPSILON__ 0x1P-32ULLK\000"
 3016      4C414343 
ARM GAS  /var/folders/9j/_txx49hn253_s3mnzkyxlj8m0000gp/T//cc5rAUlf.s 			page 87


 3016      554D5F45 
 3016      5053494C 
 3016      4F4E5F5F 
 3017              	.LASF173:
 3018 31c7 5F5F4445 		.ascii	"__DEC64_MANT_DIG__ 16\000"
 3018      4336345F 
 3018      4D414E54 
 3018      5F444947 
 3018      5F5F2031 
 3019              	.LASF119:
 3020 31dd 5F5F4743 		.ascii	"__GCC_IEC_559 0\000"
 3020      435F4945 
 3020      435F3535 
 3020      39203000 
 3021              	.LASF242:
 3022 31ed 5F5F5541 		.ascii	"__UACCUM_FBIT__ 16\000"
 3022      4343554D 
 3022      5F464249 
 3022      545F5F20 
 3022      313600
 3023              	.LASF144:
 3024 3200 5F5F4442 		.ascii	"__DBL_DECIMAL_DIG__ 17\000"
 3024      4C5F4445 
 3024      43494D41 
 3024      4C5F4449 
 3024      475F5F20 
 3025              		.ident	"GCC: (GNU Tools for ARM Embedded Processors) 4.9.3 20150529 (release) [ARM/embedded-4_9-br
ARM GAS  /var/folders/9j/_txx49hn253_s3mnzkyxlj8m0000gp/T//cc5rAUlf.s 			page 88


DEFINED SYMBOLS
                            *ABS*:0000000000000000 util.c
/var/folders/9j/_txx49hn253_s3mnzkyxlj8m0000gp/T//cc5rAUlf.s:71     .text.__reverse:0000000000000000 $t
/var/folders/9j/_txx49hn253_s3mnzkyxlj8m0000gp/T//cc5rAUlf.s:76     .text.__reverse:0000000000000000 __reverse
                     .debug_frame:0000000000000010 $d
                           .group:0000000000000000 wm4.0.5c92e6baa7608753a1db66ee6c2bbf90
                           .group:0000000000000000 wm4.features.h.22.2e382148a0560adabf236cddd4e880f4
                           .group:0000000000000000 wm4._default_types.h.15.933e8edd27a65e0b69af4a865eb623d2
                           .group:0000000000000000 wm4._intsup.h.10.35a45952db64d30146faa63a55c20c1c
                           .group:0000000000000000 wm4._stdint.h.10.f76354baea1c7088202064e6f3d4f5e3
                           .group:0000000000000000 wm4.stdint.h.23.373a9d32a9e4c2e88fd347156532d281
                           .group:0000000000000000 wm4.stdbool.h.29.1c9ee6859ce8145f7838a4f2549ccec2
                           .group:0000000000000000 wm4.lpc_types.h.63.860ba57581a002825766a7c2ac00d549

NO UNDEFINED SYMBOLS
